ARM GAS  /var/folders/jw/jcj5j9_530958b2rm5vp9wn00000gn/T//ccDSMjf4.s 			page 1


   1              		.cpu cortex-m4
   2              		.eabi_attribute 27, 1
   3              		.eabi_attribute 28, 1
   4              		.eabi_attribute 20, 1
   5              		.eabi_attribute 21, 1
   6              		.eabi_attribute 23, 3
   7              		.eabi_attribute 24, 1
   8              		.eabi_attribute 25, 1
   9              		.eabi_attribute 26, 1
  10              		.eabi_attribute 30, 1
  11              		.eabi_attribute 34, 1
  12              		.eabi_attribute 18, 4
  13              		.file	"stm32f3xx_ll_usb.c"
  14              		.text
  15              	.Ltext0:
  16              		.cfi_sections	.debug_frame
  17              		.section	.text.USB_CoreInit,"ax",%progbits
  18              		.align	1
  19              		.global	USB_CoreInit
  20              		.arch armv7e-m
  21              		.syntax unified
  22              		.thumb
  23              		.thumb_func
  24              		.fpu fpv4-sp-d16
  26              	USB_CoreInit:
  27              	.LVL0:
  28              	.LFB130:
  29              		.file 1 "Drivers/STM32F3xx_HAL_Driver/Src/stm32f3xx_ll_usb.c"
   1:Drivers/STM32F3xx_HAL_Driver/Src/stm32f3xx_ll_usb.c **** /**
   2:Drivers/STM32F3xx_HAL_Driver/Src/stm32f3xx_ll_usb.c ****   ******************************************************************************
   3:Drivers/STM32F3xx_HAL_Driver/Src/stm32f3xx_ll_usb.c ****   * @file    stm32f3xx_ll_usb.c
   4:Drivers/STM32F3xx_HAL_Driver/Src/stm32f3xx_ll_usb.c ****   * @author  MCD Application Team
   5:Drivers/STM32F3xx_HAL_Driver/Src/stm32f3xx_ll_usb.c ****   * @brief   USB Low Layer HAL module driver.
   6:Drivers/STM32F3xx_HAL_Driver/Src/stm32f3xx_ll_usb.c ****   *
   7:Drivers/STM32F3xx_HAL_Driver/Src/stm32f3xx_ll_usb.c ****   *          This file provides firmware functions to manage the following
   8:Drivers/STM32F3xx_HAL_Driver/Src/stm32f3xx_ll_usb.c ****   *          functionalities of the USB Peripheral Controller:
   9:Drivers/STM32F3xx_HAL_Driver/Src/stm32f3xx_ll_usb.c ****   *           + Initialization/de-initialization functions
  10:Drivers/STM32F3xx_HAL_Driver/Src/stm32f3xx_ll_usb.c ****   *           + I/O operation functions
  11:Drivers/STM32F3xx_HAL_Driver/Src/stm32f3xx_ll_usb.c ****   *           + Peripheral Control functions
  12:Drivers/STM32F3xx_HAL_Driver/Src/stm32f3xx_ll_usb.c ****   *           + Peripheral State functions
  13:Drivers/STM32F3xx_HAL_Driver/Src/stm32f3xx_ll_usb.c ****   *
  14:Drivers/STM32F3xx_HAL_Driver/Src/stm32f3xx_ll_usb.c ****   @verbatim
  15:Drivers/STM32F3xx_HAL_Driver/Src/stm32f3xx_ll_usb.c ****   ==============================================================================
  16:Drivers/STM32F3xx_HAL_Driver/Src/stm32f3xx_ll_usb.c ****                     ##### How to use this driver #####
  17:Drivers/STM32F3xx_HAL_Driver/Src/stm32f3xx_ll_usb.c ****   ==============================================================================
  18:Drivers/STM32F3xx_HAL_Driver/Src/stm32f3xx_ll_usb.c ****     [..]
  19:Drivers/STM32F3xx_HAL_Driver/Src/stm32f3xx_ll_usb.c ****       (#) Fill parameters of Init structure in USB_OTG_CfgTypeDef structure.
  20:Drivers/STM32F3xx_HAL_Driver/Src/stm32f3xx_ll_usb.c **** 
  21:Drivers/STM32F3xx_HAL_Driver/Src/stm32f3xx_ll_usb.c ****       (#) Call USB_CoreInit() API to initialize the USB Core peripheral.
  22:Drivers/STM32F3xx_HAL_Driver/Src/stm32f3xx_ll_usb.c **** 
  23:Drivers/STM32F3xx_HAL_Driver/Src/stm32f3xx_ll_usb.c ****       (#) The upper HAL HCD/PCD driver will call the right routines for its internal processes.
  24:Drivers/STM32F3xx_HAL_Driver/Src/stm32f3xx_ll_usb.c **** 
  25:Drivers/STM32F3xx_HAL_Driver/Src/stm32f3xx_ll_usb.c ****   @endverbatim
  26:Drivers/STM32F3xx_HAL_Driver/Src/stm32f3xx_ll_usb.c ****   ******************************************************************************
  27:Drivers/STM32F3xx_HAL_Driver/Src/stm32f3xx_ll_usb.c ****   * @attention
  28:Drivers/STM32F3xx_HAL_Driver/Src/stm32f3xx_ll_usb.c ****   *
  29:Drivers/STM32F3xx_HAL_Driver/Src/stm32f3xx_ll_usb.c ****   * <h2><center>&copy; Copyright (c) 2016 STMicroelectronics.
ARM GAS  /var/folders/jw/jcj5j9_530958b2rm5vp9wn00000gn/T//ccDSMjf4.s 			page 2


  30:Drivers/STM32F3xx_HAL_Driver/Src/stm32f3xx_ll_usb.c ****   * All rights reserved.</center></h2>
  31:Drivers/STM32F3xx_HAL_Driver/Src/stm32f3xx_ll_usb.c ****   *
  32:Drivers/STM32F3xx_HAL_Driver/Src/stm32f3xx_ll_usb.c ****   * This software component is licensed by ST under BSD 3-Clause license,
  33:Drivers/STM32F3xx_HAL_Driver/Src/stm32f3xx_ll_usb.c ****   * the "License"; You may not use this file except in compliance with the
  34:Drivers/STM32F3xx_HAL_Driver/Src/stm32f3xx_ll_usb.c ****   * License. You may obtain a copy of the License at:
  35:Drivers/STM32F3xx_HAL_Driver/Src/stm32f3xx_ll_usb.c ****   *                        opensource.org/licenses/BSD-3-Clause
  36:Drivers/STM32F3xx_HAL_Driver/Src/stm32f3xx_ll_usb.c ****   *
  37:Drivers/STM32F3xx_HAL_Driver/Src/stm32f3xx_ll_usb.c ****   ******************************************************************************
  38:Drivers/STM32F3xx_HAL_Driver/Src/stm32f3xx_ll_usb.c ****   */
  39:Drivers/STM32F3xx_HAL_Driver/Src/stm32f3xx_ll_usb.c **** 
  40:Drivers/STM32F3xx_HAL_Driver/Src/stm32f3xx_ll_usb.c **** /* Includes ------------------------------------------------------------------*/
  41:Drivers/STM32F3xx_HAL_Driver/Src/stm32f3xx_ll_usb.c **** #include "stm32f3xx_hal.h"
  42:Drivers/STM32F3xx_HAL_Driver/Src/stm32f3xx_ll_usb.c **** 
  43:Drivers/STM32F3xx_HAL_Driver/Src/stm32f3xx_ll_usb.c **** /** @addtogroup STM32F3xx_LL_USB_DRIVER
  44:Drivers/STM32F3xx_HAL_Driver/Src/stm32f3xx_ll_usb.c ****   * @{
  45:Drivers/STM32F3xx_HAL_Driver/Src/stm32f3xx_ll_usb.c ****   */
  46:Drivers/STM32F3xx_HAL_Driver/Src/stm32f3xx_ll_usb.c **** 
  47:Drivers/STM32F3xx_HAL_Driver/Src/stm32f3xx_ll_usb.c **** #if defined (HAL_PCD_MODULE_ENABLED) || defined (HAL_HCD_MODULE_ENABLED)
  48:Drivers/STM32F3xx_HAL_Driver/Src/stm32f3xx_ll_usb.c **** #if defined (USB)
  49:Drivers/STM32F3xx_HAL_Driver/Src/stm32f3xx_ll_usb.c **** /* Private typedef -----------------------------------------------------------*/
  50:Drivers/STM32F3xx_HAL_Driver/Src/stm32f3xx_ll_usb.c **** /* Private define ------------------------------------------------------------*/
  51:Drivers/STM32F3xx_HAL_Driver/Src/stm32f3xx_ll_usb.c **** /* Private macro -------------------------------------------------------------*/
  52:Drivers/STM32F3xx_HAL_Driver/Src/stm32f3xx_ll_usb.c **** /* Private variables ---------------------------------------------------------*/
  53:Drivers/STM32F3xx_HAL_Driver/Src/stm32f3xx_ll_usb.c **** /* Private function prototypes -----------------------------------------------*/
  54:Drivers/STM32F3xx_HAL_Driver/Src/stm32f3xx_ll_usb.c **** /* Private functions ---------------------------------------------------------*/
  55:Drivers/STM32F3xx_HAL_Driver/Src/stm32f3xx_ll_usb.c **** 
  56:Drivers/STM32F3xx_HAL_Driver/Src/stm32f3xx_ll_usb.c **** 
  57:Drivers/STM32F3xx_HAL_Driver/Src/stm32f3xx_ll_usb.c **** /**
  58:Drivers/STM32F3xx_HAL_Driver/Src/stm32f3xx_ll_usb.c ****   * @brief  Initializes the USB Core
  59:Drivers/STM32F3xx_HAL_Driver/Src/stm32f3xx_ll_usb.c ****   * @param  USBx USB Instance
  60:Drivers/STM32F3xx_HAL_Driver/Src/stm32f3xx_ll_usb.c ****   * @param  cfg pointer to a USB_CfgTypeDef structure that contains
  61:Drivers/STM32F3xx_HAL_Driver/Src/stm32f3xx_ll_usb.c ****   *         the configuration information for the specified USBx peripheral.
  62:Drivers/STM32F3xx_HAL_Driver/Src/stm32f3xx_ll_usb.c ****   * @retval HAL status
  63:Drivers/STM32F3xx_HAL_Driver/Src/stm32f3xx_ll_usb.c ****   */
  64:Drivers/STM32F3xx_HAL_Driver/Src/stm32f3xx_ll_usb.c **** HAL_StatusTypeDef USB_CoreInit(USB_TypeDef *USBx, USB_CfgTypeDef cfg)
  65:Drivers/STM32F3xx_HAL_Driver/Src/stm32f3xx_ll_usb.c **** {
  30              		.loc 1 65 1 view -0
  31              		.cfi_startproc
  32              		@ args = 36, pretend = 16, frame = 0
  33              		@ frame_needed = 0, uses_anonymous_args = 0
  34              		@ link register save eliminated.
  35              		.loc 1 65 1 is_stmt 0 view .LVU1
  36 0000 84B0     		sub	sp, sp, #16
  37              	.LCFI0:
  38              		.cfi_def_cfa_offset 16
  39 0002 01A8     		add	r0, sp, #4
  40              	.LVL1:
  41              		.loc 1 65 1 view .LVU2
  42 0004 80E80E00 		stm	r0, {r1, r2, r3}
  66:Drivers/STM32F3xx_HAL_Driver/Src/stm32f3xx_ll_usb.c ****   /* Prevent unused argument(s) compilation warning */
  67:Drivers/STM32F3xx_HAL_Driver/Src/stm32f3xx_ll_usb.c ****   UNUSED(USBx);
  43              		.loc 1 67 3 is_stmt 1 view .LVU3
  68:Drivers/STM32F3xx_HAL_Driver/Src/stm32f3xx_ll_usb.c ****   UNUSED(cfg);
  44              		.loc 1 68 3 view .LVU4
  69:Drivers/STM32F3xx_HAL_Driver/Src/stm32f3xx_ll_usb.c **** 
  70:Drivers/STM32F3xx_HAL_Driver/Src/stm32f3xx_ll_usb.c ****   /* NOTE : - This function is not required by USB Device FS peripheral, it is used
  71:Drivers/STM32F3xx_HAL_Driver/Src/stm32f3xx_ll_usb.c ****               only by USB OTG FS peripheral.
ARM GAS  /var/folders/jw/jcj5j9_530958b2rm5vp9wn00000gn/T//ccDSMjf4.s 			page 3


  72:Drivers/STM32F3xx_HAL_Driver/Src/stm32f3xx_ll_usb.c ****             - This function is added to ensure compatibility across platforms.
  73:Drivers/STM32F3xx_HAL_Driver/Src/stm32f3xx_ll_usb.c ****    */
  74:Drivers/STM32F3xx_HAL_Driver/Src/stm32f3xx_ll_usb.c **** 
  75:Drivers/STM32F3xx_HAL_Driver/Src/stm32f3xx_ll_usb.c ****   return HAL_OK;
  45              		.loc 1 75 3 view .LVU5
  76:Drivers/STM32F3xx_HAL_Driver/Src/stm32f3xx_ll_usb.c **** }
  46              		.loc 1 76 1 is_stmt 0 view .LVU6
  47 0008 0020     		movs	r0, #0
  48 000a 04B0     		add	sp, sp, #16
  49              	.LCFI1:
  50              		.cfi_def_cfa_offset 0
  51 000c 7047     		bx	lr
  52              		.cfi_endproc
  53              	.LFE130:
  55              		.section	.text.USB_EnableGlobalInt,"ax",%progbits
  56              		.align	1
  57              		.global	USB_EnableGlobalInt
  58              		.syntax unified
  59              		.thumb
  60              		.thumb_func
  61              		.fpu fpv4-sp-d16
  63              	USB_EnableGlobalInt:
  64              	.LVL2:
  65              	.LFB131:
  77:Drivers/STM32F3xx_HAL_Driver/Src/stm32f3xx_ll_usb.c **** 
  78:Drivers/STM32F3xx_HAL_Driver/Src/stm32f3xx_ll_usb.c **** /**
  79:Drivers/STM32F3xx_HAL_Driver/Src/stm32f3xx_ll_usb.c ****   * @brief  USB_EnableGlobalInt
  80:Drivers/STM32F3xx_HAL_Driver/Src/stm32f3xx_ll_usb.c ****   *         Enables the controller's Global Int in the AHB Config reg
  81:Drivers/STM32F3xx_HAL_Driver/Src/stm32f3xx_ll_usb.c ****   * @param  USBx Selected device
  82:Drivers/STM32F3xx_HAL_Driver/Src/stm32f3xx_ll_usb.c ****   * @retval HAL status
  83:Drivers/STM32F3xx_HAL_Driver/Src/stm32f3xx_ll_usb.c ****   */
  84:Drivers/STM32F3xx_HAL_Driver/Src/stm32f3xx_ll_usb.c **** HAL_StatusTypeDef USB_EnableGlobalInt(USB_TypeDef *USBx)
  85:Drivers/STM32F3xx_HAL_Driver/Src/stm32f3xx_ll_usb.c **** {
  66              		.loc 1 85 1 is_stmt 1 view -0
  67              		.cfi_startproc
  68              		@ args = 0, pretend = 0, frame = 0
  69              		@ frame_needed = 0, uses_anonymous_args = 0
  70              		@ link register save eliminated.
  71              		.loc 1 85 1 is_stmt 0 view .LVU8
  72 0000 0346     		mov	r3, r0
  86:Drivers/STM32F3xx_HAL_Driver/Src/stm32f3xx_ll_usb.c ****   uint32_t winterruptmask;
  73              		.loc 1 86 3 is_stmt 1 view .LVU9
  87:Drivers/STM32F3xx_HAL_Driver/Src/stm32f3xx_ll_usb.c **** 
  88:Drivers/STM32F3xx_HAL_Driver/Src/stm32f3xx_ll_usb.c ****   /* Clear pending interrupts */
  89:Drivers/STM32F3xx_HAL_Driver/Src/stm32f3xx_ll_usb.c ****   USBx->ISTR = 0U;
  74              		.loc 1 89 3 view .LVU10
  75              		.loc 1 89 14 is_stmt 0 view .LVU11
  76 0002 0020     		movs	r0, #0
  77              	.LVL3:
  78              		.loc 1 89 14 view .LVU12
  79 0004 A3F84400 		strh	r0, [r3, #68]	@ movhi
  90:Drivers/STM32F3xx_HAL_Driver/Src/stm32f3xx_ll_usb.c **** 
  91:Drivers/STM32F3xx_HAL_Driver/Src/stm32f3xx_ll_usb.c ****   /* Set winterruptmask variable */
  92:Drivers/STM32F3xx_HAL_Driver/Src/stm32f3xx_ll_usb.c ****   winterruptmask = USB_CNTR_CTRM  | USB_CNTR_WKUPM |
  80              		.loc 1 92 3 is_stmt 1 view .LVU13
  81              	.LVL4:
  93:Drivers/STM32F3xx_HAL_Driver/Src/stm32f3xx_ll_usb.c ****                    USB_CNTR_SUSPM | USB_CNTR_ERRM |
ARM GAS  /var/folders/jw/jcj5j9_530958b2rm5vp9wn00000gn/T//ccDSMjf4.s 			page 4


  94:Drivers/STM32F3xx_HAL_Driver/Src/stm32f3xx_ll_usb.c ****                    USB_CNTR_SOFM | USB_CNTR_ESOFM |
  95:Drivers/STM32F3xx_HAL_Driver/Src/stm32f3xx_ll_usb.c ****                    USB_CNTR_RESETM;
  96:Drivers/STM32F3xx_HAL_Driver/Src/stm32f3xx_ll_usb.c **** 
  97:Drivers/STM32F3xx_HAL_Driver/Src/stm32f3xx_ll_usb.c ****   /* Set interrupt mask */
  98:Drivers/STM32F3xx_HAL_Driver/Src/stm32f3xx_ll_usb.c ****   USBx->CNTR = (uint16_t)winterruptmask;
  82              		.loc 1 98 3 view .LVU14
  83              		.loc 1 98 14 is_stmt 0 view .LVU15
  84 0008 4FF43F42 		mov	r2, #48896
  85 000c A3F84020 		strh	r2, [r3, #64]	@ movhi
  99:Drivers/STM32F3xx_HAL_Driver/Src/stm32f3xx_ll_usb.c **** 
 100:Drivers/STM32F3xx_HAL_Driver/Src/stm32f3xx_ll_usb.c ****   return HAL_OK;
  86              		.loc 1 100 3 is_stmt 1 view .LVU16
 101:Drivers/STM32F3xx_HAL_Driver/Src/stm32f3xx_ll_usb.c **** }
  87              		.loc 1 101 1 is_stmt 0 view .LVU17
  88 0010 7047     		bx	lr
  89              		.cfi_endproc
  90              	.LFE131:
  92              		.section	.text.USB_DisableGlobalInt,"ax",%progbits
  93              		.align	1
  94              		.global	USB_DisableGlobalInt
  95              		.syntax unified
  96              		.thumb
  97              		.thumb_func
  98              		.fpu fpv4-sp-d16
 100              	USB_DisableGlobalInt:
 101              	.LVL5:
 102              	.LFB132:
 102:Drivers/STM32F3xx_HAL_Driver/Src/stm32f3xx_ll_usb.c **** 
 103:Drivers/STM32F3xx_HAL_Driver/Src/stm32f3xx_ll_usb.c **** /**
 104:Drivers/STM32F3xx_HAL_Driver/Src/stm32f3xx_ll_usb.c ****   * @brief  USB_DisableGlobalInt
 105:Drivers/STM32F3xx_HAL_Driver/Src/stm32f3xx_ll_usb.c ****   *         Disable the controller's Global Int in the AHB Config reg
 106:Drivers/STM32F3xx_HAL_Driver/Src/stm32f3xx_ll_usb.c ****   * @param  USBx Selected device
 107:Drivers/STM32F3xx_HAL_Driver/Src/stm32f3xx_ll_usb.c ****   * @retval HAL status
 108:Drivers/STM32F3xx_HAL_Driver/Src/stm32f3xx_ll_usb.c ****   */
 109:Drivers/STM32F3xx_HAL_Driver/Src/stm32f3xx_ll_usb.c **** HAL_StatusTypeDef USB_DisableGlobalInt(USB_TypeDef *USBx)
 110:Drivers/STM32F3xx_HAL_Driver/Src/stm32f3xx_ll_usb.c **** {
 103              		.loc 1 110 1 is_stmt 1 view -0
 104              		.cfi_startproc
 105              		@ args = 0, pretend = 0, frame = 0
 106              		@ frame_needed = 0, uses_anonymous_args = 0
 107              		@ link register save eliminated.
 111:Drivers/STM32F3xx_HAL_Driver/Src/stm32f3xx_ll_usb.c ****   uint32_t winterruptmask;
 108              		.loc 1 111 3 view .LVU19
 112:Drivers/STM32F3xx_HAL_Driver/Src/stm32f3xx_ll_usb.c **** 
 113:Drivers/STM32F3xx_HAL_Driver/Src/stm32f3xx_ll_usb.c ****   /* Set winterruptmask variable */
 114:Drivers/STM32F3xx_HAL_Driver/Src/stm32f3xx_ll_usb.c ****   winterruptmask = USB_CNTR_CTRM  | USB_CNTR_WKUPM |
 109              		.loc 1 114 3 view .LVU20
 115:Drivers/STM32F3xx_HAL_Driver/Src/stm32f3xx_ll_usb.c ****                    USB_CNTR_SUSPM | USB_CNTR_ERRM |
 116:Drivers/STM32F3xx_HAL_Driver/Src/stm32f3xx_ll_usb.c ****                    USB_CNTR_SOFM | USB_CNTR_ESOFM |
 117:Drivers/STM32F3xx_HAL_Driver/Src/stm32f3xx_ll_usb.c ****                    USB_CNTR_RESETM;
 118:Drivers/STM32F3xx_HAL_Driver/Src/stm32f3xx_ll_usb.c **** 
 119:Drivers/STM32F3xx_HAL_Driver/Src/stm32f3xx_ll_usb.c ****   /* Clear interrupt mask */
 120:Drivers/STM32F3xx_HAL_Driver/Src/stm32f3xx_ll_usb.c ****   USBx->CNTR &= (uint16_t)(~winterruptmask);
 110              		.loc 1 120 3 view .LVU21
 111              		.loc 1 120 14 is_stmt 0 view .LVU22
 112 0000 B0F84030 		ldrh	r3, [r0, #64]
 113 0004 23F47C53 		bic	r3, r3, #16128
ARM GAS  /var/folders/jw/jcj5j9_530958b2rm5vp9wn00000gn/T//ccDSMjf4.s 			page 5


 114 0008 5B04     		lsls	r3, r3, #17
 115 000a 5B0C     		lsrs	r3, r3, #17
 116 000c A0F84030 		strh	r3, [r0, #64]	@ movhi
 121:Drivers/STM32F3xx_HAL_Driver/Src/stm32f3xx_ll_usb.c **** 
 122:Drivers/STM32F3xx_HAL_Driver/Src/stm32f3xx_ll_usb.c ****   return HAL_OK;
 117              		.loc 1 122 3 is_stmt 1 view .LVU23
 123:Drivers/STM32F3xx_HAL_Driver/Src/stm32f3xx_ll_usb.c **** }
 118              		.loc 1 123 1 is_stmt 0 view .LVU24
 119 0010 0020     		movs	r0, #0
 120              	.LVL6:
 121              		.loc 1 123 1 view .LVU25
 122 0012 7047     		bx	lr
 123              		.cfi_endproc
 124              	.LFE132:
 126              		.section	.text.USB_SetCurrentMode,"ax",%progbits
 127              		.align	1
 128              		.global	USB_SetCurrentMode
 129              		.syntax unified
 130              		.thumb
 131              		.thumb_func
 132              		.fpu fpv4-sp-d16
 134              	USB_SetCurrentMode:
 135              	.LVL7:
 136              	.LFB133:
 124:Drivers/STM32F3xx_HAL_Driver/Src/stm32f3xx_ll_usb.c **** 
 125:Drivers/STM32F3xx_HAL_Driver/Src/stm32f3xx_ll_usb.c **** /**
 126:Drivers/STM32F3xx_HAL_Driver/Src/stm32f3xx_ll_usb.c ****   * @brief  USB_SetCurrentMode Set functional mode
 127:Drivers/STM32F3xx_HAL_Driver/Src/stm32f3xx_ll_usb.c ****   * @param  USBx Selected device
 128:Drivers/STM32F3xx_HAL_Driver/Src/stm32f3xx_ll_usb.c ****   * @param  mode current core mode
 129:Drivers/STM32F3xx_HAL_Driver/Src/stm32f3xx_ll_usb.c ****   *          This parameter can be one of the these values:
 130:Drivers/STM32F3xx_HAL_Driver/Src/stm32f3xx_ll_usb.c ****   *            @arg USB_DEVICE_MODE Peripheral mode
 131:Drivers/STM32F3xx_HAL_Driver/Src/stm32f3xx_ll_usb.c ****   * @retval HAL status
 132:Drivers/STM32F3xx_HAL_Driver/Src/stm32f3xx_ll_usb.c ****   */
 133:Drivers/STM32F3xx_HAL_Driver/Src/stm32f3xx_ll_usb.c **** HAL_StatusTypeDef USB_SetCurrentMode(USB_TypeDef *USBx, USB_ModeTypeDef mode)
 134:Drivers/STM32F3xx_HAL_Driver/Src/stm32f3xx_ll_usb.c **** {
 137              		.loc 1 134 1 is_stmt 1 view -0
 138              		.cfi_startproc
 139              		@ args = 0, pretend = 0, frame = 0
 140              		@ frame_needed = 0, uses_anonymous_args = 0
 141              		@ link register save eliminated.
 135:Drivers/STM32F3xx_HAL_Driver/Src/stm32f3xx_ll_usb.c ****   /* Prevent unused argument(s) compilation warning */
 136:Drivers/STM32F3xx_HAL_Driver/Src/stm32f3xx_ll_usb.c ****   UNUSED(USBx);
 142              		.loc 1 136 3 view .LVU27
 137:Drivers/STM32F3xx_HAL_Driver/Src/stm32f3xx_ll_usb.c ****   UNUSED(mode);
 143              		.loc 1 137 3 view .LVU28
 138:Drivers/STM32F3xx_HAL_Driver/Src/stm32f3xx_ll_usb.c **** 
 139:Drivers/STM32F3xx_HAL_Driver/Src/stm32f3xx_ll_usb.c ****   /* NOTE : - This function is not required by USB Device FS peripheral, it is used
 140:Drivers/STM32F3xx_HAL_Driver/Src/stm32f3xx_ll_usb.c ****               only by USB OTG FS peripheral.
 141:Drivers/STM32F3xx_HAL_Driver/Src/stm32f3xx_ll_usb.c ****             - This function is added to ensure compatibility across platforms.
 142:Drivers/STM32F3xx_HAL_Driver/Src/stm32f3xx_ll_usb.c ****    */
 143:Drivers/STM32F3xx_HAL_Driver/Src/stm32f3xx_ll_usb.c ****   return HAL_OK;
 144              		.loc 1 143 3 view .LVU29
 144:Drivers/STM32F3xx_HAL_Driver/Src/stm32f3xx_ll_usb.c **** }
 145              		.loc 1 144 1 is_stmt 0 view .LVU30
 146 0000 0020     		movs	r0, #0
 147              	.LVL8:
 148              		.loc 1 144 1 view .LVU31
ARM GAS  /var/folders/jw/jcj5j9_530958b2rm5vp9wn00000gn/T//ccDSMjf4.s 			page 6


 149 0002 7047     		bx	lr
 150              		.cfi_endproc
 151              	.LFE133:
 153              		.section	.text.USB_DevInit,"ax",%progbits
 154              		.align	1
 155              		.global	USB_DevInit
 156              		.syntax unified
 157              		.thumb
 158              		.thumb_func
 159              		.fpu fpv4-sp-d16
 161              	USB_DevInit:
 162              	.LVL9:
 163              	.LFB134:
 145:Drivers/STM32F3xx_HAL_Driver/Src/stm32f3xx_ll_usb.c **** 
 146:Drivers/STM32F3xx_HAL_Driver/Src/stm32f3xx_ll_usb.c **** /**
 147:Drivers/STM32F3xx_HAL_Driver/Src/stm32f3xx_ll_usb.c ****   * @brief  USB_DevInit Initializes the USB controller registers
 148:Drivers/STM32F3xx_HAL_Driver/Src/stm32f3xx_ll_usb.c ****   *         for device mode
 149:Drivers/STM32F3xx_HAL_Driver/Src/stm32f3xx_ll_usb.c ****   * @param  USBx Selected device
 150:Drivers/STM32F3xx_HAL_Driver/Src/stm32f3xx_ll_usb.c ****   * @param  cfg  pointer to a USB_CfgTypeDef structure that contains
 151:Drivers/STM32F3xx_HAL_Driver/Src/stm32f3xx_ll_usb.c ****   *         the configuration information for the specified USBx peripheral.
 152:Drivers/STM32F3xx_HAL_Driver/Src/stm32f3xx_ll_usb.c ****   * @retval HAL status
 153:Drivers/STM32F3xx_HAL_Driver/Src/stm32f3xx_ll_usb.c ****   */
 154:Drivers/STM32F3xx_HAL_Driver/Src/stm32f3xx_ll_usb.c **** HAL_StatusTypeDef USB_DevInit(USB_TypeDef *USBx, USB_CfgTypeDef cfg)
 155:Drivers/STM32F3xx_HAL_Driver/Src/stm32f3xx_ll_usb.c **** {
 164              		.loc 1 155 1 is_stmt 1 view -0
 165              		.cfi_startproc
 166              		@ args = 36, pretend = 16, frame = 0
 167              		@ frame_needed = 0, uses_anonymous_args = 0
 168              		@ link register save eliminated.
 169              		.loc 1 155 1 is_stmt 0 view .LVU33
 170 0000 84B0     		sub	sp, sp, #16
 171              	.LCFI2:
 172              		.cfi_def_cfa_offset 16
 173 0002 10B4     		push	{r4}
 174              	.LCFI3:
 175              		.cfi_def_cfa_offset 20
 176              		.cfi_offset 4, -20
 177 0004 0446     		mov	r4, r0
 178 0006 02A8     		add	r0, sp, #8
 179              	.LVL10:
 180              		.loc 1 155 1 view .LVU34
 181 0008 80E80E00 		stm	r0, {r1, r2, r3}
 156:Drivers/STM32F3xx_HAL_Driver/Src/stm32f3xx_ll_usb.c ****   /* Prevent unused argument(s) compilation warning */
 157:Drivers/STM32F3xx_HAL_Driver/Src/stm32f3xx_ll_usb.c ****   UNUSED(cfg);
 182              		.loc 1 157 3 is_stmt 1 view .LVU35
 158:Drivers/STM32F3xx_HAL_Driver/Src/stm32f3xx_ll_usb.c **** 
 159:Drivers/STM32F3xx_HAL_Driver/Src/stm32f3xx_ll_usb.c ****   /* Init Device */
 160:Drivers/STM32F3xx_HAL_Driver/Src/stm32f3xx_ll_usb.c ****   /* CNTR_FRES = 1 */
 161:Drivers/STM32F3xx_HAL_Driver/Src/stm32f3xx_ll_usb.c ****   USBx->CNTR = (uint16_t)USB_CNTR_FRES;
 183              		.loc 1 161 3 view .LVU36
 184              		.loc 1 161 14 is_stmt 0 view .LVU37
 185 000c 0123     		movs	r3, #1
 186 000e A4F84030 		strh	r3, [r4, #64]	@ movhi
 162:Drivers/STM32F3xx_HAL_Driver/Src/stm32f3xx_ll_usb.c **** 
 163:Drivers/STM32F3xx_HAL_Driver/Src/stm32f3xx_ll_usb.c ****   /* CNTR_FRES = 0 */
 164:Drivers/STM32F3xx_HAL_Driver/Src/stm32f3xx_ll_usb.c ****   USBx->CNTR = 0U;
 187              		.loc 1 164 3 is_stmt 1 view .LVU38
ARM GAS  /var/folders/jw/jcj5j9_530958b2rm5vp9wn00000gn/T//ccDSMjf4.s 			page 7


 188              		.loc 1 164 14 is_stmt 0 view .LVU39
 189 0012 0020     		movs	r0, #0
 190 0014 A4F84000 		strh	r0, [r4, #64]	@ movhi
 165:Drivers/STM32F3xx_HAL_Driver/Src/stm32f3xx_ll_usb.c **** 
 166:Drivers/STM32F3xx_HAL_Driver/Src/stm32f3xx_ll_usb.c ****   /* Clear pending interrupts */
 167:Drivers/STM32F3xx_HAL_Driver/Src/stm32f3xx_ll_usb.c ****   USBx->ISTR = 0U;
 191              		.loc 1 167 3 is_stmt 1 view .LVU40
 192              		.loc 1 167 14 is_stmt 0 view .LVU41
 193 0018 A4F84400 		strh	r0, [r4, #68]	@ movhi
 168:Drivers/STM32F3xx_HAL_Driver/Src/stm32f3xx_ll_usb.c **** 
 169:Drivers/STM32F3xx_HAL_Driver/Src/stm32f3xx_ll_usb.c ****   /*Set Btable Address*/
 170:Drivers/STM32F3xx_HAL_Driver/Src/stm32f3xx_ll_usb.c ****   USBx->BTABLE = BTABLE_ADDRESS;
 194              		.loc 1 170 3 is_stmt 1 view .LVU42
 195              		.loc 1 170 16 is_stmt 0 view .LVU43
 196 001c A4F85000 		strh	r0, [r4, #80]	@ movhi
 171:Drivers/STM32F3xx_HAL_Driver/Src/stm32f3xx_ll_usb.c **** 
 172:Drivers/STM32F3xx_HAL_Driver/Src/stm32f3xx_ll_usb.c ****   return HAL_OK;
 197              		.loc 1 172 3 is_stmt 1 view .LVU44
 173:Drivers/STM32F3xx_HAL_Driver/Src/stm32f3xx_ll_usb.c **** }
 198              		.loc 1 173 1 is_stmt 0 view .LVU45
 199 0020 5DF8044B 		ldr	r4, [sp], #4
 200              	.LCFI4:
 201              		.cfi_restore 4
 202              		.cfi_def_cfa_offset 16
 203              	.LVL11:
 204              		.loc 1 173 1 view .LVU46
 205 0024 04B0     		add	sp, sp, #16
 206              	.LCFI5:
 207              		.cfi_def_cfa_offset 0
 208 0026 7047     		bx	lr
 209              		.cfi_endproc
 210              	.LFE134:
 212              		.section	.text.USB_ActivateEndpoint,"ax",%progbits
 213              		.align	1
 214              		.global	USB_ActivateEndpoint
 215              		.syntax unified
 216              		.thumb
 217              		.thumb_func
 218              		.fpu fpv4-sp-d16
 220              	USB_ActivateEndpoint:
 221              	.LVL12:
 222              	.LFB135:
 174:Drivers/STM32F3xx_HAL_Driver/Src/stm32f3xx_ll_usb.c **** 
 175:Drivers/STM32F3xx_HAL_Driver/Src/stm32f3xx_ll_usb.c **** /**
 176:Drivers/STM32F3xx_HAL_Driver/Src/stm32f3xx_ll_usb.c ****   * @brief  Activate and configure an endpoint
 177:Drivers/STM32F3xx_HAL_Driver/Src/stm32f3xx_ll_usb.c ****   * @param  USBx Selected device
 178:Drivers/STM32F3xx_HAL_Driver/Src/stm32f3xx_ll_usb.c ****   * @param  ep pointer to endpoint structure
 179:Drivers/STM32F3xx_HAL_Driver/Src/stm32f3xx_ll_usb.c ****   * @retval HAL status
 180:Drivers/STM32F3xx_HAL_Driver/Src/stm32f3xx_ll_usb.c ****   */
 181:Drivers/STM32F3xx_HAL_Driver/Src/stm32f3xx_ll_usb.c **** HAL_StatusTypeDef USB_ActivateEndpoint(USB_TypeDef *USBx, USB_EPTypeDef *ep)
 182:Drivers/STM32F3xx_HAL_Driver/Src/stm32f3xx_ll_usb.c **** {
 223              		.loc 1 182 1 is_stmt 1 view -0
 224              		.cfi_startproc
 225              		@ args = 0, pretend = 0, frame = 0
 226              		@ frame_needed = 0, uses_anonymous_args = 0
 227              		@ link register save eliminated.
 228              		.loc 1 182 1 is_stmt 0 view .LVU48
ARM GAS  /var/folders/jw/jcj5j9_530958b2rm5vp9wn00000gn/T//ccDSMjf4.s 			page 8


 229 0000 30B4     		push	{r4, r5}
 230              	.LCFI6:
 231              		.cfi_def_cfa_offset 8
 232              		.cfi_offset 4, -8
 233              		.cfi_offset 5, -4
 234 0002 0346     		mov	r3, r0
 183:Drivers/STM32F3xx_HAL_Driver/Src/stm32f3xx_ll_usb.c ****   HAL_StatusTypeDef ret = HAL_OK;
 235              		.loc 1 183 3 is_stmt 1 view .LVU49
 236              	.LVL13:
 184:Drivers/STM32F3xx_HAL_Driver/Src/stm32f3xx_ll_usb.c ****   uint16_t wEpRegVal;
 237              		.loc 1 184 3 view .LVU50
 185:Drivers/STM32F3xx_HAL_Driver/Src/stm32f3xx_ll_usb.c **** 
 186:Drivers/STM32F3xx_HAL_Driver/Src/stm32f3xx_ll_usb.c ****   wEpRegVal = PCD_GET_ENDPOINT(USBx, ep->num) & USB_EP_T_MASK;
 238              		.loc 1 186 3 view .LVU51
 239              		.loc 1 186 15 is_stmt 0 view .LVU52
 240 0004 0A78     		ldrb	r2, [r1]	@ zero_extendqisi2
 241              		.loc 1 186 47 view .LVU53
 242 0006 30F82240 		ldrh	r4, [r0, r2, lsl #2]
 243 000a A4B2     		uxth	r4, r4
 244              		.loc 1 186 13 view .LVU54
 245 000c 24F4EC44 		bic	r4, r4, #30208
 246 0010 24F07004 		bic	r4, r4, #112
 247 0014 A4B2     		uxth	r4, r4
 248              	.LVL14:
 187:Drivers/STM32F3xx_HAL_Driver/Src/stm32f3xx_ll_usb.c **** 
 188:Drivers/STM32F3xx_HAL_Driver/Src/stm32f3xx_ll_usb.c ****   /* initialize Endpoint */
 189:Drivers/STM32F3xx_HAL_Driver/Src/stm32f3xx_ll_usb.c ****   switch (ep->type)
 249              		.loc 1 189 3 is_stmt 1 view .LVU55
 250              		.loc 1 189 13 is_stmt 0 view .LVU56
 251 0016 C878     		ldrb	r0, [r1, #3]	@ zero_extendqisi2
 252              	.LVL15:
 253              		.loc 1 189 13 view .LVU57
 254 0018 0328     		cmp	r0, #3
 255 001a 5BD8     		bhi	.L33
 256 001c DFE800F0 		tbb	[pc, r0]
 257              	.L11:
 258 0020 4F       		.byte	(.L14-.L11)/2
 259 0021 56       		.byte	(.L13-.L11)/2
 260 0022 02       		.byte	(.L12-.L11)/2
 261 0023 52       		.byte	(.L10-.L11)/2
 262              		.p2align 1
 263              	.L12:
 264 0024 0020     		movs	r0, #0
 265              	.L9:
 266              	.LVL16:
 190:Drivers/STM32F3xx_HAL_Driver/Src/stm32f3xx_ll_usb.c ****   {
 191:Drivers/STM32F3xx_HAL_Driver/Src/stm32f3xx_ll_usb.c ****     case EP_TYPE_CTRL:
 192:Drivers/STM32F3xx_HAL_Driver/Src/stm32f3xx_ll_usb.c ****       wEpRegVal |= USB_EP_CONTROL;
 193:Drivers/STM32F3xx_HAL_Driver/Src/stm32f3xx_ll_usb.c ****       break;
 194:Drivers/STM32F3xx_HAL_Driver/Src/stm32f3xx_ll_usb.c **** 
 195:Drivers/STM32F3xx_HAL_Driver/Src/stm32f3xx_ll_usb.c ****     case EP_TYPE_BULK:
 196:Drivers/STM32F3xx_HAL_Driver/Src/stm32f3xx_ll_usb.c ****       wEpRegVal |= USB_EP_BULK;
 197:Drivers/STM32F3xx_HAL_Driver/Src/stm32f3xx_ll_usb.c ****       break;
 198:Drivers/STM32F3xx_HAL_Driver/Src/stm32f3xx_ll_usb.c **** 
 199:Drivers/STM32F3xx_HAL_Driver/Src/stm32f3xx_ll_usb.c ****     case EP_TYPE_INTR:
 200:Drivers/STM32F3xx_HAL_Driver/Src/stm32f3xx_ll_usb.c ****       wEpRegVal |= USB_EP_INTERRUPT;
 201:Drivers/STM32F3xx_HAL_Driver/Src/stm32f3xx_ll_usb.c ****       break;
ARM GAS  /var/folders/jw/jcj5j9_530958b2rm5vp9wn00000gn/T//ccDSMjf4.s 			page 9


 202:Drivers/STM32F3xx_HAL_Driver/Src/stm32f3xx_ll_usb.c **** 
 203:Drivers/STM32F3xx_HAL_Driver/Src/stm32f3xx_ll_usb.c ****     case EP_TYPE_ISOC:
 204:Drivers/STM32F3xx_HAL_Driver/Src/stm32f3xx_ll_usb.c ****       wEpRegVal |= USB_EP_ISOCHRONOUS;
 205:Drivers/STM32F3xx_HAL_Driver/Src/stm32f3xx_ll_usb.c ****       break;
 206:Drivers/STM32F3xx_HAL_Driver/Src/stm32f3xx_ll_usb.c **** 
 207:Drivers/STM32F3xx_HAL_Driver/Src/stm32f3xx_ll_usb.c ****     default:
 208:Drivers/STM32F3xx_HAL_Driver/Src/stm32f3xx_ll_usb.c ****       ret = HAL_ERROR;
 209:Drivers/STM32F3xx_HAL_Driver/Src/stm32f3xx_ll_usb.c ****       break;
 210:Drivers/STM32F3xx_HAL_Driver/Src/stm32f3xx_ll_usb.c ****   }
 211:Drivers/STM32F3xx_HAL_Driver/Src/stm32f3xx_ll_usb.c **** 
 212:Drivers/STM32F3xx_HAL_Driver/Src/stm32f3xx_ll_usb.c ****   PCD_SET_ENDPOINT(USBx, ep->num, (wEpRegVal | USB_EP_CTR_RX | USB_EP_CTR_TX));
 267              		.loc 1 212 3 is_stmt 1 view .LVU58
 268 0026 48F28005 		movw	r5, #32896
 269 002a 2C43     		orrs	r4, r4, r5
 270              	.LVL17:
 271              		.loc 1 212 3 is_stmt 0 view .LVU59
 272 002c 23F82240 		strh	r4, [r3, r2, lsl #2]	@ movhi
 213:Drivers/STM32F3xx_HAL_Driver/Src/stm32f3xx_ll_usb.c **** 
 214:Drivers/STM32F3xx_HAL_Driver/Src/stm32f3xx_ll_usb.c ****   PCD_SET_EP_ADDRESS(USBx, ep->num, ep->num);
 273              		.loc 1 214 3 is_stmt 1 view .LVU60
 274              	.LBB2:
 275              		.loc 1 214 3 view .LVU61
 276              		.loc 1 214 3 view .LVU62
 277 0030 0C78     		ldrb	r4, [r1]	@ zero_extendqisi2
 278 0032 33F82420 		ldrh	r2, [r3, r4, lsl #2]
 279 0036 12B2     		sxth	r2, r2
 280 0038 22F4E042 		bic	r2, r2, #28672
 281 003c 22F07002 		bic	r2, r2, #112
 282 0040 2243     		orrs	r2, r2, r4
 283 0042 92B2     		uxth	r2, r2
 284              	.LVL18:
 285              		.loc 1 214 3 view .LVU63
 286 0044 2A43     		orrs	r2, r2, r5
 287              	.LVL19:
 288              		.loc 1 214 3 is_stmt 0 view .LVU64
 289 0046 23F82420 		strh	r2, [r3, r4, lsl #2]	@ movhi
 290              	.LBE2:
 291              		.loc 1 214 3 is_stmt 1 view .LVU65
 215:Drivers/STM32F3xx_HAL_Driver/Src/stm32f3xx_ll_usb.c **** 
 216:Drivers/STM32F3xx_HAL_Driver/Src/stm32f3xx_ll_usb.c ****   if (ep->doublebuffer == 0U)
 292              		.loc 1 216 3 view .LVU66
 293              		.loc 1 216 9 is_stmt 0 view .LVU67
 294 004a 0A7B     		ldrb	r2, [r1, #12]	@ zero_extendqisi2
 295              		.loc 1 216 6 view .LVU68
 296 004c 002A     		cmp	r2, #0
 297 004e 40F0B680 		bne	.L15
 217:Drivers/STM32F3xx_HAL_Driver/Src/stm32f3xx_ll_usb.c ****   {
 218:Drivers/STM32F3xx_HAL_Driver/Src/stm32f3xx_ll_usb.c ****     if (ep->is_in != 0U)
 298              		.loc 1 218 5 is_stmt 1 view .LVU69
 299              		.loc 1 218 11 is_stmt 0 view .LVU70
 300 0052 4A78     		ldrb	r2, [r1, #1]	@ zero_extendqisi2
 301              		.loc 1 218 8 view .LVU71
 302 0054 002A     		cmp	r2, #0
 303 0056 4ED0     		beq	.L16
 219:Drivers/STM32F3xx_HAL_Driver/Src/stm32f3xx_ll_usb.c ****     {
 220:Drivers/STM32F3xx_HAL_Driver/Src/stm32f3xx_ll_usb.c ****       /*Set the endpoint Transmit buffer address */
 221:Drivers/STM32F3xx_HAL_Driver/Src/stm32f3xx_ll_usb.c ****       PCD_SET_EP_TX_ADDRESS(USBx, ep->num, ep->pmaadress);
ARM GAS  /var/folders/jw/jcj5j9_530958b2rm5vp9wn00000gn/T//ccDSMjf4.s 			page 10


 304              		.loc 1 221 7 is_stmt 1 view .LVU72
 305              	.LBB3:
 306              		.loc 1 221 7 view .LVU73
 307              		.loc 1 221 7 view .LVU74
 308              	.LVL20:
 309              		.loc 1 221 7 view .LVU75
 310 0058 B3F85020 		ldrh	r2, [r3, #80]
 311 005c 13FA82F2 		uxtah	r2, r3, r2
 312              	.LVL21:
 313              		.loc 1 221 7 view .LVU76
 314 0060 0C78     		ldrb	r4, [r1]	@ zero_extendqisi2
 315 0062 02EB0412 		add	r2, r2, r4, lsl #4
 316              	.LVL22:
 317              		.loc 1 221 7 view .LVU77
 318 0066 CC88     		ldrh	r4, [r1, #6]
 319 0068 6408     		lsrs	r4, r4, #1
 320 006a 6400     		lsls	r4, r4, #1
 321 006c A2F80044 		strh	r4, [r2, #1024]	@ movhi
 322              	.LBE3:
 323              		.loc 1 221 7 view .LVU78
 222:Drivers/STM32F3xx_HAL_Driver/Src/stm32f3xx_ll_usb.c ****       PCD_CLEAR_TX_DTOG(USBx, ep->num);
 324              		.loc 1 222 7 view .LVU79
 325              	.LBB4:
 326              		.loc 1 222 7 view .LVU80
 327              		.loc 1 222 7 view .LVU81
 328 0070 0C78     		ldrb	r4, [r1]	@ zero_extendqisi2
 329 0072 33F82420 		ldrh	r2, [r3, r4, lsl #2]
 330              	.LVL23:
 331              		.loc 1 222 7 view .LVU82
 332 0076 12F0400F 		tst	r2, #64
 333 007a 0CD0     		beq	.L17
 334              		.loc 1 222 7 discriminator 1 view .LVU83
 335              	.LBB5:
 336              		.loc 1 222 7 discriminator 1 view .LVU84
 337              		.loc 1 222 7 discriminator 1 view .LVU85
 338 007c 33F82420 		ldrh	r2, [r3, r4, lsl #2]
 339              	.LVL24:
 340              		.loc 1 222 7 is_stmt 0 discriminator 1 view .LVU86
 341 0080 92B2     		uxth	r2, r2
 342 0082 22F4E042 		bic	r2, r2, #28672
 343 0086 22F07002 		bic	r2, r2, #112
 344              	.LVL25:
 345              		.loc 1 222 7 is_stmt 1 discriminator 1 view .LVU87
 346 008a 42F40042 		orr	r2, r2, #32768
 347              	.LVL26:
 348              		.loc 1 222 7 is_stmt 0 discriminator 1 view .LVU88
 349 008e 42F0C002 		orr	r2, r2, #192
 350 0092 23F82420 		strh	r2, [r3, r4, lsl #2]	@ movhi
 351              	.L17:
 352              		.loc 1 222 7 discriminator 1 view .LVU89
 353              	.LBE5:
 354              		.loc 1 222 7 is_stmt 1 discriminator 3 view .LVU90
 355              	.LBE4:
 356              		.loc 1 222 7 discriminator 3 view .LVU91
 223:Drivers/STM32F3xx_HAL_Driver/Src/stm32f3xx_ll_usb.c **** 
 224:Drivers/STM32F3xx_HAL_Driver/Src/stm32f3xx_ll_usb.c ****       if (ep->type != EP_TYPE_ISOC)
 357              		.loc 1 224 7 discriminator 3 view .LVU92
ARM GAS  /var/folders/jw/jcj5j9_530958b2rm5vp9wn00000gn/T//ccDSMjf4.s 			page 11


 358              		.loc 1 224 13 is_stmt 0 discriminator 3 view .LVU93
 359 0096 CA78     		ldrb	r2, [r1, #3]	@ zero_extendqisi2
 360              		.loc 1 224 10 discriminator 3 view .LVU94
 361 0098 012A     		cmp	r2, #1
 362 009a 1DD0     		beq	.L18
 225:Drivers/STM32F3xx_HAL_Driver/Src/stm32f3xx_ll_usb.c ****       {
 226:Drivers/STM32F3xx_HAL_Driver/Src/stm32f3xx_ll_usb.c ****         /* Configure NAK status for the Endpoint */
 227:Drivers/STM32F3xx_HAL_Driver/Src/stm32f3xx_ll_usb.c ****         PCD_SET_EP_TX_STATUS(USBx, ep->num, USB_EP_TX_NAK);
 363              		.loc 1 227 9 is_stmt 1 view .LVU95
 364              	.LBB6:
 365              		.loc 1 227 9 view .LVU96
 366              		.loc 1 227 9 view .LVU97
 367 009c 0978     		ldrb	r1, [r1]	@ zero_extendqisi2
 368              	.LVL27:
 369              		.loc 1 227 9 is_stmt 0 view .LVU98
 370 009e 33F82120 		ldrh	r2, [r3, r1, lsl #2]
 371 00a2 92B2     		uxth	r2, r2
 372 00a4 22F4E042 		bic	r2, r2, #28672
 373 00a8 22F04002 		bic	r2, r2, #64
 374              	.LVL28:
 375              		.loc 1 227 9 is_stmt 1 view .LVU99
 376              		.loc 1 227 9 view .LVU100
 377              		.loc 1 227 9 view .LVU101
 378 00ac 82F02002 		eor	r2, r2, #32
 379              	.LVL29:
 380              		.loc 1 227 9 view .LVU102
 381 00b0 42F40042 		orr	r2, r2, #32768
 382              	.LVL30:
 383              		.loc 1 227 9 is_stmt 0 view .LVU103
 384 00b4 42F08002 		orr	r2, r2, #128
 385 00b8 23F82120 		strh	r2, [r3, r1, lsl #2]	@ movhi
 386              	.LBE6:
 387              		.loc 1 227 9 is_stmt 1 view .LVU104
 388 00bc 64E0     		b	.L19
 389              	.LVL31:
 390              	.L14:
 192:Drivers/STM32F3xx_HAL_Driver/Src/stm32f3xx_ll_usb.c ****       break;
 391              		.loc 1 192 7 view .LVU105
 192:Drivers/STM32F3xx_HAL_Driver/Src/stm32f3xx_ll_usb.c ****       break;
 392              		.loc 1 192 17 is_stmt 0 view .LVU106
 393 00be 44F40074 		orr	r4, r4, #512
 394              	.LVL32:
 193:Drivers/STM32F3xx_HAL_Driver/Src/stm32f3xx_ll_usb.c **** 
 395              		.loc 1 193 7 is_stmt 1 view .LVU107
 396 00c2 B0E7     		b	.L9
 397              	.L10:
 200:Drivers/STM32F3xx_HAL_Driver/Src/stm32f3xx_ll_usb.c ****       break;
 398              		.loc 1 200 7 view .LVU108
 200:Drivers/STM32F3xx_HAL_Driver/Src/stm32f3xx_ll_usb.c ****       break;
 399              		.loc 1 200 17 is_stmt 0 view .LVU109
 400 00c4 44F4C064 		orr	r4, r4, #1536
 401              	.LVL33:
 201:Drivers/STM32F3xx_HAL_Driver/Src/stm32f3xx_ll_usb.c **** 
 402              		.loc 1 201 7 is_stmt 1 view .LVU110
 183:Drivers/STM32F3xx_HAL_Driver/Src/stm32f3xx_ll_usb.c ****   uint16_t wEpRegVal;
 403              		.loc 1 183 21 is_stmt 0 view .LVU111
 404 00c8 0020     		movs	r0, #0
ARM GAS  /var/folders/jw/jcj5j9_530958b2rm5vp9wn00000gn/T//ccDSMjf4.s 			page 12


 201:Drivers/STM32F3xx_HAL_Driver/Src/stm32f3xx_ll_usb.c **** 
 405              		.loc 1 201 7 view .LVU112
 406 00ca ACE7     		b	.L9
 407              	.L13:
 204:Drivers/STM32F3xx_HAL_Driver/Src/stm32f3xx_ll_usb.c ****       break;
 408              		.loc 1 204 7 is_stmt 1 view .LVU113
 204:Drivers/STM32F3xx_HAL_Driver/Src/stm32f3xx_ll_usb.c ****       break;
 409              		.loc 1 204 17 is_stmt 0 view .LVU114
 410 00cc 44F48064 		orr	r4, r4, #1024
 411              	.LVL34:
 205:Drivers/STM32F3xx_HAL_Driver/Src/stm32f3xx_ll_usb.c **** 
 412              		.loc 1 205 7 is_stmt 1 view .LVU115
 183:Drivers/STM32F3xx_HAL_Driver/Src/stm32f3xx_ll_usb.c ****   uint16_t wEpRegVal;
 413              		.loc 1 183 21 is_stmt 0 view .LVU116
 414 00d0 0020     		movs	r0, #0
 205:Drivers/STM32F3xx_HAL_Driver/Src/stm32f3xx_ll_usb.c **** 
 415              		.loc 1 205 7 view .LVU117
 416 00d2 A8E7     		b	.L9
 417              	.L33:
 208:Drivers/STM32F3xx_HAL_Driver/Src/stm32f3xx_ll_usb.c ****       break;
 418              		.loc 1 208 11 view .LVU118
 419 00d4 0120     		movs	r0, #1
 420 00d6 A6E7     		b	.L9
 421              	.LVL35:
 422              	.L18:
 228:Drivers/STM32F3xx_HAL_Driver/Src/stm32f3xx_ll_usb.c ****       }
 229:Drivers/STM32F3xx_HAL_Driver/Src/stm32f3xx_ll_usb.c ****       else
 230:Drivers/STM32F3xx_HAL_Driver/Src/stm32f3xx_ll_usb.c ****       {
 231:Drivers/STM32F3xx_HAL_Driver/Src/stm32f3xx_ll_usb.c ****         /* Configure TX Endpoint to disabled state */
 232:Drivers/STM32F3xx_HAL_Driver/Src/stm32f3xx_ll_usb.c ****         PCD_SET_EP_TX_STATUS(USBx, ep->num, USB_EP_TX_DIS);
 423              		.loc 1 232 9 is_stmt 1 view .LVU119
 424              	.LBB7:
 425              		.loc 1 232 9 view .LVU120
 426              		.loc 1 232 9 view .LVU121
 427 00d8 0978     		ldrb	r1, [r1]	@ zero_extendqisi2
 428              	.LVL36:
 429              		.loc 1 232 9 is_stmt 0 view .LVU122
 430 00da 33F82120 		ldrh	r2, [r3, r1, lsl #2]
 431 00de 92B2     		uxth	r2, r2
 432 00e0 22F4E042 		bic	r2, r2, #28672
 433 00e4 22F04002 		bic	r2, r2, #64
 434              	.LVL37:
 435              		.loc 1 232 9 is_stmt 1 view .LVU123
 436              		.loc 1 232 9 view .LVU124
 437              		.loc 1 232 9 view .LVU125
 438 00e8 42F40042 		orr	r2, r2, #32768
 439              	.LVL38:
 440              		.loc 1 232 9 is_stmt 0 view .LVU126
 441 00ec 42F08002 		orr	r2, r2, #128
 442 00f0 23F82120 		strh	r2, [r3, r1, lsl #2]	@ movhi
 443 00f4 48E0     		b	.L19
 444              	.LVL39:
 445              	.L16:
 446              		.loc 1 232 9 view .LVU127
 447              	.LBE7:
 233:Drivers/STM32F3xx_HAL_Driver/Src/stm32f3xx_ll_usb.c ****       }
 234:Drivers/STM32F3xx_HAL_Driver/Src/stm32f3xx_ll_usb.c ****     }
ARM GAS  /var/folders/jw/jcj5j9_530958b2rm5vp9wn00000gn/T//ccDSMjf4.s 			page 13


 235:Drivers/STM32F3xx_HAL_Driver/Src/stm32f3xx_ll_usb.c ****     else
 236:Drivers/STM32F3xx_HAL_Driver/Src/stm32f3xx_ll_usb.c ****     {
 237:Drivers/STM32F3xx_HAL_Driver/Src/stm32f3xx_ll_usb.c ****       /*Set the endpoint Receive buffer address */
 238:Drivers/STM32F3xx_HAL_Driver/Src/stm32f3xx_ll_usb.c ****       PCD_SET_EP_RX_ADDRESS(USBx, ep->num, ep->pmaadress);
 448              		.loc 1 238 7 is_stmt 1 view .LVU128
 449              	.LBB8:
 450              		.loc 1 238 7 view .LVU129
 451              		.loc 1 238 7 view .LVU130
 452              		.loc 1 238 7 view .LVU131
 453 00f6 B3F85020 		ldrh	r2, [r3, #80]
 454 00fa 13FA82F2 		uxtah	r2, r3, r2
 455              	.LVL40:
 456              		.loc 1 238 7 view .LVU132
 457 00fe 0C78     		ldrb	r4, [r1]	@ zero_extendqisi2
 458 0100 02EB0412 		add	r2, r2, r4, lsl #4
 459              	.LVL41:
 460              		.loc 1 238 7 view .LVU133
 461 0104 CC88     		ldrh	r4, [r1, #6]
 462 0106 6408     		lsrs	r4, r4, #1
 463 0108 6400     		lsls	r4, r4, #1
 464 010a A2F80844 		strh	r4, [r2, #1032]	@ movhi
 465              	.LBE8:
 466              		.loc 1 238 7 view .LVU134
 239:Drivers/STM32F3xx_HAL_Driver/Src/stm32f3xx_ll_usb.c **** 
 240:Drivers/STM32F3xx_HAL_Driver/Src/stm32f3xx_ll_usb.c ****       /*Set the endpoint Receive buffer counter*/
 241:Drivers/STM32F3xx_HAL_Driver/Src/stm32f3xx_ll_usb.c ****       PCD_SET_EP_RX_CNT(USBx, ep->num, ep->maxpacket);
 467              		.loc 1 241 7 view .LVU135
 468              	.LBB9:
 469              		.loc 1 241 7 view .LVU136
 470              	.LVL42:
 471              		.loc 1 241 7 view .LVU137
 472              		.loc 1 241 7 view .LVU138
 473 010e B3F85020 		ldrh	r2, [r3, #80]
 474              	.LVL43:
 475              		.loc 1 241 7 is_stmt 0 view .LVU139
 476 0112 13FA82F2 		uxtah	r2, r3, r2
 477              	.LVL44:
 478              		.loc 1 241 7 is_stmt 1 view .LVU140
 479 0116 0C78     		ldrb	r4, [r1]	@ zero_extendqisi2
 480 0118 02EB0412 		add	r2, r2, r4, lsl #4
 481              	.LVL45:
 482              		.loc 1 241 7 view .LVU141
 483              	.LBB10:
 484              		.loc 1 241 7 view .LVU142
 485              		.loc 1 241 7 view .LVU143
 486 011c 0C69     		ldr	r4, [r1, #16]
 487 011e ACBB     		cbnz	r4, .L20
 488              		.loc 1 241 7 discriminator 1 view .LVU144
 489 0120 B2F80C44 		ldrh	r4, [r2, #1036]
 490 0124 A4B2     		uxth	r4, r4
 491 0126 24F4F844 		bic	r4, r4, #31744
 492 012a A4B2     		uxth	r4, r4
 493 012c A2F80C44 		strh	r4, [r2, #1036]	@ movhi
 494              		.loc 1 241 7 discriminator 1 view .LVU145
 495 0130 B2F80C44 		ldrh	r4, [r2, #1036]
 496 0134 6FEA4444 		mvn	r4, r4, lsl #17
 497 0138 6FEA5444 		mvn	r4, r4, lsr #17
ARM GAS  /var/folders/jw/jcj5j9_530958b2rm5vp9wn00000gn/T//ccDSMjf4.s 			page 14


 498 013c A4B2     		uxth	r4, r4
 499 013e A2F80C44 		strh	r4, [r2, #1036]	@ movhi
 500              	.L21:
 501              		.loc 1 241 7 discriminator 13 view .LVU146
 502              	.LBE10:
 503              		.loc 1 241 7 discriminator 13 view .LVU147
 504              	.LBE9:
 505              		.loc 1 241 7 discriminator 13 view .LVU148
 242:Drivers/STM32F3xx_HAL_Driver/Src/stm32f3xx_ll_usb.c ****       PCD_CLEAR_RX_DTOG(USBx, ep->num);
 506              		.loc 1 242 7 discriminator 13 view .LVU149
 507              	.LBB12:
 508              		.loc 1 242 7 discriminator 13 view .LVU150
 509              		.loc 1 242 7 discriminator 13 view .LVU151
 510 0142 0C78     		ldrb	r4, [r1]	@ zero_extendqisi2
 511 0144 33F82420 		ldrh	r2, [r3, r4, lsl #2]
 512              	.LVL46:
 513              		.loc 1 242 7 discriminator 13 view .LVU152
 514 0148 12F4804F 		tst	r2, #16384
 515 014c 0CD0     		beq	.L25
 516              		.loc 1 242 7 discriminator 1 view .LVU153
 517              	.LBB13:
 518              		.loc 1 242 7 discriminator 1 view .LVU154
 519              		.loc 1 242 7 discriminator 1 view .LVU155
 520 014e 33F82420 		ldrh	r2, [r3, r4, lsl #2]
 521              	.LVL47:
 522              		.loc 1 242 7 is_stmt 0 discriminator 1 view .LVU156
 523 0152 92B2     		uxth	r2, r2
 524 0154 22F4E042 		bic	r2, r2, #28672
 525 0158 22F07002 		bic	r2, r2, #112
 526              	.LVL48:
 527              		.loc 1 242 7 is_stmt 1 discriminator 1 view .LVU157
 528 015c 42F44042 		orr	r2, r2, #49152
 529              	.LVL49:
 530              		.loc 1 242 7 is_stmt 0 discriminator 1 view .LVU158
 531 0160 42F08002 		orr	r2, r2, #128
 532 0164 23F82420 		strh	r2, [r3, r4, lsl #2]	@ movhi
 533              	.L25:
 534              		.loc 1 242 7 discriminator 1 view .LVU159
 535              	.LBE13:
 536              		.loc 1 242 7 is_stmt 1 discriminator 3 view .LVU160
 537              	.LBE12:
 538              		.loc 1 242 7 discriminator 3 view .LVU161
 243:Drivers/STM32F3xx_HAL_Driver/Src/stm32f3xx_ll_usb.c **** 
 244:Drivers/STM32F3xx_HAL_Driver/Src/stm32f3xx_ll_usb.c ****       /* Configure VALID status for the Endpoint*/
 245:Drivers/STM32F3xx_HAL_Driver/Src/stm32f3xx_ll_usb.c ****       PCD_SET_EP_RX_STATUS(USBx, ep->num, USB_EP_RX_VALID);
 539              		.loc 1 245 7 discriminator 3 view .LVU162
 540              	.LBB14:
 541              		.loc 1 245 7 discriminator 3 view .LVU163
 542              		.loc 1 245 7 discriminator 3 view .LVU164
 543 0168 0978     		ldrb	r1, [r1]	@ zero_extendqisi2
 544              	.LVL50:
 545              		.loc 1 245 7 is_stmt 0 discriminator 3 view .LVU165
 546 016a 33F82120 		ldrh	r2, [r3, r1, lsl #2]
 547 016e 92B2     		uxth	r2, r2
 548 0170 22F48042 		bic	r2, r2, #16384
 549 0174 22F07002 		bic	r2, r2, #112
 550              	.LVL51:
ARM GAS  /var/folders/jw/jcj5j9_530958b2rm5vp9wn00000gn/T//ccDSMjf4.s 			page 15


 551              		.loc 1 245 7 is_stmt 1 discriminator 3 view .LVU166
 552              		.loc 1 245 7 discriminator 3 view .LVU167
 553              		.loc 1 245 7 discriminator 3 view .LVU168
 554              		.loc 1 245 7 discriminator 3 view .LVU169
 555 0178 82F44052 		eor	r2, r2, #12288
 556              	.LVL52:
 557              		.loc 1 245 7 discriminator 3 view .LVU170
 558 017c 42F40042 		orr	r2, r2, #32768
 559              	.LVL53:
 560              		.loc 1 245 7 is_stmt 0 discriminator 3 view .LVU171
 561 0180 42F08002 		orr	r2, r2, #128
 562 0184 23F82120 		strh	r2, [r3, r1, lsl #2]	@ movhi
 563              	.L19:
 564              		.loc 1 245 7 discriminator 3 view .LVU172
 565              	.LBE14:
 246:Drivers/STM32F3xx_HAL_Driver/Src/stm32f3xx_ll_usb.c ****     }
 247:Drivers/STM32F3xx_HAL_Driver/Src/stm32f3xx_ll_usb.c ****   }
 248:Drivers/STM32F3xx_HAL_Driver/Src/stm32f3xx_ll_usb.c ****   /*Double Buffer*/
 249:Drivers/STM32F3xx_HAL_Driver/Src/stm32f3xx_ll_usb.c ****   else
 250:Drivers/STM32F3xx_HAL_Driver/Src/stm32f3xx_ll_usb.c ****   {
 251:Drivers/STM32F3xx_HAL_Driver/Src/stm32f3xx_ll_usb.c ****     /* Set the endpoint as double buffered */
 252:Drivers/STM32F3xx_HAL_Driver/Src/stm32f3xx_ll_usb.c ****     PCD_SET_EP_DBUF(USBx, ep->num);
 253:Drivers/STM32F3xx_HAL_Driver/Src/stm32f3xx_ll_usb.c **** 
 254:Drivers/STM32F3xx_HAL_Driver/Src/stm32f3xx_ll_usb.c ****     /* Set buffer address for double buffered mode */
 255:Drivers/STM32F3xx_HAL_Driver/Src/stm32f3xx_ll_usb.c ****     PCD_SET_EP_DBUF_ADDR(USBx, ep->num, ep->pmaaddr0, ep->pmaaddr1);
 256:Drivers/STM32F3xx_HAL_Driver/Src/stm32f3xx_ll_usb.c **** 
 257:Drivers/STM32F3xx_HAL_Driver/Src/stm32f3xx_ll_usb.c ****     if (ep->is_in == 0U)
 258:Drivers/STM32F3xx_HAL_Driver/Src/stm32f3xx_ll_usb.c ****     {
 259:Drivers/STM32F3xx_HAL_Driver/Src/stm32f3xx_ll_usb.c ****       /* Clear the data toggle bits for the endpoint IN/OUT */
 260:Drivers/STM32F3xx_HAL_Driver/Src/stm32f3xx_ll_usb.c ****       PCD_CLEAR_RX_DTOG(USBx, ep->num);
 261:Drivers/STM32F3xx_HAL_Driver/Src/stm32f3xx_ll_usb.c ****       PCD_CLEAR_TX_DTOG(USBx, ep->num);
 262:Drivers/STM32F3xx_HAL_Driver/Src/stm32f3xx_ll_usb.c **** 
 263:Drivers/STM32F3xx_HAL_Driver/Src/stm32f3xx_ll_usb.c ****       PCD_SET_EP_RX_STATUS(USBx, ep->num, USB_EP_RX_VALID);
 264:Drivers/STM32F3xx_HAL_Driver/Src/stm32f3xx_ll_usb.c ****       PCD_SET_EP_TX_STATUS(USBx, ep->num, USB_EP_TX_DIS);
 265:Drivers/STM32F3xx_HAL_Driver/Src/stm32f3xx_ll_usb.c ****     }
 266:Drivers/STM32F3xx_HAL_Driver/Src/stm32f3xx_ll_usb.c ****     else
 267:Drivers/STM32F3xx_HAL_Driver/Src/stm32f3xx_ll_usb.c ****     {
 268:Drivers/STM32F3xx_HAL_Driver/Src/stm32f3xx_ll_usb.c ****       /* Clear the data toggle bits for the endpoint IN/OUT */
 269:Drivers/STM32F3xx_HAL_Driver/Src/stm32f3xx_ll_usb.c ****       PCD_CLEAR_RX_DTOG(USBx, ep->num);
 270:Drivers/STM32F3xx_HAL_Driver/Src/stm32f3xx_ll_usb.c ****       PCD_CLEAR_TX_DTOG(USBx, ep->num);
 271:Drivers/STM32F3xx_HAL_Driver/Src/stm32f3xx_ll_usb.c **** 
 272:Drivers/STM32F3xx_HAL_Driver/Src/stm32f3xx_ll_usb.c ****       if (ep->type != EP_TYPE_ISOC)
 273:Drivers/STM32F3xx_HAL_Driver/Src/stm32f3xx_ll_usb.c ****       {
 274:Drivers/STM32F3xx_HAL_Driver/Src/stm32f3xx_ll_usb.c ****         /* Configure NAK status for the Endpoint */
 275:Drivers/STM32F3xx_HAL_Driver/Src/stm32f3xx_ll_usb.c ****         PCD_SET_EP_TX_STATUS(USBx, ep->num, USB_EP_TX_NAK);
 276:Drivers/STM32F3xx_HAL_Driver/Src/stm32f3xx_ll_usb.c ****       }
 277:Drivers/STM32F3xx_HAL_Driver/Src/stm32f3xx_ll_usb.c ****       else
 278:Drivers/STM32F3xx_HAL_Driver/Src/stm32f3xx_ll_usb.c ****       {
 279:Drivers/STM32F3xx_HAL_Driver/Src/stm32f3xx_ll_usb.c ****         /* Configure TX Endpoint to disabled state */
 280:Drivers/STM32F3xx_HAL_Driver/Src/stm32f3xx_ll_usb.c ****         PCD_SET_EP_TX_STATUS(USBx, ep->num, USB_EP_TX_DIS);
 281:Drivers/STM32F3xx_HAL_Driver/Src/stm32f3xx_ll_usb.c ****       }
 282:Drivers/STM32F3xx_HAL_Driver/Src/stm32f3xx_ll_usb.c **** 
 283:Drivers/STM32F3xx_HAL_Driver/Src/stm32f3xx_ll_usb.c ****       PCD_SET_EP_RX_STATUS(USBx, ep->num, USB_EP_RX_DIS);
 566              		.loc 1 283 7 is_stmt 1 discriminator 7 view .LVU173
 284:Drivers/STM32F3xx_HAL_Driver/Src/stm32f3xx_ll_usb.c ****     }
 285:Drivers/STM32F3xx_HAL_Driver/Src/stm32f3xx_ll_usb.c ****   }
 286:Drivers/STM32F3xx_HAL_Driver/Src/stm32f3xx_ll_usb.c **** 
ARM GAS  /var/folders/jw/jcj5j9_530958b2rm5vp9wn00000gn/T//ccDSMjf4.s 			page 16


 287:Drivers/STM32F3xx_HAL_Driver/Src/stm32f3xx_ll_usb.c ****   return ret;
 567              		.loc 1 287 3 discriminator 7 view .LVU174
 288:Drivers/STM32F3xx_HAL_Driver/Src/stm32f3xx_ll_usb.c **** }
 568              		.loc 1 288 1 is_stmt 0 discriminator 7 view .LVU175
 569 0188 30BC     		pop	{r4, r5}
 570              	.LCFI7:
 571              		.cfi_remember_state
 572              		.cfi_restore 5
 573              		.cfi_restore 4
 574              		.cfi_def_cfa_offset 0
 575 018a 7047     		bx	lr
 576              	.LVL54:
 577              	.L20:
 578              	.LCFI8:
 579              		.cfi_restore_state
 580              	.LBB15:
 581              	.LBB11:
 241:Drivers/STM32F3xx_HAL_Driver/Src/stm32f3xx_ll_usb.c ****       PCD_CLEAR_RX_DTOG(USBx, ep->num);
 582              		.loc 1 241 7 is_stmt 1 discriminator 2 view .LVU176
 583 018c 3E2C     		cmp	r4, #62
 584 018e 09D8     		bhi	.L22
 241:Drivers/STM32F3xx_HAL_Driver/Src/stm32f3xx_ll_usb.c ****       PCD_CLEAR_RX_DTOG(USBx, ep->num);
 585              		.loc 1 241 7 discriminator 4 view .LVU177
 241:Drivers/STM32F3xx_HAL_Driver/Src/stm32f3xx_ll_usb.c ****       PCD_CLEAR_RX_DTOG(USBx, ep->num);
 586              		.loc 1 241 7 discriminator 4 view .LVU178
 587 0190 6508     		lsrs	r5, r4, #1
 588              	.LVL55:
 241:Drivers/STM32F3xx_HAL_Driver/Src/stm32f3xx_ll_usb.c ****       PCD_CLEAR_RX_DTOG(USBx, ep->num);
 589              		.loc 1 241 7 discriminator 4 view .LVU179
 590 0192 14F0010F 		tst	r4, #1
 591 0196 00D0     		beq	.L23
 241:Drivers/STM32F3xx_HAL_Driver/Src/stm32f3xx_ll_usb.c ****       PCD_CLEAR_RX_DTOG(USBx, ep->num);
 592              		.loc 1 241 7 discriminator 6 view .LVU180
 593 0198 0135     		adds	r5, r5, #1
 594              	.LVL56:
 595              	.L23:
 241:Drivers/STM32F3xx_HAL_Driver/Src/stm32f3xx_ll_usb.c ****       PCD_CLEAR_RX_DTOG(USBx, ep->num);
 596              		.loc 1 241 7 discriminator 8 view .LVU181
 597 019a AD02     		lsls	r5, r5, #10
 598              	.LVL57:
 241:Drivers/STM32F3xx_HAL_Driver/Src/stm32f3xx_ll_usb.c ****       PCD_CLEAR_RX_DTOG(USBx, ep->num);
 599              		.loc 1 241 7 is_stmt 0 discriminator 8 view .LVU182
 600 019c ADB2     		uxth	r5, r5
 601 019e A2F80C54 		strh	r5, [r2, #1036]	@ movhi
 241:Drivers/STM32F3xx_HAL_Driver/Src/stm32f3xx_ll_usb.c ****       PCD_CLEAR_RX_DTOG(USBx, ep->num);
 602              		.loc 1 241 7 is_stmt 1 discriminator 8 view .LVU183
 603 01a2 CEE7     		b	.L21
 604              	.L22:
 241:Drivers/STM32F3xx_HAL_Driver/Src/stm32f3xx_ll_usb.c ****       PCD_CLEAR_RX_DTOG(USBx, ep->num);
 605              		.loc 1 241 7 discriminator 5 view .LVU184
 241:Drivers/STM32F3xx_HAL_Driver/Src/stm32f3xx_ll_usb.c ****       PCD_CLEAR_RX_DTOG(USBx, ep->num);
 606              		.loc 1 241 7 discriminator 5 view .LVU185
 607 01a4 6509     		lsrs	r5, r4, #5
 608              	.LVL58:
 241:Drivers/STM32F3xx_HAL_Driver/Src/stm32f3xx_ll_usb.c ****       PCD_CLEAR_RX_DTOG(USBx, ep->num);
 609              		.loc 1 241 7 discriminator 5 view .LVU186
 610 01a6 14F01F0F 		tst	r4, #31
ARM GAS  /var/folders/jw/jcj5j9_530958b2rm5vp9wn00000gn/T//ccDSMjf4.s 			page 17


 611 01aa 00D1     		bne	.L24
 241:Drivers/STM32F3xx_HAL_Driver/Src/stm32f3xx_ll_usb.c ****       PCD_CLEAR_RX_DTOG(USBx, ep->num);
 612              		.loc 1 241 7 discriminator 10 view .LVU187
 613 01ac 013D     		subs	r5, r5, #1
 614              	.LVL59:
 615              	.L24:
 241:Drivers/STM32F3xx_HAL_Driver/Src/stm32f3xx_ll_usb.c ****       PCD_CLEAR_RX_DTOG(USBx, ep->num);
 616              		.loc 1 241 7 discriminator 12 view .LVU188
 617 01ae 6FEAC564 		mvn	r4, r5, lsl #27
 618 01b2 6FEA5444 		mvn	r4, r4, lsr #17
 619 01b6 A4B2     		uxth	r4, r4
 620 01b8 A2F80C44 		strh	r4, [r2, #1036]	@ movhi
 621 01bc C1E7     		b	.L21
 622              	.LVL60:
 623              	.L15:
 241:Drivers/STM32F3xx_HAL_Driver/Src/stm32f3xx_ll_usb.c ****       PCD_CLEAR_RX_DTOG(USBx, ep->num);
 624              		.loc 1 241 7 is_stmt 0 discriminator 12 view .LVU189
 625              	.LBE11:
 626              	.LBE15:
 252:Drivers/STM32F3xx_HAL_Driver/Src/stm32f3xx_ll_usb.c **** 
 627              		.loc 1 252 5 is_stmt 1 view .LVU190
 628              	.LBB16:
 252:Drivers/STM32F3xx_HAL_Driver/Src/stm32f3xx_ll_usb.c **** 
 629              		.loc 1 252 5 view .LVU191
 252:Drivers/STM32F3xx_HAL_Driver/Src/stm32f3xx_ll_usb.c **** 
 630              		.loc 1 252 5 view .LVU192
 631 01be 0C78     		ldrb	r4, [r1]	@ zero_extendqisi2
 632 01c0 33F82420 		ldrh	r2, [r3, r4, lsl #2]
 633 01c4 92B2     		uxth	r2, r2
 634 01c6 22F4E042 		bic	r2, r2, #28672
 635 01ca 22F07002 		bic	r2, r2, #112
 636              	.LVL61:
 252:Drivers/STM32F3xx_HAL_Driver/Src/stm32f3xx_ll_usb.c **** 
 637              		.loc 1 252 5 view .LVU193
 638 01ce 42F40142 		orr	r2, r2, #33024
 639              	.LVL62:
 252:Drivers/STM32F3xx_HAL_Driver/Src/stm32f3xx_ll_usb.c **** 
 640              		.loc 1 252 5 is_stmt 0 view .LVU194
 641 01d2 42F08002 		orr	r2, r2, #128
 642 01d6 23F82420 		strh	r2, [r3, r4, lsl #2]	@ movhi
 643              	.LBE16:
 252:Drivers/STM32F3xx_HAL_Driver/Src/stm32f3xx_ll_usb.c **** 
 644              		.loc 1 252 5 is_stmt 1 view .LVU195
 255:Drivers/STM32F3xx_HAL_Driver/Src/stm32f3xx_ll_usb.c **** 
 645              		.loc 1 255 5 view .LVU196
 255:Drivers/STM32F3xx_HAL_Driver/Src/stm32f3xx_ll_usb.c **** 
 646              		.loc 1 255 5 view .LVU197
 255:Drivers/STM32F3xx_HAL_Driver/Src/stm32f3xx_ll_usb.c **** 
 647              		.loc 1 255 5 view .LVU198
 648              	.LBB17:
 255:Drivers/STM32F3xx_HAL_Driver/Src/stm32f3xx_ll_usb.c **** 
 649              		.loc 1 255 5 view .LVU199
 255:Drivers/STM32F3xx_HAL_Driver/Src/stm32f3xx_ll_usb.c **** 
 650              		.loc 1 255 5 view .LVU200
 651              	.LVL63:
 255:Drivers/STM32F3xx_HAL_Driver/Src/stm32f3xx_ll_usb.c **** 
 652              		.loc 1 255 5 view .LVU201
ARM GAS  /var/folders/jw/jcj5j9_530958b2rm5vp9wn00000gn/T//ccDSMjf4.s 			page 18


 653 01da B3F85020 		ldrh	r2, [r3, #80]
 654 01de 13FA82F2 		uxtah	r2, r3, r2
 655              	.LVL64:
 255:Drivers/STM32F3xx_HAL_Driver/Src/stm32f3xx_ll_usb.c **** 
 656              		.loc 1 255 5 view .LVU202
 657 01e2 0C78     		ldrb	r4, [r1]	@ zero_extendqisi2
 658 01e4 02EB0412 		add	r2, r2, r4, lsl #4
 659              	.LVL65:
 255:Drivers/STM32F3xx_HAL_Driver/Src/stm32f3xx_ll_usb.c **** 
 660              		.loc 1 255 5 view .LVU203
 661 01e8 0C89     		ldrh	r4, [r1, #8]
 662 01ea 6408     		lsrs	r4, r4, #1
 663 01ec 6400     		lsls	r4, r4, #1
 664 01ee A2F80044 		strh	r4, [r2, #1024]	@ movhi
 665              	.LBE17:
 255:Drivers/STM32F3xx_HAL_Driver/Src/stm32f3xx_ll_usb.c **** 
 666              		.loc 1 255 5 view .LVU204
 255:Drivers/STM32F3xx_HAL_Driver/Src/stm32f3xx_ll_usb.c **** 
 667              		.loc 1 255 5 view .LVU205
 255:Drivers/STM32F3xx_HAL_Driver/Src/stm32f3xx_ll_usb.c **** 
 668              		.loc 1 255 5 view .LVU206
 255:Drivers/STM32F3xx_HAL_Driver/Src/stm32f3xx_ll_usb.c **** 
 669              		.loc 1 255 5 view .LVU207
 670              	.LBB18:
 255:Drivers/STM32F3xx_HAL_Driver/Src/stm32f3xx_ll_usb.c **** 
 671              		.loc 1 255 5 view .LVU208
 255:Drivers/STM32F3xx_HAL_Driver/Src/stm32f3xx_ll_usb.c **** 
 672              		.loc 1 255 5 view .LVU209
 673              	.LVL66:
 255:Drivers/STM32F3xx_HAL_Driver/Src/stm32f3xx_ll_usb.c **** 
 674              		.loc 1 255 5 view .LVU210
 675 01f2 B3F85020 		ldrh	r2, [r3, #80]
 676              	.LVL67:
 255:Drivers/STM32F3xx_HAL_Driver/Src/stm32f3xx_ll_usb.c **** 
 677              		.loc 1 255 5 is_stmt 0 view .LVU211
 678 01f6 13FA82F2 		uxtah	r2, r3, r2
 679              	.LVL68:
 255:Drivers/STM32F3xx_HAL_Driver/Src/stm32f3xx_ll_usb.c **** 
 680              		.loc 1 255 5 is_stmt 1 view .LVU212
 681 01fa 0C78     		ldrb	r4, [r1]	@ zero_extendqisi2
 682 01fc 02EB0412 		add	r2, r2, r4, lsl #4
 683              	.LVL69:
 255:Drivers/STM32F3xx_HAL_Driver/Src/stm32f3xx_ll_usb.c **** 
 684              		.loc 1 255 5 view .LVU213
 685 0200 4C89     		ldrh	r4, [r1, #10]
 686 0202 6408     		lsrs	r4, r4, #1
 687 0204 6400     		lsls	r4, r4, #1
 688 0206 A2F80844 		strh	r4, [r2, #1032]	@ movhi
 689              	.LBE18:
 255:Drivers/STM32F3xx_HAL_Driver/Src/stm32f3xx_ll_usb.c **** 
 690              		.loc 1 255 5 view .LVU214
 255:Drivers/STM32F3xx_HAL_Driver/Src/stm32f3xx_ll_usb.c **** 
 691              		.loc 1 255 5 view .LVU215
 255:Drivers/STM32F3xx_HAL_Driver/Src/stm32f3xx_ll_usb.c **** 
 692              		.loc 1 255 5 view .LVU216
 257:Drivers/STM32F3xx_HAL_Driver/Src/stm32f3xx_ll_usb.c ****     {
 693              		.loc 1 257 5 view .LVU217
ARM GAS  /var/folders/jw/jcj5j9_530958b2rm5vp9wn00000gn/T//ccDSMjf4.s 			page 19


 257:Drivers/STM32F3xx_HAL_Driver/Src/stm32f3xx_ll_usb.c ****     {
 694              		.loc 1 257 11 is_stmt 0 view .LVU218
 695 020a 4A78     		ldrb	r2, [r1, #1]	@ zero_extendqisi2
 696              	.LVL70:
 257:Drivers/STM32F3xx_HAL_Driver/Src/stm32f3xx_ll_usb.c ****     {
 697              		.loc 1 257 8 view .LVU219
 698 020c 002A     		cmp	r2, #0
 699 020e 40D1     		bne	.L26
 260:Drivers/STM32F3xx_HAL_Driver/Src/stm32f3xx_ll_usb.c ****       PCD_CLEAR_TX_DTOG(USBx, ep->num);
 700              		.loc 1 260 7 is_stmt 1 view .LVU220
 701              	.LBB19:
 260:Drivers/STM32F3xx_HAL_Driver/Src/stm32f3xx_ll_usb.c ****       PCD_CLEAR_TX_DTOG(USBx, ep->num);
 702              		.loc 1 260 7 view .LVU221
 260:Drivers/STM32F3xx_HAL_Driver/Src/stm32f3xx_ll_usb.c ****       PCD_CLEAR_TX_DTOG(USBx, ep->num);
 703              		.loc 1 260 7 view .LVU222
 704 0210 0C78     		ldrb	r4, [r1]	@ zero_extendqisi2
 705 0212 33F82420 		ldrh	r2, [r3, r4, lsl #2]
 706              	.LVL71:
 260:Drivers/STM32F3xx_HAL_Driver/Src/stm32f3xx_ll_usb.c ****       PCD_CLEAR_TX_DTOG(USBx, ep->num);
 707              		.loc 1 260 7 view .LVU223
 708 0216 12F4804F 		tst	r2, #16384
 709 021a 0CD0     		beq	.L27
 260:Drivers/STM32F3xx_HAL_Driver/Src/stm32f3xx_ll_usb.c ****       PCD_CLEAR_TX_DTOG(USBx, ep->num);
 710              		.loc 1 260 7 discriminator 1 view .LVU224
 711              	.LBB20:
 260:Drivers/STM32F3xx_HAL_Driver/Src/stm32f3xx_ll_usb.c ****       PCD_CLEAR_TX_DTOG(USBx, ep->num);
 712              		.loc 1 260 7 discriminator 1 view .LVU225
 260:Drivers/STM32F3xx_HAL_Driver/Src/stm32f3xx_ll_usb.c ****       PCD_CLEAR_TX_DTOG(USBx, ep->num);
 713              		.loc 1 260 7 discriminator 1 view .LVU226
 714 021c 33F82420 		ldrh	r2, [r3, r4, lsl #2]
 715              	.LVL72:
 260:Drivers/STM32F3xx_HAL_Driver/Src/stm32f3xx_ll_usb.c ****       PCD_CLEAR_TX_DTOG(USBx, ep->num);
 716              		.loc 1 260 7 is_stmt 0 discriminator 1 view .LVU227
 717 0220 92B2     		uxth	r2, r2
 718 0222 22F4E042 		bic	r2, r2, #28672
 719 0226 22F07002 		bic	r2, r2, #112
 720              	.LVL73:
 260:Drivers/STM32F3xx_HAL_Driver/Src/stm32f3xx_ll_usb.c ****       PCD_CLEAR_TX_DTOG(USBx, ep->num);
 721              		.loc 1 260 7 is_stmt 1 discriminator 1 view .LVU228
 722 022a 42F44042 		orr	r2, r2, #49152
 723              	.LVL74:
 260:Drivers/STM32F3xx_HAL_Driver/Src/stm32f3xx_ll_usb.c ****       PCD_CLEAR_TX_DTOG(USBx, ep->num);
 724              		.loc 1 260 7 is_stmt 0 discriminator 1 view .LVU229
 725 022e 42F08002 		orr	r2, r2, #128
 726 0232 23F82420 		strh	r2, [r3, r4, lsl #2]	@ movhi
 727              	.L27:
 260:Drivers/STM32F3xx_HAL_Driver/Src/stm32f3xx_ll_usb.c ****       PCD_CLEAR_TX_DTOG(USBx, ep->num);
 728              		.loc 1 260 7 discriminator 1 view .LVU230
 729              	.LBE20:
 260:Drivers/STM32F3xx_HAL_Driver/Src/stm32f3xx_ll_usb.c ****       PCD_CLEAR_TX_DTOG(USBx, ep->num);
 730              		.loc 1 260 7 is_stmt 1 discriminator 3 view .LVU231
 731              	.LBE19:
 260:Drivers/STM32F3xx_HAL_Driver/Src/stm32f3xx_ll_usb.c ****       PCD_CLEAR_TX_DTOG(USBx, ep->num);
 732              		.loc 1 260 7 discriminator 3 view .LVU232
 261:Drivers/STM32F3xx_HAL_Driver/Src/stm32f3xx_ll_usb.c **** 
 733              		.loc 1 261 7 discriminator 3 view .LVU233
 734              	.LBB21:
ARM GAS  /var/folders/jw/jcj5j9_530958b2rm5vp9wn00000gn/T//ccDSMjf4.s 			page 20


 261:Drivers/STM32F3xx_HAL_Driver/Src/stm32f3xx_ll_usb.c **** 
 735              		.loc 1 261 7 discriminator 3 view .LVU234
 261:Drivers/STM32F3xx_HAL_Driver/Src/stm32f3xx_ll_usb.c **** 
 736              		.loc 1 261 7 discriminator 3 view .LVU235
 737 0236 0C78     		ldrb	r4, [r1]	@ zero_extendqisi2
 738 0238 33F82420 		ldrh	r2, [r3, r4, lsl #2]
 739              	.LVL75:
 261:Drivers/STM32F3xx_HAL_Driver/Src/stm32f3xx_ll_usb.c **** 
 740              		.loc 1 261 7 discriminator 3 view .LVU236
 741 023c 12F0400F 		tst	r2, #64
 742 0240 0CD0     		beq	.L28
 261:Drivers/STM32F3xx_HAL_Driver/Src/stm32f3xx_ll_usb.c **** 
 743              		.loc 1 261 7 discriminator 1 view .LVU237
 744              	.LBB22:
 261:Drivers/STM32F3xx_HAL_Driver/Src/stm32f3xx_ll_usb.c **** 
 745              		.loc 1 261 7 discriminator 1 view .LVU238
 261:Drivers/STM32F3xx_HAL_Driver/Src/stm32f3xx_ll_usb.c **** 
 746              		.loc 1 261 7 discriminator 1 view .LVU239
 747 0242 33F82420 		ldrh	r2, [r3, r4, lsl #2]
 748              	.LVL76:
 261:Drivers/STM32F3xx_HAL_Driver/Src/stm32f3xx_ll_usb.c **** 
 749              		.loc 1 261 7 is_stmt 0 discriminator 1 view .LVU240
 750 0246 92B2     		uxth	r2, r2
 751 0248 22F4E042 		bic	r2, r2, #28672
 752 024c 22F07002 		bic	r2, r2, #112
 753              	.LVL77:
 261:Drivers/STM32F3xx_HAL_Driver/Src/stm32f3xx_ll_usb.c **** 
 754              		.loc 1 261 7 is_stmt 1 discriminator 1 view .LVU241
 755 0250 42F40042 		orr	r2, r2, #32768
 756              	.LVL78:
 261:Drivers/STM32F3xx_HAL_Driver/Src/stm32f3xx_ll_usb.c **** 
 757              		.loc 1 261 7 is_stmt 0 discriminator 1 view .LVU242
 758 0254 42F0C002 		orr	r2, r2, #192
 759 0258 23F82420 		strh	r2, [r3, r4, lsl #2]	@ movhi
 760              	.L28:
 261:Drivers/STM32F3xx_HAL_Driver/Src/stm32f3xx_ll_usb.c **** 
 761              		.loc 1 261 7 discriminator 1 view .LVU243
 762              	.LBE22:
 261:Drivers/STM32F3xx_HAL_Driver/Src/stm32f3xx_ll_usb.c **** 
 763              		.loc 1 261 7 is_stmt 1 discriminator 3 view .LVU244
 764              	.LBE21:
 261:Drivers/STM32F3xx_HAL_Driver/Src/stm32f3xx_ll_usb.c **** 
 765              		.loc 1 261 7 discriminator 3 view .LVU245
 263:Drivers/STM32F3xx_HAL_Driver/Src/stm32f3xx_ll_usb.c ****       PCD_SET_EP_TX_STATUS(USBx, ep->num, USB_EP_TX_DIS);
 766              		.loc 1 263 7 discriminator 3 view .LVU246
 767              	.LBB23:
 263:Drivers/STM32F3xx_HAL_Driver/Src/stm32f3xx_ll_usb.c ****       PCD_SET_EP_TX_STATUS(USBx, ep->num, USB_EP_TX_DIS);
 768              		.loc 1 263 7 discriminator 3 view .LVU247
 263:Drivers/STM32F3xx_HAL_Driver/Src/stm32f3xx_ll_usb.c ****       PCD_SET_EP_TX_STATUS(USBx, ep->num, USB_EP_TX_DIS);
 769              		.loc 1 263 7 discriminator 3 view .LVU248
 770 025c 0D78     		ldrb	r5, [r1]	@ zero_extendqisi2
 771 025e 33F82520 		ldrh	r2, [r3, r5, lsl #2]
 772 0262 92B2     		uxth	r2, r2
 773 0264 22F48042 		bic	r2, r2, #16384
 774 0268 22F07002 		bic	r2, r2, #112
 775              	.LVL79:
 263:Drivers/STM32F3xx_HAL_Driver/Src/stm32f3xx_ll_usb.c ****       PCD_SET_EP_TX_STATUS(USBx, ep->num, USB_EP_TX_DIS);
ARM GAS  /var/folders/jw/jcj5j9_530958b2rm5vp9wn00000gn/T//ccDSMjf4.s 			page 21


 776              		.loc 1 263 7 discriminator 3 view .LVU249
 263:Drivers/STM32F3xx_HAL_Driver/Src/stm32f3xx_ll_usb.c ****       PCD_SET_EP_TX_STATUS(USBx, ep->num, USB_EP_TX_DIS);
 777              		.loc 1 263 7 discriminator 3 view .LVU250
 263:Drivers/STM32F3xx_HAL_Driver/Src/stm32f3xx_ll_usb.c ****       PCD_SET_EP_TX_STATUS(USBx, ep->num, USB_EP_TX_DIS);
 778              		.loc 1 263 7 discriminator 3 view .LVU251
 263:Drivers/STM32F3xx_HAL_Driver/Src/stm32f3xx_ll_usb.c ****       PCD_SET_EP_TX_STATUS(USBx, ep->num, USB_EP_TX_DIS);
 779              		.loc 1 263 7 discriminator 3 view .LVU252
 780 026c 82F44052 		eor	r2, r2, #12288
 781              	.LVL80:
 263:Drivers/STM32F3xx_HAL_Driver/Src/stm32f3xx_ll_usb.c ****       PCD_SET_EP_TX_STATUS(USBx, ep->num, USB_EP_TX_DIS);
 782              		.loc 1 263 7 discriminator 3 view .LVU253
 783 0270 48F28004 		movw	r4, #32896
 784 0274 2243     		orrs	r2, r2, r4
 785              	.LVL81:
 263:Drivers/STM32F3xx_HAL_Driver/Src/stm32f3xx_ll_usb.c ****       PCD_SET_EP_TX_STATUS(USBx, ep->num, USB_EP_TX_DIS);
 786              		.loc 1 263 7 is_stmt 0 discriminator 3 view .LVU254
 787 0276 23F82520 		strh	r2, [r3, r5, lsl #2]	@ movhi
 788              	.LBE23:
 263:Drivers/STM32F3xx_HAL_Driver/Src/stm32f3xx_ll_usb.c ****       PCD_SET_EP_TX_STATUS(USBx, ep->num, USB_EP_TX_DIS);
 789              		.loc 1 263 7 is_stmt 1 discriminator 3 view .LVU255
 264:Drivers/STM32F3xx_HAL_Driver/Src/stm32f3xx_ll_usb.c ****     }
 790              		.loc 1 264 7 discriminator 3 view .LVU256
 791              	.LBB24:
 264:Drivers/STM32F3xx_HAL_Driver/Src/stm32f3xx_ll_usb.c ****     }
 792              		.loc 1 264 7 discriminator 3 view .LVU257
 264:Drivers/STM32F3xx_HAL_Driver/Src/stm32f3xx_ll_usb.c ****     }
 793              		.loc 1 264 7 discriminator 3 view .LVU258
 794 027a 0978     		ldrb	r1, [r1]	@ zero_extendqisi2
 795              	.LVL82:
 264:Drivers/STM32F3xx_HAL_Driver/Src/stm32f3xx_ll_usb.c ****     }
 796              		.loc 1 264 7 is_stmt 0 discriminator 3 view .LVU259
 797 027c 33F82120 		ldrh	r2, [r3, r1, lsl #2]
 798 0280 92B2     		uxth	r2, r2
 799 0282 22F4E042 		bic	r2, r2, #28672
 800 0286 22F04002 		bic	r2, r2, #64
 801              	.LVL83:
 264:Drivers/STM32F3xx_HAL_Driver/Src/stm32f3xx_ll_usb.c ****     }
 802              		.loc 1 264 7 is_stmt 1 discriminator 3 view .LVU260
 264:Drivers/STM32F3xx_HAL_Driver/Src/stm32f3xx_ll_usb.c ****     }
 803              		.loc 1 264 7 discriminator 3 view .LVU261
 264:Drivers/STM32F3xx_HAL_Driver/Src/stm32f3xx_ll_usb.c ****     }
 804              		.loc 1 264 7 discriminator 3 view .LVU262
 805 028a 2243     		orrs	r2, r2, r4
 806              	.LVL84:
 264:Drivers/STM32F3xx_HAL_Driver/Src/stm32f3xx_ll_usb.c ****     }
 807              		.loc 1 264 7 is_stmt 0 discriminator 3 view .LVU263
 808 028c 23F82120 		strh	r2, [r3, r1, lsl #2]	@ movhi
 809              	.LBE24:
 264:Drivers/STM32F3xx_HAL_Driver/Src/stm32f3xx_ll_usb.c ****     }
 810              		.loc 1 264 7 is_stmt 1 discriminator 3 view .LVU264
 811 0290 7AE7     		b	.L19
 812              	.LVL85:
 813              	.L26:
 269:Drivers/STM32F3xx_HAL_Driver/Src/stm32f3xx_ll_usb.c ****       PCD_CLEAR_TX_DTOG(USBx, ep->num);
 814              		.loc 1 269 7 view .LVU265
 815              	.LBB25:
 269:Drivers/STM32F3xx_HAL_Driver/Src/stm32f3xx_ll_usb.c ****       PCD_CLEAR_TX_DTOG(USBx, ep->num);
ARM GAS  /var/folders/jw/jcj5j9_530958b2rm5vp9wn00000gn/T//ccDSMjf4.s 			page 22


 816              		.loc 1 269 7 view .LVU266
 269:Drivers/STM32F3xx_HAL_Driver/Src/stm32f3xx_ll_usb.c ****       PCD_CLEAR_TX_DTOG(USBx, ep->num);
 817              		.loc 1 269 7 view .LVU267
 818 0292 0C78     		ldrb	r4, [r1]	@ zero_extendqisi2
 819 0294 33F82420 		ldrh	r2, [r3, r4, lsl #2]
 820              	.LVL86:
 269:Drivers/STM32F3xx_HAL_Driver/Src/stm32f3xx_ll_usb.c ****       PCD_CLEAR_TX_DTOG(USBx, ep->num);
 821              		.loc 1 269 7 view .LVU268
 822 0298 12F4804F 		tst	r2, #16384
 823 029c 0CD0     		beq	.L29
 269:Drivers/STM32F3xx_HAL_Driver/Src/stm32f3xx_ll_usb.c ****       PCD_CLEAR_TX_DTOG(USBx, ep->num);
 824              		.loc 1 269 7 discriminator 1 view .LVU269
 825              	.LBB26:
 269:Drivers/STM32F3xx_HAL_Driver/Src/stm32f3xx_ll_usb.c ****       PCD_CLEAR_TX_DTOG(USBx, ep->num);
 826              		.loc 1 269 7 discriminator 1 view .LVU270
 269:Drivers/STM32F3xx_HAL_Driver/Src/stm32f3xx_ll_usb.c ****       PCD_CLEAR_TX_DTOG(USBx, ep->num);
 827              		.loc 1 269 7 discriminator 1 view .LVU271
 828 029e 33F82420 		ldrh	r2, [r3, r4, lsl #2]
 829              	.LVL87:
 269:Drivers/STM32F3xx_HAL_Driver/Src/stm32f3xx_ll_usb.c ****       PCD_CLEAR_TX_DTOG(USBx, ep->num);
 830              		.loc 1 269 7 is_stmt 0 discriminator 1 view .LVU272
 831 02a2 92B2     		uxth	r2, r2
 832 02a4 22F4E042 		bic	r2, r2, #28672
 833 02a8 22F07002 		bic	r2, r2, #112
 834              	.LVL88:
 269:Drivers/STM32F3xx_HAL_Driver/Src/stm32f3xx_ll_usb.c ****       PCD_CLEAR_TX_DTOG(USBx, ep->num);
 835              		.loc 1 269 7 is_stmt 1 discriminator 1 view .LVU273
 836 02ac 42F44042 		orr	r2, r2, #49152
 837              	.LVL89:
 269:Drivers/STM32F3xx_HAL_Driver/Src/stm32f3xx_ll_usb.c ****       PCD_CLEAR_TX_DTOG(USBx, ep->num);
 838              		.loc 1 269 7 is_stmt 0 discriminator 1 view .LVU274
 839 02b0 42F08002 		orr	r2, r2, #128
 840 02b4 23F82420 		strh	r2, [r3, r4, lsl #2]	@ movhi
 841              	.L29:
 269:Drivers/STM32F3xx_HAL_Driver/Src/stm32f3xx_ll_usb.c ****       PCD_CLEAR_TX_DTOG(USBx, ep->num);
 842              		.loc 1 269 7 discriminator 1 view .LVU275
 843              	.LBE26:
 269:Drivers/STM32F3xx_HAL_Driver/Src/stm32f3xx_ll_usb.c ****       PCD_CLEAR_TX_DTOG(USBx, ep->num);
 844              		.loc 1 269 7 is_stmt 1 discriminator 3 view .LVU276
 845              	.LBE25:
 269:Drivers/STM32F3xx_HAL_Driver/Src/stm32f3xx_ll_usb.c ****       PCD_CLEAR_TX_DTOG(USBx, ep->num);
 846              		.loc 1 269 7 discriminator 3 view .LVU277
 270:Drivers/STM32F3xx_HAL_Driver/Src/stm32f3xx_ll_usb.c **** 
 847              		.loc 1 270 7 discriminator 3 view .LVU278
 848              	.LBB27:
 270:Drivers/STM32F3xx_HAL_Driver/Src/stm32f3xx_ll_usb.c **** 
 849              		.loc 1 270 7 discriminator 3 view .LVU279
 270:Drivers/STM32F3xx_HAL_Driver/Src/stm32f3xx_ll_usb.c **** 
 850              		.loc 1 270 7 discriminator 3 view .LVU280
 851 02b8 0C78     		ldrb	r4, [r1]	@ zero_extendqisi2
 852 02ba 33F82420 		ldrh	r2, [r3, r4, lsl #2]
 853              	.LVL90:
 270:Drivers/STM32F3xx_HAL_Driver/Src/stm32f3xx_ll_usb.c **** 
 854              		.loc 1 270 7 discriminator 3 view .LVU281
 855 02be 12F0400F 		tst	r2, #64
 856 02c2 0CD0     		beq	.L30
 270:Drivers/STM32F3xx_HAL_Driver/Src/stm32f3xx_ll_usb.c **** 
ARM GAS  /var/folders/jw/jcj5j9_530958b2rm5vp9wn00000gn/T//ccDSMjf4.s 			page 23


 857              		.loc 1 270 7 discriminator 1 view .LVU282
 858              	.LBB28:
 270:Drivers/STM32F3xx_HAL_Driver/Src/stm32f3xx_ll_usb.c **** 
 859              		.loc 1 270 7 discriminator 1 view .LVU283
 270:Drivers/STM32F3xx_HAL_Driver/Src/stm32f3xx_ll_usb.c **** 
 860              		.loc 1 270 7 discriminator 1 view .LVU284
 861 02c4 33F82420 		ldrh	r2, [r3, r4, lsl #2]
 862              	.LVL91:
 270:Drivers/STM32F3xx_HAL_Driver/Src/stm32f3xx_ll_usb.c **** 
 863              		.loc 1 270 7 is_stmt 0 discriminator 1 view .LVU285
 864 02c8 92B2     		uxth	r2, r2
 865 02ca 22F4E042 		bic	r2, r2, #28672
 866 02ce 22F07002 		bic	r2, r2, #112
 867              	.LVL92:
 270:Drivers/STM32F3xx_HAL_Driver/Src/stm32f3xx_ll_usb.c **** 
 868              		.loc 1 270 7 is_stmt 1 discriminator 1 view .LVU286
 869 02d2 42F40042 		orr	r2, r2, #32768
 870              	.LVL93:
 270:Drivers/STM32F3xx_HAL_Driver/Src/stm32f3xx_ll_usb.c **** 
 871              		.loc 1 270 7 is_stmt 0 discriminator 1 view .LVU287
 872 02d6 42F0C002 		orr	r2, r2, #192
 873 02da 23F82420 		strh	r2, [r3, r4, lsl #2]	@ movhi
 874              	.L30:
 270:Drivers/STM32F3xx_HAL_Driver/Src/stm32f3xx_ll_usb.c **** 
 875              		.loc 1 270 7 discriminator 1 view .LVU288
 876              	.LBE28:
 270:Drivers/STM32F3xx_HAL_Driver/Src/stm32f3xx_ll_usb.c **** 
 877              		.loc 1 270 7 is_stmt 1 discriminator 3 view .LVU289
 878              	.LBE27:
 270:Drivers/STM32F3xx_HAL_Driver/Src/stm32f3xx_ll_usb.c **** 
 879              		.loc 1 270 7 discriminator 3 view .LVU290
 272:Drivers/STM32F3xx_HAL_Driver/Src/stm32f3xx_ll_usb.c ****       {
 880              		.loc 1 272 7 discriminator 3 view .LVU291
 272:Drivers/STM32F3xx_HAL_Driver/Src/stm32f3xx_ll_usb.c ****       {
 881              		.loc 1 272 13 is_stmt 0 discriminator 3 view .LVU292
 882 02de CA78     		ldrb	r2, [r1, #3]	@ zero_extendqisi2
 272:Drivers/STM32F3xx_HAL_Driver/Src/stm32f3xx_ll_usb.c ****       {
 883              		.loc 1 272 10 discriminator 3 view .LVU293
 884 02e0 012A     		cmp	r2, #1
 885 02e2 1ED0     		beq	.L31
 275:Drivers/STM32F3xx_HAL_Driver/Src/stm32f3xx_ll_usb.c ****       }
 886              		.loc 1 275 9 is_stmt 1 view .LVU294
 887              	.LBB29:
 275:Drivers/STM32F3xx_HAL_Driver/Src/stm32f3xx_ll_usb.c ****       }
 888              		.loc 1 275 9 view .LVU295
 275:Drivers/STM32F3xx_HAL_Driver/Src/stm32f3xx_ll_usb.c ****       }
 889              		.loc 1 275 9 view .LVU296
 890 02e4 0C78     		ldrb	r4, [r1]	@ zero_extendqisi2
 891 02e6 33F82420 		ldrh	r2, [r3, r4, lsl #2]
 892 02ea 92B2     		uxth	r2, r2
 893 02ec 22F4E042 		bic	r2, r2, #28672
 894 02f0 22F04002 		bic	r2, r2, #64
 895              	.LVL94:
 275:Drivers/STM32F3xx_HAL_Driver/Src/stm32f3xx_ll_usb.c ****       }
 896              		.loc 1 275 9 view .LVU297
 275:Drivers/STM32F3xx_HAL_Driver/Src/stm32f3xx_ll_usb.c ****       }
 897              		.loc 1 275 9 view .LVU298
ARM GAS  /var/folders/jw/jcj5j9_530958b2rm5vp9wn00000gn/T//ccDSMjf4.s 			page 24


 275:Drivers/STM32F3xx_HAL_Driver/Src/stm32f3xx_ll_usb.c ****       }
 898              		.loc 1 275 9 view .LVU299
 899 02f4 82F02002 		eor	r2, r2, #32
 900              	.LVL95:
 275:Drivers/STM32F3xx_HAL_Driver/Src/stm32f3xx_ll_usb.c ****       }
 901              		.loc 1 275 9 view .LVU300
 902 02f8 42F40042 		orr	r2, r2, #32768
 903              	.LVL96:
 275:Drivers/STM32F3xx_HAL_Driver/Src/stm32f3xx_ll_usb.c ****       }
 904              		.loc 1 275 9 is_stmt 0 view .LVU301
 905 02fc 42F08002 		orr	r2, r2, #128
 906 0300 23F82420 		strh	r2, [r3, r4, lsl #2]	@ movhi
 907              	.LBE29:
 275:Drivers/STM32F3xx_HAL_Driver/Src/stm32f3xx_ll_usb.c ****       }
 908              		.loc 1 275 9 is_stmt 1 view .LVU302
 909              	.L32:
 280:Drivers/STM32F3xx_HAL_Driver/Src/stm32f3xx_ll_usb.c ****       }
 910              		.loc 1 280 9 discriminator 7 view .LVU303
 283:Drivers/STM32F3xx_HAL_Driver/Src/stm32f3xx_ll_usb.c ****     }
 911              		.loc 1 283 7 discriminator 7 view .LVU304
 912              	.LBB30:
 283:Drivers/STM32F3xx_HAL_Driver/Src/stm32f3xx_ll_usb.c ****     }
 913              		.loc 1 283 7 discriminator 7 view .LVU305
 283:Drivers/STM32F3xx_HAL_Driver/Src/stm32f3xx_ll_usb.c ****     }
 914              		.loc 1 283 7 discriminator 7 view .LVU306
 915 0304 0978     		ldrb	r1, [r1]	@ zero_extendqisi2
 916              	.LVL97:
 283:Drivers/STM32F3xx_HAL_Driver/Src/stm32f3xx_ll_usb.c ****     }
 917              		.loc 1 283 7 is_stmt 0 discriminator 7 view .LVU307
 918 0306 33F82120 		ldrh	r2, [r3, r1, lsl #2]
 919 030a 92B2     		uxth	r2, r2
 920 030c 22F48042 		bic	r2, r2, #16384
 921 0310 22F07002 		bic	r2, r2, #112
 922              	.LVL98:
 283:Drivers/STM32F3xx_HAL_Driver/Src/stm32f3xx_ll_usb.c ****     }
 923              		.loc 1 283 7 is_stmt 1 discriminator 7 view .LVU308
 283:Drivers/STM32F3xx_HAL_Driver/Src/stm32f3xx_ll_usb.c ****     }
 924              		.loc 1 283 7 discriminator 7 view .LVU309
 283:Drivers/STM32F3xx_HAL_Driver/Src/stm32f3xx_ll_usb.c ****     }
 925              		.loc 1 283 7 discriminator 7 view .LVU310
 926 0314 42F40042 		orr	r2, r2, #32768
 927              	.LVL99:
 283:Drivers/STM32F3xx_HAL_Driver/Src/stm32f3xx_ll_usb.c ****     }
 928              		.loc 1 283 7 is_stmt 0 discriminator 7 view .LVU311
 929 0318 42F08002 		orr	r2, r2, #128
 930 031c 23F82120 		strh	r2, [r3, r1, lsl #2]	@ movhi
 931 0320 32E7     		b	.L19
 932              	.LVL100:
 933              	.L31:
 283:Drivers/STM32F3xx_HAL_Driver/Src/stm32f3xx_ll_usb.c ****     }
 934              		.loc 1 283 7 discriminator 7 view .LVU312
 935              	.LBE30:
 280:Drivers/STM32F3xx_HAL_Driver/Src/stm32f3xx_ll_usb.c ****       }
 936              		.loc 1 280 9 is_stmt 1 view .LVU313
 937              	.LBB31:
 280:Drivers/STM32F3xx_HAL_Driver/Src/stm32f3xx_ll_usb.c ****       }
 938              		.loc 1 280 9 view .LVU314
ARM GAS  /var/folders/jw/jcj5j9_530958b2rm5vp9wn00000gn/T//ccDSMjf4.s 			page 25


 280:Drivers/STM32F3xx_HAL_Driver/Src/stm32f3xx_ll_usb.c ****       }
 939              		.loc 1 280 9 view .LVU315
 940 0322 0C78     		ldrb	r4, [r1]	@ zero_extendqisi2
 941 0324 33F82420 		ldrh	r2, [r3, r4, lsl #2]
 942 0328 92B2     		uxth	r2, r2
 943 032a 22F4E042 		bic	r2, r2, #28672
 944 032e 22F04002 		bic	r2, r2, #64
 945              	.LVL101:
 280:Drivers/STM32F3xx_HAL_Driver/Src/stm32f3xx_ll_usb.c ****       }
 946              		.loc 1 280 9 view .LVU316
 280:Drivers/STM32F3xx_HAL_Driver/Src/stm32f3xx_ll_usb.c ****       }
 947              		.loc 1 280 9 view .LVU317
 280:Drivers/STM32F3xx_HAL_Driver/Src/stm32f3xx_ll_usb.c ****       }
 948              		.loc 1 280 9 view .LVU318
 949 0332 42F40042 		orr	r2, r2, #32768
 950              	.LVL102:
 280:Drivers/STM32F3xx_HAL_Driver/Src/stm32f3xx_ll_usb.c ****       }
 951              		.loc 1 280 9 is_stmt 0 view .LVU319
 952 0336 42F08002 		orr	r2, r2, #128
 953 033a 23F82420 		strh	r2, [r3, r4, lsl #2]	@ movhi
 954 033e E1E7     		b	.L32
 955              	.LBE31:
 956              		.cfi_endproc
 957              	.LFE135:
 959              		.section	.text.USB_DeactivateEndpoint,"ax",%progbits
 960              		.align	1
 961              		.global	USB_DeactivateEndpoint
 962              		.syntax unified
 963              		.thumb
 964              		.thumb_func
 965              		.fpu fpv4-sp-d16
 967              	USB_DeactivateEndpoint:
 968              	.LVL103:
 969              	.LFB136:
 289:Drivers/STM32F3xx_HAL_Driver/Src/stm32f3xx_ll_usb.c **** 
 290:Drivers/STM32F3xx_HAL_Driver/Src/stm32f3xx_ll_usb.c **** /**
 291:Drivers/STM32F3xx_HAL_Driver/Src/stm32f3xx_ll_usb.c ****   * @brief  De-activate and de-initialize an endpoint
 292:Drivers/STM32F3xx_HAL_Driver/Src/stm32f3xx_ll_usb.c ****   * @param  USBx Selected device
 293:Drivers/STM32F3xx_HAL_Driver/Src/stm32f3xx_ll_usb.c ****   * @param  ep pointer to endpoint structure
 294:Drivers/STM32F3xx_HAL_Driver/Src/stm32f3xx_ll_usb.c ****   * @retval HAL status
 295:Drivers/STM32F3xx_HAL_Driver/Src/stm32f3xx_ll_usb.c ****   */
 296:Drivers/STM32F3xx_HAL_Driver/Src/stm32f3xx_ll_usb.c **** HAL_StatusTypeDef USB_DeactivateEndpoint(USB_TypeDef *USBx, USB_EPTypeDef *ep)
 297:Drivers/STM32F3xx_HAL_Driver/Src/stm32f3xx_ll_usb.c **** {
 970              		.loc 1 297 1 is_stmt 1 view -0
 971              		.cfi_startproc
 972              		@ args = 0, pretend = 0, frame = 0
 973              		@ frame_needed = 0, uses_anonymous_args = 0
 974              		@ link register save eliminated.
 298:Drivers/STM32F3xx_HAL_Driver/Src/stm32f3xx_ll_usb.c ****   if (ep->doublebuffer == 0U)
 975              		.loc 1 298 3 view .LVU321
 976              		.loc 1 298 9 is_stmt 0 view .LVU322
 977 0000 0B7B     		ldrb	r3, [r1, #12]	@ zero_extendqisi2
 978              		.loc 1 298 6 view .LVU323
 979 0002 002B     		cmp	r3, #0
 980 0004 46D1     		bne	.L36
 299:Drivers/STM32F3xx_HAL_Driver/Src/stm32f3xx_ll_usb.c ****   {
 300:Drivers/STM32F3xx_HAL_Driver/Src/stm32f3xx_ll_usb.c ****     if (ep->is_in != 0U)
ARM GAS  /var/folders/jw/jcj5j9_530958b2rm5vp9wn00000gn/T//ccDSMjf4.s 			page 26


 981              		.loc 1 300 5 is_stmt 1 view .LVU324
 982              		.loc 1 300 11 is_stmt 0 view .LVU325
 983 0006 4B78     		ldrb	r3, [r1, #1]	@ zero_extendqisi2
 984              		.loc 1 300 8 view .LVU326
 985 0008 13B3     		cbz	r3, .L37
 301:Drivers/STM32F3xx_HAL_Driver/Src/stm32f3xx_ll_usb.c ****     {
 302:Drivers/STM32F3xx_HAL_Driver/Src/stm32f3xx_ll_usb.c ****       PCD_CLEAR_TX_DTOG(USBx, ep->num);
 986              		.loc 1 302 7 is_stmt 1 view .LVU327
 987              	.LBB32:
 988              		.loc 1 302 7 view .LVU328
 989              		.loc 1 302 7 view .LVU329
 990 000a 0A78     		ldrb	r2, [r1]	@ zero_extendqisi2
 991 000c 30F82230 		ldrh	r3, [r0, r2, lsl #2]
 992              	.LVL104:
 993              		.loc 1 302 7 view .LVU330
 994 0010 13F0400F 		tst	r3, #64
 995 0014 0CD0     		beq	.L38
 996              		.loc 1 302 7 discriminator 1 view .LVU331
 997              	.LBB33:
 998              		.loc 1 302 7 discriminator 1 view .LVU332
 999              		.loc 1 302 7 discriminator 1 view .LVU333
 1000 0016 30F82230 		ldrh	r3, [r0, r2, lsl #2]
 1001              	.LVL105:
 1002              		.loc 1 302 7 is_stmt 0 discriminator 1 view .LVU334
 1003 001a 9BB2     		uxth	r3, r3
 1004 001c 23F4E043 		bic	r3, r3, #28672
 1005 0020 23F07003 		bic	r3, r3, #112
 1006              	.LVL106:
 1007              		.loc 1 302 7 is_stmt 1 discriminator 1 view .LVU335
 1008 0024 43F40043 		orr	r3, r3, #32768
 1009              	.LVL107:
 1010              		.loc 1 302 7 is_stmt 0 discriminator 1 view .LVU336
 1011 0028 43F0C003 		orr	r3, r3, #192
 1012 002c 20F82230 		strh	r3, [r0, r2, lsl #2]	@ movhi
 1013              	.L38:
 1014              		.loc 1 302 7 discriminator 1 view .LVU337
 1015              	.LBE33:
 1016              		.loc 1 302 7 is_stmt 1 discriminator 3 view .LVU338
 1017              	.LBE32:
 1018              		.loc 1 302 7 discriminator 3 view .LVU339
 303:Drivers/STM32F3xx_HAL_Driver/Src/stm32f3xx_ll_usb.c **** 
 304:Drivers/STM32F3xx_HAL_Driver/Src/stm32f3xx_ll_usb.c ****       /* Configure DISABLE status for the Endpoint*/
 305:Drivers/STM32F3xx_HAL_Driver/Src/stm32f3xx_ll_usb.c ****       PCD_SET_EP_TX_STATUS(USBx, ep->num, USB_EP_TX_DIS);
 1019              		.loc 1 305 7 discriminator 3 view .LVU340
 1020              	.LBB34:
 1021              		.loc 1 305 7 discriminator 3 view .LVU341
 1022              		.loc 1 305 7 discriminator 3 view .LVU342
 1023 0030 0A78     		ldrb	r2, [r1]	@ zero_extendqisi2
 1024 0032 30F82230 		ldrh	r3, [r0, r2, lsl #2]
 1025 0036 9BB2     		uxth	r3, r3
 1026 0038 23F4E043 		bic	r3, r3, #28672
 1027 003c 23F04003 		bic	r3, r3, #64
 1028              	.LVL108:
 1029              		.loc 1 305 7 discriminator 3 view .LVU343
 1030              		.loc 1 305 7 discriminator 3 view .LVU344
 1031              		.loc 1 305 7 discriminator 3 view .LVU345
 1032 0040 43F40043 		orr	r3, r3, #32768
ARM GAS  /var/folders/jw/jcj5j9_530958b2rm5vp9wn00000gn/T//ccDSMjf4.s 			page 27


 1033              	.LVL109:
 1034              		.loc 1 305 7 is_stmt 0 discriminator 3 view .LVU346
 1035 0044 43F08003 		orr	r3, r3, #128
 1036 0048 20F82230 		strh	r3, [r0, r2, lsl #2]	@ movhi
 1037              	.LBE34:
 1038              		.loc 1 305 7 is_stmt 1 discriminator 3 view .LVU347
 1039              	.L47:
 306:Drivers/STM32F3xx_HAL_Driver/Src/stm32f3xx_ll_usb.c ****     }
 307:Drivers/STM32F3xx_HAL_Driver/Src/stm32f3xx_ll_usb.c ****     else
 308:Drivers/STM32F3xx_HAL_Driver/Src/stm32f3xx_ll_usb.c ****     {
 309:Drivers/STM32F3xx_HAL_Driver/Src/stm32f3xx_ll_usb.c ****       PCD_CLEAR_RX_DTOG(USBx, ep->num);
 310:Drivers/STM32F3xx_HAL_Driver/Src/stm32f3xx_ll_usb.c **** 
 311:Drivers/STM32F3xx_HAL_Driver/Src/stm32f3xx_ll_usb.c ****       /* Configure DISABLE status for the Endpoint*/
 312:Drivers/STM32F3xx_HAL_Driver/Src/stm32f3xx_ll_usb.c ****       PCD_SET_EP_RX_STATUS(USBx, ep->num, USB_EP_RX_DIS);
 313:Drivers/STM32F3xx_HAL_Driver/Src/stm32f3xx_ll_usb.c ****     }
 314:Drivers/STM32F3xx_HAL_Driver/Src/stm32f3xx_ll_usb.c ****   }
 315:Drivers/STM32F3xx_HAL_Driver/Src/stm32f3xx_ll_usb.c ****   /*Double Buffer*/
 316:Drivers/STM32F3xx_HAL_Driver/Src/stm32f3xx_ll_usb.c ****   else
 317:Drivers/STM32F3xx_HAL_Driver/Src/stm32f3xx_ll_usb.c ****   {
 318:Drivers/STM32F3xx_HAL_Driver/Src/stm32f3xx_ll_usb.c ****     if (ep->is_in == 0U)
 319:Drivers/STM32F3xx_HAL_Driver/Src/stm32f3xx_ll_usb.c ****     {
 320:Drivers/STM32F3xx_HAL_Driver/Src/stm32f3xx_ll_usb.c ****       /* Clear the data toggle bits for the endpoint IN/OUT*/
 321:Drivers/STM32F3xx_HAL_Driver/Src/stm32f3xx_ll_usb.c ****       PCD_CLEAR_RX_DTOG(USBx, ep->num);
 322:Drivers/STM32F3xx_HAL_Driver/Src/stm32f3xx_ll_usb.c ****       PCD_CLEAR_TX_DTOG(USBx, ep->num);
 323:Drivers/STM32F3xx_HAL_Driver/Src/stm32f3xx_ll_usb.c **** 
 324:Drivers/STM32F3xx_HAL_Driver/Src/stm32f3xx_ll_usb.c ****       /* Reset value of the data toggle bits for the endpoint out*/
 325:Drivers/STM32F3xx_HAL_Driver/Src/stm32f3xx_ll_usb.c ****       PCD_TX_DTOG(USBx, ep->num);
 326:Drivers/STM32F3xx_HAL_Driver/Src/stm32f3xx_ll_usb.c **** 
 327:Drivers/STM32F3xx_HAL_Driver/Src/stm32f3xx_ll_usb.c ****       PCD_SET_EP_RX_STATUS(USBx, ep->num, USB_EP_RX_DIS);
 328:Drivers/STM32F3xx_HAL_Driver/Src/stm32f3xx_ll_usb.c ****       PCD_SET_EP_TX_STATUS(USBx, ep->num, USB_EP_TX_DIS);
 329:Drivers/STM32F3xx_HAL_Driver/Src/stm32f3xx_ll_usb.c ****     }
 330:Drivers/STM32F3xx_HAL_Driver/Src/stm32f3xx_ll_usb.c ****     else
 331:Drivers/STM32F3xx_HAL_Driver/Src/stm32f3xx_ll_usb.c ****     {
 332:Drivers/STM32F3xx_HAL_Driver/Src/stm32f3xx_ll_usb.c ****       /* Clear the data toggle bits for the endpoint IN/OUT*/
 333:Drivers/STM32F3xx_HAL_Driver/Src/stm32f3xx_ll_usb.c ****       PCD_CLEAR_RX_DTOG(USBx, ep->num);
 334:Drivers/STM32F3xx_HAL_Driver/Src/stm32f3xx_ll_usb.c ****       PCD_CLEAR_TX_DTOG(USBx, ep->num);
 335:Drivers/STM32F3xx_HAL_Driver/Src/stm32f3xx_ll_usb.c ****       PCD_RX_DTOG(USBx, ep->num);
 336:Drivers/STM32F3xx_HAL_Driver/Src/stm32f3xx_ll_usb.c **** 
 337:Drivers/STM32F3xx_HAL_Driver/Src/stm32f3xx_ll_usb.c ****       /* Configure DISABLE status for the Endpoint*/
 338:Drivers/STM32F3xx_HAL_Driver/Src/stm32f3xx_ll_usb.c ****       PCD_SET_EP_TX_STATUS(USBx, ep->num, USB_EP_TX_DIS);
 339:Drivers/STM32F3xx_HAL_Driver/Src/stm32f3xx_ll_usb.c ****       PCD_SET_EP_RX_STATUS(USBx, ep->num, USB_EP_RX_DIS);
 1040              		.loc 1 339 7 view .LVU348
 340:Drivers/STM32F3xx_HAL_Driver/Src/stm32f3xx_ll_usb.c ****     }
 341:Drivers/STM32F3xx_HAL_Driver/Src/stm32f3xx_ll_usb.c ****   }
 342:Drivers/STM32F3xx_HAL_Driver/Src/stm32f3xx_ll_usb.c **** 
 343:Drivers/STM32F3xx_HAL_Driver/Src/stm32f3xx_ll_usb.c ****   return HAL_OK;
 1041              		.loc 1 343 3 view .LVU349
 344:Drivers/STM32F3xx_HAL_Driver/Src/stm32f3xx_ll_usb.c **** }
 1042              		.loc 1 344 1 is_stmt 0 view .LVU350
 1043 004c 0020     		movs	r0, #0
 1044              	.LVL110:
 1045              		.loc 1 344 1 view .LVU351
 1046 004e 7047     		bx	lr
 1047              	.LVL111:
 1048              	.L37:
 309:Drivers/STM32F3xx_HAL_Driver/Src/stm32f3xx_ll_usb.c **** 
 1049              		.loc 1 309 7 is_stmt 1 view .LVU352
ARM GAS  /var/folders/jw/jcj5j9_530958b2rm5vp9wn00000gn/T//ccDSMjf4.s 			page 28


 1050              	.LBB35:
 309:Drivers/STM32F3xx_HAL_Driver/Src/stm32f3xx_ll_usb.c **** 
 1051              		.loc 1 309 7 view .LVU353
 309:Drivers/STM32F3xx_HAL_Driver/Src/stm32f3xx_ll_usb.c **** 
 1052              		.loc 1 309 7 view .LVU354
 1053 0050 0A78     		ldrb	r2, [r1]	@ zero_extendqisi2
 1054 0052 30F82230 		ldrh	r3, [r0, r2, lsl #2]
 1055              	.LVL112:
 309:Drivers/STM32F3xx_HAL_Driver/Src/stm32f3xx_ll_usb.c **** 
 1056              		.loc 1 309 7 view .LVU355
 1057 0056 13F4804F 		tst	r3, #16384
 1058 005a 0CD0     		beq	.L40
 309:Drivers/STM32F3xx_HAL_Driver/Src/stm32f3xx_ll_usb.c **** 
 1059              		.loc 1 309 7 discriminator 1 view .LVU356
 1060              	.LBB36:
 309:Drivers/STM32F3xx_HAL_Driver/Src/stm32f3xx_ll_usb.c **** 
 1061              		.loc 1 309 7 discriminator 1 view .LVU357
 309:Drivers/STM32F3xx_HAL_Driver/Src/stm32f3xx_ll_usb.c **** 
 1062              		.loc 1 309 7 discriminator 1 view .LVU358
 1063 005c 30F82230 		ldrh	r3, [r0, r2, lsl #2]
 1064              	.LVL113:
 309:Drivers/STM32F3xx_HAL_Driver/Src/stm32f3xx_ll_usb.c **** 
 1065              		.loc 1 309 7 is_stmt 0 discriminator 1 view .LVU359
 1066 0060 9BB2     		uxth	r3, r3
 1067 0062 23F4E043 		bic	r3, r3, #28672
 1068 0066 23F07003 		bic	r3, r3, #112
 1069              	.LVL114:
 309:Drivers/STM32F3xx_HAL_Driver/Src/stm32f3xx_ll_usb.c **** 
 1070              		.loc 1 309 7 is_stmt 1 discriminator 1 view .LVU360
 1071 006a 43F44043 		orr	r3, r3, #49152
 1072              	.LVL115:
 309:Drivers/STM32F3xx_HAL_Driver/Src/stm32f3xx_ll_usb.c **** 
 1073              		.loc 1 309 7 is_stmt 0 discriminator 1 view .LVU361
 1074 006e 43F08003 		orr	r3, r3, #128
 1075 0072 20F82230 		strh	r3, [r0, r2, lsl #2]	@ movhi
 1076              	.L40:
 309:Drivers/STM32F3xx_HAL_Driver/Src/stm32f3xx_ll_usb.c **** 
 1077              		.loc 1 309 7 discriminator 1 view .LVU362
 1078              	.LBE36:
 309:Drivers/STM32F3xx_HAL_Driver/Src/stm32f3xx_ll_usb.c **** 
 1079              		.loc 1 309 7 is_stmt 1 discriminator 3 view .LVU363
 1080              	.LBE35:
 309:Drivers/STM32F3xx_HAL_Driver/Src/stm32f3xx_ll_usb.c **** 
 1081              		.loc 1 309 7 discriminator 3 view .LVU364
 312:Drivers/STM32F3xx_HAL_Driver/Src/stm32f3xx_ll_usb.c ****     }
 1082              		.loc 1 312 7 discriminator 3 view .LVU365
 1083              	.LBB37:
 312:Drivers/STM32F3xx_HAL_Driver/Src/stm32f3xx_ll_usb.c ****     }
 1084              		.loc 1 312 7 discriminator 3 view .LVU366
 312:Drivers/STM32F3xx_HAL_Driver/Src/stm32f3xx_ll_usb.c ****     }
 1085              		.loc 1 312 7 discriminator 3 view .LVU367
 1086 0076 0A78     		ldrb	r2, [r1]	@ zero_extendqisi2
 1087 0078 30F82230 		ldrh	r3, [r0, r2, lsl #2]
 1088 007c 9BB2     		uxth	r3, r3
 1089 007e 23F48043 		bic	r3, r3, #16384
 1090 0082 23F07003 		bic	r3, r3, #112
 1091              	.LVL116:
ARM GAS  /var/folders/jw/jcj5j9_530958b2rm5vp9wn00000gn/T//ccDSMjf4.s 			page 29


 312:Drivers/STM32F3xx_HAL_Driver/Src/stm32f3xx_ll_usb.c ****     }
 1092              		.loc 1 312 7 discriminator 3 view .LVU368
 312:Drivers/STM32F3xx_HAL_Driver/Src/stm32f3xx_ll_usb.c ****     }
 1093              		.loc 1 312 7 discriminator 3 view .LVU369
 312:Drivers/STM32F3xx_HAL_Driver/Src/stm32f3xx_ll_usb.c ****     }
 1094              		.loc 1 312 7 discriminator 3 view .LVU370
 1095 0086 43F40043 		orr	r3, r3, #32768
 1096              	.LVL117:
 312:Drivers/STM32F3xx_HAL_Driver/Src/stm32f3xx_ll_usb.c ****     }
 1097              		.loc 1 312 7 is_stmt 0 discriminator 3 view .LVU371
 1098 008a 43F08003 		orr	r3, r3, #128
 1099 008e 20F82230 		strh	r3, [r0, r2, lsl #2]	@ movhi
 1100 0092 DBE7     		b	.L47
 1101              	.L36:
 312:Drivers/STM32F3xx_HAL_Driver/Src/stm32f3xx_ll_usb.c ****     }
 1102              		.loc 1 312 7 discriminator 3 view .LVU372
 1103              	.LBE37:
 297:Drivers/STM32F3xx_HAL_Driver/Src/stm32f3xx_ll_usb.c ****   if (ep->doublebuffer == 0U)
 1104              		.loc 1 297 1 view .LVU373
 1105 0094 10B4     		push	{r4}
 1106              	.LCFI9:
 1107              		.cfi_def_cfa_offset 4
 1108              		.cfi_offset 4, -4
 318:Drivers/STM32F3xx_HAL_Driver/Src/stm32f3xx_ll_usb.c ****     {
 1109              		.loc 1 318 5 is_stmt 1 view .LVU374
 318:Drivers/STM32F3xx_HAL_Driver/Src/stm32f3xx_ll_usb.c ****     {
 1110              		.loc 1 318 11 is_stmt 0 view .LVU375
 1111 0096 4B78     		ldrb	r3, [r1, #1]	@ zero_extendqisi2
 318:Drivers/STM32F3xx_HAL_Driver/Src/stm32f3xx_ll_usb.c ****     {
 1112              		.loc 1 318 8 view .LVU376
 1113 0098 002B     		cmp	r3, #0
 1114 009a 4FD1     		bne	.L41
 321:Drivers/STM32F3xx_HAL_Driver/Src/stm32f3xx_ll_usb.c ****       PCD_CLEAR_TX_DTOG(USBx, ep->num);
 1115              		.loc 1 321 7 is_stmt 1 view .LVU377
 1116              	.LBB38:
 321:Drivers/STM32F3xx_HAL_Driver/Src/stm32f3xx_ll_usb.c ****       PCD_CLEAR_TX_DTOG(USBx, ep->num);
 1117              		.loc 1 321 7 view .LVU378
 321:Drivers/STM32F3xx_HAL_Driver/Src/stm32f3xx_ll_usb.c ****       PCD_CLEAR_TX_DTOG(USBx, ep->num);
 1118              		.loc 1 321 7 view .LVU379
 1119 009c 0A78     		ldrb	r2, [r1]	@ zero_extendqisi2
 1120 009e 30F82230 		ldrh	r3, [r0, r2, lsl #2]
 1121              	.LVL118:
 321:Drivers/STM32F3xx_HAL_Driver/Src/stm32f3xx_ll_usb.c ****       PCD_CLEAR_TX_DTOG(USBx, ep->num);
 1122              		.loc 1 321 7 view .LVU380
 1123 00a2 13F4804F 		tst	r3, #16384
 1124 00a6 0CD0     		beq	.L42
 321:Drivers/STM32F3xx_HAL_Driver/Src/stm32f3xx_ll_usb.c ****       PCD_CLEAR_TX_DTOG(USBx, ep->num);
 1125              		.loc 1 321 7 discriminator 1 view .LVU381
 1126              	.LBB39:
 321:Drivers/STM32F3xx_HAL_Driver/Src/stm32f3xx_ll_usb.c ****       PCD_CLEAR_TX_DTOG(USBx, ep->num);
 1127              		.loc 1 321 7 discriminator 1 view .LVU382
 321:Drivers/STM32F3xx_HAL_Driver/Src/stm32f3xx_ll_usb.c ****       PCD_CLEAR_TX_DTOG(USBx, ep->num);
 1128              		.loc 1 321 7 discriminator 1 view .LVU383
 1129 00a8 30F82230 		ldrh	r3, [r0, r2, lsl #2]
 1130              	.LVL119:
 321:Drivers/STM32F3xx_HAL_Driver/Src/stm32f3xx_ll_usb.c ****       PCD_CLEAR_TX_DTOG(USBx, ep->num);
 1131              		.loc 1 321 7 is_stmt 0 discriminator 1 view .LVU384
ARM GAS  /var/folders/jw/jcj5j9_530958b2rm5vp9wn00000gn/T//ccDSMjf4.s 			page 30


 1132 00ac 9BB2     		uxth	r3, r3
 1133 00ae 23F4E043 		bic	r3, r3, #28672
 1134 00b2 23F07003 		bic	r3, r3, #112
 1135              	.LVL120:
 321:Drivers/STM32F3xx_HAL_Driver/Src/stm32f3xx_ll_usb.c ****       PCD_CLEAR_TX_DTOG(USBx, ep->num);
 1136              		.loc 1 321 7 is_stmt 1 discriminator 1 view .LVU385
 1137 00b6 43F44043 		orr	r3, r3, #49152
 1138              	.LVL121:
 321:Drivers/STM32F3xx_HAL_Driver/Src/stm32f3xx_ll_usb.c ****       PCD_CLEAR_TX_DTOG(USBx, ep->num);
 1139              		.loc 1 321 7 is_stmt 0 discriminator 1 view .LVU386
 1140 00ba 43F08003 		orr	r3, r3, #128
 1141 00be 20F82230 		strh	r3, [r0, r2, lsl #2]	@ movhi
 1142              	.L42:
 321:Drivers/STM32F3xx_HAL_Driver/Src/stm32f3xx_ll_usb.c ****       PCD_CLEAR_TX_DTOG(USBx, ep->num);
 1143              		.loc 1 321 7 discriminator 1 view .LVU387
 1144              	.LBE39:
 321:Drivers/STM32F3xx_HAL_Driver/Src/stm32f3xx_ll_usb.c ****       PCD_CLEAR_TX_DTOG(USBx, ep->num);
 1145              		.loc 1 321 7 is_stmt 1 discriminator 3 view .LVU388
 1146              	.LBE38:
 321:Drivers/STM32F3xx_HAL_Driver/Src/stm32f3xx_ll_usb.c ****       PCD_CLEAR_TX_DTOG(USBx, ep->num);
 1147              		.loc 1 321 7 discriminator 3 view .LVU389
 322:Drivers/STM32F3xx_HAL_Driver/Src/stm32f3xx_ll_usb.c **** 
 1148              		.loc 1 322 7 discriminator 3 view .LVU390
 1149              	.LBB40:
 322:Drivers/STM32F3xx_HAL_Driver/Src/stm32f3xx_ll_usb.c **** 
 1150              		.loc 1 322 7 discriminator 3 view .LVU391
 322:Drivers/STM32F3xx_HAL_Driver/Src/stm32f3xx_ll_usb.c **** 
 1151              		.loc 1 322 7 discriminator 3 view .LVU392
 1152 00c2 0A78     		ldrb	r2, [r1]	@ zero_extendqisi2
 1153 00c4 30F82230 		ldrh	r3, [r0, r2, lsl #2]
 1154              	.LVL122:
 322:Drivers/STM32F3xx_HAL_Driver/Src/stm32f3xx_ll_usb.c **** 
 1155              		.loc 1 322 7 discriminator 3 view .LVU393
 1156 00c8 13F0400F 		tst	r3, #64
 1157 00cc 0CD0     		beq	.L43
 322:Drivers/STM32F3xx_HAL_Driver/Src/stm32f3xx_ll_usb.c **** 
 1158              		.loc 1 322 7 discriminator 1 view .LVU394
 1159              	.LBB41:
 322:Drivers/STM32F3xx_HAL_Driver/Src/stm32f3xx_ll_usb.c **** 
 1160              		.loc 1 322 7 discriminator 1 view .LVU395
 322:Drivers/STM32F3xx_HAL_Driver/Src/stm32f3xx_ll_usb.c **** 
 1161              		.loc 1 322 7 discriminator 1 view .LVU396
 1162 00ce 30F82230 		ldrh	r3, [r0, r2, lsl #2]
 1163              	.LVL123:
 322:Drivers/STM32F3xx_HAL_Driver/Src/stm32f3xx_ll_usb.c **** 
 1164              		.loc 1 322 7 is_stmt 0 discriminator 1 view .LVU397
 1165 00d2 9BB2     		uxth	r3, r3
 1166 00d4 23F4E043 		bic	r3, r3, #28672
 1167 00d8 23F07003 		bic	r3, r3, #112
 1168              	.LVL124:
 322:Drivers/STM32F3xx_HAL_Driver/Src/stm32f3xx_ll_usb.c **** 
 1169              		.loc 1 322 7 is_stmt 1 discriminator 1 view .LVU398
 1170 00dc 43F40043 		orr	r3, r3, #32768
 1171              	.LVL125:
 322:Drivers/STM32F3xx_HAL_Driver/Src/stm32f3xx_ll_usb.c **** 
 1172              		.loc 1 322 7 is_stmt 0 discriminator 1 view .LVU399
 1173 00e0 43F0C003 		orr	r3, r3, #192
ARM GAS  /var/folders/jw/jcj5j9_530958b2rm5vp9wn00000gn/T//ccDSMjf4.s 			page 31


 1174 00e4 20F82230 		strh	r3, [r0, r2, lsl #2]	@ movhi
 1175              	.L43:
 322:Drivers/STM32F3xx_HAL_Driver/Src/stm32f3xx_ll_usb.c **** 
 1176              		.loc 1 322 7 discriminator 1 view .LVU400
 1177              	.LBE41:
 322:Drivers/STM32F3xx_HAL_Driver/Src/stm32f3xx_ll_usb.c **** 
 1178              		.loc 1 322 7 is_stmt 1 discriminator 3 view .LVU401
 1179              	.LBE40:
 322:Drivers/STM32F3xx_HAL_Driver/Src/stm32f3xx_ll_usb.c **** 
 1180              		.loc 1 322 7 discriminator 3 view .LVU402
 325:Drivers/STM32F3xx_HAL_Driver/Src/stm32f3xx_ll_usb.c **** 
 1181              		.loc 1 325 7 discriminator 3 view .LVU403
 1182              	.LBB42:
 325:Drivers/STM32F3xx_HAL_Driver/Src/stm32f3xx_ll_usb.c **** 
 1183              		.loc 1 325 7 discriminator 3 view .LVU404
 325:Drivers/STM32F3xx_HAL_Driver/Src/stm32f3xx_ll_usb.c **** 
 1184              		.loc 1 325 7 discriminator 3 view .LVU405
 1185 00e8 0A78     		ldrb	r2, [r1]	@ zero_extendqisi2
 1186 00ea 30F82230 		ldrh	r3, [r0, r2, lsl #2]
 1187 00ee 9BB2     		uxth	r3, r3
 1188 00f0 23F4E043 		bic	r3, r3, #28672
 1189 00f4 23F07003 		bic	r3, r3, #112
 1190              	.LVL126:
 325:Drivers/STM32F3xx_HAL_Driver/Src/stm32f3xx_ll_usb.c **** 
 1191              		.loc 1 325 7 discriminator 3 view .LVU406
 1192 00f8 43F40043 		orr	r3, r3, #32768
 1193              	.LVL127:
 325:Drivers/STM32F3xx_HAL_Driver/Src/stm32f3xx_ll_usb.c **** 
 1194              		.loc 1 325 7 is_stmt 0 discriminator 3 view .LVU407
 1195 00fc 43F0C003 		orr	r3, r3, #192
 1196 0100 20F82230 		strh	r3, [r0, r2, lsl #2]	@ movhi
 1197              	.LBE42:
 325:Drivers/STM32F3xx_HAL_Driver/Src/stm32f3xx_ll_usb.c **** 
 1198              		.loc 1 325 7 is_stmt 1 discriminator 3 view .LVU408
 327:Drivers/STM32F3xx_HAL_Driver/Src/stm32f3xx_ll_usb.c ****       PCD_SET_EP_TX_STATUS(USBx, ep->num, USB_EP_TX_DIS);
 1199              		.loc 1 327 7 discriminator 3 view .LVU409
 1200              	.LBB43:
 327:Drivers/STM32F3xx_HAL_Driver/Src/stm32f3xx_ll_usb.c ****       PCD_SET_EP_TX_STATUS(USBx, ep->num, USB_EP_TX_DIS);
 1201              		.loc 1 327 7 discriminator 3 view .LVU410
 327:Drivers/STM32F3xx_HAL_Driver/Src/stm32f3xx_ll_usb.c ****       PCD_SET_EP_TX_STATUS(USBx, ep->num, USB_EP_TX_DIS);
 1202              		.loc 1 327 7 discriminator 3 view .LVU411
 1203 0104 0B78     		ldrb	r3, [r1]	@ zero_extendqisi2
 1204 0106 30F82320 		ldrh	r2, [r0, r3, lsl #2]
 1205 010a 92B2     		uxth	r2, r2
 1206 010c 22F48042 		bic	r2, r2, #16384
 1207 0110 22F07002 		bic	r2, r2, #112
 1208              	.LVL128:
 327:Drivers/STM32F3xx_HAL_Driver/Src/stm32f3xx_ll_usb.c ****       PCD_SET_EP_TX_STATUS(USBx, ep->num, USB_EP_TX_DIS);
 1209              		.loc 1 327 7 discriminator 3 view .LVU412
 327:Drivers/STM32F3xx_HAL_Driver/Src/stm32f3xx_ll_usb.c ****       PCD_SET_EP_TX_STATUS(USBx, ep->num, USB_EP_TX_DIS);
 1210              		.loc 1 327 7 discriminator 3 view .LVU413
 327:Drivers/STM32F3xx_HAL_Driver/Src/stm32f3xx_ll_usb.c ****       PCD_SET_EP_TX_STATUS(USBx, ep->num, USB_EP_TX_DIS);
 1211              		.loc 1 327 7 discriminator 3 view .LVU414
 1212 0114 48F28004 		movw	r4, #32896
 1213 0118 2243     		orrs	r2, r2, r4
 1214              	.LVL129:
 327:Drivers/STM32F3xx_HAL_Driver/Src/stm32f3xx_ll_usb.c ****       PCD_SET_EP_TX_STATUS(USBx, ep->num, USB_EP_TX_DIS);
ARM GAS  /var/folders/jw/jcj5j9_530958b2rm5vp9wn00000gn/T//ccDSMjf4.s 			page 32


 1215              		.loc 1 327 7 is_stmt 0 discriminator 3 view .LVU415
 1216 011a 20F82320 		strh	r2, [r0, r3, lsl #2]	@ movhi
 1217              	.LBE43:
 327:Drivers/STM32F3xx_HAL_Driver/Src/stm32f3xx_ll_usb.c ****       PCD_SET_EP_TX_STATUS(USBx, ep->num, USB_EP_TX_DIS);
 1218              		.loc 1 327 7 is_stmt 1 discriminator 3 view .LVU416
 328:Drivers/STM32F3xx_HAL_Driver/Src/stm32f3xx_ll_usb.c ****     }
 1219              		.loc 1 328 7 discriminator 3 view .LVU417
 1220              	.LBB44:
 328:Drivers/STM32F3xx_HAL_Driver/Src/stm32f3xx_ll_usb.c ****     }
 1221              		.loc 1 328 7 discriminator 3 view .LVU418
 328:Drivers/STM32F3xx_HAL_Driver/Src/stm32f3xx_ll_usb.c ****     }
 1222              		.loc 1 328 7 discriminator 3 view .LVU419
 1223 011e 0A78     		ldrb	r2, [r1]	@ zero_extendqisi2
 1224 0120 30F82230 		ldrh	r3, [r0, r2, lsl #2]
 1225 0124 9BB2     		uxth	r3, r3
 1226 0126 23F4E043 		bic	r3, r3, #28672
 1227 012a 23F04003 		bic	r3, r3, #64
 1228              	.LVL130:
 328:Drivers/STM32F3xx_HAL_Driver/Src/stm32f3xx_ll_usb.c ****     }
 1229              		.loc 1 328 7 discriminator 3 view .LVU420
 328:Drivers/STM32F3xx_HAL_Driver/Src/stm32f3xx_ll_usb.c ****     }
 1230              		.loc 1 328 7 discriminator 3 view .LVU421
 328:Drivers/STM32F3xx_HAL_Driver/Src/stm32f3xx_ll_usb.c ****     }
 1231              		.loc 1 328 7 discriminator 3 view .LVU422
 1232 012e 2343     		orrs	r3, r3, r4
 1233              	.LVL131:
 328:Drivers/STM32F3xx_HAL_Driver/Src/stm32f3xx_ll_usb.c ****     }
 1234              		.loc 1 328 7 is_stmt 0 discriminator 3 view .LVU423
 1235 0130 20F82230 		strh	r3, [r0, r2, lsl #2]	@ movhi
 1236              	.LBE44:
 328:Drivers/STM32F3xx_HAL_Driver/Src/stm32f3xx_ll_usb.c ****     }
 1237              		.loc 1 328 7 is_stmt 1 discriminator 3 view .LVU424
 1238              	.L39:
 339:Drivers/STM32F3xx_HAL_Driver/Src/stm32f3xx_ll_usb.c ****     }
 1239              		.loc 1 339 7 discriminator 7 view .LVU425
 343:Drivers/STM32F3xx_HAL_Driver/Src/stm32f3xx_ll_usb.c **** }
 1240              		.loc 1 343 3 discriminator 7 view .LVU426
 1241              		.loc 1 344 1 is_stmt 0 discriminator 7 view .LVU427
 1242 0134 0020     		movs	r0, #0
 1243              	.LVL132:
 1244              		.loc 1 344 1 discriminator 7 view .LVU428
 1245 0136 5DF8044B 		ldr	r4, [sp], #4
 1246              	.LCFI10:
 1247              		.cfi_remember_state
 1248              		.cfi_restore 4
 1249              		.cfi_def_cfa_offset 0
 1250 013a 7047     		bx	lr
 1251              	.LVL133:
 1252              	.L41:
 1253              	.LCFI11:
 1254              		.cfi_restore_state
 333:Drivers/STM32F3xx_HAL_Driver/Src/stm32f3xx_ll_usb.c ****       PCD_CLEAR_TX_DTOG(USBx, ep->num);
 1255              		.loc 1 333 7 is_stmt 1 view .LVU429
 1256              	.LBB45:
 333:Drivers/STM32F3xx_HAL_Driver/Src/stm32f3xx_ll_usb.c ****       PCD_CLEAR_TX_DTOG(USBx, ep->num);
 1257              		.loc 1 333 7 view .LVU430
 333:Drivers/STM32F3xx_HAL_Driver/Src/stm32f3xx_ll_usb.c ****       PCD_CLEAR_TX_DTOG(USBx, ep->num);
ARM GAS  /var/folders/jw/jcj5j9_530958b2rm5vp9wn00000gn/T//ccDSMjf4.s 			page 33


 1258              		.loc 1 333 7 view .LVU431
 1259 013c 0A78     		ldrb	r2, [r1]	@ zero_extendqisi2
 1260 013e 30F82230 		ldrh	r3, [r0, r2, lsl #2]
 1261              	.LVL134:
 333:Drivers/STM32F3xx_HAL_Driver/Src/stm32f3xx_ll_usb.c ****       PCD_CLEAR_TX_DTOG(USBx, ep->num);
 1262              		.loc 1 333 7 view .LVU432
 1263 0142 13F4804F 		tst	r3, #16384
 1264 0146 0CD0     		beq	.L44
 333:Drivers/STM32F3xx_HAL_Driver/Src/stm32f3xx_ll_usb.c ****       PCD_CLEAR_TX_DTOG(USBx, ep->num);
 1265              		.loc 1 333 7 discriminator 1 view .LVU433
 1266              	.LBB46:
 333:Drivers/STM32F3xx_HAL_Driver/Src/stm32f3xx_ll_usb.c ****       PCD_CLEAR_TX_DTOG(USBx, ep->num);
 1267              		.loc 1 333 7 discriminator 1 view .LVU434
 333:Drivers/STM32F3xx_HAL_Driver/Src/stm32f3xx_ll_usb.c ****       PCD_CLEAR_TX_DTOG(USBx, ep->num);
 1268              		.loc 1 333 7 discriminator 1 view .LVU435
 1269 0148 30F82230 		ldrh	r3, [r0, r2, lsl #2]
 1270              	.LVL135:
 333:Drivers/STM32F3xx_HAL_Driver/Src/stm32f3xx_ll_usb.c ****       PCD_CLEAR_TX_DTOG(USBx, ep->num);
 1271              		.loc 1 333 7 is_stmt 0 discriminator 1 view .LVU436
 1272 014c 9BB2     		uxth	r3, r3
 1273 014e 23F4E043 		bic	r3, r3, #28672
 1274 0152 23F07003 		bic	r3, r3, #112
 1275              	.LVL136:
 333:Drivers/STM32F3xx_HAL_Driver/Src/stm32f3xx_ll_usb.c ****       PCD_CLEAR_TX_DTOG(USBx, ep->num);
 1276              		.loc 1 333 7 is_stmt 1 discriminator 1 view .LVU437
 1277 0156 43F44043 		orr	r3, r3, #49152
 1278              	.LVL137:
 333:Drivers/STM32F3xx_HAL_Driver/Src/stm32f3xx_ll_usb.c ****       PCD_CLEAR_TX_DTOG(USBx, ep->num);
 1279              		.loc 1 333 7 is_stmt 0 discriminator 1 view .LVU438
 1280 015a 43F08003 		orr	r3, r3, #128
 1281 015e 20F82230 		strh	r3, [r0, r2, lsl #2]	@ movhi
 1282              	.L44:
 333:Drivers/STM32F3xx_HAL_Driver/Src/stm32f3xx_ll_usb.c ****       PCD_CLEAR_TX_DTOG(USBx, ep->num);
 1283              		.loc 1 333 7 discriminator 1 view .LVU439
 1284              	.LBE46:
 333:Drivers/STM32F3xx_HAL_Driver/Src/stm32f3xx_ll_usb.c ****       PCD_CLEAR_TX_DTOG(USBx, ep->num);
 1285              		.loc 1 333 7 is_stmt 1 discriminator 3 view .LVU440
 1286              	.LBE45:
 333:Drivers/STM32F3xx_HAL_Driver/Src/stm32f3xx_ll_usb.c ****       PCD_CLEAR_TX_DTOG(USBx, ep->num);
 1287              		.loc 1 333 7 discriminator 3 view .LVU441
 334:Drivers/STM32F3xx_HAL_Driver/Src/stm32f3xx_ll_usb.c ****       PCD_RX_DTOG(USBx, ep->num);
 1288              		.loc 1 334 7 discriminator 3 view .LVU442
 1289              	.LBB47:
 334:Drivers/STM32F3xx_HAL_Driver/Src/stm32f3xx_ll_usb.c ****       PCD_RX_DTOG(USBx, ep->num);
 1290              		.loc 1 334 7 discriminator 3 view .LVU443
 334:Drivers/STM32F3xx_HAL_Driver/Src/stm32f3xx_ll_usb.c ****       PCD_RX_DTOG(USBx, ep->num);
 1291              		.loc 1 334 7 discriminator 3 view .LVU444
 1292 0162 0A78     		ldrb	r2, [r1]	@ zero_extendqisi2
 1293 0164 30F82230 		ldrh	r3, [r0, r2, lsl #2]
 1294              	.LVL138:
 334:Drivers/STM32F3xx_HAL_Driver/Src/stm32f3xx_ll_usb.c ****       PCD_RX_DTOG(USBx, ep->num);
 1295              		.loc 1 334 7 discriminator 3 view .LVU445
 1296 0168 13F0400F 		tst	r3, #64
 1297 016c 0CD0     		beq	.L45
 334:Drivers/STM32F3xx_HAL_Driver/Src/stm32f3xx_ll_usb.c ****       PCD_RX_DTOG(USBx, ep->num);
 1298              		.loc 1 334 7 discriminator 1 view .LVU446
 1299              	.LBB48:
ARM GAS  /var/folders/jw/jcj5j9_530958b2rm5vp9wn00000gn/T//ccDSMjf4.s 			page 34


 334:Drivers/STM32F3xx_HAL_Driver/Src/stm32f3xx_ll_usb.c ****       PCD_RX_DTOG(USBx, ep->num);
 1300              		.loc 1 334 7 discriminator 1 view .LVU447
 334:Drivers/STM32F3xx_HAL_Driver/Src/stm32f3xx_ll_usb.c ****       PCD_RX_DTOG(USBx, ep->num);
 1301              		.loc 1 334 7 discriminator 1 view .LVU448
 1302 016e 30F82230 		ldrh	r3, [r0, r2, lsl #2]
 1303              	.LVL139:
 334:Drivers/STM32F3xx_HAL_Driver/Src/stm32f3xx_ll_usb.c ****       PCD_RX_DTOG(USBx, ep->num);
 1304              		.loc 1 334 7 is_stmt 0 discriminator 1 view .LVU449
 1305 0172 9BB2     		uxth	r3, r3
 1306 0174 23F4E043 		bic	r3, r3, #28672
 1307 0178 23F07003 		bic	r3, r3, #112
 1308              	.LVL140:
 334:Drivers/STM32F3xx_HAL_Driver/Src/stm32f3xx_ll_usb.c ****       PCD_RX_DTOG(USBx, ep->num);
 1309              		.loc 1 334 7 is_stmt 1 discriminator 1 view .LVU450
 1310 017c 43F40043 		orr	r3, r3, #32768
 1311              	.LVL141:
 334:Drivers/STM32F3xx_HAL_Driver/Src/stm32f3xx_ll_usb.c ****       PCD_RX_DTOG(USBx, ep->num);
 1312              		.loc 1 334 7 is_stmt 0 discriminator 1 view .LVU451
 1313 0180 43F0C003 		orr	r3, r3, #192
 1314 0184 20F82230 		strh	r3, [r0, r2, lsl #2]	@ movhi
 1315              	.L45:
 334:Drivers/STM32F3xx_HAL_Driver/Src/stm32f3xx_ll_usb.c ****       PCD_RX_DTOG(USBx, ep->num);
 1316              		.loc 1 334 7 discriminator 1 view .LVU452
 1317              	.LBE48:
 334:Drivers/STM32F3xx_HAL_Driver/Src/stm32f3xx_ll_usb.c ****       PCD_RX_DTOG(USBx, ep->num);
 1318              		.loc 1 334 7 is_stmt 1 discriminator 3 view .LVU453
 1319              	.LBE47:
 334:Drivers/STM32F3xx_HAL_Driver/Src/stm32f3xx_ll_usb.c ****       PCD_RX_DTOG(USBx, ep->num);
 1320              		.loc 1 334 7 discriminator 3 view .LVU454
 335:Drivers/STM32F3xx_HAL_Driver/Src/stm32f3xx_ll_usb.c **** 
 1321              		.loc 1 335 7 discriminator 3 view .LVU455
 1322              	.LBB49:
 335:Drivers/STM32F3xx_HAL_Driver/Src/stm32f3xx_ll_usb.c **** 
 1323              		.loc 1 335 7 discriminator 3 view .LVU456
 335:Drivers/STM32F3xx_HAL_Driver/Src/stm32f3xx_ll_usb.c **** 
 1324              		.loc 1 335 7 discriminator 3 view .LVU457
 1325 0188 0A78     		ldrb	r2, [r1]	@ zero_extendqisi2
 1326 018a 30F82230 		ldrh	r3, [r0, r2, lsl #2]
 1327 018e 9BB2     		uxth	r3, r3
 1328 0190 23F4E043 		bic	r3, r3, #28672
 1329 0194 23F07003 		bic	r3, r3, #112
 1330              	.LVL142:
 335:Drivers/STM32F3xx_HAL_Driver/Src/stm32f3xx_ll_usb.c **** 
 1331              		.loc 1 335 7 discriminator 3 view .LVU458
 1332 0198 43F44043 		orr	r3, r3, #49152
 1333              	.LVL143:
 335:Drivers/STM32F3xx_HAL_Driver/Src/stm32f3xx_ll_usb.c **** 
 1334              		.loc 1 335 7 is_stmt 0 discriminator 3 view .LVU459
 1335 019c 43F08003 		orr	r3, r3, #128
 1336 01a0 20F82230 		strh	r3, [r0, r2, lsl #2]	@ movhi
 1337              	.LBE49:
 335:Drivers/STM32F3xx_HAL_Driver/Src/stm32f3xx_ll_usb.c **** 
 1338              		.loc 1 335 7 is_stmt 1 discriminator 3 view .LVU460
 338:Drivers/STM32F3xx_HAL_Driver/Src/stm32f3xx_ll_usb.c ****       PCD_SET_EP_RX_STATUS(USBx, ep->num, USB_EP_RX_DIS);
 1339              		.loc 1 338 7 discriminator 3 view .LVU461
 1340              	.LBB50:
 338:Drivers/STM32F3xx_HAL_Driver/Src/stm32f3xx_ll_usb.c ****       PCD_SET_EP_RX_STATUS(USBx, ep->num, USB_EP_RX_DIS);
ARM GAS  /var/folders/jw/jcj5j9_530958b2rm5vp9wn00000gn/T//ccDSMjf4.s 			page 35


 1341              		.loc 1 338 7 discriminator 3 view .LVU462
 338:Drivers/STM32F3xx_HAL_Driver/Src/stm32f3xx_ll_usb.c ****       PCD_SET_EP_RX_STATUS(USBx, ep->num, USB_EP_RX_DIS);
 1342              		.loc 1 338 7 discriminator 3 view .LVU463
 1343 01a4 0B78     		ldrb	r3, [r1]	@ zero_extendqisi2
 1344 01a6 30F82320 		ldrh	r2, [r0, r3, lsl #2]
 1345 01aa 92B2     		uxth	r2, r2
 1346 01ac 22F4E042 		bic	r2, r2, #28672
 1347 01b0 22F04002 		bic	r2, r2, #64
 1348              	.LVL144:
 338:Drivers/STM32F3xx_HAL_Driver/Src/stm32f3xx_ll_usb.c ****       PCD_SET_EP_RX_STATUS(USBx, ep->num, USB_EP_RX_DIS);
 1349              		.loc 1 338 7 discriminator 3 view .LVU464
 338:Drivers/STM32F3xx_HAL_Driver/Src/stm32f3xx_ll_usb.c ****       PCD_SET_EP_RX_STATUS(USBx, ep->num, USB_EP_RX_DIS);
 1350              		.loc 1 338 7 discriminator 3 view .LVU465
 338:Drivers/STM32F3xx_HAL_Driver/Src/stm32f3xx_ll_usb.c ****       PCD_SET_EP_RX_STATUS(USBx, ep->num, USB_EP_RX_DIS);
 1351              		.loc 1 338 7 discriminator 3 view .LVU466
 1352 01b4 48F28004 		movw	r4, #32896
 1353 01b8 2243     		orrs	r2, r2, r4
 1354              	.LVL145:
 338:Drivers/STM32F3xx_HAL_Driver/Src/stm32f3xx_ll_usb.c ****       PCD_SET_EP_RX_STATUS(USBx, ep->num, USB_EP_RX_DIS);
 1355              		.loc 1 338 7 is_stmt 0 discriminator 3 view .LVU467
 1356 01ba 20F82320 		strh	r2, [r0, r3, lsl #2]	@ movhi
 1357              	.LBE50:
 338:Drivers/STM32F3xx_HAL_Driver/Src/stm32f3xx_ll_usb.c ****       PCD_SET_EP_RX_STATUS(USBx, ep->num, USB_EP_RX_DIS);
 1358              		.loc 1 338 7 is_stmt 1 discriminator 3 view .LVU468
 339:Drivers/STM32F3xx_HAL_Driver/Src/stm32f3xx_ll_usb.c ****     }
 1359              		.loc 1 339 7 discriminator 3 view .LVU469
 1360              	.LBB51:
 339:Drivers/STM32F3xx_HAL_Driver/Src/stm32f3xx_ll_usb.c ****     }
 1361              		.loc 1 339 7 discriminator 3 view .LVU470
 339:Drivers/STM32F3xx_HAL_Driver/Src/stm32f3xx_ll_usb.c ****     }
 1362              		.loc 1 339 7 discriminator 3 view .LVU471
 1363 01be 0A78     		ldrb	r2, [r1]	@ zero_extendqisi2
 1364 01c0 30F82230 		ldrh	r3, [r0, r2, lsl #2]
 1365 01c4 9BB2     		uxth	r3, r3
 1366 01c6 23F48043 		bic	r3, r3, #16384
 1367 01ca 23F07003 		bic	r3, r3, #112
 1368              	.LVL146:
 339:Drivers/STM32F3xx_HAL_Driver/Src/stm32f3xx_ll_usb.c ****     }
 1369              		.loc 1 339 7 discriminator 3 view .LVU472
 339:Drivers/STM32F3xx_HAL_Driver/Src/stm32f3xx_ll_usb.c ****     }
 1370              		.loc 1 339 7 discriminator 3 view .LVU473
 339:Drivers/STM32F3xx_HAL_Driver/Src/stm32f3xx_ll_usb.c ****     }
 1371              		.loc 1 339 7 discriminator 3 view .LVU474
 1372 01ce 2343     		orrs	r3, r3, r4
 1373              	.LVL147:
 339:Drivers/STM32F3xx_HAL_Driver/Src/stm32f3xx_ll_usb.c ****     }
 1374              		.loc 1 339 7 is_stmt 0 discriminator 3 view .LVU475
 1375 01d0 20F82230 		strh	r3, [r0, r2, lsl #2]	@ movhi
 1376 01d4 AEE7     		b	.L39
 1377              	.LBE51:
 1378              		.cfi_endproc
 1379              	.LFE136:
 1381              		.section	.text.USB_EPSetStall,"ax",%progbits
 1382              		.align	1
 1383              		.global	USB_EPSetStall
 1384              		.syntax unified
 1385              		.thumb
ARM GAS  /var/folders/jw/jcj5j9_530958b2rm5vp9wn00000gn/T//ccDSMjf4.s 			page 36


 1386              		.thumb_func
 1387              		.fpu fpv4-sp-d16
 1389              	USB_EPSetStall:
 1390              	.LVL148:
 1391              	.LFB138:
 345:Drivers/STM32F3xx_HAL_Driver/Src/stm32f3xx_ll_usb.c **** 
 346:Drivers/STM32F3xx_HAL_Driver/Src/stm32f3xx_ll_usb.c **** /**
 347:Drivers/STM32F3xx_HAL_Driver/Src/stm32f3xx_ll_usb.c ****   * @brief  USB_EPStartXfer setup and starts a transfer over an EP
 348:Drivers/STM32F3xx_HAL_Driver/Src/stm32f3xx_ll_usb.c ****   * @param  USBx Selected device
 349:Drivers/STM32F3xx_HAL_Driver/Src/stm32f3xx_ll_usb.c ****   * @param  ep pointer to endpoint structure
 350:Drivers/STM32F3xx_HAL_Driver/Src/stm32f3xx_ll_usb.c ****   * @retval HAL status
 351:Drivers/STM32F3xx_HAL_Driver/Src/stm32f3xx_ll_usb.c ****   */
 352:Drivers/STM32F3xx_HAL_Driver/Src/stm32f3xx_ll_usb.c **** HAL_StatusTypeDef USB_EPStartXfer(USB_TypeDef *USBx, USB_EPTypeDef *ep)
 353:Drivers/STM32F3xx_HAL_Driver/Src/stm32f3xx_ll_usb.c **** {
 354:Drivers/STM32F3xx_HAL_Driver/Src/stm32f3xx_ll_usb.c ****   uint32_t len;
 355:Drivers/STM32F3xx_HAL_Driver/Src/stm32f3xx_ll_usb.c ****   uint16_t pmabuffer;
 356:Drivers/STM32F3xx_HAL_Driver/Src/stm32f3xx_ll_usb.c ****   uint16_t wEPVal;
 357:Drivers/STM32F3xx_HAL_Driver/Src/stm32f3xx_ll_usb.c **** 
 358:Drivers/STM32F3xx_HAL_Driver/Src/stm32f3xx_ll_usb.c ****   /* IN endpoint */
 359:Drivers/STM32F3xx_HAL_Driver/Src/stm32f3xx_ll_usb.c ****   if (ep->is_in == 1U)
 360:Drivers/STM32F3xx_HAL_Driver/Src/stm32f3xx_ll_usb.c ****   {
 361:Drivers/STM32F3xx_HAL_Driver/Src/stm32f3xx_ll_usb.c ****     /*Multi packet transfer*/
 362:Drivers/STM32F3xx_HAL_Driver/Src/stm32f3xx_ll_usb.c ****     if (ep->xfer_len > ep->maxpacket)
 363:Drivers/STM32F3xx_HAL_Driver/Src/stm32f3xx_ll_usb.c ****     {
 364:Drivers/STM32F3xx_HAL_Driver/Src/stm32f3xx_ll_usb.c ****       len = ep->maxpacket;
 365:Drivers/STM32F3xx_HAL_Driver/Src/stm32f3xx_ll_usb.c ****     }
 366:Drivers/STM32F3xx_HAL_Driver/Src/stm32f3xx_ll_usb.c ****     else
 367:Drivers/STM32F3xx_HAL_Driver/Src/stm32f3xx_ll_usb.c ****     {
 368:Drivers/STM32F3xx_HAL_Driver/Src/stm32f3xx_ll_usb.c ****       len = ep->xfer_len;
 369:Drivers/STM32F3xx_HAL_Driver/Src/stm32f3xx_ll_usb.c ****     }
 370:Drivers/STM32F3xx_HAL_Driver/Src/stm32f3xx_ll_usb.c **** 
 371:Drivers/STM32F3xx_HAL_Driver/Src/stm32f3xx_ll_usb.c ****     /* configure and validate Tx endpoint */
 372:Drivers/STM32F3xx_HAL_Driver/Src/stm32f3xx_ll_usb.c ****     if (ep->doublebuffer == 0U)
 373:Drivers/STM32F3xx_HAL_Driver/Src/stm32f3xx_ll_usb.c ****     {
 374:Drivers/STM32F3xx_HAL_Driver/Src/stm32f3xx_ll_usb.c ****       USB_WritePMA(USBx, ep->xfer_buff, ep->pmaadress, (uint16_t)len);
 375:Drivers/STM32F3xx_HAL_Driver/Src/stm32f3xx_ll_usb.c ****       PCD_SET_EP_TX_CNT(USBx, ep->num, len);
 376:Drivers/STM32F3xx_HAL_Driver/Src/stm32f3xx_ll_usb.c ****     }
 377:Drivers/STM32F3xx_HAL_Driver/Src/stm32f3xx_ll_usb.c ****     else
 378:Drivers/STM32F3xx_HAL_Driver/Src/stm32f3xx_ll_usb.c ****     {
 379:Drivers/STM32F3xx_HAL_Driver/Src/stm32f3xx_ll_usb.c ****       /* double buffer bulk management */
 380:Drivers/STM32F3xx_HAL_Driver/Src/stm32f3xx_ll_usb.c ****       if (ep->type == EP_TYPE_BULK)
 381:Drivers/STM32F3xx_HAL_Driver/Src/stm32f3xx_ll_usb.c ****       {
 382:Drivers/STM32F3xx_HAL_Driver/Src/stm32f3xx_ll_usb.c ****         if (ep->xfer_len_db > ep->maxpacket)
 383:Drivers/STM32F3xx_HAL_Driver/Src/stm32f3xx_ll_usb.c ****         {
 384:Drivers/STM32F3xx_HAL_Driver/Src/stm32f3xx_ll_usb.c ****           /* enable double buffer */
 385:Drivers/STM32F3xx_HAL_Driver/Src/stm32f3xx_ll_usb.c ****           PCD_SET_EP_DBUF(USBx, ep->num);
 386:Drivers/STM32F3xx_HAL_Driver/Src/stm32f3xx_ll_usb.c **** 
 387:Drivers/STM32F3xx_HAL_Driver/Src/stm32f3xx_ll_usb.c ****           /* each Time to write in PMA xfer_len_db will */
 388:Drivers/STM32F3xx_HAL_Driver/Src/stm32f3xx_ll_usb.c ****           ep->xfer_len_db -= len;
 389:Drivers/STM32F3xx_HAL_Driver/Src/stm32f3xx_ll_usb.c **** 
 390:Drivers/STM32F3xx_HAL_Driver/Src/stm32f3xx_ll_usb.c ****           /* Fill the two first buffer in the Buffer0 & Buffer1 */
 391:Drivers/STM32F3xx_HAL_Driver/Src/stm32f3xx_ll_usb.c ****           if ((PCD_GET_ENDPOINT(USBx, ep->num) & USB_EP_DTOG_TX) != 0U)
 392:Drivers/STM32F3xx_HAL_Driver/Src/stm32f3xx_ll_usb.c ****           {
 393:Drivers/STM32F3xx_HAL_Driver/Src/stm32f3xx_ll_usb.c ****             /* Set the Double buffer counter for pmabuffer1 */
 394:Drivers/STM32F3xx_HAL_Driver/Src/stm32f3xx_ll_usb.c ****             PCD_SET_EP_DBUF1_CNT(USBx, ep->num, ep->is_in, len);
 395:Drivers/STM32F3xx_HAL_Driver/Src/stm32f3xx_ll_usb.c ****             pmabuffer = ep->pmaaddr1;
 396:Drivers/STM32F3xx_HAL_Driver/Src/stm32f3xx_ll_usb.c **** 
ARM GAS  /var/folders/jw/jcj5j9_530958b2rm5vp9wn00000gn/T//ccDSMjf4.s 			page 37


 397:Drivers/STM32F3xx_HAL_Driver/Src/stm32f3xx_ll_usb.c ****             /* Write the user buffer to USB PMA */
 398:Drivers/STM32F3xx_HAL_Driver/Src/stm32f3xx_ll_usb.c ****             USB_WritePMA(USBx, ep->xfer_buff, pmabuffer, (uint16_t)len);
 399:Drivers/STM32F3xx_HAL_Driver/Src/stm32f3xx_ll_usb.c ****             ep->xfer_buff += len;
 400:Drivers/STM32F3xx_HAL_Driver/Src/stm32f3xx_ll_usb.c **** 
 401:Drivers/STM32F3xx_HAL_Driver/Src/stm32f3xx_ll_usb.c ****             if (ep->xfer_len_db > ep->maxpacket)
 402:Drivers/STM32F3xx_HAL_Driver/Src/stm32f3xx_ll_usb.c ****             {
 403:Drivers/STM32F3xx_HAL_Driver/Src/stm32f3xx_ll_usb.c ****               ep->xfer_len_db -= len;
 404:Drivers/STM32F3xx_HAL_Driver/Src/stm32f3xx_ll_usb.c ****             }
 405:Drivers/STM32F3xx_HAL_Driver/Src/stm32f3xx_ll_usb.c ****             else
 406:Drivers/STM32F3xx_HAL_Driver/Src/stm32f3xx_ll_usb.c ****             {
 407:Drivers/STM32F3xx_HAL_Driver/Src/stm32f3xx_ll_usb.c ****               len = ep->xfer_len_db;
 408:Drivers/STM32F3xx_HAL_Driver/Src/stm32f3xx_ll_usb.c ****               ep->xfer_len_db = 0U;
 409:Drivers/STM32F3xx_HAL_Driver/Src/stm32f3xx_ll_usb.c ****             }
 410:Drivers/STM32F3xx_HAL_Driver/Src/stm32f3xx_ll_usb.c **** 
 411:Drivers/STM32F3xx_HAL_Driver/Src/stm32f3xx_ll_usb.c ****             /* Set the Double buffer counter for pmabuffer0 */
 412:Drivers/STM32F3xx_HAL_Driver/Src/stm32f3xx_ll_usb.c ****             PCD_SET_EP_DBUF0_CNT(USBx, ep->num, ep->is_in, len);
 413:Drivers/STM32F3xx_HAL_Driver/Src/stm32f3xx_ll_usb.c ****             pmabuffer = ep->pmaaddr0;
 414:Drivers/STM32F3xx_HAL_Driver/Src/stm32f3xx_ll_usb.c **** 
 415:Drivers/STM32F3xx_HAL_Driver/Src/stm32f3xx_ll_usb.c ****             /* Write the user buffer to USB PMA */
 416:Drivers/STM32F3xx_HAL_Driver/Src/stm32f3xx_ll_usb.c ****             USB_WritePMA(USBx, ep->xfer_buff, pmabuffer, (uint16_t)len);
 417:Drivers/STM32F3xx_HAL_Driver/Src/stm32f3xx_ll_usb.c ****           }
 418:Drivers/STM32F3xx_HAL_Driver/Src/stm32f3xx_ll_usb.c ****           else
 419:Drivers/STM32F3xx_HAL_Driver/Src/stm32f3xx_ll_usb.c ****           {
 420:Drivers/STM32F3xx_HAL_Driver/Src/stm32f3xx_ll_usb.c ****             /* Set the Double buffer counter for pmabuffer0 */
 421:Drivers/STM32F3xx_HAL_Driver/Src/stm32f3xx_ll_usb.c ****             PCD_SET_EP_DBUF0_CNT(USBx, ep->num, ep->is_in, len);
 422:Drivers/STM32F3xx_HAL_Driver/Src/stm32f3xx_ll_usb.c ****             pmabuffer = ep->pmaaddr0;
 423:Drivers/STM32F3xx_HAL_Driver/Src/stm32f3xx_ll_usb.c **** 
 424:Drivers/STM32F3xx_HAL_Driver/Src/stm32f3xx_ll_usb.c ****             /* Write the user buffer to USB PMA */
 425:Drivers/STM32F3xx_HAL_Driver/Src/stm32f3xx_ll_usb.c ****             USB_WritePMA(USBx, ep->xfer_buff, pmabuffer, (uint16_t)len);
 426:Drivers/STM32F3xx_HAL_Driver/Src/stm32f3xx_ll_usb.c ****             ep->xfer_buff += len;
 427:Drivers/STM32F3xx_HAL_Driver/Src/stm32f3xx_ll_usb.c **** 
 428:Drivers/STM32F3xx_HAL_Driver/Src/stm32f3xx_ll_usb.c ****             if (ep->xfer_len_db > ep->maxpacket)
 429:Drivers/STM32F3xx_HAL_Driver/Src/stm32f3xx_ll_usb.c ****             {
 430:Drivers/STM32F3xx_HAL_Driver/Src/stm32f3xx_ll_usb.c ****               ep->xfer_len_db -= len;
 431:Drivers/STM32F3xx_HAL_Driver/Src/stm32f3xx_ll_usb.c ****             }
 432:Drivers/STM32F3xx_HAL_Driver/Src/stm32f3xx_ll_usb.c ****             else
 433:Drivers/STM32F3xx_HAL_Driver/Src/stm32f3xx_ll_usb.c ****             {
 434:Drivers/STM32F3xx_HAL_Driver/Src/stm32f3xx_ll_usb.c ****               len = ep->xfer_len_db;
 435:Drivers/STM32F3xx_HAL_Driver/Src/stm32f3xx_ll_usb.c ****               ep->xfer_len_db = 0U;
 436:Drivers/STM32F3xx_HAL_Driver/Src/stm32f3xx_ll_usb.c ****             }
 437:Drivers/STM32F3xx_HAL_Driver/Src/stm32f3xx_ll_usb.c **** 
 438:Drivers/STM32F3xx_HAL_Driver/Src/stm32f3xx_ll_usb.c ****             /* Set the Double buffer counter for pmabuffer1 */
 439:Drivers/STM32F3xx_HAL_Driver/Src/stm32f3xx_ll_usb.c ****             PCD_SET_EP_DBUF1_CNT(USBx, ep->num, ep->is_in, len);
 440:Drivers/STM32F3xx_HAL_Driver/Src/stm32f3xx_ll_usb.c ****             pmabuffer = ep->pmaaddr1;
 441:Drivers/STM32F3xx_HAL_Driver/Src/stm32f3xx_ll_usb.c **** 
 442:Drivers/STM32F3xx_HAL_Driver/Src/stm32f3xx_ll_usb.c ****             /* Write the user buffer to USB PMA */
 443:Drivers/STM32F3xx_HAL_Driver/Src/stm32f3xx_ll_usb.c ****             USB_WritePMA(USBx, ep->xfer_buff, pmabuffer, (uint16_t)len);
 444:Drivers/STM32F3xx_HAL_Driver/Src/stm32f3xx_ll_usb.c ****           }
 445:Drivers/STM32F3xx_HAL_Driver/Src/stm32f3xx_ll_usb.c ****         }
 446:Drivers/STM32F3xx_HAL_Driver/Src/stm32f3xx_ll_usb.c ****         /* auto Switch to single buffer mode when transfer <Mps no need to manage in double buffer 
 447:Drivers/STM32F3xx_HAL_Driver/Src/stm32f3xx_ll_usb.c ****         else
 448:Drivers/STM32F3xx_HAL_Driver/Src/stm32f3xx_ll_usb.c ****         {
 449:Drivers/STM32F3xx_HAL_Driver/Src/stm32f3xx_ll_usb.c ****           len = ep->xfer_len_db;
 450:Drivers/STM32F3xx_HAL_Driver/Src/stm32f3xx_ll_usb.c **** 
 451:Drivers/STM32F3xx_HAL_Driver/Src/stm32f3xx_ll_usb.c ****           /* disable double buffer mode */
 452:Drivers/STM32F3xx_HAL_Driver/Src/stm32f3xx_ll_usb.c ****           PCD_CLEAR_EP_DBUF(USBx, ep->num);
 453:Drivers/STM32F3xx_HAL_Driver/Src/stm32f3xx_ll_usb.c **** 
ARM GAS  /var/folders/jw/jcj5j9_530958b2rm5vp9wn00000gn/T//ccDSMjf4.s 			page 38


 454:Drivers/STM32F3xx_HAL_Driver/Src/stm32f3xx_ll_usb.c ****           /* Set Tx count with nbre of byte to be transmitted */
 455:Drivers/STM32F3xx_HAL_Driver/Src/stm32f3xx_ll_usb.c ****           PCD_SET_EP_TX_CNT(USBx, ep->num, len);
 456:Drivers/STM32F3xx_HAL_Driver/Src/stm32f3xx_ll_usb.c ****           pmabuffer = ep->pmaaddr0;
 457:Drivers/STM32F3xx_HAL_Driver/Src/stm32f3xx_ll_usb.c **** 
 458:Drivers/STM32F3xx_HAL_Driver/Src/stm32f3xx_ll_usb.c ****           /* Write the user buffer to USB PMA */
 459:Drivers/STM32F3xx_HAL_Driver/Src/stm32f3xx_ll_usb.c ****           USB_WritePMA(USBx, ep->xfer_buff, pmabuffer, (uint16_t)len);
 460:Drivers/STM32F3xx_HAL_Driver/Src/stm32f3xx_ll_usb.c ****         }
 461:Drivers/STM32F3xx_HAL_Driver/Src/stm32f3xx_ll_usb.c ****       }/* end if bulk double buffer */
 462:Drivers/STM32F3xx_HAL_Driver/Src/stm32f3xx_ll_usb.c **** 
 463:Drivers/STM32F3xx_HAL_Driver/Src/stm32f3xx_ll_usb.c ****       /* manage isochronous double buffer IN mode */
 464:Drivers/STM32F3xx_HAL_Driver/Src/stm32f3xx_ll_usb.c ****       else
 465:Drivers/STM32F3xx_HAL_Driver/Src/stm32f3xx_ll_usb.c ****       {
 466:Drivers/STM32F3xx_HAL_Driver/Src/stm32f3xx_ll_usb.c ****         /* Write the data to the USB endpoint */
 467:Drivers/STM32F3xx_HAL_Driver/Src/stm32f3xx_ll_usb.c ****         if ((PCD_GET_ENDPOINT(USBx, ep->num) & USB_EP_DTOG_TX) != 0U)
 468:Drivers/STM32F3xx_HAL_Driver/Src/stm32f3xx_ll_usb.c ****         {
 469:Drivers/STM32F3xx_HAL_Driver/Src/stm32f3xx_ll_usb.c ****           /* Set the Double buffer counter for pmabuffer1 */
 470:Drivers/STM32F3xx_HAL_Driver/Src/stm32f3xx_ll_usb.c ****           PCD_SET_EP_DBUF1_CNT(USBx, ep->num, ep->is_in, len);
 471:Drivers/STM32F3xx_HAL_Driver/Src/stm32f3xx_ll_usb.c ****           pmabuffer = ep->pmaaddr1;
 472:Drivers/STM32F3xx_HAL_Driver/Src/stm32f3xx_ll_usb.c ****         }
 473:Drivers/STM32F3xx_HAL_Driver/Src/stm32f3xx_ll_usb.c ****         else
 474:Drivers/STM32F3xx_HAL_Driver/Src/stm32f3xx_ll_usb.c ****         {
 475:Drivers/STM32F3xx_HAL_Driver/Src/stm32f3xx_ll_usb.c ****           /* Set the Double buffer counter for pmabuffer0 */
 476:Drivers/STM32F3xx_HAL_Driver/Src/stm32f3xx_ll_usb.c ****           PCD_SET_EP_DBUF0_CNT(USBx, ep->num, ep->is_in, len);
 477:Drivers/STM32F3xx_HAL_Driver/Src/stm32f3xx_ll_usb.c ****           pmabuffer = ep->pmaaddr0;
 478:Drivers/STM32F3xx_HAL_Driver/Src/stm32f3xx_ll_usb.c ****         }
 479:Drivers/STM32F3xx_HAL_Driver/Src/stm32f3xx_ll_usb.c **** 
 480:Drivers/STM32F3xx_HAL_Driver/Src/stm32f3xx_ll_usb.c ****         USB_WritePMA(USBx, ep->xfer_buff, pmabuffer, (uint16_t)len);
 481:Drivers/STM32F3xx_HAL_Driver/Src/stm32f3xx_ll_usb.c ****         PCD_FreeUserBuffer(USBx, ep->num, ep->is_in);
 482:Drivers/STM32F3xx_HAL_Driver/Src/stm32f3xx_ll_usb.c ****       }
 483:Drivers/STM32F3xx_HAL_Driver/Src/stm32f3xx_ll_usb.c ****     }
 484:Drivers/STM32F3xx_HAL_Driver/Src/stm32f3xx_ll_usb.c **** 
 485:Drivers/STM32F3xx_HAL_Driver/Src/stm32f3xx_ll_usb.c ****     PCD_SET_EP_TX_STATUS(USBx, ep->num, USB_EP_TX_VALID);
 486:Drivers/STM32F3xx_HAL_Driver/Src/stm32f3xx_ll_usb.c ****   }
 487:Drivers/STM32F3xx_HAL_Driver/Src/stm32f3xx_ll_usb.c ****   else /* OUT endpoint */
 488:Drivers/STM32F3xx_HAL_Driver/Src/stm32f3xx_ll_usb.c ****   {
 489:Drivers/STM32F3xx_HAL_Driver/Src/stm32f3xx_ll_usb.c ****     if (ep->doublebuffer == 0U)
 490:Drivers/STM32F3xx_HAL_Driver/Src/stm32f3xx_ll_usb.c ****     {
 491:Drivers/STM32F3xx_HAL_Driver/Src/stm32f3xx_ll_usb.c ****       /* Multi packet transfer */
 492:Drivers/STM32F3xx_HAL_Driver/Src/stm32f3xx_ll_usb.c ****       if (ep->xfer_len > ep->maxpacket)
 493:Drivers/STM32F3xx_HAL_Driver/Src/stm32f3xx_ll_usb.c ****       {
 494:Drivers/STM32F3xx_HAL_Driver/Src/stm32f3xx_ll_usb.c ****         len = ep->maxpacket;
 495:Drivers/STM32F3xx_HAL_Driver/Src/stm32f3xx_ll_usb.c ****         ep->xfer_len -= len;
 496:Drivers/STM32F3xx_HAL_Driver/Src/stm32f3xx_ll_usb.c ****       }
 497:Drivers/STM32F3xx_HAL_Driver/Src/stm32f3xx_ll_usb.c ****       else
 498:Drivers/STM32F3xx_HAL_Driver/Src/stm32f3xx_ll_usb.c ****       {
 499:Drivers/STM32F3xx_HAL_Driver/Src/stm32f3xx_ll_usb.c ****         len = ep->xfer_len;
 500:Drivers/STM32F3xx_HAL_Driver/Src/stm32f3xx_ll_usb.c ****         ep->xfer_len = 0U;
 501:Drivers/STM32F3xx_HAL_Driver/Src/stm32f3xx_ll_usb.c ****       }
 502:Drivers/STM32F3xx_HAL_Driver/Src/stm32f3xx_ll_usb.c ****       /* configure and validate Rx endpoint */
 503:Drivers/STM32F3xx_HAL_Driver/Src/stm32f3xx_ll_usb.c ****       PCD_SET_EP_RX_CNT(USBx, ep->num, len);
 504:Drivers/STM32F3xx_HAL_Driver/Src/stm32f3xx_ll_usb.c ****     }
 505:Drivers/STM32F3xx_HAL_Driver/Src/stm32f3xx_ll_usb.c ****     else
 506:Drivers/STM32F3xx_HAL_Driver/Src/stm32f3xx_ll_usb.c ****     {
 507:Drivers/STM32F3xx_HAL_Driver/Src/stm32f3xx_ll_usb.c ****       /* First Transfer Coming From HAL_PCD_EP_Receive & From ISR */
 508:Drivers/STM32F3xx_HAL_Driver/Src/stm32f3xx_ll_usb.c ****       /* Set the Double buffer counter */
 509:Drivers/STM32F3xx_HAL_Driver/Src/stm32f3xx_ll_usb.c ****       if (ep->type == EP_TYPE_BULK)
 510:Drivers/STM32F3xx_HAL_Driver/Src/stm32f3xx_ll_usb.c ****       {
ARM GAS  /var/folders/jw/jcj5j9_530958b2rm5vp9wn00000gn/T//ccDSMjf4.s 			page 39


 511:Drivers/STM32F3xx_HAL_Driver/Src/stm32f3xx_ll_usb.c ****         PCD_SET_EP_DBUF_CNT(USBx, ep->num, ep->is_in, ep->maxpacket);
 512:Drivers/STM32F3xx_HAL_Driver/Src/stm32f3xx_ll_usb.c **** 
 513:Drivers/STM32F3xx_HAL_Driver/Src/stm32f3xx_ll_usb.c ****         /* Coming from ISR */
 514:Drivers/STM32F3xx_HAL_Driver/Src/stm32f3xx_ll_usb.c ****         if (ep->xfer_count != 0U)
 515:Drivers/STM32F3xx_HAL_Driver/Src/stm32f3xx_ll_usb.c ****         {
 516:Drivers/STM32F3xx_HAL_Driver/Src/stm32f3xx_ll_usb.c ****           /* update last value to check if there is blocking state */
 517:Drivers/STM32F3xx_HAL_Driver/Src/stm32f3xx_ll_usb.c ****           wEPVal = PCD_GET_ENDPOINT(USBx, ep->num);
 518:Drivers/STM32F3xx_HAL_Driver/Src/stm32f3xx_ll_usb.c **** 
 519:Drivers/STM32F3xx_HAL_Driver/Src/stm32f3xx_ll_usb.c ****           /*Blocking State */
 520:Drivers/STM32F3xx_HAL_Driver/Src/stm32f3xx_ll_usb.c ****           if ((((wEPVal & USB_EP_DTOG_RX) != 0U) && ((wEPVal & USB_EP_DTOG_TX) != 0U)) ||
 521:Drivers/STM32F3xx_HAL_Driver/Src/stm32f3xx_ll_usb.c ****               (((wEPVal & USB_EP_DTOG_RX) == 0U) && ((wEPVal & USB_EP_DTOG_TX) == 0U)))
 522:Drivers/STM32F3xx_HAL_Driver/Src/stm32f3xx_ll_usb.c ****           {
 523:Drivers/STM32F3xx_HAL_Driver/Src/stm32f3xx_ll_usb.c ****             PCD_FreeUserBuffer(USBx, ep->num, 0U);
 524:Drivers/STM32F3xx_HAL_Driver/Src/stm32f3xx_ll_usb.c ****           }
 525:Drivers/STM32F3xx_HAL_Driver/Src/stm32f3xx_ll_usb.c ****         }
 526:Drivers/STM32F3xx_HAL_Driver/Src/stm32f3xx_ll_usb.c ****       }
 527:Drivers/STM32F3xx_HAL_Driver/Src/stm32f3xx_ll_usb.c ****       /* iso out double */
 528:Drivers/STM32F3xx_HAL_Driver/Src/stm32f3xx_ll_usb.c ****       else if (ep->type == EP_TYPE_ISOC)
 529:Drivers/STM32F3xx_HAL_Driver/Src/stm32f3xx_ll_usb.c ****       {
 530:Drivers/STM32F3xx_HAL_Driver/Src/stm32f3xx_ll_usb.c ****         /* Multi packet transfer */
 531:Drivers/STM32F3xx_HAL_Driver/Src/stm32f3xx_ll_usb.c ****         if (ep->xfer_len > ep->maxpacket)
 532:Drivers/STM32F3xx_HAL_Driver/Src/stm32f3xx_ll_usb.c ****         {
 533:Drivers/STM32F3xx_HAL_Driver/Src/stm32f3xx_ll_usb.c ****           len = ep->maxpacket;
 534:Drivers/STM32F3xx_HAL_Driver/Src/stm32f3xx_ll_usb.c ****           ep->xfer_len -= len;
 535:Drivers/STM32F3xx_HAL_Driver/Src/stm32f3xx_ll_usb.c ****         }
 536:Drivers/STM32F3xx_HAL_Driver/Src/stm32f3xx_ll_usb.c ****         else
 537:Drivers/STM32F3xx_HAL_Driver/Src/stm32f3xx_ll_usb.c ****         {
 538:Drivers/STM32F3xx_HAL_Driver/Src/stm32f3xx_ll_usb.c ****           len = ep->xfer_len;
 539:Drivers/STM32F3xx_HAL_Driver/Src/stm32f3xx_ll_usb.c ****           ep->xfer_len = 0U;
 540:Drivers/STM32F3xx_HAL_Driver/Src/stm32f3xx_ll_usb.c ****         }
 541:Drivers/STM32F3xx_HAL_Driver/Src/stm32f3xx_ll_usb.c ****         PCD_SET_EP_DBUF_CNT(USBx, ep->num, ep->is_in, len);
 542:Drivers/STM32F3xx_HAL_Driver/Src/stm32f3xx_ll_usb.c ****       }
 543:Drivers/STM32F3xx_HAL_Driver/Src/stm32f3xx_ll_usb.c ****       else
 544:Drivers/STM32F3xx_HAL_Driver/Src/stm32f3xx_ll_usb.c ****       {
 545:Drivers/STM32F3xx_HAL_Driver/Src/stm32f3xx_ll_usb.c ****         return HAL_ERROR;
 546:Drivers/STM32F3xx_HAL_Driver/Src/stm32f3xx_ll_usb.c ****       }
 547:Drivers/STM32F3xx_HAL_Driver/Src/stm32f3xx_ll_usb.c ****     }
 548:Drivers/STM32F3xx_HAL_Driver/Src/stm32f3xx_ll_usb.c **** 
 549:Drivers/STM32F3xx_HAL_Driver/Src/stm32f3xx_ll_usb.c ****     PCD_SET_EP_RX_STATUS(USBx, ep->num, USB_EP_RX_VALID);
 550:Drivers/STM32F3xx_HAL_Driver/Src/stm32f3xx_ll_usb.c ****   }
 551:Drivers/STM32F3xx_HAL_Driver/Src/stm32f3xx_ll_usb.c **** 
 552:Drivers/STM32F3xx_HAL_Driver/Src/stm32f3xx_ll_usb.c ****   return HAL_OK;
 553:Drivers/STM32F3xx_HAL_Driver/Src/stm32f3xx_ll_usb.c **** }
 554:Drivers/STM32F3xx_HAL_Driver/Src/stm32f3xx_ll_usb.c **** 
 555:Drivers/STM32F3xx_HAL_Driver/Src/stm32f3xx_ll_usb.c **** 
 556:Drivers/STM32F3xx_HAL_Driver/Src/stm32f3xx_ll_usb.c **** /**
 557:Drivers/STM32F3xx_HAL_Driver/Src/stm32f3xx_ll_usb.c ****   * @brief  USB_EPSetStall set a stall condition over an EP
 558:Drivers/STM32F3xx_HAL_Driver/Src/stm32f3xx_ll_usb.c ****   * @param  USBx Selected device
 559:Drivers/STM32F3xx_HAL_Driver/Src/stm32f3xx_ll_usb.c ****   * @param  ep pointer to endpoint structure
 560:Drivers/STM32F3xx_HAL_Driver/Src/stm32f3xx_ll_usb.c ****   * @retval HAL status
 561:Drivers/STM32F3xx_HAL_Driver/Src/stm32f3xx_ll_usb.c ****   */
 562:Drivers/STM32F3xx_HAL_Driver/Src/stm32f3xx_ll_usb.c **** HAL_StatusTypeDef USB_EPSetStall(USB_TypeDef *USBx, USB_EPTypeDef *ep)
 563:Drivers/STM32F3xx_HAL_Driver/Src/stm32f3xx_ll_usb.c **** {
 1392              		.loc 1 563 1 is_stmt 1 view -0
 1393              		.cfi_startproc
 1394              		@ args = 0, pretend = 0, frame = 0
 1395              		@ frame_needed = 0, uses_anonymous_args = 0
ARM GAS  /var/folders/jw/jcj5j9_530958b2rm5vp9wn00000gn/T//ccDSMjf4.s 			page 40


 1396              		@ link register save eliminated.
 564:Drivers/STM32F3xx_HAL_Driver/Src/stm32f3xx_ll_usb.c ****   if (ep->is_in != 0U)
 1397              		.loc 1 564 3 view .LVU477
 1398              		.loc 1 564 9 is_stmt 0 view .LVU478
 1399 0000 4B78     		ldrb	r3, [r1, #1]	@ zero_extendqisi2
 1400              		.loc 1 564 6 view .LVU479
 1401 0002 8BB1     		cbz	r3, .L50
 565:Drivers/STM32F3xx_HAL_Driver/Src/stm32f3xx_ll_usb.c ****   {
 566:Drivers/STM32F3xx_HAL_Driver/Src/stm32f3xx_ll_usb.c ****     PCD_SET_EP_TX_STATUS(USBx, ep->num, USB_EP_TX_STALL);
 1402              		.loc 1 566 5 is_stmt 1 view .LVU480
 1403              	.LBB52:
 1404              		.loc 1 566 5 view .LVU481
 1405              		.loc 1 566 5 view .LVU482
 1406 0004 0A78     		ldrb	r2, [r1]	@ zero_extendqisi2
 1407 0006 30F82230 		ldrh	r3, [r0, r2, lsl #2]
 1408 000a 9BB2     		uxth	r3, r3
 1409 000c 23F4E043 		bic	r3, r3, #28672
 1410 0010 23F04003 		bic	r3, r3, #64
 1411              	.LVL149:
 1412              		.loc 1 566 5 view .LVU483
 1413              		.loc 1 566 5 view .LVU484
 1414 0014 83F01003 		eor	r3, r3, #16
 1415              	.LVL150:
 1416              		.loc 1 566 5 view .LVU485
 1417              		.loc 1 566 5 view .LVU486
 1418 0018 43F40043 		orr	r3, r3, #32768
 1419              	.LVL151:
 1420              		.loc 1 566 5 is_stmt 0 view .LVU487
 1421 001c 43F08003 		orr	r3, r3, #128
 1422 0020 20F82230 		strh	r3, [r0, r2, lsl #2]	@ movhi
 1423              	.LBE52:
 1424              		.loc 1 566 5 is_stmt 1 view .LVU488
 1425              	.L51:
 567:Drivers/STM32F3xx_HAL_Driver/Src/stm32f3xx_ll_usb.c ****   }
 568:Drivers/STM32F3xx_HAL_Driver/Src/stm32f3xx_ll_usb.c ****   else
 569:Drivers/STM32F3xx_HAL_Driver/Src/stm32f3xx_ll_usb.c ****   {
 570:Drivers/STM32F3xx_HAL_Driver/Src/stm32f3xx_ll_usb.c ****     PCD_SET_EP_RX_STATUS(USBx, ep->num, USB_EP_RX_STALL);
 1426              		.loc 1 570 5 discriminator 7 view .LVU489
 571:Drivers/STM32F3xx_HAL_Driver/Src/stm32f3xx_ll_usb.c ****   }
 572:Drivers/STM32F3xx_HAL_Driver/Src/stm32f3xx_ll_usb.c **** 
 573:Drivers/STM32F3xx_HAL_Driver/Src/stm32f3xx_ll_usb.c ****   return HAL_OK;
 1427              		.loc 1 573 3 discriminator 7 view .LVU490
 574:Drivers/STM32F3xx_HAL_Driver/Src/stm32f3xx_ll_usb.c **** }
 1428              		.loc 1 574 1 is_stmt 0 discriminator 7 view .LVU491
 1429 0024 0020     		movs	r0, #0
 1430              	.LVL152:
 1431              		.loc 1 574 1 discriminator 7 view .LVU492
 1432 0026 7047     		bx	lr
 1433              	.LVL153:
 1434              	.L50:
 570:Drivers/STM32F3xx_HAL_Driver/Src/stm32f3xx_ll_usb.c ****   }
 1435              		.loc 1 570 5 is_stmt 1 view .LVU493
 1436              	.LBB53:
 570:Drivers/STM32F3xx_HAL_Driver/Src/stm32f3xx_ll_usb.c ****   }
 1437              		.loc 1 570 5 view .LVU494
 570:Drivers/STM32F3xx_HAL_Driver/Src/stm32f3xx_ll_usb.c ****   }
 1438              		.loc 1 570 5 view .LVU495
ARM GAS  /var/folders/jw/jcj5j9_530958b2rm5vp9wn00000gn/T//ccDSMjf4.s 			page 41


 1439 0028 0A78     		ldrb	r2, [r1]	@ zero_extendqisi2
 1440 002a 30F82230 		ldrh	r3, [r0, r2, lsl #2]
 1441 002e 9BB2     		uxth	r3, r3
 1442 0030 23F48043 		bic	r3, r3, #16384
 1443 0034 23F07003 		bic	r3, r3, #112
 1444              	.LVL154:
 570:Drivers/STM32F3xx_HAL_Driver/Src/stm32f3xx_ll_usb.c ****   }
 1445              		.loc 1 570 5 view .LVU496
 570:Drivers/STM32F3xx_HAL_Driver/Src/stm32f3xx_ll_usb.c ****   }
 1446              		.loc 1 570 5 view .LVU497
 1447 0038 83F48053 		eor	r3, r3, #4096
 1448              	.LVL155:
 570:Drivers/STM32F3xx_HAL_Driver/Src/stm32f3xx_ll_usb.c ****   }
 1449              		.loc 1 570 5 view .LVU498
 570:Drivers/STM32F3xx_HAL_Driver/Src/stm32f3xx_ll_usb.c ****   }
 1450              		.loc 1 570 5 view .LVU499
 1451 003c 43F40043 		orr	r3, r3, #32768
 1452              	.LVL156:
 570:Drivers/STM32F3xx_HAL_Driver/Src/stm32f3xx_ll_usb.c ****   }
 1453              		.loc 1 570 5 is_stmt 0 view .LVU500
 1454 0040 43F08003 		orr	r3, r3, #128
 1455 0044 20F82230 		strh	r3, [r0, r2, lsl #2]	@ movhi
 1456 0048 ECE7     		b	.L51
 1457              	.LBE53:
 1458              		.cfi_endproc
 1459              	.LFE138:
 1461              		.section	.text.USB_EPClearStall,"ax",%progbits
 1462              		.align	1
 1463              		.global	USB_EPClearStall
 1464              		.syntax unified
 1465              		.thumb
 1466              		.thumb_func
 1467              		.fpu fpv4-sp-d16
 1469              	USB_EPClearStall:
 1470              	.LVL157:
 1471              	.LFB139:
 575:Drivers/STM32F3xx_HAL_Driver/Src/stm32f3xx_ll_usb.c **** 
 576:Drivers/STM32F3xx_HAL_Driver/Src/stm32f3xx_ll_usb.c **** /**
 577:Drivers/STM32F3xx_HAL_Driver/Src/stm32f3xx_ll_usb.c ****   * @brief  USB_EPClearStall Clear a stall condition over an EP
 578:Drivers/STM32F3xx_HAL_Driver/Src/stm32f3xx_ll_usb.c ****   * @param  USBx Selected device
 579:Drivers/STM32F3xx_HAL_Driver/Src/stm32f3xx_ll_usb.c ****   * @param  ep pointer to endpoint structure
 580:Drivers/STM32F3xx_HAL_Driver/Src/stm32f3xx_ll_usb.c ****   * @retval HAL status
 581:Drivers/STM32F3xx_HAL_Driver/Src/stm32f3xx_ll_usb.c ****   */
 582:Drivers/STM32F3xx_HAL_Driver/Src/stm32f3xx_ll_usb.c **** HAL_StatusTypeDef USB_EPClearStall(USB_TypeDef *USBx, USB_EPTypeDef *ep)
 583:Drivers/STM32F3xx_HAL_Driver/Src/stm32f3xx_ll_usb.c **** {
 1472              		.loc 1 583 1 is_stmt 1 view -0
 1473              		.cfi_startproc
 1474              		@ args = 0, pretend = 0, frame = 0
 1475              		@ frame_needed = 0, uses_anonymous_args = 0
 1476              		@ link register save eliminated.
 584:Drivers/STM32F3xx_HAL_Driver/Src/stm32f3xx_ll_usb.c ****   if (ep->doublebuffer == 0U)
 1477              		.loc 1 584 3 view .LVU502
 1478              		.loc 1 584 9 is_stmt 0 view .LVU503
 1479 0000 0B7B     		ldrb	r3, [r1, #12]	@ zero_extendqisi2
 1480              		.loc 1 584 6 view .LVU504
 1481 0002 002B     		cmp	r3, #0
 1482 0004 4BD1     		bne	.L53
ARM GAS  /var/folders/jw/jcj5j9_530958b2rm5vp9wn00000gn/T//ccDSMjf4.s 			page 42


 585:Drivers/STM32F3xx_HAL_Driver/Src/stm32f3xx_ll_usb.c ****   {
 586:Drivers/STM32F3xx_HAL_Driver/Src/stm32f3xx_ll_usb.c ****     if (ep->is_in != 0U)
 1483              		.loc 1 586 5 is_stmt 1 view .LVU505
 1484              		.loc 1 586 11 is_stmt 0 view .LVU506
 1485 0006 4B78     		ldrb	r3, [r1, #1]	@ zero_extendqisi2
 1486              		.loc 1 586 8 view .LVU507
 1487 0008 33B3     		cbz	r3, .L54
 587:Drivers/STM32F3xx_HAL_Driver/Src/stm32f3xx_ll_usb.c ****     {
 588:Drivers/STM32F3xx_HAL_Driver/Src/stm32f3xx_ll_usb.c ****       PCD_CLEAR_TX_DTOG(USBx, ep->num);
 1488              		.loc 1 588 7 is_stmt 1 view .LVU508
 1489              	.LBB54:
 1490              		.loc 1 588 7 view .LVU509
 1491              		.loc 1 588 7 view .LVU510
 1492 000a 0A78     		ldrb	r2, [r1]	@ zero_extendqisi2
 1493 000c 30F82230 		ldrh	r3, [r0, r2, lsl #2]
 1494              	.LVL158:
 1495              		.loc 1 588 7 view .LVU511
 1496 0010 13F0400F 		tst	r3, #64
 1497 0014 0CD0     		beq	.L55
 1498              		.loc 1 588 7 discriminator 1 view .LVU512
 1499              	.LBB55:
 1500              		.loc 1 588 7 discriminator 1 view .LVU513
 1501              		.loc 1 588 7 discriminator 1 view .LVU514
 1502 0016 30F82230 		ldrh	r3, [r0, r2, lsl #2]
 1503              	.LVL159:
 1504              		.loc 1 588 7 is_stmt 0 discriminator 1 view .LVU515
 1505 001a 9BB2     		uxth	r3, r3
 1506 001c 23F4E043 		bic	r3, r3, #28672
 1507 0020 23F07003 		bic	r3, r3, #112
 1508              	.LVL160:
 1509              		.loc 1 588 7 is_stmt 1 discriminator 1 view .LVU516
 1510 0024 43F40043 		orr	r3, r3, #32768
 1511              	.LVL161:
 1512              		.loc 1 588 7 is_stmt 0 discriminator 1 view .LVU517
 1513 0028 43F0C003 		orr	r3, r3, #192
 1514 002c 20F82230 		strh	r3, [r0, r2, lsl #2]	@ movhi
 1515              	.L55:
 1516              		.loc 1 588 7 discriminator 1 view .LVU518
 1517              	.LBE55:
 1518              		.loc 1 588 7 is_stmt 1 discriminator 3 view .LVU519
 1519              	.LBE54:
 1520              		.loc 1 588 7 discriminator 3 view .LVU520
 589:Drivers/STM32F3xx_HAL_Driver/Src/stm32f3xx_ll_usb.c **** 
 590:Drivers/STM32F3xx_HAL_Driver/Src/stm32f3xx_ll_usb.c ****       if (ep->type != EP_TYPE_ISOC)
 1521              		.loc 1 590 7 discriminator 3 view .LVU521
 1522              		.loc 1 590 13 is_stmt 0 discriminator 3 view .LVU522
 1523 0030 CB78     		ldrb	r3, [r1, #3]	@ zero_extendqisi2
 1524              		.loc 1 590 10 discriminator 3 view .LVU523
 1525 0032 012B     		cmp	r3, #1
 1526 0034 33D0     		beq	.L53
 591:Drivers/STM32F3xx_HAL_Driver/Src/stm32f3xx_ll_usb.c ****       {
 592:Drivers/STM32F3xx_HAL_Driver/Src/stm32f3xx_ll_usb.c ****         /* Configure NAK status for the Endpoint */
 593:Drivers/STM32F3xx_HAL_Driver/Src/stm32f3xx_ll_usb.c ****         PCD_SET_EP_TX_STATUS(USBx, ep->num, USB_EP_TX_NAK);
 1527              		.loc 1 593 9 is_stmt 1 view .LVU524
 1528              	.LBB56:
 1529              		.loc 1 593 9 view .LVU525
 1530              		.loc 1 593 9 view .LVU526
ARM GAS  /var/folders/jw/jcj5j9_530958b2rm5vp9wn00000gn/T//ccDSMjf4.s 			page 43


 1531 0036 0A78     		ldrb	r2, [r1]	@ zero_extendqisi2
 1532 0038 30F82230 		ldrh	r3, [r0, r2, lsl #2]
 1533 003c 9BB2     		uxth	r3, r3
 1534 003e 23F4E043 		bic	r3, r3, #28672
 1535 0042 23F04003 		bic	r3, r3, #64
 1536              	.LVL162:
 1537              		.loc 1 593 9 view .LVU527
 1538              		.loc 1 593 9 view .LVU528
 1539              		.loc 1 593 9 view .LVU529
 1540 0046 83F02003 		eor	r3, r3, #32
 1541              	.LVL163:
 1542              		.loc 1 593 9 view .LVU530
 1543 004a 43F40043 		orr	r3, r3, #32768
 1544              	.LVL164:
 1545              		.loc 1 593 9 is_stmt 0 view .LVU531
 1546 004e 43F08003 		orr	r3, r3, #128
 1547 0052 20F82230 		strh	r3, [r0, r2, lsl #2]	@ movhi
 1548 0056 22E0     		b	.L53
 1549              	.L54:
 1550              		.loc 1 593 9 view .LVU532
 1551              	.LBE56:
 594:Drivers/STM32F3xx_HAL_Driver/Src/stm32f3xx_ll_usb.c ****       }
 595:Drivers/STM32F3xx_HAL_Driver/Src/stm32f3xx_ll_usb.c ****     }
 596:Drivers/STM32F3xx_HAL_Driver/Src/stm32f3xx_ll_usb.c ****     else
 597:Drivers/STM32F3xx_HAL_Driver/Src/stm32f3xx_ll_usb.c ****     {
 598:Drivers/STM32F3xx_HAL_Driver/Src/stm32f3xx_ll_usb.c ****       PCD_CLEAR_RX_DTOG(USBx, ep->num);
 1552              		.loc 1 598 7 is_stmt 1 view .LVU533
 1553              	.LBB57:
 1554              		.loc 1 598 7 view .LVU534
 1555              		.loc 1 598 7 view .LVU535
 1556 0058 0A78     		ldrb	r2, [r1]	@ zero_extendqisi2
 1557 005a 30F82230 		ldrh	r3, [r0, r2, lsl #2]
 1558              	.LVL165:
 1559              		.loc 1 598 7 view .LVU536
 1560 005e 13F4804F 		tst	r3, #16384
 1561 0062 0CD0     		beq	.L56
 1562              		.loc 1 598 7 discriminator 1 view .LVU537
 1563              	.LBB58:
 1564              		.loc 1 598 7 discriminator 1 view .LVU538
 1565              		.loc 1 598 7 discriminator 1 view .LVU539
 1566 0064 30F82230 		ldrh	r3, [r0, r2, lsl #2]
 1567              	.LVL166:
 1568              		.loc 1 598 7 is_stmt 0 discriminator 1 view .LVU540
 1569 0068 9BB2     		uxth	r3, r3
 1570 006a 23F4E043 		bic	r3, r3, #28672
 1571 006e 23F07003 		bic	r3, r3, #112
 1572              	.LVL167:
 1573              		.loc 1 598 7 is_stmt 1 discriminator 1 view .LVU541
 1574 0072 43F44043 		orr	r3, r3, #49152
 1575              	.LVL168:
 1576              		.loc 1 598 7 is_stmt 0 discriminator 1 view .LVU542
 1577 0076 43F08003 		orr	r3, r3, #128
 1578 007a 20F82230 		strh	r3, [r0, r2, lsl #2]	@ movhi
 1579              	.L56:
 1580              		.loc 1 598 7 discriminator 1 view .LVU543
 1581              	.LBE58:
 1582              		.loc 1 598 7 is_stmt 1 discriminator 3 view .LVU544
ARM GAS  /var/folders/jw/jcj5j9_530958b2rm5vp9wn00000gn/T//ccDSMjf4.s 			page 44


 1583              	.LBE57:
 1584              		.loc 1 598 7 discriminator 3 view .LVU545
 599:Drivers/STM32F3xx_HAL_Driver/Src/stm32f3xx_ll_usb.c **** 
 600:Drivers/STM32F3xx_HAL_Driver/Src/stm32f3xx_ll_usb.c ****       /* Configure VALID status for the Endpoint */
 601:Drivers/STM32F3xx_HAL_Driver/Src/stm32f3xx_ll_usb.c ****       PCD_SET_EP_RX_STATUS(USBx, ep->num, USB_EP_RX_VALID);
 1585              		.loc 1 601 7 discriminator 3 view .LVU546
 1586              	.LBB59:
 1587              		.loc 1 601 7 discriminator 3 view .LVU547
 1588              		.loc 1 601 7 discriminator 3 view .LVU548
 1589 007e 0A78     		ldrb	r2, [r1]	@ zero_extendqisi2
 1590 0080 30F82230 		ldrh	r3, [r0, r2, lsl #2]
 1591 0084 9BB2     		uxth	r3, r3
 1592 0086 23F48043 		bic	r3, r3, #16384
 1593 008a 23F07003 		bic	r3, r3, #112
 1594              	.LVL169:
 1595              		.loc 1 601 7 discriminator 3 view .LVU549
 1596              		.loc 1 601 7 discriminator 3 view .LVU550
 1597              		.loc 1 601 7 discriminator 3 view .LVU551
 1598              		.loc 1 601 7 discriminator 3 view .LVU552
 1599 008e 83F44053 		eor	r3, r3, #12288
 1600              	.LVL170:
 1601              		.loc 1 601 7 discriminator 3 view .LVU553
 1602 0092 43F40043 		orr	r3, r3, #32768
 1603              	.LVL171:
 1604              		.loc 1 601 7 is_stmt 0 discriminator 3 view .LVU554
 1605 0096 43F08003 		orr	r3, r3, #128
 1606 009a 20F82230 		strh	r3, [r0, r2, lsl #2]	@ movhi
 1607              	.L53:
 1608              		.loc 1 601 7 discriminator 3 view .LVU555
 1609              	.LBE59:
 1610              		.loc 1 601 7 is_stmt 1 discriminator 7 view .LVU556
 602:Drivers/STM32F3xx_HAL_Driver/Src/stm32f3xx_ll_usb.c ****     }
 603:Drivers/STM32F3xx_HAL_Driver/Src/stm32f3xx_ll_usb.c ****   }
 604:Drivers/STM32F3xx_HAL_Driver/Src/stm32f3xx_ll_usb.c **** 
 605:Drivers/STM32F3xx_HAL_Driver/Src/stm32f3xx_ll_usb.c ****   return HAL_OK;
 1611              		.loc 1 605 3 discriminator 7 view .LVU557
 606:Drivers/STM32F3xx_HAL_Driver/Src/stm32f3xx_ll_usb.c **** }
 1612              		.loc 1 606 1 is_stmt 0 discriminator 7 view .LVU558
 1613 009e 0020     		movs	r0, #0
 1614              	.LVL172:
 1615              		.loc 1 606 1 discriminator 7 view .LVU559
 1616 00a0 7047     		bx	lr
 1617              		.cfi_endproc
 1618              	.LFE139:
 1620              		.section	.text.USB_StopDevice,"ax",%progbits
 1621              		.align	1
 1622              		.global	USB_StopDevice
 1623              		.syntax unified
 1624              		.thumb
 1625              		.thumb_func
 1626              		.fpu fpv4-sp-d16
 1628              	USB_StopDevice:
 1629              	.LVL173:
 1630              	.LFB140:
 607:Drivers/STM32F3xx_HAL_Driver/Src/stm32f3xx_ll_usb.c **** 
 608:Drivers/STM32F3xx_HAL_Driver/Src/stm32f3xx_ll_usb.c **** /**
 609:Drivers/STM32F3xx_HAL_Driver/Src/stm32f3xx_ll_usb.c ****   * @brief  USB_StopDevice Stop the usb device mode
ARM GAS  /var/folders/jw/jcj5j9_530958b2rm5vp9wn00000gn/T//ccDSMjf4.s 			page 45


 610:Drivers/STM32F3xx_HAL_Driver/Src/stm32f3xx_ll_usb.c ****   * @param  USBx Selected device
 611:Drivers/STM32F3xx_HAL_Driver/Src/stm32f3xx_ll_usb.c ****   * @retval HAL status
 612:Drivers/STM32F3xx_HAL_Driver/Src/stm32f3xx_ll_usb.c ****   */
 613:Drivers/STM32F3xx_HAL_Driver/Src/stm32f3xx_ll_usb.c **** HAL_StatusTypeDef USB_StopDevice(USB_TypeDef *USBx)
 614:Drivers/STM32F3xx_HAL_Driver/Src/stm32f3xx_ll_usb.c **** {
 1631              		.loc 1 614 1 is_stmt 1 view -0
 1632              		.cfi_startproc
 1633              		@ args = 0, pretend = 0, frame = 0
 1634              		@ frame_needed = 0, uses_anonymous_args = 0
 1635              		@ link register save eliminated.
 1636              		.loc 1 614 1 is_stmt 0 view .LVU561
 1637 0000 0346     		mov	r3, r0
 615:Drivers/STM32F3xx_HAL_Driver/Src/stm32f3xx_ll_usb.c ****   /* disable all interrupts and force USB reset */
 616:Drivers/STM32F3xx_HAL_Driver/Src/stm32f3xx_ll_usb.c ****   USBx->CNTR = (uint16_t)USB_CNTR_FRES;
 1638              		.loc 1 616 3 is_stmt 1 view .LVU562
 1639              		.loc 1 616 14 is_stmt 0 view .LVU563
 1640 0002 0122     		movs	r2, #1
 1641 0004 A0F84020 		strh	r2, [r0, #64]	@ movhi
 617:Drivers/STM32F3xx_HAL_Driver/Src/stm32f3xx_ll_usb.c **** 
 618:Drivers/STM32F3xx_HAL_Driver/Src/stm32f3xx_ll_usb.c ****   /* clear interrupt status register */
 619:Drivers/STM32F3xx_HAL_Driver/Src/stm32f3xx_ll_usb.c ****   USBx->ISTR = 0U;
 1642              		.loc 1 619 3 is_stmt 1 view .LVU564
 1643              		.loc 1 619 14 is_stmt 0 view .LVU565
 1644 0008 0020     		movs	r0, #0
 1645              	.LVL174:
 1646              		.loc 1 619 14 view .LVU566
 1647 000a A3F84400 		strh	r0, [r3, #68]	@ movhi
 620:Drivers/STM32F3xx_HAL_Driver/Src/stm32f3xx_ll_usb.c **** 
 621:Drivers/STM32F3xx_HAL_Driver/Src/stm32f3xx_ll_usb.c ****   /* switch-off device */
 622:Drivers/STM32F3xx_HAL_Driver/Src/stm32f3xx_ll_usb.c ****   USBx->CNTR = (uint16_t)(USB_CNTR_FRES | USB_CNTR_PDWN);
 1648              		.loc 1 622 3 is_stmt 1 view .LVU567
 1649              		.loc 1 622 14 is_stmt 0 view .LVU568
 1650 000e 0322     		movs	r2, #3
 1651 0010 A3F84020 		strh	r2, [r3, #64]	@ movhi
 623:Drivers/STM32F3xx_HAL_Driver/Src/stm32f3xx_ll_usb.c **** 
 624:Drivers/STM32F3xx_HAL_Driver/Src/stm32f3xx_ll_usb.c ****   return HAL_OK;
 1652              		.loc 1 624 3 is_stmt 1 view .LVU569
 625:Drivers/STM32F3xx_HAL_Driver/Src/stm32f3xx_ll_usb.c **** }
 1653              		.loc 1 625 1 is_stmt 0 view .LVU570
 1654 0014 7047     		bx	lr
 1655              		.cfi_endproc
 1656              	.LFE140:
 1658              		.section	.text.USB_SetDevAddress,"ax",%progbits
 1659              		.align	1
 1660              		.global	USB_SetDevAddress
 1661              		.syntax unified
 1662              		.thumb
 1663              		.thumb_func
 1664              		.fpu fpv4-sp-d16
 1666              	USB_SetDevAddress:
 1667              	.LVL175:
 1668              	.LFB141:
 626:Drivers/STM32F3xx_HAL_Driver/Src/stm32f3xx_ll_usb.c **** 
 627:Drivers/STM32F3xx_HAL_Driver/Src/stm32f3xx_ll_usb.c **** /**
 628:Drivers/STM32F3xx_HAL_Driver/Src/stm32f3xx_ll_usb.c ****   * @brief  USB_SetDevAddress Stop the usb device mode
 629:Drivers/STM32F3xx_HAL_Driver/Src/stm32f3xx_ll_usb.c ****   * @param  USBx Selected device
 630:Drivers/STM32F3xx_HAL_Driver/Src/stm32f3xx_ll_usb.c ****   * @param  address new device address to be assigned
ARM GAS  /var/folders/jw/jcj5j9_530958b2rm5vp9wn00000gn/T//ccDSMjf4.s 			page 46


 631:Drivers/STM32F3xx_HAL_Driver/Src/stm32f3xx_ll_usb.c ****   *          This parameter can be a value from 0 to 255
 632:Drivers/STM32F3xx_HAL_Driver/Src/stm32f3xx_ll_usb.c ****   * @retval HAL status
 633:Drivers/STM32F3xx_HAL_Driver/Src/stm32f3xx_ll_usb.c ****   */
 634:Drivers/STM32F3xx_HAL_Driver/Src/stm32f3xx_ll_usb.c **** HAL_StatusTypeDef  USB_SetDevAddress(USB_TypeDef *USBx, uint8_t address)
 635:Drivers/STM32F3xx_HAL_Driver/Src/stm32f3xx_ll_usb.c **** {
 1669              		.loc 1 635 1 is_stmt 1 view -0
 1670              		.cfi_startproc
 1671              		@ args = 0, pretend = 0, frame = 0
 1672              		@ frame_needed = 0, uses_anonymous_args = 0
 1673              		@ link register save eliminated.
 636:Drivers/STM32F3xx_HAL_Driver/Src/stm32f3xx_ll_usb.c ****   if (address == 0U)
 1674              		.loc 1 636 3 view .LVU572
 1675              		.loc 1 636 6 is_stmt 0 view .LVU573
 1676 0000 11B9     		cbnz	r1, .L59
 637:Drivers/STM32F3xx_HAL_Driver/Src/stm32f3xx_ll_usb.c ****   {
 638:Drivers/STM32F3xx_HAL_Driver/Src/stm32f3xx_ll_usb.c ****     /* set device address and enable function */
 639:Drivers/STM32F3xx_HAL_Driver/Src/stm32f3xx_ll_usb.c ****     USBx->DADDR = (uint16_t)USB_DADDR_EF;
 1677              		.loc 1 639 5 is_stmt 1 view .LVU574
 1678              		.loc 1 639 17 is_stmt 0 view .LVU575
 1679 0002 8023     		movs	r3, #128
 1680 0004 A0F84C30 		strh	r3, [r0, #76]	@ movhi
 1681              	.L59:
 640:Drivers/STM32F3xx_HAL_Driver/Src/stm32f3xx_ll_usb.c ****   }
 641:Drivers/STM32F3xx_HAL_Driver/Src/stm32f3xx_ll_usb.c **** 
 642:Drivers/STM32F3xx_HAL_Driver/Src/stm32f3xx_ll_usb.c ****   return HAL_OK;
 1682              		.loc 1 642 3 is_stmt 1 view .LVU576
 643:Drivers/STM32F3xx_HAL_Driver/Src/stm32f3xx_ll_usb.c **** }
 1683              		.loc 1 643 1 is_stmt 0 view .LVU577
 1684 0008 0020     		movs	r0, #0
 1685              	.LVL176:
 1686              		.loc 1 643 1 view .LVU578
 1687 000a 7047     		bx	lr
 1688              		.cfi_endproc
 1689              	.LFE141:
 1691              		.section	.text.USB_DevConnect,"ax",%progbits
 1692              		.align	1
 1693              		.global	USB_DevConnect
 1694              		.syntax unified
 1695              		.thumb
 1696              		.thumb_func
 1697              		.fpu fpv4-sp-d16
 1699              	USB_DevConnect:
 1700              	.LVL177:
 1701              	.LFB142:
 644:Drivers/STM32F3xx_HAL_Driver/Src/stm32f3xx_ll_usb.c **** 
 645:Drivers/STM32F3xx_HAL_Driver/Src/stm32f3xx_ll_usb.c **** /**
 646:Drivers/STM32F3xx_HAL_Driver/Src/stm32f3xx_ll_usb.c ****   * @brief  USB_DevConnect Connect the USB device by enabling the pull-up/pull-down
 647:Drivers/STM32F3xx_HAL_Driver/Src/stm32f3xx_ll_usb.c ****   * @param  USBx Selected device
 648:Drivers/STM32F3xx_HAL_Driver/Src/stm32f3xx_ll_usb.c ****   * @retval HAL status
 649:Drivers/STM32F3xx_HAL_Driver/Src/stm32f3xx_ll_usb.c ****   */
 650:Drivers/STM32F3xx_HAL_Driver/Src/stm32f3xx_ll_usb.c **** HAL_StatusTypeDef  USB_DevConnect(USB_TypeDef *USBx)
 651:Drivers/STM32F3xx_HAL_Driver/Src/stm32f3xx_ll_usb.c **** {
 1702              		.loc 1 651 1 is_stmt 1 view -0
 1703              		.cfi_startproc
 1704              		@ args = 0, pretend = 0, frame = 0
 1705              		@ frame_needed = 0, uses_anonymous_args = 0
 1706              		@ link register save eliminated.
ARM GAS  /var/folders/jw/jcj5j9_530958b2rm5vp9wn00000gn/T//ccDSMjf4.s 			page 47


 652:Drivers/STM32F3xx_HAL_Driver/Src/stm32f3xx_ll_usb.c ****   /* Prevent unused argument(s) compilation warning */
 653:Drivers/STM32F3xx_HAL_Driver/Src/stm32f3xx_ll_usb.c ****   UNUSED(USBx);
 1707              		.loc 1 653 3 view .LVU580
 654:Drivers/STM32F3xx_HAL_Driver/Src/stm32f3xx_ll_usb.c **** 
 655:Drivers/STM32F3xx_HAL_Driver/Src/stm32f3xx_ll_usb.c ****   /* NOTE : - This function is not required by USB Device FS peripheral, it is used
 656:Drivers/STM32F3xx_HAL_Driver/Src/stm32f3xx_ll_usb.c ****               only by USB OTG FS peripheral.
 657:Drivers/STM32F3xx_HAL_Driver/Src/stm32f3xx_ll_usb.c ****             - This function is added to ensure compatibility across platforms.
 658:Drivers/STM32F3xx_HAL_Driver/Src/stm32f3xx_ll_usb.c ****    */
 659:Drivers/STM32F3xx_HAL_Driver/Src/stm32f3xx_ll_usb.c **** 
 660:Drivers/STM32F3xx_HAL_Driver/Src/stm32f3xx_ll_usb.c ****   return HAL_OK;
 1708              		.loc 1 660 3 view .LVU581
 661:Drivers/STM32F3xx_HAL_Driver/Src/stm32f3xx_ll_usb.c **** }
 1709              		.loc 1 661 1 is_stmt 0 view .LVU582
 1710 0000 0020     		movs	r0, #0
 1711              	.LVL178:
 1712              		.loc 1 661 1 view .LVU583
 1713 0002 7047     		bx	lr
 1714              		.cfi_endproc
 1715              	.LFE142:
 1717              		.section	.text.USB_DevDisconnect,"ax",%progbits
 1718              		.align	1
 1719              		.global	USB_DevDisconnect
 1720              		.syntax unified
 1721              		.thumb
 1722              		.thumb_func
 1723              		.fpu fpv4-sp-d16
 1725              	USB_DevDisconnect:
 1726              	.LVL179:
 1727              	.LFB143:
 662:Drivers/STM32F3xx_HAL_Driver/Src/stm32f3xx_ll_usb.c **** 
 663:Drivers/STM32F3xx_HAL_Driver/Src/stm32f3xx_ll_usb.c **** /**
 664:Drivers/STM32F3xx_HAL_Driver/Src/stm32f3xx_ll_usb.c ****   * @brief  USB_DevDisconnect Disconnect the USB device by disabling the pull-up/pull-down
 665:Drivers/STM32F3xx_HAL_Driver/Src/stm32f3xx_ll_usb.c ****   * @param  USBx Selected device
 666:Drivers/STM32F3xx_HAL_Driver/Src/stm32f3xx_ll_usb.c ****   * @retval HAL status
 667:Drivers/STM32F3xx_HAL_Driver/Src/stm32f3xx_ll_usb.c ****   */
 668:Drivers/STM32F3xx_HAL_Driver/Src/stm32f3xx_ll_usb.c **** HAL_StatusTypeDef  USB_DevDisconnect(USB_TypeDef *USBx)
 669:Drivers/STM32F3xx_HAL_Driver/Src/stm32f3xx_ll_usb.c **** {
 1728              		.loc 1 669 1 is_stmt 1 view -0
 1729              		.cfi_startproc
 1730              		@ args = 0, pretend = 0, frame = 0
 1731              		@ frame_needed = 0, uses_anonymous_args = 0
 1732              		@ link register save eliminated.
 670:Drivers/STM32F3xx_HAL_Driver/Src/stm32f3xx_ll_usb.c ****   /* Prevent unused argument(s) compilation warning */
 671:Drivers/STM32F3xx_HAL_Driver/Src/stm32f3xx_ll_usb.c ****   UNUSED(USBx);
 1733              		.loc 1 671 3 view .LVU585
 672:Drivers/STM32F3xx_HAL_Driver/Src/stm32f3xx_ll_usb.c **** 
 673:Drivers/STM32F3xx_HAL_Driver/Src/stm32f3xx_ll_usb.c ****   /* NOTE : - This function is not required by USB Device FS peripheral, it is used
 674:Drivers/STM32F3xx_HAL_Driver/Src/stm32f3xx_ll_usb.c ****               only by USB OTG FS peripheral.
 675:Drivers/STM32F3xx_HAL_Driver/Src/stm32f3xx_ll_usb.c ****             - This function is added to ensure compatibility across platforms.
 676:Drivers/STM32F3xx_HAL_Driver/Src/stm32f3xx_ll_usb.c ****    */
 677:Drivers/STM32F3xx_HAL_Driver/Src/stm32f3xx_ll_usb.c **** 
 678:Drivers/STM32F3xx_HAL_Driver/Src/stm32f3xx_ll_usb.c ****   return HAL_OK;
 1734              		.loc 1 678 3 view .LVU586
 679:Drivers/STM32F3xx_HAL_Driver/Src/stm32f3xx_ll_usb.c **** }
 1735              		.loc 1 679 1 is_stmt 0 view .LVU587
 1736 0000 0020     		movs	r0, #0
 1737              	.LVL180:
ARM GAS  /var/folders/jw/jcj5j9_530958b2rm5vp9wn00000gn/T//ccDSMjf4.s 			page 48


 1738              		.loc 1 679 1 view .LVU588
 1739 0002 7047     		bx	lr
 1740              		.cfi_endproc
 1741              	.LFE143:
 1743              		.section	.text.USB_ReadInterrupts,"ax",%progbits
 1744              		.align	1
 1745              		.global	USB_ReadInterrupts
 1746              		.syntax unified
 1747              		.thumb
 1748              		.thumb_func
 1749              		.fpu fpv4-sp-d16
 1751              	USB_ReadInterrupts:
 1752              	.LVL181:
 1753              	.LFB144:
 680:Drivers/STM32F3xx_HAL_Driver/Src/stm32f3xx_ll_usb.c **** 
 681:Drivers/STM32F3xx_HAL_Driver/Src/stm32f3xx_ll_usb.c **** /**
 682:Drivers/STM32F3xx_HAL_Driver/Src/stm32f3xx_ll_usb.c ****   * @brief  USB_ReadInterrupts return the global USB interrupt status
 683:Drivers/STM32F3xx_HAL_Driver/Src/stm32f3xx_ll_usb.c ****   * @param  USBx Selected device
 684:Drivers/STM32F3xx_HAL_Driver/Src/stm32f3xx_ll_usb.c ****   * @retval HAL status
 685:Drivers/STM32F3xx_HAL_Driver/Src/stm32f3xx_ll_usb.c ****   */
 686:Drivers/STM32F3xx_HAL_Driver/Src/stm32f3xx_ll_usb.c **** uint32_t  USB_ReadInterrupts(USB_TypeDef *USBx)
 687:Drivers/STM32F3xx_HAL_Driver/Src/stm32f3xx_ll_usb.c **** {
 1754              		.loc 1 687 1 is_stmt 1 view -0
 1755              		.cfi_startproc
 1756              		@ args = 0, pretend = 0, frame = 0
 1757              		@ frame_needed = 0, uses_anonymous_args = 0
 1758              		@ link register save eliminated.
 688:Drivers/STM32F3xx_HAL_Driver/Src/stm32f3xx_ll_usb.c ****   uint32_t tmpreg;
 1759              		.loc 1 688 3 view .LVU590
 689:Drivers/STM32F3xx_HAL_Driver/Src/stm32f3xx_ll_usb.c **** 
 690:Drivers/STM32F3xx_HAL_Driver/Src/stm32f3xx_ll_usb.c ****   tmpreg = USBx->ISTR;
 1760              		.loc 1 690 3 view .LVU591
 1761              		.loc 1 690 16 is_stmt 0 view .LVU592
 1762 0000 B0F84400 		ldrh	r0, [r0, #68]
 1763              	.LVL182:
 691:Drivers/STM32F3xx_HAL_Driver/Src/stm32f3xx_ll_usb.c ****   return tmpreg;
 1764              		.loc 1 691 3 is_stmt 1 view .LVU593
 692:Drivers/STM32F3xx_HAL_Driver/Src/stm32f3xx_ll_usb.c **** }
 1765              		.loc 1 692 1 is_stmt 0 view .LVU594
 1766 0004 80B2     		uxth	r0, r0
 1767              	.LVL183:
 1768              		.loc 1 692 1 view .LVU595
 1769 0006 7047     		bx	lr
 1770              		.cfi_endproc
 1771              	.LFE144:
 1773              		.section	.text.USB_ActivateRemoteWakeup,"ax",%progbits
 1774              		.align	1
 1775              		.global	USB_ActivateRemoteWakeup
 1776              		.syntax unified
 1777              		.thumb
 1778              		.thumb_func
 1779              		.fpu fpv4-sp-d16
 1781              	USB_ActivateRemoteWakeup:
 1782              	.LVL184:
 1783              	.LFB145:
 693:Drivers/STM32F3xx_HAL_Driver/Src/stm32f3xx_ll_usb.c **** 
 694:Drivers/STM32F3xx_HAL_Driver/Src/stm32f3xx_ll_usb.c **** /**
ARM GAS  /var/folders/jw/jcj5j9_530958b2rm5vp9wn00000gn/T//ccDSMjf4.s 			page 49


 695:Drivers/STM32F3xx_HAL_Driver/Src/stm32f3xx_ll_usb.c ****   * @brief  USB_ActivateRemoteWakeup : active remote wakeup signalling
 696:Drivers/STM32F3xx_HAL_Driver/Src/stm32f3xx_ll_usb.c ****   * @param  USBx Selected device
 697:Drivers/STM32F3xx_HAL_Driver/Src/stm32f3xx_ll_usb.c ****   * @retval HAL status
 698:Drivers/STM32F3xx_HAL_Driver/Src/stm32f3xx_ll_usb.c ****   */
 699:Drivers/STM32F3xx_HAL_Driver/Src/stm32f3xx_ll_usb.c **** HAL_StatusTypeDef USB_ActivateRemoteWakeup(USB_TypeDef *USBx)
 700:Drivers/STM32F3xx_HAL_Driver/Src/stm32f3xx_ll_usb.c **** {
 1784              		.loc 1 700 1 is_stmt 1 view -0
 1785              		.cfi_startproc
 1786              		@ args = 0, pretend = 0, frame = 0
 1787              		@ frame_needed = 0, uses_anonymous_args = 0
 1788              		@ link register save eliminated.
 701:Drivers/STM32F3xx_HAL_Driver/Src/stm32f3xx_ll_usb.c ****   USBx->CNTR |= (uint16_t)USB_CNTR_RESUME;
 1789              		.loc 1 701 3 view .LVU597
 1790              		.loc 1 701 14 is_stmt 0 view .LVU598
 1791 0000 B0F84030 		ldrh	r3, [r0, #64]
 1792 0004 9BB2     		uxth	r3, r3
 1793 0006 43F01003 		orr	r3, r3, #16
 1794 000a A0F84030 		strh	r3, [r0, #64]	@ movhi
 702:Drivers/STM32F3xx_HAL_Driver/Src/stm32f3xx_ll_usb.c **** 
 703:Drivers/STM32F3xx_HAL_Driver/Src/stm32f3xx_ll_usb.c ****   return HAL_OK;
 1795              		.loc 1 703 3 is_stmt 1 view .LVU599
 704:Drivers/STM32F3xx_HAL_Driver/Src/stm32f3xx_ll_usb.c **** }
 1796              		.loc 1 704 1 is_stmt 0 view .LVU600
 1797 000e 0020     		movs	r0, #0
 1798              	.LVL185:
 1799              		.loc 1 704 1 view .LVU601
 1800 0010 7047     		bx	lr
 1801              		.cfi_endproc
 1802              	.LFE145:
 1804              		.section	.text.USB_DeActivateRemoteWakeup,"ax",%progbits
 1805              		.align	1
 1806              		.global	USB_DeActivateRemoteWakeup
 1807              		.syntax unified
 1808              		.thumb
 1809              		.thumb_func
 1810              		.fpu fpv4-sp-d16
 1812              	USB_DeActivateRemoteWakeup:
 1813              	.LVL186:
 1814              	.LFB146:
 705:Drivers/STM32F3xx_HAL_Driver/Src/stm32f3xx_ll_usb.c **** 
 706:Drivers/STM32F3xx_HAL_Driver/Src/stm32f3xx_ll_usb.c **** /**
 707:Drivers/STM32F3xx_HAL_Driver/Src/stm32f3xx_ll_usb.c ****   * @brief  USB_DeActivateRemoteWakeup de-active remote wakeup signalling
 708:Drivers/STM32F3xx_HAL_Driver/Src/stm32f3xx_ll_usb.c ****   * @param  USBx Selected device
 709:Drivers/STM32F3xx_HAL_Driver/Src/stm32f3xx_ll_usb.c ****   * @retval HAL status
 710:Drivers/STM32F3xx_HAL_Driver/Src/stm32f3xx_ll_usb.c ****   */
 711:Drivers/STM32F3xx_HAL_Driver/Src/stm32f3xx_ll_usb.c **** HAL_StatusTypeDef USB_DeActivateRemoteWakeup(USB_TypeDef *USBx)
 712:Drivers/STM32F3xx_HAL_Driver/Src/stm32f3xx_ll_usb.c **** {
 1815              		.loc 1 712 1 is_stmt 1 view -0
 1816              		.cfi_startproc
 1817              		@ args = 0, pretend = 0, frame = 0
 1818              		@ frame_needed = 0, uses_anonymous_args = 0
 1819              		@ link register save eliminated.
 713:Drivers/STM32F3xx_HAL_Driver/Src/stm32f3xx_ll_usb.c ****   USBx->CNTR &= (uint16_t)(~USB_CNTR_RESUME);
 1820              		.loc 1 713 3 view .LVU603
 1821              		.loc 1 713 14 is_stmt 0 view .LVU604
 1822 0000 B0F84030 		ldrh	r3, [r0, #64]
 1823 0004 9BB2     		uxth	r3, r3
ARM GAS  /var/folders/jw/jcj5j9_530958b2rm5vp9wn00000gn/T//ccDSMjf4.s 			page 50


 1824 0006 23F01003 		bic	r3, r3, #16
 1825 000a 9BB2     		uxth	r3, r3
 1826 000c A0F84030 		strh	r3, [r0, #64]	@ movhi
 714:Drivers/STM32F3xx_HAL_Driver/Src/stm32f3xx_ll_usb.c **** 
 715:Drivers/STM32F3xx_HAL_Driver/Src/stm32f3xx_ll_usb.c ****   return HAL_OK;
 1827              		.loc 1 715 3 is_stmt 1 view .LVU605
 716:Drivers/STM32F3xx_HAL_Driver/Src/stm32f3xx_ll_usb.c **** }
 1828              		.loc 1 716 1 is_stmt 0 view .LVU606
 1829 0010 0020     		movs	r0, #0
 1830              	.LVL187:
 1831              		.loc 1 716 1 view .LVU607
 1832 0012 7047     		bx	lr
 1833              		.cfi_endproc
 1834              	.LFE146:
 1836              		.section	.text.USB_WritePMA,"ax",%progbits
 1837              		.align	1
 1838              		.global	USB_WritePMA
 1839              		.syntax unified
 1840              		.thumb
 1841              		.thumb_func
 1842              		.fpu fpv4-sp-d16
 1844              	USB_WritePMA:
 1845              	.LVL188:
 1846              	.LFB147:
 717:Drivers/STM32F3xx_HAL_Driver/Src/stm32f3xx_ll_usb.c **** 
 718:Drivers/STM32F3xx_HAL_Driver/Src/stm32f3xx_ll_usb.c **** /**
 719:Drivers/STM32F3xx_HAL_Driver/Src/stm32f3xx_ll_usb.c ****   * @brief Copy a buffer from user memory area to packet memory area (PMA)
 720:Drivers/STM32F3xx_HAL_Driver/Src/stm32f3xx_ll_usb.c ****   * @param   USBx USB peripheral instance register address.
 721:Drivers/STM32F3xx_HAL_Driver/Src/stm32f3xx_ll_usb.c ****   * @param   pbUsrBuf pointer to user memory area.
 722:Drivers/STM32F3xx_HAL_Driver/Src/stm32f3xx_ll_usb.c ****   * @param   wPMABufAddr address into PMA.
 723:Drivers/STM32F3xx_HAL_Driver/Src/stm32f3xx_ll_usb.c ****   * @param   wNBytes no. of bytes to be copied.
 724:Drivers/STM32F3xx_HAL_Driver/Src/stm32f3xx_ll_usb.c ****   * @retval None
 725:Drivers/STM32F3xx_HAL_Driver/Src/stm32f3xx_ll_usb.c ****   */
 726:Drivers/STM32F3xx_HAL_Driver/Src/stm32f3xx_ll_usb.c **** void USB_WritePMA(USB_TypeDef *USBx, uint8_t *pbUsrBuf, uint16_t wPMABufAddr, uint16_t wNBytes)
 727:Drivers/STM32F3xx_HAL_Driver/Src/stm32f3xx_ll_usb.c **** {
 1847              		.loc 1 727 1 is_stmt 1 view -0
 1848              		.cfi_startproc
 1849              		@ args = 0, pretend = 0, frame = 0
 1850              		@ frame_needed = 0, uses_anonymous_args = 0
 1851              		@ link register save eliminated.
 1852              		.loc 1 727 1 is_stmt 0 view .LVU609
 1853 0000 10B4     		push	{r4}
 1854              	.LCFI12:
 1855              		.cfi_def_cfa_offset 4
 1856              		.cfi_offset 4, -4
 728:Drivers/STM32F3xx_HAL_Driver/Src/stm32f3xx_ll_usb.c ****   uint32_t n = ((uint32_t)wNBytes + 1U) >> 1;
 1857              		.loc 1 728 3 is_stmt 1 view .LVU610
 1858              		.loc 1 728 35 is_stmt 0 view .LVU611
 1859 0002 5C1C     		adds	r4, r3, #1
 1860              		.loc 1 728 12 view .LVU612
 1861 0004 6408     		lsrs	r4, r4, #1
 1862              	.LVL189:
 729:Drivers/STM32F3xx_HAL_Driver/Src/stm32f3xx_ll_usb.c ****   uint32_t BaseAddr = (uint32_t)USBx;
 1863              		.loc 1 729 3 is_stmt 1 view .LVU613
 730:Drivers/STM32F3xx_HAL_Driver/Src/stm32f3xx_ll_usb.c ****   uint32_t i, temp1, temp2;
 1864              		.loc 1 730 3 view .LVU614
 731:Drivers/STM32F3xx_HAL_Driver/Src/stm32f3xx_ll_usb.c ****   __IO uint16_t *pdwVal;
ARM GAS  /var/folders/jw/jcj5j9_530958b2rm5vp9wn00000gn/T//ccDSMjf4.s 			page 51


 1865              		.loc 1 731 3 view .LVU615
 732:Drivers/STM32F3xx_HAL_Driver/Src/stm32f3xx_ll_usb.c ****   uint8_t *pBuf = pbUsrBuf;
 1866              		.loc 1 732 3 view .LVU616
 733:Drivers/STM32F3xx_HAL_Driver/Src/stm32f3xx_ll_usb.c **** 
 734:Drivers/STM32F3xx_HAL_Driver/Src/stm32f3xx_ll_usb.c ****   pdwVal = (__IO uint16_t *)(BaseAddr + 0x400U + ((uint32_t)wPMABufAddr * PMA_ACCESS));
 1867              		.loc 1 734 3 view .LVU617
 1868              		.loc 1 734 48 is_stmt 0 view .LVU618
 1869 0006 00EB4202 		add	r2, r0, r2, lsl #1
 1870              	.LVL190:
 1871              		.loc 1 734 48 view .LVU619
 1872 000a 02F58062 		add	r2, r2, #1024
 1873              	.LVL191:
 735:Drivers/STM32F3xx_HAL_Driver/Src/stm32f3xx_ll_usb.c **** 
 736:Drivers/STM32F3xx_HAL_Driver/Src/stm32f3xx_ll_usb.c ****   for (i = n; i != 0U; i--)
 1874              		.loc 1 736 3 is_stmt 1 view .LVU620
 1875              	.L66:
 1876              		.loc 1 736 15 discriminator 1 view .LVU621
 1877              		.loc 1 736 3 is_stmt 0 discriminator 1 view .LVU622
 1878 000e 44B1     		cbz	r4, .L69
 737:Drivers/STM32F3xx_HAL_Driver/Src/stm32f3xx_ll_usb.c ****   {
 738:Drivers/STM32F3xx_HAL_Driver/Src/stm32f3xx_ll_usb.c ****     temp1 = *pBuf;
 1879              		.loc 1 738 5 is_stmt 1 discriminator 3 view .LVU623
 1880              		.loc 1 738 13 is_stmt 0 discriminator 3 view .LVU624
 1881 0010 0B78     		ldrb	r3, [r1]	@ zero_extendqisi2
 1882              	.LVL192:
 739:Drivers/STM32F3xx_HAL_Driver/Src/stm32f3xx_ll_usb.c ****     pBuf++;
 1883              		.loc 1 739 5 is_stmt 1 discriminator 3 view .LVU625
 740:Drivers/STM32F3xx_HAL_Driver/Src/stm32f3xx_ll_usb.c ****     temp2 = temp1 | ((uint16_t)((uint16_t) *pBuf << 8));
 1884              		.loc 1 740 5 discriminator 3 view .LVU626
 1885              		.loc 1 740 44 is_stmt 0 discriminator 3 view .LVU627
 1886 0012 4878     		ldrb	r0, [r1, #1]	@ zero_extendqisi2
 1887              	.LVL193:
 741:Drivers/STM32F3xx_HAL_Driver/Src/stm32f3xx_ll_usb.c ****     *pdwVal = (uint16_t)temp2;
 1888              		.loc 1 741 5 is_stmt 1 discriminator 3 view .LVU628
 1889              		.loc 1 741 15 is_stmt 0 discriminator 3 view .LVU629
 1890 0014 43EA0023 		orr	r3, r3, r0, lsl #8
 1891              	.LVL194:
 1892              		.loc 1 741 13 discriminator 3 view .LVU630
 1893 0018 22F8043B 		strh	r3, [r2], #4	@ movhi
 1894              	.LVL195:
 742:Drivers/STM32F3xx_HAL_Driver/Src/stm32f3xx_ll_usb.c ****     pdwVal++;
 1895              		.loc 1 742 5 is_stmt 1 discriminator 3 view .LVU631
 743:Drivers/STM32F3xx_HAL_Driver/Src/stm32f3xx_ll_usb.c **** 
 744:Drivers/STM32F3xx_HAL_Driver/Src/stm32f3xx_ll_usb.c **** #if PMA_ACCESS > 1U
 745:Drivers/STM32F3xx_HAL_Driver/Src/stm32f3xx_ll_usb.c ****     pdwVal++;
 1896              		.loc 1 745 5 discriminator 3 view .LVU632
 746:Drivers/STM32F3xx_HAL_Driver/Src/stm32f3xx_ll_usb.c **** #endif
 747:Drivers/STM32F3xx_HAL_Driver/Src/stm32f3xx_ll_usb.c **** 
 748:Drivers/STM32F3xx_HAL_Driver/Src/stm32f3xx_ll_usb.c ****     pBuf++;
 1897              		.loc 1 748 5 discriminator 3 view .LVU633
 1898              		.loc 1 748 9 is_stmt 0 discriminator 3 view .LVU634
 1899 001c 0231     		adds	r1, r1, #2
 1900              	.LVL196:
 736:Drivers/STM32F3xx_HAL_Driver/Src/stm32f3xx_ll_usb.c ****   {
 1901              		.loc 1 736 24 is_stmt 1 discriminator 3 view .LVU635
 736:Drivers/STM32F3xx_HAL_Driver/Src/stm32f3xx_ll_usb.c ****   {
 1902              		.loc 1 736 25 is_stmt 0 discriminator 3 view .LVU636
ARM GAS  /var/folders/jw/jcj5j9_530958b2rm5vp9wn00000gn/T//ccDSMjf4.s 			page 52


 1903 001e 013C     		subs	r4, r4, #1
 1904              	.LVL197:
 736:Drivers/STM32F3xx_HAL_Driver/Src/stm32f3xx_ll_usb.c ****   {
 1905              		.loc 1 736 25 discriminator 3 view .LVU637
 1906 0020 F5E7     		b	.L66
 1907              	.LVL198:
 1908              	.L69:
 749:Drivers/STM32F3xx_HAL_Driver/Src/stm32f3xx_ll_usb.c ****   }
 750:Drivers/STM32F3xx_HAL_Driver/Src/stm32f3xx_ll_usb.c **** }
 1909              		.loc 1 750 1 view .LVU638
 1910 0022 5DF8044B 		ldr	r4, [sp], #4
 1911              	.LCFI13:
 1912              		.cfi_restore 4
 1913              		.cfi_def_cfa_offset 0
 1914              	.LVL199:
 1915              		.loc 1 750 1 view .LVU639
 1916 0026 7047     		bx	lr
 1917              		.cfi_endproc
 1918              	.LFE147:
 1920              		.section	.text.USB_EPStartXfer,"ax",%progbits
 1921              		.align	1
 1922              		.global	USB_EPStartXfer
 1923              		.syntax unified
 1924              		.thumb
 1925              		.thumb_func
 1926              		.fpu fpv4-sp-d16
 1928              	USB_EPStartXfer:
 1929              	.LVL200:
 1930              	.LFB137:
 353:Drivers/STM32F3xx_HAL_Driver/Src/stm32f3xx_ll_usb.c ****   uint32_t len;
 1931              		.loc 1 353 1 is_stmt 1 view -0
 1932              		.cfi_startproc
 1933              		@ args = 0, pretend = 0, frame = 0
 1934              		@ frame_needed = 0, uses_anonymous_args = 0
 353:Drivers/STM32F3xx_HAL_Driver/Src/stm32f3xx_ll_usb.c ****   uint32_t len;
 1935              		.loc 1 353 1 is_stmt 0 view .LVU641
 1936 0000 70B5     		push	{r4, r5, r6, lr}
 1937              	.LCFI14:
 1938              		.cfi_def_cfa_offset 16
 1939              		.cfi_offset 4, -16
 1940              		.cfi_offset 5, -12
 1941              		.cfi_offset 6, -8
 1942              		.cfi_offset 14, -4
 1943 0002 0546     		mov	r5, r0
 1944 0004 0C46     		mov	r4, r1
 354:Drivers/STM32F3xx_HAL_Driver/Src/stm32f3xx_ll_usb.c ****   uint16_t pmabuffer;
 1945              		.loc 1 354 3 is_stmt 1 view .LVU642
 355:Drivers/STM32F3xx_HAL_Driver/Src/stm32f3xx_ll_usb.c ****   uint16_t wEPVal;
 1946              		.loc 1 355 3 view .LVU643
 356:Drivers/STM32F3xx_HAL_Driver/Src/stm32f3xx_ll_usb.c **** 
 1947              		.loc 1 356 3 view .LVU644
 359:Drivers/STM32F3xx_HAL_Driver/Src/stm32f3xx_ll_usb.c ****   {
 1948              		.loc 1 359 3 view .LVU645
 359:Drivers/STM32F3xx_HAL_Driver/Src/stm32f3xx_ll_usb.c ****   {
 1949              		.loc 1 359 9 is_stmt 0 view .LVU646
 1950 0006 4A78     		ldrb	r2, [r1, #1]	@ zero_extendqisi2
 359:Drivers/STM32F3xx_HAL_Driver/Src/stm32f3xx_ll_usb.c ****   {
ARM GAS  /var/folders/jw/jcj5j9_530958b2rm5vp9wn00000gn/T//ccDSMjf4.s 			page 53


 1951              		.loc 1 359 6 view .LVU647
 1952 0008 012A     		cmp	r2, #1
 1953 000a 37D0     		beq	.L157
 489:Drivers/STM32F3xx_HAL_Driver/Src/stm32f3xx_ll_usb.c ****     {
 1954              		.loc 1 489 5 is_stmt 1 view .LVU648
 489:Drivers/STM32F3xx_HAL_Driver/Src/stm32f3xx_ll_usb.c ****     {
 1955              		.loc 1 489 11 is_stmt 0 view .LVU649
 1956 000c 0B7B     		ldrb	r3, [r1, #12]	@ zero_extendqisi2
 489:Drivers/STM32F3xx_HAL_Driver/Src/stm32f3xx_ll_usb.c ****     {
 1957              		.loc 1 489 8 view .LVU650
 1958 000e 002B     		cmp	r3, #0
 1959 0010 40F0A082 		bne	.L122
 492:Drivers/STM32F3xx_HAL_Driver/Src/stm32f3xx_ll_usb.c ****       {
 1960              		.loc 1 492 7 is_stmt 1 view .LVU651
 492:Drivers/STM32F3xx_HAL_Driver/Src/stm32f3xx_ll_usb.c ****       {
 1961              		.loc 1 492 13 is_stmt 0 view .LVU652
 1962 0014 8B69     		ldr	r3, [r1, #24]
 492:Drivers/STM32F3xx_HAL_Driver/Src/stm32f3xx_ll_usb.c ****       {
 1963              		.loc 1 492 28 view .LVU653
 1964 0016 0A69     		ldr	r2, [r1, #16]
 492:Drivers/STM32F3xx_HAL_Driver/Src/stm32f3xx_ll_usb.c ****       {
 1965              		.loc 1 492 10 view .LVU654
 1966 0018 9342     		cmp	r3, r2
 1967 001a 40F27E82 		bls	.L123
 494:Drivers/STM32F3xx_HAL_Driver/Src/stm32f3xx_ll_usb.c ****         ep->xfer_len -= len;
 1968              		.loc 1 494 9 is_stmt 1 view .LVU655
 1969              	.LVL201:
 495:Drivers/STM32F3xx_HAL_Driver/Src/stm32f3xx_ll_usb.c ****       }
 1970              		.loc 1 495 9 view .LVU656
 495:Drivers/STM32F3xx_HAL_Driver/Src/stm32f3xx_ll_usb.c ****       }
 1971              		.loc 1 495 22 is_stmt 0 view .LVU657
 1972 001e 9B1A     		subs	r3, r3, r2
 1973 0020 8B61     		str	r3, [r1, #24]
 1974              	.L124:
 503:Drivers/STM32F3xx_HAL_Driver/Src/stm32f3xx_ll_usb.c ****     }
 1975              		.loc 1 503 7 is_stmt 1 view .LVU658
 1976              	.LBB60:
 503:Drivers/STM32F3xx_HAL_Driver/Src/stm32f3xx_ll_usb.c ****     }
 1977              		.loc 1 503 7 view .LVU659
 1978              	.LVL202:
 503:Drivers/STM32F3xx_HAL_Driver/Src/stm32f3xx_ll_usb.c ****     }
 1979              		.loc 1 503 7 view .LVU660
 503:Drivers/STM32F3xx_HAL_Driver/Src/stm32f3xx_ll_usb.c ****     }
 1980              		.loc 1 503 7 view .LVU661
 1981 0022 B5F85030 		ldrh	r3, [r5, #80]
 1982 0026 15FA83F3 		uxtah	r3, r5, r3
 1983              	.LVL203:
 503:Drivers/STM32F3xx_HAL_Driver/Src/stm32f3xx_ll_usb.c ****     }
 1984              		.loc 1 503 7 view .LVU662
 1985 002a 2178     		ldrb	r1, [r4]	@ zero_extendqisi2
 1986              	.LVL204:
 503:Drivers/STM32F3xx_HAL_Driver/Src/stm32f3xx_ll_usb.c ****     }
 1987              		.loc 1 503 7 is_stmt 0 view .LVU663
 1988 002c 03EB0113 		add	r3, r3, r1, lsl #4
 1989              	.LVL205:
 503:Drivers/STM32F3xx_HAL_Driver/Src/stm32f3xx_ll_usb.c ****     }
 1990              		.loc 1 503 7 is_stmt 1 view .LVU664
ARM GAS  /var/folders/jw/jcj5j9_530958b2rm5vp9wn00000gn/T//ccDSMjf4.s 			page 54


 1991              	.LBB61:
 503:Drivers/STM32F3xx_HAL_Driver/Src/stm32f3xx_ll_usb.c ****     }
 1992              		.loc 1 503 7 view .LVU665
 503:Drivers/STM32F3xx_HAL_Driver/Src/stm32f3xx_ll_usb.c ****     }
 1993              		.loc 1 503 7 view .LVU666
 1994 0030 002A     		cmp	r2, #0
 1995 0032 40F07682 		bne	.L125
 503:Drivers/STM32F3xx_HAL_Driver/Src/stm32f3xx_ll_usb.c ****     }
 1996              		.loc 1 503 7 discriminator 1 view .LVU667
 1997 0036 B3F80C24 		ldrh	r2, [r3, #1036]
 1998              	.LVL206:
 503:Drivers/STM32F3xx_HAL_Driver/Src/stm32f3xx_ll_usb.c ****     }
 1999              		.loc 1 503 7 is_stmt 0 discriminator 1 view .LVU668
 2000 003a 92B2     		uxth	r2, r2
 2001 003c 22F4F842 		bic	r2, r2, #31744
 2002 0040 92B2     		uxth	r2, r2
 2003 0042 A3F80C24 		strh	r2, [r3, #1036]	@ movhi
 503:Drivers/STM32F3xx_HAL_Driver/Src/stm32f3xx_ll_usb.c ****     }
 2004              		.loc 1 503 7 is_stmt 1 discriminator 1 view .LVU669
 2005 0046 B3F80C24 		ldrh	r2, [r3, #1036]
 2006 004a 6FEA4242 		mvn	r2, r2, lsl #17
 2007 004e 6FEA5242 		mvn	r2, r2, lsr #17
 2008 0052 92B2     		uxth	r2, r2
 2009 0054 A3F80C24 		strh	r2, [r3, #1036]	@ movhi
 2010              	.LVL207:
 2011              	.L126:
 503:Drivers/STM32F3xx_HAL_Driver/Src/stm32f3xx_ll_usb.c ****     }
 2012              		.loc 1 503 7 is_stmt 0 discriminator 1 view .LVU670
 2013              	.LBE61:
 2014              	.LBE60:
 549:Drivers/STM32F3xx_HAL_Driver/Src/stm32f3xx_ll_usb.c ****   }
 2015              		.loc 1 549 5 is_stmt 1 view .LVU671
 2016              	.LBB63:
 549:Drivers/STM32F3xx_HAL_Driver/Src/stm32f3xx_ll_usb.c ****   }
 2017              		.loc 1 549 5 view .LVU672
 549:Drivers/STM32F3xx_HAL_Driver/Src/stm32f3xx_ll_usb.c ****   }
 2018              		.loc 1 549 5 view .LVU673
 2019 0058 2278     		ldrb	r2, [r4]	@ zero_extendqisi2
 2020 005a 35F82230 		ldrh	r3, [r5, r2, lsl #2]
 2021 005e 9BB2     		uxth	r3, r3
 2022 0060 23F48043 		bic	r3, r3, #16384
 2023 0064 23F07003 		bic	r3, r3, #112
 2024              	.LVL208:
 549:Drivers/STM32F3xx_HAL_Driver/Src/stm32f3xx_ll_usb.c ****   }
 2025              		.loc 1 549 5 view .LVU674
 549:Drivers/STM32F3xx_HAL_Driver/Src/stm32f3xx_ll_usb.c ****   }
 2026              		.loc 1 549 5 view .LVU675
 549:Drivers/STM32F3xx_HAL_Driver/Src/stm32f3xx_ll_usb.c ****   }
 2027              		.loc 1 549 5 view .LVU676
 549:Drivers/STM32F3xx_HAL_Driver/Src/stm32f3xx_ll_usb.c ****   }
 2028              		.loc 1 549 5 view .LVU677
 2029 0068 83F44053 		eor	r3, r3, #12288
 2030              	.LVL209:
 549:Drivers/STM32F3xx_HAL_Driver/Src/stm32f3xx_ll_usb.c ****   }
 2031              		.loc 1 549 5 view .LVU678
 2032 006c 43F40043 		orr	r3, r3, #32768
 2033              	.LVL210:
ARM GAS  /var/folders/jw/jcj5j9_530958b2rm5vp9wn00000gn/T//ccDSMjf4.s 			page 55


 549:Drivers/STM32F3xx_HAL_Driver/Src/stm32f3xx_ll_usb.c ****   }
 2034              		.loc 1 549 5 is_stmt 0 view .LVU679
 2035 0070 43F08003 		orr	r3, r3, #128
 2036 0074 25F82230 		strh	r3, [r5, r2, lsl #2]	@ movhi
 2037              	.LBE63:
 552:Drivers/STM32F3xx_HAL_Driver/Src/stm32f3xx_ll_usb.c **** }
 2038              		.loc 1 552 10 view .LVU680
 2039 0078 0020     		movs	r0, #0
 2040              	.L121:
 553:Drivers/STM32F3xx_HAL_Driver/Src/stm32f3xx_ll_usb.c **** 
 2041              		.loc 1 553 1 view .LVU681
 2042 007a 70BD     		pop	{r4, r5, r6, pc}
 2043              	.LVL211:
 2044              	.L157:
 362:Drivers/STM32F3xx_HAL_Driver/Src/stm32f3xx_ll_usb.c ****     {
 2045              		.loc 1 362 5 is_stmt 1 view .LVU682
 362:Drivers/STM32F3xx_HAL_Driver/Src/stm32f3xx_ll_usb.c ****     {
 2046              		.loc 1 362 11 is_stmt 0 view .LVU683
 2047 007c 8E69     		ldr	r6, [r1, #24]
 362:Drivers/STM32F3xx_HAL_Driver/Src/stm32f3xx_ll_usb.c ****     {
 2048              		.loc 1 362 26 view .LVU684
 2049 007e 0969     		ldr	r1, [r1, #16]
 2050              	.LVL212:
 362:Drivers/STM32F3xx_HAL_Driver/Src/stm32f3xx_ll_usb.c ****     {
 2051              		.loc 1 362 8 view .LVU685
 2052 0080 8E42     		cmp	r6, r1
 2053 0082 00D9     		bls	.L72
 364:Drivers/STM32F3xx_HAL_Driver/Src/stm32f3xx_ll_usb.c ****     }
 2054              		.loc 1 364 11 view .LVU686
 2055 0084 0E46     		mov	r6, r1
 2056              	.L72:
 2057              	.LVL213:
 372:Drivers/STM32F3xx_HAL_Driver/Src/stm32f3xx_ll_usb.c ****     {
 2058              		.loc 1 372 5 is_stmt 1 view .LVU687
 372:Drivers/STM32F3xx_HAL_Driver/Src/stm32f3xx_ll_usb.c ****     {
 2059              		.loc 1 372 11 is_stmt 0 view .LVU688
 2060 0086 237B     		ldrb	r3, [r4, #12]	@ zero_extendqisi2
 372:Drivers/STM32F3xx_HAL_Driver/Src/stm32f3xx_ll_usb.c ****     {
 2061              		.loc 1 372 8 view .LVU689
 2062 0088 3BB3     		cbz	r3, .L158
 380:Drivers/STM32F3xx_HAL_Driver/Src/stm32f3xx_ll_usb.c ****       {
 2063              		.loc 1 380 7 is_stmt 1 view .LVU690
 380:Drivers/STM32F3xx_HAL_Driver/Src/stm32f3xx_ll_usb.c ****       {
 2064              		.loc 1 380 13 is_stmt 0 view .LVU691
 2065 008a E378     		ldrb	r3, [r4, #3]	@ zero_extendqisi2
 380:Drivers/STM32F3xx_HAL_Driver/Src/stm32f3xx_ll_usb.c ****       {
 2066              		.loc 1 380 10 view .LVU692
 2067 008c 022B     		cmp	r3, #2
 2068 008e 46D0     		beq	.L159
 467:Drivers/STM32F3xx_HAL_Driver/Src/stm32f3xx_ll_usb.c ****         {
 2069              		.loc 1 467 9 is_stmt 1 view .LVU693
 467:Drivers/STM32F3xx_HAL_Driver/Src/stm32f3xx_ll_usb.c ****         {
 2070              		.loc 1 467 14 is_stmt 0 view .LVU694
 2071 0090 2378     		ldrb	r3, [r4]	@ zero_extendqisi2
 2072 0092 35F82310 		ldrh	r1, [r5, r3, lsl #2]
 467:Drivers/STM32F3xx_HAL_Driver/Src/stm32f3xx_ll_usb.c ****         {
 2073              		.loc 1 467 12 view .LVU695
ARM GAS  /var/folders/jw/jcj5j9_530958b2rm5vp9wn00000gn/T//ccDSMjf4.s 			page 56


 2074 0096 11F0400F 		tst	r1, #64
 2075 009a 00F0EE81 		beq	.L106
 470:Drivers/STM32F3xx_HAL_Driver/Src/stm32f3xx_ll_usb.c ****           pmabuffer = ep->pmaaddr1;
 2076              		.loc 1 470 11 is_stmt 1 view .LVU696
 2077              	.LBB64:
 470:Drivers/STM32F3xx_HAL_Driver/Src/stm32f3xx_ll_usb.c ****           pmabuffer = ep->pmaaddr1;
 2078              		.loc 1 470 11 view .LVU697
 2079              	.LVL214:
 470:Drivers/STM32F3xx_HAL_Driver/Src/stm32f3xx_ll_usb.c ****           pmabuffer = ep->pmaaddr1;
 2080              		.loc 1 470 11 view .LVU698
 470:Drivers/STM32F3xx_HAL_Driver/Src/stm32f3xx_ll_usb.c ****           pmabuffer = ep->pmaaddr1;
 2081              		.loc 1 470 11 view .LVU699
 2082 009e 002A     		cmp	r2, #0
 2083 00a0 40F0CA81 		bne	.L107
 470:Drivers/STM32F3xx_HAL_Driver/Src/stm32f3xx_ll_usb.c ****           pmabuffer = ep->pmaaddr1;
 2084              		.loc 1 470 11 discriminator 1 view .LVU700
 2085              	.LBB65:
 470:Drivers/STM32F3xx_HAL_Driver/Src/stm32f3xx_ll_usb.c ****           pmabuffer = ep->pmaaddr1;
 2086              		.loc 1 470 11 discriminator 1 view .LVU701
 2087              	.LVL215:
 470:Drivers/STM32F3xx_HAL_Driver/Src/stm32f3xx_ll_usb.c ****           pmabuffer = ep->pmaaddr1;
 2088              		.loc 1 470 11 discriminator 1 view .LVU702
 470:Drivers/STM32F3xx_HAL_Driver/Src/stm32f3xx_ll_usb.c ****           pmabuffer = ep->pmaaddr1;
 2089              		.loc 1 470 11 discriminator 1 view .LVU703
 2090 00a4 B5F85020 		ldrh	r2, [r5, #80]
 2091 00a8 15FA82F2 		uxtah	r2, r5, r2
 2092              	.LVL216:
 470:Drivers/STM32F3xx_HAL_Driver/Src/stm32f3xx_ll_usb.c ****           pmabuffer = ep->pmaaddr1;
 2093              		.loc 1 470 11 discriminator 1 view .LVU704
 2094 00ac 02EB0313 		add	r3, r2, r3, lsl #4
 2095              	.LVL217:
 470:Drivers/STM32F3xx_HAL_Driver/Src/stm32f3xx_ll_usb.c ****           pmabuffer = ep->pmaaddr1;
 2096              		.loc 1 470 11 discriminator 1 view .LVU705
 2097              	.LBB66:
 470:Drivers/STM32F3xx_HAL_Driver/Src/stm32f3xx_ll_usb.c ****           pmabuffer = ep->pmaaddr1;
 2098              		.loc 1 470 11 discriminator 1 view .LVU706
 470:Drivers/STM32F3xx_HAL_Driver/Src/stm32f3xx_ll_usb.c ****           pmabuffer = ep->pmaaddr1;
 2099              		.loc 1 470 11 discriminator 1 view .LVU707
 2100 00b0 002E     		cmp	r6, #0
 2101 00b2 40F0A881 		bne	.L108
 470:Drivers/STM32F3xx_HAL_Driver/Src/stm32f3xx_ll_usb.c ****           pmabuffer = ep->pmaaddr1;
 2102              		.loc 1 470 11 discriminator 3 view .LVU708
 2103 00b6 B3F80C24 		ldrh	r2, [r3, #1036]
 2104              	.LVL218:
 470:Drivers/STM32F3xx_HAL_Driver/Src/stm32f3xx_ll_usb.c ****           pmabuffer = ep->pmaaddr1;
 2105              		.loc 1 470 11 is_stmt 0 discriminator 3 view .LVU709
 2106 00ba 92B2     		uxth	r2, r2
 2107 00bc 22F4F842 		bic	r2, r2, #31744
 2108 00c0 92B2     		uxth	r2, r2
 2109 00c2 A3F80C24 		strh	r2, [r3, #1036]	@ movhi
 470:Drivers/STM32F3xx_HAL_Driver/Src/stm32f3xx_ll_usb.c ****           pmabuffer = ep->pmaaddr1;
 2110              		.loc 1 470 11 is_stmt 1 discriminator 3 view .LVU710
 2111 00c6 B3F80C24 		ldrh	r2, [r3, #1036]
 2112 00ca 6FEA4242 		mvn	r2, r2, lsl #17
 2113 00ce 6FEA5242 		mvn	r2, r2, lsr #17
 2114 00d2 92B2     		uxth	r2, r2
 2115 00d4 A3F80C24 		strh	r2, [r3, #1036]	@ movhi
ARM GAS  /var/folders/jw/jcj5j9_530958b2rm5vp9wn00000gn/T//ccDSMjf4.s 			page 57


 2116 00d8 B7E1     		b	.L109
 2117              	.LVL219:
 2118              	.L158:
 470:Drivers/STM32F3xx_HAL_Driver/Src/stm32f3xx_ll_usb.c ****           pmabuffer = ep->pmaaddr1;
 2119              		.loc 1 470 11 is_stmt 0 discriminator 3 view .LVU711
 2120              	.LBE66:
 2121              	.LBE65:
 2122              	.LBE64:
 374:Drivers/STM32F3xx_HAL_Driver/Src/stm32f3xx_ll_usb.c ****       PCD_SET_EP_TX_CNT(USBx, ep->num, len);
 2123              		.loc 1 374 7 is_stmt 1 view .LVU712
 2124 00da B6B2     		uxth	r6, r6
 2125              	.LVL220:
 374:Drivers/STM32F3xx_HAL_Driver/Src/stm32f3xx_ll_usb.c ****       PCD_SET_EP_TX_CNT(USBx, ep->num, len);
 2126              		.loc 1 374 7 is_stmt 0 view .LVU713
 2127 00dc 3346     		mov	r3, r6
 2128 00de E288     		ldrh	r2, [r4, #6]
 2129 00e0 6169     		ldr	r1, [r4, #20]
 2130 00e2 2846     		mov	r0, r5
 2131              	.LVL221:
 374:Drivers/STM32F3xx_HAL_Driver/Src/stm32f3xx_ll_usb.c ****       PCD_SET_EP_TX_CNT(USBx, ep->num, len);
 2132              		.loc 1 374 7 view .LVU714
 2133 00e4 FFF7FEFF 		bl	USB_WritePMA
 2134              	.LVL222:
 375:Drivers/STM32F3xx_HAL_Driver/Src/stm32f3xx_ll_usb.c ****     }
 2135              		.loc 1 375 7 is_stmt 1 view .LVU715
 2136              	.LBB69:
 375:Drivers/STM32F3xx_HAL_Driver/Src/stm32f3xx_ll_usb.c ****     }
 2137              		.loc 1 375 7 view .LVU716
 375:Drivers/STM32F3xx_HAL_Driver/Src/stm32f3xx_ll_usb.c ****     }
 2138              		.loc 1 375 7 view .LVU717
 375:Drivers/STM32F3xx_HAL_Driver/Src/stm32f3xx_ll_usb.c ****     }
 2139              		.loc 1 375 7 view .LVU718
 2140 00e8 B5F85030 		ldrh	r3, [r5, #80]
 2141 00ec 15FA83F3 		uxtah	r3, r5, r3
 2142              	.LVL223:
 375:Drivers/STM32F3xx_HAL_Driver/Src/stm32f3xx_ll_usb.c ****     }
 2143              		.loc 1 375 7 view .LVU719
 2144 00f0 2278     		ldrb	r2, [r4]	@ zero_extendqisi2
 2145 00f2 03EB0213 		add	r3, r3, r2, lsl #4
 2146              	.LVL224:
 375:Drivers/STM32F3xx_HAL_Driver/Src/stm32f3xx_ll_usb.c ****     }
 2147              		.loc 1 375 7 view .LVU720
 2148 00f6 A3F80464 		strh	r6, [r3, #1028]	@ movhi
 2149              	.LBE69:
 375:Drivers/STM32F3xx_HAL_Driver/Src/stm32f3xx_ll_usb.c ****     }
 2150              		.loc 1 375 7 view .LVU721
 2151              	.LVL225:
 2152              	.L74:
 481:Drivers/STM32F3xx_HAL_Driver/Src/stm32f3xx_ll_usb.c ****       }
 2153              		.loc 1 481 9 discriminator 6 view .LVU722
 481:Drivers/STM32F3xx_HAL_Driver/Src/stm32f3xx_ll_usb.c ****       }
 2154              		.loc 1 481 9 discriminator 6 view .LVU723
 485:Drivers/STM32F3xx_HAL_Driver/Src/stm32f3xx_ll_usb.c ****   }
 2155              		.loc 1 485 5 discriminator 6 view .LVU724
 2156              	.LBB70:
 485:Drivers/STM32F3xx_HAL_Driver/Src/stm32f3xx_ll_usb.c ****   }
 2157              		.loc 1 485 5 discriminator 6 view .LVU725
ARM GAS  /var/folders/jw/jcj5j9_530958b2rm5vp9wn00000gn/T//ccDSMjf4.s 			page 58


 485:Drivers/STM32F3xx_HAL_Driver/Src/stm32f3xx_ll_usb.c ****   }
 2158              		.loc 1 485 5 discriminator 6 view .LVU726
 2159 00fa 2278     		ldrb	r2, [r4]	@ zero_extendqisi2
 2160 00fc 35F82230 		ldrh	r3, [r5, r2, lsl #2]
 2161 0100 9BB2     		uxth	r3, r3
 2162 0102 23F4E043 		bic	r3, r3, #28672
 2163 0106 23F04003 		bic	r3, r3, #64
 2164              	.LVL226:
 485:Drivers/STM32F3xx_HAL_Driver/Src/stm32f3xx_ll_usb.c ****   }
 2165              		.loc 1 485 5 discriminator 6 view .LVU727
 485:Drivers/STM32F3xx_HAL_Driver/Src/stm32f3xx_ll_usb.c ****   }
 2166              		.loc 1 485 5 discriminator 6 view .LVU728
 485:Drivers/STM32F3xx_HAL_Driver/Src/stm32f3xx_ll_usb.c ****   }
 2167              		.loc 1 485 5 discriminator 6 view .LVU729
 485:Drivers/STM32F3xx_HAL_Driver/Src/stm32f3xx_ll_usb.c ****   }
 2168              		.loc 1 485 5 discriminator 6 view .LVU730
 2169 010a 83F03003 		eor	r3, r3, #48
 2170              	.LVL227:
 485:Drivers/STM32F3xx_HAL_Driver/Src/stm32f3xx_ll_usb.c ****   }
 2171              		.loc 1 485 5 discriminator 6 view .LVU731
 2172 010e 43F40043 		orr	r3, r3, #32768
 2173              	.LVL228:
 485:Drivers/STM32F3xx_HAL_Driver/Src/stm32f3xx_ll_usb.c ****   }
 2174              		.loc 1 485 5 is_stmt 0 discriminator 6 view .LVU732
 2175 0112 43F08003 		orr	r3, r3, #128
 2176 0116 25F82230 		strh	r3, [r5, r2, lsl #2]	@ movhi
 2177              	.LBE70:
 485:Drivers/STM32F3xx_HAL_Driver/Src/stm32f3xx_ll_usb.c ****   }
 2178              		.loc 1 485 5 is_stmt 1 discriminator 6 view .LVU733
 552:Drivers/STM32F3xx_HAL_Driver/Src/stm32f3xx_ll_usb.c **** }
 2179              		.loc 1 552 10 is_stmt 0 discriminator 6 view .LVU734
 2180 011a 0020     		movs	r0, #0
 2181 011c ADE7     		b	.L121
 2182              	.LVL229:
 2183              	.L159:
 382:Drivers/STM32F3xx_HAL_Driver/Src/stm32f3xx_ll_usb.c ****         {
 2184              		.loc 1 382 9 is_stmt 1 view .LVU735
 382:Drivers/STM32F3xx_HAL_Driver/Src/stm32f3xx_ll_usb.c ****         {
 2185              		.loc 1 382 15 is_stmt 0 view .LVU736
 2186 011e 236A     		ldr	r3, [r4, #32]
 382:Drivers/STM32F3xx_HAL_Driver/Src/stm32f3xx_ll_usb.c ****         {
 2187              		.loc 1 382 12 view .LVU737
 2188 0120 9942     		cmp	r1, r3
 2189 0122 80F05281 		bcs	.L76
 385:Drivers/STM32F3xx_HAL_Driver/Src/stm32f3xx_ll_usb.c **** 
 2190              		.loc 1 385 11 is_stmt 1 view .LVU738
 2191              	.LBB71:
 385:Drivers/STM32F3xx_HAL_Driver/Src/stm32f3xx_ll_usb.c **** 
 2192              		.loc 1 385 11 view .LVU739
 385:Drivers/STM32F3xx_HAL_Driver/Src/stm32f3xx_ll_usb.c **** 
 2193              		.loc 1 385 11 view .LVU740
 2194 0126 2278     		ldrb	r2, [r4]	@ zero_extendqisi2
 2195 0128 35F82230 		ldrh	r3, [r5, r2, lsl #2]
 2196 012c 9BB2     		uxth	r3, r3
 2197 012e 23F4E043 		bic	r3, r3, #28672
 2198 0132 23F07003 		bic	r3, r3, #112
 2199              	.LVL230:
ARM GAS  /var/folders/jw/jcj5j9_530958b2rm5vp9wn00000gn/T//ccDSMjf4.s 			page 59


 385:Drivers/STM32F3xx_HAL_Driver/Src/stm32f3xx_ll_usb.c **** 
 2200              		.loc 1 385 11 view .LVU741
 2201 0136 43F40143 		orr	r3, r3, #33024
 2202              	.LVL231:
 385:Drivers/STM32F3xx_HAL_Driver/Src/stm32f3xx_ll_usb.c **** 
 2203              		.loc 1 385 11 is_stmt 0 view .LVU742
 2204 013a 43F08003 		orr	r3, r3, #128
 2205 013e 25F82230 		strh	r3, [r5, r2, lsl #2]	@ movhi
 2206              	.LBE71:
 385:Drivers/STM32F3xx_HAL_Driver/Src/stm32f3xx_ll_usb.c **** 
 2207              		.loc 1 385 11 is_stmt 1 view .LVU743
 388:Drivers/STM32F3xx_HAL_Driver/Src/stm32f3xx_ll_usb.c **** 
 2208              		.loc 1 388 11 view .LVU744
 388:Drivers/STM32F3xx_HAL_Driver/Src/stm32f3xx_ll_usb.c **** 
 2209              		.loc 1 388 27 is_stmt 0 view .LVU745
 2210 0142 236A     		ldr	r3, [r4, #32]
 2211 0144 9B1B     		subs	r3, r3, r6
 2212 0146 2362     		str	r3, [r4, #32]
 391:Drivers/STM32F3xx_HAL_Driver/Src/stm32f3xx_ll_usb.c ****           {
 2213              		.loc 1 391 11 is_stmt 1 view .LVU746
 391:Drivers/STM32F3xx_HAL_Driver/Src/stm32f3xx_ll_usb.c ****           {
 2214              		.loc 1 391 16 is_stmt 0 view .LVU747
 2215 0148 2378     		ldrb	r3, [r4]	@ zero_extendqisi2
 2216 014a 35F82320 		ldrh	r2, [r5, r3, lsl #2]
 391:Drivers/STM32F3xx_HAL_Driver/Src/stm32f3xx_ll_usb.c ****           {
 2217              		.loc 1 391 14 view .LVU748
 2218 014e 12F0400F 		tst	r2, #64
 2219 0152 00F09D80 		beq	.L77
 394:Drivers/STM32F3xx_HAL_Driver/Src/stm32f3xx_ll_usb.c ****             pmabuffer = ep->pmaaddr1;
 2220              		.loc 1 394 13 is_stmt 1 view .LVU749
 2221              	.LBB72:
 394:Drivers/STM32F3xx_HAL_Driver/Src/stm32f3xx_ll_usb.c ****             pmabuffer = ep->pmaaddr1;
 2222              		.loc 1 394 13 view .LVU750
 2223              	.LVL232:
 394:Drivers/STM32F3xx_HAL_Driver/Src/stm32f3xx_ll_usb.c ****             pmabuffer = ep->pmaaddr1;
 2224              		.loc 1 394 13 view .LVU751
 394:Drivers/STM32F3xx_HAL_Driver/Src/stm32f3xx_ll_usb.c ****             pmabuffer = ep->pmaaddr1;
 2225              		.loc 1 394 13 view .LVU752
 2226 0156 6278     		ldrb	r2, [r4, #1]	@ zero_extendqisi2
 2227 0158 8ABB     		cbnz	r2, .L78
 394:Drivers/STM32F3xx_HAL_Driver/Src/stm32f3xx_ll_usb.c ****             pmabuffer = ep->pmaaddr1;
 2228              		.loc 1 394 13 discriminator 1 view .LVU753
 2229              	.LBB73:
 394:Drivers/STM32F3xx_HAL_Driver/Src/stm32f3xx_ll_usb.c ****             pmabuffer = ep->pmaaddr1;
 2230              		.loc 1 394 13 discriminator 1 view .LVU754
 2231              	.LVL233:
 394:Drivers/STM32F3xx_HAL_Driver/Src/stm32f3xx_ll_usb.c ****             pmabuffer = ep->pmaaddr1;
 2232              		.loc 1 394 13 discriminator 1 view .LVU755
 394:Drivers/STM32F3xx_HAL_Driver/Src/stm32f3xx_ll_usb.c ****             pmabuffer = ep->pmaaddr1;
 2233              		.loc 1 394 13 discriminator 1 view .LVU756
 2234 015a B5F85020 		ldrh	r2, [r5, #80]
 2235 015e 15FA82F2 		uxtah	r2, r5, r2
 2236              	.LVL234:
 394:Drivers/STM32F3xx_HAL_Driver/Src/stm32f3xx_ll_usb.c ****             pmabuffer = ep->pmaaddr1;
 2237              		.loc 1 394 13 discriminator 1 view .LVU757
 2238 0162 02EB0313 		add	r3, r2, r3, lsl #4
 2239              	.LVL235:
ARM GAS  /var/folders/jw/jcj5j9_530958b2rm5vp9wn00000gn/T//ccDSMjf4.s 			page 60


 394:Drivers/STM32F3xx_HAL_Driver/Src/stm32f3xx_ll_usb.c ****             pmabuffer = ep->pmaaddr1;
 2240              		.loc 1 394 13 discriminator 1 view .LVU758
 2241              	.LBB74:
 394:Drivers/STM32F3xx_HAL_Driver/Src/stm32f3xx_ll_usb.c ****             pmabuffer = ep->pmaaddr1;
 2242              		.loc 1 394 13 discriminator 1 view .LVU759
 394:Drivers/STM32F3xx_HAL_Driver/Src/stm32f3xx_ll_usb.c ****             pmabuffer = ep->pmaaddr1;
 2243              		.loc 1 394 13 discriminator 1 view .LVU760
 2244 0166 8EB9     		cbnz	r6, .L79
 394:Drivers/STM32F3xx_HAL_Driver/Src/stm32f3xx_ll_usb.c ****             pmabuffer = ep->pmaaddr1;
 2245              		.loc 1 394 13 discriminator 3 view .LVU761
 2246 0168 B3F80C24 		ldrh	r2, [r3, #1036]
 2247              	.LVL236:
 394:Drivers/STM32F3xx_HAL_Driver/Src/stm32f3xx_ll_usb.c ****             pmabuffer = ep->pmaaddr1;
 2248              		.loc 1 394 13 is_stmt 0 discriminator 3 view .LVU762
 2249 016c 92B2     		uxth	r2, r2
 2250 016e 22F4F842 		bic	r2, r2, #31744
 2251 0172 92B2     		uxth	r2, r2
 2252 0174 A3F80C24 		strh	r2, [r3, #1036]	@ movhi
 394:Drivers/STM32F3xx_HAL_Driver/Src/stm32f3xx_ll_usb.c ****             pmabuffer = ep->pmaaddr1;
 2253              		.loc 1 394 13 is_stmt 1 discriminator 3 view .LVU763
 2254 0178 B3F80C24 		ldrh	r2, [r3, #1036]
 2255 017c 6FEA4242 		mvn	r2, r2, lsl #17
 2256 0180 6FEA5242 		mvn	r2, r2, lsr #17
 2257 0184 92B2     		uxth	r2, r2
 2258 0186 A3F80C24 		strh	r2, [r3, #1036]	@ movhi
 2259 018a 1AE0     		b	.L80
 2260              	.LVL237:
 2261              	.L79:
 394:Drivers/STM32F3xx_HAL_Driver/Src/stm32f3xx_ll_usb.c ****             pmabuffer = ep->pmaaddr1;
 2262              		.loc 1 394 13 discriminator 4 view .LVU764
 2263 018c 3E2E     		cmp	r6, #62
 2264 018e 09D8     		bhi	.L81
 394:Drivers/STM32F3xx_HAL_Driver/Src/stm32f3xx_ll_usb.c ****             pmabuffer = ep->pmaaddr1;
 2265              		.loc 1 394 13 discriminator 6 view .LVU765
 394:Drivers/STM32F3xx_HAL_Driver/Src/stm32f3xx_ll_usb.c ****             pmabuffer = ep->pmaaddr1;
 2266              		.loc 1 394 13 discriminator 6 view .LVU766
 2267 0190 7208     		lsrs	r2, r6, #1
 2268              	.LVL238:
 394:Drivers/STM32F3xx_HAL_Driver/Src/stm32f3xx_ll_usb.c ****             pmabuffer = ep->pmaaddr1;
 2269              		.loc 1 394 13 discriminator 6 view .LVU767
 2270 0192 16F0010F 		tst	r6, #1
 2271 0196 00D0     		beq	.L82
 394:Drivers/STM32F3xx_HAL_Driver/Src/stm32f3xx_ll_usb.c ****             pmabuffer = ep->pmaaddr1;
 2272              		.loc 1 394 13 discriminator 8 view .LVU768
 2273 0198 0132     		adds	r2, r2, #1
 2274              	.LVL239:
 2275              	.L82:
 394:Drivers/STM32F3xx_HAL_Driver/Src/stm32f3xx_ll_usb.c ****             pmabuffer = ep->pmaaddr1;
 2276              		.loc 1 394 13 discriminator 10 view .LVU769
 2277 019a 9202     		lsls	r2, r2, #10
 2278              	.LVL240:
 394:Drivers/STM32F3xx_HAL_Driver/Src/stm32f3xx_ll_usb.c ****             pmabuffer = ep->pmaaddr1;
 2279              		.loc 1 394 13 is_stmt 0 discriminator 10 view .LVU770
 2280 019c 92B2     		uxth	r2, r2
 2281 019e A3F80C24 		strh	r2, [r3, #1036]	@ movhi
 394:Drivers/STM32F3xx_HAL_Driver/Src/stm32f3xx_ll_usb.c ****             pmabuffer = ep->pmaaddr1;
 2282              		.loc 1 394 13 is_stmt 1 discriminator 10 view .LVU771
ARM GAS  /var/folders/jw/jcj5j9_530958b2rm5vp9wn00000gn/T//ccDSMjf4.s 			page 61


 2283 01a2 0EE0     		b	.L80
 2284              	.LVL241:
 2285              	.L81:
 394:Drivers/STM32F3xx_HAL_Driver/Src/stm32f3xx_ll_usb.c ****             pmabuffer = ep->pmaaddr1;
 2286              		.loc 1 394 13 discriminator 7 view .LVU772
 394:Drivers/STM32F3xx_HAL_Driver/Src/stm32f3xx_ll_usb.c ****             pmabuffer = ep->pmaaddr1;
 2287              		.loc 1 394 13 discriminator 7 view .LVU773
 2288 01a4 7209     		lsrs	r2, r6, #5
 2289              	.LVL242:
 394:Drivers/STM32F3xx_HAL_Driver/Src/stm32f3xx_ll_usb.c ****             pmabuffer = ep->pmaaddr1;
 2290              		.loc 1 394 13 discriminator 7 view .LVU774
 2291 01a6 16F01F0F 		tst	r6, #31
 2292 01aa 00D1     		bne	.L83
 394:Drivers/STM32F3xx_HAL_Driver/Src/stm32f3xx_ll_usb.c ****             pmabuffer = ep->pmaaddr1;
 2293              		.loc 1 394 13 discriminator 12 view .LVU775
 2294 01ac 013A     		subs	r2, r2, #1
 2295              	.LVL243:
 2296              	.L83:
 394:Drivers/STM32F3xx_HAL_Driver/Src/stm32f3xx_ll_usb.c ****             pmabuffer = ep->pmaaddr1;
 2297              		.loc 1 394 13 discriminator 14 view .LVU776
 2298 01ae 6FEAC262 		mvn	r2, r2, lsl #27
 2299              	.LVL244:
 394:Drivers/STM32F3xx_HAL_Driver/Src/stm32f3xx_ll_usb.c ****             pmabuffer = ep->pmaaddr1;
 2300              		.loc 1 394 13 is_stmt 0 discriminator 14 view .LVU777
 2301 01b2 6FEA5242 		mvn	r2, r2, lsr #17
 2302 01b6 92B2     		uxth	r2, r2
 2303 01b8 A3F80C24 		strh	r2, [r3, #1036]	@ movhi
 2304 01bc 01E0     		b	.L80
 2305              	.LVL245:
 2306              	.L78:
 394:Drivers/STM32F3xx_HAL_Driver/Src/stm32f3xx_ll_usb.c ****             pmabuffer = ep->pmaaddr1;
 2307              		.loc 1 394 13 discriminator 14 view .LVU778
 2308              	.LBE74:
 2309              	.LBE73:
 394:Drivers/STM32F3xx_HAL_Driver/Src/stm32f3xx_ll_usb.c ****             pmabuffer = ep->pmaaddr1;
 2310              		.loc 1 394 13 is_stmt 1 discriminator 2 view .LVU779
 2311 01be 012A     		cmp	r2, #1
 2312 01c0 2BD0     		beq	.L160
 2313              	.LVL246:
 2314              	.L80:
 394:Drivers/STM32F3xx_HAL_Driver/Src/stm32f3xx_ll_usb.c ****             pmabuffer = ep->pmaaddr1;
 2315              		.loc 1 394 13 is_stmt 0 discriminator 2 view .LVU780
 2316              	.LBE72:
 394:Drivers/STM32F3xx_HAL_Driver/Src/stm32f3xx_ll_usb.c ****             pmabuffer = ep->pmaaddr1;
 2317              		.loc 1 394 13 is_stmt 1 discriminator 18 view .LVU781
 395:Drivers/STM32F3xx_HAL_Driver/Src/stm32f3xx_ll_usb.c **** 
 2318              		.loc 1 395 13 discriminator 18 view .LVU782
 398:Drivers/STM32F3xx_HAL_Driver/Src/stm32f3xx_ll_usb.c ****             ep->xfer_buff += len;
 2319              		.loc 1 398 13 discriminator 18 view .LVU783
 2320 01c2 B3B2     		uxth	r3, r6
 2321 01c4 6289     		ldrh	r2, [r4, #10]
 2322 01c6 6169     		ldr	r1, [r4, #20]
 2323 01c8 2846     		mov	r0, r5
 2324              	.LVL247:
 398:Drivers/STM32F3xx_HAL_Driver/Src/stm32f3xx_ll_usb.c ****             ep->xfer_buff += len;
 2325              		.loc 1 398 13 is_stmt 0 discriminator 18 view .LVU784
 2326 01ca FFF7FEFF 		bl	USB_WritePMA
ARM GAS  /var/folders/jw/jcj5j9_530958b2rm5vp9wn00000gn/T//ccDSMjf4.s 			page 62


 2327              	.LVL248:
 399:Drivers/STM32F3xx_HAL_Driver/Src/stm32f3xx_ll_usb.c **** 
 2328              		.loc 1 399 13 is_stmt 1 discriminator 18 view .LVU785
 399:Drivers/STM32F3xx_HAL_Driver/Src/stm32f3xx_ll_usb.c **** 
 2329              		.loc 1 399 27 is_stmt 0 discriminator 18 view .LVU786
 2330 01ce 6369     		ldr	r3, [r4, #20]
 2331 01d0 3344     		add	r3, r3, r6
 2332 01d2 6361     		str	r3, [r4, #20]
 401:Drivers/STM32F3xx_HAL_Driver/Src/stm32f3xx_ll_usb.c ****             {
 2333              		.loc 1 401 13 is_stmt 1 discriminator 18 view .LVU787
 401:Drivers/STM32F3xx_HAL_Driver/Src/stm32f3xx_ll_usb.c ****             {
 2334              		.loc 1 401 19 is_stmt 0 discriminator 18 view .LVU788
 2335 01d4 236A     		ldr	r3, [r4, #32]
 401:Drivers/STM32F3xx_HAL_Driver/Src/stm32f3xx_ll_usb.c ****             {
 2336              		.loc 1 401 37 discriminator 18 view .LVU789
 2337 01d6 2269     		ldr	r2, [r4, #16]
 401:Drivers/STM32F3xx_HAL_Driver/Src/stm32f3xx_ll_usb.c ****             {
 2338              		.loc 1 401 16 discriminator 18 view .LVU790
 2339 01d8 9342     		cmp	r3, r2
 2340 01da 28D9     		bls	.L84
 403:Drivers/STM32F3xx_HAL_Driver/Src/stm32f3xx_ll_usb.c ****             }
 2341              		.loc 1 403 15 is_stmt 1 view .LVU791
 403:Drivers/STM32F3xx_HAL_Driver/Src/stm32f3xx_ll_usb.c ****             }
 2342              		.loc 1 403 31 is_stmt 0 view .LVU792
 2343 01dc 9B1B     		subs	r3, r3, r6
 2344 01de 2362     		str	r3, [r4, #32]
 2345              	.L85:
 412:Drivers/STM32F3xx_HAL_Driver/Src/stm32f3xx_ll_usb.c ****             pmabuffer = ep->pmaaddr0;
 2346              		.loc 1 412 13 is_stmt 1 view .LVU793
 412:Drivers/STM32F3xx_HAL_Driver/Src/stm32f3xx_ll_usb.c ****             pmabuffer = ep->pmaaddr0;
 2347              		.loc 1 412 13 view .LVU794
 2348 01e0 6378     		ldrb	r3, [r4, #1]	@ zero_extendqisi2
 2349 01e2 002B     		cmp	r3, #0
 2350 01e4 40D1     		bne	.L86
 412:Drivers/STM32F3xx_HAL_Driver/Src/stm32f3xx_ll_usb.c ****             pmabuffer = ep->pmaaddr0;
 2351              		.loc 1 412 13 discriminator 1 view .LVU795
 2352              	.LBB75:
 412:Drivers/STM32F3xx_HAL_Driver/Src/stm32f3xx_ll_usb.c ****             pmabuffer = ep->pmaaddr0;
 2353              		.loc 1 412 13 discriminator 1 view .LVU796
 2354              	.LVL249:
 412:Drivers/STM32F3xx_HAL_Driver/Src/stm32f3xx_ll_usb.c ****             pmabuffer = ep->pmaaddr0;
 2355              		.loc 1 412 13 discriminator 1 view .LVU797
 412:Drivers/STM32F3xx_HAL_Driver/Src/stm32f3xx_ll_usb.c ****             pmabuffer = ep->pmaaddr0;
 2356              		.loc 1 412 13 discriminator 1 view .LVU798
 2357 01e6 B5F85030 		ldrh	r3, [r5, #80]
 2358 01ea 15FA83F3 		uxtah	r3, r5, r3
 2359              	.LVL250:
 412:Drivers/STM32F3xx_HAL_Driver/Src/stm32f3xx_ll_usb.c ****             pmabuffer = ep->pmaaddr0;
 2360              		.loc 1 412 13 discriminator 1 view .LVU799
 2361 01ee 2278     		ldrb	r2, [r4]	@ zero_extendqisi2
 2362 01f0 03EB0213 		add	r3, r3, r2, lsl #4
 2363              	.LVL251:
 412:Drivers/STM32F3xx_HAL_Driver/Src/stm32f3xx_ll_usb.c ****             pmabuffer = ep->pmaaddr0;
 2364              		.loc 1 412 13 discriminator 1 view .LVU800
 2365              	.LBB76:
 412:Drivers/STM32F3xx_HAL_Driver/Src/stm32f3xx_ll_usb.c ****             pmabuffer = ep->pmaaddr0;
 2366              		.loc 1 412 13 discriminator 1 view .LVU801
ARM GAS  /var/folders/jw/jcj5j9_530958b2rm5vp9wn00000gn/T//ccDSMjf4.s 			page 63


 412:Drivers/STM32F3xx_HAL_Driver/Src/stm32f3xx_ll_usb.c ****             pmabuffer = ep->pmaaddr0;
 2367              		.loc 1 412 13 discriminator 1 view .LVU802
 2368 01f4 FEB9     		cbnz	r6, .L87
 412:Drivers/STM32F3xx_HAL_Driver/Src/stm32f3xx_ll_usb.c ****             pmabuffer = ep->pmaaddr0;
 2369              		.loc 1 412 13 discriminator 3 view .LVU803
 2370 01f6 B3F80424 		ldrh	r2, [r3, #1028]
 2371 01fa 92B2     		uxth	r2, r2
 2372 01fc 22F4F842 		bic	r2, r2, #31744
 2373 0200 92B2     		uxth	r2, r2
 2374 0202 A3F80424 		strh	r2, [r3, #1028]	@ movhi
 412:Drivers/STM32F3xx_HAL_Driver/Src/stm32f3xx_ll_usb.c ****             pmabuffer = ep->pmaaddr0;
 2375              		.loc 1 412 13 discriminator 3 view .LVU804
 2376 0206 B3F80424 		ldrh	r2, [r3, #1028]
 2377 020a 6FEA4242 		mvn	r2, r2, lsl #17
 2378 020e 6FEA5242 		mvn	r2, r2, lsr #17
 2379 0212 92B2     		uxth	r2, r2
 2380 0214 A3F80424 		strh	r2, [r3, #1028]	@ movhi
 2381 0218 28E0     		b	.L88
 2382              	.LVL252:
 2383              	.L160:
 412:Drivers/STM32F3xx_HAL_Driver/Src/stm32f3xx_ll_usb.c ****             pmabuffer = ep->pmaaddr0;
 2384              		.loc 1 412 13 is_stmt 0 discriminator 3 view .LVU805
 2385              	.LBE76:
 2386              	.LBE75:
 2387              	.LBB78:
 394:Drivers/STM32F3xx_HAL_Driver/Src/stm32f3xx_ll_usb.c ****             pmabuffer = ep->pmaaddr1;
 2388              		.loc 1 394 13 is_stmt 1 discriminator 16 view .LVU806
 2389 021a B5F85020 		ldrh	r2, [r5, #80]
 2390 021e 15FA82F2 		uxtah	r2, r5, r2
 2391              	.LVL253:
 394:Drivers/STM32F3xx_HAL_Driver/Src/stm32f3xx_ll_usb.c ****             pmabuffer = ep->pmaaddr1;
 2392              		.loc 1 394 13 discriminator 16 view .LVU807
 2393 0222 02EB0313 		add	r3, r2, r3, lsl #4
 2394              	.LVL254:
 394:Drivers/STM32F3xx_HAL_Driver/Src/stm32f3xx_ll_usb.c ****             pmabuffer = ep->pmaaddr1;
 2395              		.loc 1 394 13 discriminator 16 view .LVU808
 2396 0226 B2B2     		uxth	r2, r6
 2397              	.LVL255:
 394:Drivers/STM32F3xx_HAL_Driver/Src/stm32f3xx_ll_usb.c ****             pmabuffer = ep->pmaaddr1;
 2398              		.loc 1 394 13 is_stmt 0 discriminator 16 view .LVU809
 2399 0228 A3F80C24 		strh	r2, [r3, #1036]	@ movhi
 2400 022c C9E7     		b	.L80
 2401              	.LVL256:
 2402              	.L84:
 394:Drivers/STM32F3xx_HAL_Driver/Src/stm32f3xx_ll_usb.c ****             pmabuffer = ep->pmaaddr1;
 2403              		.loc 1 394 13 discriminator 16 view .LVU810
 2404              	.LBE78:
 407:Drivers/STM32F3xx_HAL_Driver/Src/stm32f3xx_ll_usb.c ****               ep->xfer_len_db = 0U;
 2405              		.loc 1 407 15 is_stmt 1 view .LVU811
 408:Drivers/STM32F3xx_HAL_Driver/Src/stm32f3xx_ll_usb.c ****             }
 2406              		.loc 1 408 15 view .LVU812
 408:Drivers/STM32F3xx_HAL_Driver/Src/stm32f3xx_ll_usb.c ****             }
 2407              		.loc 1 408 31 is_stmt 0 view .LVU813
 2408 022e 0022     		movs	r2, #0
 2409 0230 2262     		str	r2, [r4, #32]
 407:Drivers/STM32F3xx_HAL_Driver/Src/stm32f3xx_ll_usb.c ****               ep->xfer_len_db = 0U;
 2410              		.loc 1 407 19 view .LVU814
ARM GAS  /var/folders/jw/jcj5j9_530958b2rm5vp9wn00000gn/T//ccDSMjf4.s 			page 64


 2411 0232 1E46     		mov	r6, r3
 2412 0234 D4E7     		b	.L85
 2413              	.LVL257:
 2414              	.L87:
 2415              	.LBB79:
 2416              	.LBB77:
 412:Drivers/STM32F3xx_HAL_Driver/Src/stm32f3xx_ll_usb.c ****             pmabuffer = ep->pmaaddr0;
 2417              		.loc 1 412 13 is_stmt 1 discriminator 4 view .LVU815
 2418 0236 3E2E     		cmp	r6, #62
 2419 0238 09D8     		bhi	.L89
 412:Drivers/STM32F3xx_HAL_Driver/Src/stm32f3xx_ll_usb.c ****             pmabuffer = ep->pmaaddr0;
 2420              		.loc 1 412 13 discriminator 6 view .LVU816
 412:Drivers/STM32F3xx_HAL_Driver/Src/stm32f3xx_ll_usb.c ****             pmabuffer = ep->pmaaddr0;
 2421              		.loc 1 412 13 discriminator 6 view .LVU817
 2422 023a 7208     		lsrs	r2, r6, #1
 2423              	.LVL258:
 412:Drivers/STM32F3xx_HAL_Driver/Src/stm32f3xx_ll_usb.c ****             pmabuffer = ep->pmaaddr0;
 2424              		.loc 1 412 13 discriminator 6 view .LVU818
 2425 023c 16F0010F 		tst	r6, #1
 2426 0240 00D0     		beq	.L90
 412:Drivers/STM32F3xx_HAL_Driver/Src/stm32f3xx_ll_usb.c ****             pmabuffer = ep->pmaaddr0;
 2427              		.loc 1 412 13 discriminator 8 view .LVU819
 2428 0242 0132     		adds	r2, r2, #1
 2429              	.LVL259:
 2430              	.L90:
 412:Drivers/STM32F3xx_HAL_Driver/Src/stm32f3xx_ll_usb.c ****             pmabuffer = ep->pmaaddr0;
 2431              		.loc 1 412 13 discriminator 10 view .LVU820
 2432 0244 9202     		lsls	r2, r2, #10
 2433              	.LVL260:
 412:Drivers/STM32F3xx_HAL_Driver/Src/stm32f3xx_ll_usb.c ****             pmabuffer = ep->pmaaddr0;
 2434              		.loc 1 412 13 is_stmt 0 discriminator 10 view .LVU821
 2435 0246 92B2     		uxth	r2, r2
 2436 0248 A3F80424 		strh	r2, [r3, #1028]	@ movhi
 412:Drivers/STM32F3xx_HAL_Driver/Src/stm32f3xx_ll_usb.c ****             pmabuffer = ep->pmaaddr0;
 2437              		.loc 1 412 13 is_stmt 1 discriminator 10 view .LVU822
 2438 024c 0EE0     		b	.L88
 2439              	.L89:
 412:Drivers/STM32F3xx_HAL_Driver/Src/stm32f3xx_ll_usb.c ****             pmabuffer = ep->pmaaddr0;
 2440              		.loc 1 412 13 discriminator 7 view .LVU823
 412:Drivers/STM32F3xx_HAL_Driver/Src/stm32f3xx_ll_usb.c ****             pmabuffer = ep->pmaaddr0;
 2441              		.loc 1 412 13 discriminator 7 view .LVU824
 2442 024e 7209     		lsrs	r2, r6, #5
 2443              	.LVL261:
 412:Drivers/STM32F3xx_HAL_Driver/Src/stm32f3xx_ll_usb.c ****             pmabuffer = ep->pmaaddr0;
 2444              		.loc 1 412 13 discriminator 7 view .LVU825
 2445 0250 16F01F0F 		tst	r6, #31
 2446 0254 00D1     		bne	.L91
 412:Drivers/STM32F3xx_HAL_Driver/Src/stm32f3xx_ll_usb.c ****             pmabuffer = ep->pmaaddr0;
 2447              		.loc 1 412 13 discriminator 12 view .LVU826
 2448 0256 013A     		subs	r2, r2, #1
 2449              	.LVL262:
 2450              	.L91:
 412:Drivers/STM32F3xx_HAL_Driver/Src/stm32f3xx_ll_usb.c ****             pmabuffer = ep->pmaaddr0;
 2451              		.loc 1 412 13 discriminator 14 view .LVU827
 2452 0258 6FEAC262 		mvn	r2, r2, lsl #27
 2453              	.LVL263:
 412:Drivers/STM32F3xx_HAL_Driver/Src/stm32f3xx_ll_usb.c ****             pmabuffer = ep->pmaaddr0;
ARM GAS  /var/folders/jw/jcj5j9_530958b2rm5vp9wn00000gn/T//ccDSMjf4.s 			page 65


 2454              		.loc 1 412 13 is_stmt 0 discriminator 14 view .LVU828
 2455 025c 6FEA5242 		mvn	r2, r2, lsr #17
 2456 0260 92B2     		uxth	r2, r2
 2457 0262 A3F80424 		strh	r2, [r3, #1028]	@ movhi
 2458 0266 01E0     		b	.L88
 2459              	.LVL264:
 2460              	.L86:
 412:Drivers/STM32F3xx_HAL_Driver/Src/stm32f3xx_ll_usb.c ****             pmabuffer = ep->pmaaddr0;
 2461              		.loc 1 412 13 discriminator 14 view .LVU829
 2462              	.LBE77:
 2463              	.LBE79:
 412:Drivers/STM32F3xx_HAL_Driver/Src/stm32f3xx_ll_usb.c ****             pmabuffer = ep->pmaaddr0;
 2464              		.loc 1 412 13 is_stmt 1 discriminator 2 view .LVU830
 2465 0268 012B     		cmp	r3, #1
 2466 026a 06D0     		beq	.L161
 2467              	.L88:
 412:Drivers/STM32F3xx_HAL_Driver/Src/stm32f3xx_ll_usb.c ****             pmabuffer = ep->pmaaddr0;
 2468              		.loc 1 412 13 discriminator 18 view .LVU831
 412:Drivers/STM32F3xx_HAL_Driver/Src/stm32f3xx_ll_usb.c ****             pmabuffer = ep->pmaaddr0;
 2469              		.loc 1 412 13 discriminator 18 view .LVU832
 413:Drivers/STM32F3xx_HAL_Driver/Src/stm32f3xx_ll_usb.c **** 
 2470              		.loc 1 413 13 discriminator 18 view .LVU833
 2471              	.LVL265:
 416:Drivers/STM32F3xx_HAL_Driver/Src/stm32f3xx_ll_usb.c ****           }
 2472              		.loc 1 416 13 discriminator 18 view .LVU834
 2473 026c B3B2     		uxth	r3, r6
 2474 026e 2289     		ldrh	r2, [r4, #8]
 2475 0270 6169     		ldr	r1, [r4, #20]
 2476 0272 2846     		mov	r0, r5
 2477 0274 FFF7FEFF 		bl	USB_WritePMA
 2478              	.LVL266:
 416:Drivers/STM32F3xx_HAL_Driver/Src/stm32f3xx_ll_usb.c ****           }
 2479              		.loc 1 416 13 is_stmt 0 discriminator 18 view .LVU835
 2480 0278 3FE7     		b	.L74
 2481              	.L161:
 412:Drivers/STM32F3xx_HAL_Driver/Src/stm32f3xx_ll_usb.c ****             pmabuffer = ep->pmaaddr0;
 2482              		.loc 1 412 13 is_stmt 1 discriminator 16 view .LVU836
 2483              	.LBB80:
 412:Drivers/STM32F3xx_HAL_Driver/Src/stm32f3xx_ll_usb.c ****             pmabuffer = ep->pmaaddr0;
 2484              		.loc 1 412 13 discriminator 16 view .LVU837
 2485              	.LVL267:
 412:Drivers/STM32F3xx_HAL_Driver/Src/stm32f3xx_ll_usb.c ****             pmabuffer = ep->pmaaddr0;
 2486              		.loc 1 412 13 discriminator 16 view .LVU838
 412:Drivers/STM32F3xx_HAL_Driver/Src/stm32f3xx_ll_usb.c ****             pmabuffer = ep->pmaaddr0;
 2487              		.loc 1 412 13 discriminator 16 view .LVU839
 2488 027a B5F85030 		ldrh	r3, [r5, #80]
 2489 027e 15FA83F3 		uxtah	r3, r5, r3
 2490              	.LVL268:
 412:Drivers/STM32F3xx_HAL_Driver/Src/stm32f3xx_ll_usb.c ****             pmabuffer = ep->pmaaddr0;
 2491              		.loc 1 412 13 discriminator 16 view .LVU840
 2492 0282 2278     		ldrb	r2, [r4]	@ zero_extendqisi2
 2493 0284 03EB0213 		add	r3, r3, r2, lsl #4
 2494              	.LVL269:
 412:Drivers/STM32F3xx_HAL_Driver/Src/stm32f3xx_ll_usb.c ****             pmabuffer = ep->pmaaddr0;
 2495              		.loc 1 412 13 discriminator 16 view .LVU841
 2496 0288 B2B2     		uxth	r2, r6
 2497 028a A3F80424 		strh	r2, [r3, #1028]	@ movhi
ARM GAS  /var/folders/jw/jcj5j9_530958b2rm5vp9wn00000gn/T//ccDSMjf4.s 			page 66


 2498 028e EDE7     		b	.L88
 2499              	.LVL270:
 2500              	.L77:
 412:Drivers/STM32F3xx_HAL_Driver/Src/stm32f3xx_ll_usb.c ****             pmabuffer = ep->pmaaddr0;
 2501              		.loc 1 412 13 is_stmt 0 discriminator 16 view .LVU842
 2502              	.LBE80:
 421:Drivers/STM32F3xx_HAL_Driver/Src/stm32f3xx_ll_usb.c ****             pmabuffer = ep->pmaaddr0;
 2503              		.loc 1 421 13 is_stmt 1 view .LVU843
 421:Drivers/STM32F3xx_HAL_Driver/Src/stm32f3xx_ll_usb.c ****             pmabuffer = ep->pmaaddr0;
 2504              		.loc 1 421 13 view .LVU844
 2505 0290 6278     		ldrb	r2, [r4, #1]	@ zero_extendqisi2
 2506 0292 8ABB     		cbnz	r2, .L92
 421:Drivers/STM32F3xx_HAL_Driver/Src/stm32f3xx_ll_usb.c ****             pmabuffer = ep->pmaaddr0;
 2507              		.loc 1 421 13 discriminator 1 view .LVU845
 2508              	.LBB81:
 421:Drivers/STM32F3xx_HAL_Driver/Src/stm32f3xx_ll_usb.c ****             pmabuffer = ep->pmaaddr0;
 2509              		.loc 1 421 13 discriminator 1 view .LVU846
 2510              	.LVL271:
 421:Drivers/STM32F3xx_HAL_Driver/Src/stm32f3xx_ll_usb.c ****             pmabuffer = ep->pmaaddr0;
 2511              		.loc 1 421 13 discriminator 1 view .LVU847
 421:Drivers/STM32F3xx_HAL_Driver/Src/stm32f3xx_ll_usb.c ****             pmabuffer = ep->pmaaddr0;
 2512              		.loc 1 421 13 discriminator 1 view .LVU848
 2513 0294 B5F85020 		ldrh	r2, [r5, #80]
 2514 0298 15FA82F2 		uxtah	r2, r5, r2
 2515              	.LVL272:
 421:Drivers/STM32F3xx_HAL_Driver/Src/stm32f3xx_ll_usb.c ****             pmabuffer = ep->pmaaddr0;
 2516              		.loc 1 421 13 discriminator 1 view .LVU849
 2517 029c 02EB0313 		add	r3, r2, r3, lsl #4
 2518              	.LVL273:
 421:Drivers/STM32F3xx_HAL_Driver/Src/stm32f3xx_ll_usb.c ****             pmabuffer = ep->pmaaddr0;
 2519              		.loc 1 421 13 discriminator 1 view .LVU850
 2520              	.LBB82:
 421:Drivers/STM32F3xx_HAL_Driver/Src/stm32f3xx_ll_usb.c ****             pmabuffer = ep->pmaaddr0;
 2521              		.loc 1 421 13 discriminator 1 view .LVU851
 421:Drivers/STM32F3xx_HAL_Driver/Src/stm32f3xx_ll_usb.c ****             pmabuffer = ep->pmaaddr0;
 2522              		.loc 1 421 13 discriminator 1 view .LVU852
 2523 02a0 8EB9     		cbnz	r6, .L93
 421:Drivers/STM32F3xx_HAL_Driver/Src/stm32f3xx_ll_usb.c ****             pmabuffer = ep->pmaaddr0;
 2524              		.loc 1 421 13 discriminator 3 view .LVU853
 2525 02a2 B3F80424 		ldrh	r2, [r3, #1028]
 2526              	.LVL274:
 421:Drivers/STM32F3xx_HAL_Driver/Src/stm32f3xx_ll_usb.c ****             pmabuffer = ep->pmaaddr0;
 2527              		.loc 1 421 13 is_stmt 0 discriminator 3 view .LVU854
 2528 02a6 92B2     		uxth	r2, r2
 2529 02a8 22F4F842 		bic	r2, r2, #31744
 2530 02ac 92B2     		uxth	r2, r2
 2531 02ae A3F80424 		strh	r2, [r3, #1028]	@ movhi
 421:Drivers/STM32F3xx_HAL_Driver/Src/stm32f3xx_ll_usb.c ****             pmabuffer = ep->pmaaddr0;
 2532              		.loc 1 421 13 is_stmt 1 discriminator 3 view .LVU855
 2533 02b2 B3F80424 		ldrh	r2, [r3, #1028]
 2534 02b6 6FEA4242 		mvn	r2, r2, lsl #17
 2535 02ba 6FEA5242 		mvn	r2, r2, lsr #17
 2536 02be 92B2     		uxth	r2, r2
 2537 02c0 A3F80424 		strh	r2, [r3, #1028]	@ movhi
 2538 02c4 1AE0     		b	.L94
 2539              	.LVL275:
 2540              	.L93:
ARM GAS  /var/folders/jw/jcj5j9_530958b2rm5vp9wn00000gn/T//ccDSMjf4.s 			page 67


 421:Drivers/STM32F3xx_HAL_Driver/Src/stm32f3xx_ll_usb.c ****             pmabuffer = ep->pmaaddr0;
 2541              		.loc 1 421 13 discriminator 4 view .LVU856
 2542 02c6 3E2E     		cmp	r6, #62
 2543 02c8 09D8     		bhi	.L95
 421:Drivers/STM32F3xx_HAL_Driver/Src/stm32f3xx_ll_usb.c ****             pmabuffer = ep->pmaaddr0;
 2544              		.loc 1 421 13 discriminator 6 view .LVU857
 421:Drivers/STM32F3xx_HAL_Driver/Src/stm32f3xx_ll_usb.c ****             pmabuffer = ep->pmaaddr0;
 2545              		.loc 1 421 13 discriminator 6 view .LVU858
 2546 02ca 7208     		lsrs	r2, r6, #1
 2547              	.LVL276:
 421:Drivers/STM32F3xx_HAL_Driver/Src/stm32f3xx_ll_usb.c ****             pmabuffer = ep->pmaaddr0;
 2548              		.loc 1 421 13 discriminator 6 view .LVU859
 2549 02cc 16F0010F 		tst	r6, #1
 2550 02d0 00D0     		beq	.L96
 421:Drivers/STM32F3xx_HAL_Driver/Src/stm32f3xx_ll_usb.c ****             pmabuffer = ep->pmaaddr0;
 2551              		.loc 1 421 13 discriminator 8 view .LVU860
 2552 02d2 0132     		adds	r2, r2, #1
 2553              	.LVL277:
 2554              	.L96:
 421:Drivers/STM32F3xx_HAL_Driver/Src/stm32f3xx_ll_usb.c ****             pmabuffer = ep->pmaaddr0;
 2555              		.loc 1 421 13 discriminator 10 view .LVU861
 2556 02d4 9202     		lsls	r2, r2, #10
 2557              	.LVL278:
 421:Drivers/STM32F3xx_HAL_Driver/Src/stm32f3xx_ll_usb.c ****             pmabuffer = ep->pmaaddr0;
 2558              		.loc 1 421 13 is_stmt 0 discriminator 10 view .LVU862
 2559 02d6 92B2     		uxth	r2, r2
 2560 02d8 A3F80424 		strh	r2, [r3, #1028]	@ movhi
 421:Drivers/STM32F3xx_HAL_Driver/Src/stm32f3xx_ll_usb.c ****             pmabuffer = ep->pmaaddr0;
 2561              		.loc 1 421 13 is_stmt 1 discriminator 10 view .LVU863
 2562 02dc 0EE0     		b	.L94
 2563              	.LVL279:
 2564              	.L95:
 421:Drivers/STM32F3xx_HAL_Driver/Src/stm32f3xx_ll_usb.c ****             pmabuffer = ep->pmaaddr0;
 2565              		.loc 1 421 13 discriminator 7 view .LVU864
 421:Drivers/STM32F3xx_HAL_Driver/Src/stm32f3xx_ll_usb.c ****             pmabuffer = ep->pmaaddr0;
 2566              		.loc 1 421 13 discriminator 7 view .LVU865
 2567 02de 7209     		lsrs	r2, r6, #5
 2568              	.LVL280:
 421:Drivers/STM32F3xx_HAL_Driver/Src/stm32f3xx_ll_usb.c ****             pmabuffer = ep->pmaaddr0;
 2569              		.loc 1 421 13 discriminator 7 view .LVU866
 2570 02e0 16F01F0F 		tst	r6, #31
 2571 02e4 00D1     		bne	.L97
 421:Drivers/STM32F3xx_HAL_Driver/Src/stm32f3xx_ll_usb.c ****             pmabuffer = ep->pmaaddr0;
 2572              		.loc 1 421 13 discriminator 12 view .LVU867
 2573 02e6 013A     		subs	r2, r2, #1
 2574              	.LVL281:
 2575              	.L97:
 421:Drivers/STM32F3xx_HAL_Driver/Src/stm32f3xx_ll_usb.c ****             pmabuffer = ep->pmaaddr0;
 2576              		.loc 1 421 13 discriminator 14 view .LVU868
 2577 02e8 6FEAC262 		mvn	r2, r2, lsl #27
 2578              	.LVL282:
 421:Drivers/STM32F3xx_HAL_Driver/Src/stm32f3xx_ll_usb.c ****             pmabuffer = ep->pmaaddr0;
 2579              		.loc 1 421 13 is_stmt 0 discriminator 14 view .LVU869
 2580 02ec 6FEA5242 		mvn	r2, r2, lsr #17
 2581 02f0 92B2     		uxth	r2, r2
 2582 02f2 A3F80424 		strh	r2, [r3, #1028]	@ movhi
 2583 02f6 01E0     		b	.L94
ARM GAS  /var/folders/jw/jcj5j9_530958b2rm5vp9wn00000gn/T//ccDSMjf4.s 			page 68


 2584              	.LVL283:
 2585              	.L92:
 421:Drivers/STM32F3xx_HAL_Driver/Src/stm32f3xx_ll_usb.c ****             pmabuffer = ep->pmaaddr0;
 2586              		.loc 1 421 13 discriminator 14 view .LVU870
 2587              	.LBE82:
 2588              	.LBE81:
 421:Drivers/STM32F3xx_HAL_Driver/Src/stm32f3xx_ll_usb.c ****             pmabuffer = ep->pmaaddr0;
 2589              		.loc 1 421 13 is_stmt 1 discriminator 2 view .LVU871
 2590 02f8 012A     		cmp	r2, #1
 2591 02fa 2BD0     		beq	.L162
 2592              	.L94:
 421:Drivers/STM32F3xx_HAL_Driver/Src/stm32f3xx_ll_usb.c ****             pmabuffer = ep->pmaaddr0;
 2593              		.loc 1 421 13 discriminator 18 view .LVU872
 421:Drivers/STM32F3xx_HAL_Driver/Src/stm32f3xx_ll_usb.c ****             pmabuffer = ep->pmaaddr0;
 2594              		.loc 1 421 13 discriminator 18 view .LVU873
 422:Drivers/STM32F3xx_HAL_Driver/Src/stm32f3xx_ll_usb.c **** 
 2595              		.loc 1 422 13 discriminator 18 view .LVU874
 2596              	.LVL284:
 425:Drivers/STM32F3xx_HAL_Driver/Src/stm32f3xx_ll_usb.c ****             ep->xfer_buff += len;
 2597              		.loc 1 425 13 discriminator 18 view .LVU875
 2598 02fc B3B2     		uxth	r3, r6
 2599 02fe 2289     		ldrh	r2, [r4, #8]
 2600 0300 6169     		ldr	r1, [r4, #20]
 2601 0302 2846     		mov	r0, r5
 2602              	.LVL285:
 425:Drivers/STM32F3xx_HAL_Driver/Src/stm32f3xx_ll_usb.c ****             ep->xfer_buff += len;
 2603              		.loc 1 425 13 is_stmt 0 discriminator 18 view .LVU876
 2604 0304 FFF7FEFF 		bl	USB_WritePMA
 2605              	.LVL286:
 426:Drivers/STM32F3xx_HAL_Driver/Src/stm32f3xx_ll_usb.c **** 
 2606              		.loc 1 426 13 is_stmt 1 discriminator 18 view .LVU877
 426:Drivers/STM32F3xx_HAL_Driver/Src/stm32f3xx_ll_usb.c **** 
 2607              		.loc 1 426 27 is_stmt 0 discriminator 18 view .LVU878
 2608 0308 6369     		ldr	r3, [r4, #20]
 2609 030a 3344     		add	r3, r3, r6
 2610 030c 6361     		str	r3, [r4, #20]
 428:Drivers/STM32F3xx_HAL_Driver/Src/stm32f3xx_ll_usb.c ****             {
 2611              		.loc 1 428 13 is_stmt 1 discriminator 18 view .LVU879
 428:Drivers/STM32F3xx_HAL_Driver/Src/stm32f3xx_ll_usb.c ****             {
 2612              		.loc 1 428 19 is_stmt 0 discriminator 18 view .LVU880
 2613 030e 236A     		ldr	r3, [r4, #32]
 428:Drivers/STM32F3xx_HAL_Driver/Src/stm32f3xx_ll_usb.c ****             {
 2614              		.loc 1 428 37 discriminator 18 view .LVU881
 2615 0310 2269     		ldr	r2, [r4, #16]
 428:Drivers/STM32F3xx_HAL_Driver/Src/stm32f3xx_ll_usb.c ****             {
 2616              		.loc 1 428 16 discriminator 18 view .LVU882
 2617 0312 9342     		cmp	r3, r2
 2618 0314 28D9     		bls	.L98
 430:Drivers/STM32F3xx_HAL_Driver/Src/stm32f3xx_ll_usb.c ****             }
 2619              		.loc 1 430 15 is_stmt 1 view .LVU883
 430:Drivers/STM32F3xx_HAL_Driver/Src/stm32f3xx_ll_usb.c ****             }
 2620              		.loc 1 430 31 is_stmt 0 view .LVU884
 2621 0316 9B1B     		subs	r3, r3, r6
 2622 0318 2362     		str	r3, [r4, #32]
 2623              	.L99:
 439:Drivers/STM32F3xx_HAL_Driver/Src/stm32f3xx_ll_usb.c ****             pmabuffer = ep->pmaaddr1;
 2624              		.loc 1 439 13 is_stmt 1 view .LVU885
ARM GAS  /var/folders/jw/jcj5j9_530958b2rm5vp9wn00000gn/T//ccDSMjf4.s 			page 69


 2625              	.LBB83:
 439:Drivers/STM32F3xx_HAL_Driver/Src/stm32f3xx_ll_usb.c ****             pmabuffer = ep->pmaaddr1;
 2626              		.loc 1 439 13 view .LVU886
 2627              	.LVL287:
 439:Drivers/STM32F3xx_HAL_Driver/Src/stm32f3xx_ll_usb.c ****             pmabuffer = ep->pmaaddr1;
 2628              		.loc 1 439 13 view .LVU887
 439:Drivers/STM32F3xx_HAL_Driver/Src/stm32f3xx_ll_usb.c ****             pmabuffer = ep->pmaaddr1;
 2629              		.loc 1 439 13 view .LVU888
 2630 031a 6378     		ldrb	r3, [r4, #1]	@ zero_extendqisi2
 2631 031c 002B     		cmp	r3, #0
 2632 031e 40D1     		bne	.L100
 439:Drivers/STM32F3xx_HAL_Driver/Src/stm32f3xx_ll_usb.c ****             pmabuffer = ep->pmaaddr1;
 2633              		.loc 1 439 13 discriminator 1 view .LVU889
 2634              	.LBB84:
 439:Drivers/STM32F3xx_HAL_Driver/Src/stm32f3xx_ll_usb.c ****             pmabuffer = ep->pmaaddr1;
 2635              		.loc 1 439 13 discriminator 1 view .LVU890
 2636              	.LVL288:
 439:Drivers/STM32F3xx_HAL_Driver/Src/stm32f3xx_ll_usb.c ****             pmabuffer = ep->pmaaddr1;
 2637              		.loc 1 439 13 discriminator 1 view .LVU891
 439:Drivers/STM32F3xx_HAL_Driver/Src/stm32f3xx_ll_usb.c ****             pmabuffer = ep->pmaaddr1;
 2638              		.loc 1 439 13 discriminator 1 view .LVU892
 2639 0320 B5F85030 		ldrh	r3, [r5, #80]
 2640 0324 15FA83F3 		uxtah	r3, r5, r3
 2641              	.LVL289:
 439:Drivers/STM32F3xx_HAL_Driver/Src/stm32f3xx_ll_usb.c ****             pmabuffer = ep->pmaaddr1;
 2642              		.loc 1 439 13 discriminator 1 view .LVU893
 2643 0328 2278     		ldrb	r2, [r4]	@ zero_extendqisi2
 2644 032a 03EB0213 		add	r3, r3, r2, lsl #4
 2645              	.LVL290:
 439:Drivers/STM32F3xx_HAL_Driver/Src/stm32f3xx_ll_usb.c ****             pmabuffer = ep->pmaaddr1;
 2646              		.loc 1 439 13 discriminator 1 view .LVU894
 2647              	.LBB85:
 439:Drivers/STM32F3xx_HAL_Driver/Src/stm32f3xx_ll_usb.c ****             pmabuffer = ep->pmaaddr1;
 2648              		.loc 1 439 13 discriminator 1 view .LVU895
 439:Drivers/STM32F3xx_HAL_Driver/Src/stm32f3xx_ll_usb.c ****             pmabuffer = ep->pmaaddr1;
 2649              		.loc 1 439 13 discriminator 1 view .LVU896
 2650 032e FEB9     		cbnz	r6, .L101
 439:Drivers/STM32F3xx_HAL_Driver/Src/stm32f3xx_ll_usb.c ****             pmabuffer = ep->pmaaddr1;
 2651              		.loc 1 439 13 discriminator 3 view .LVU897
 2652 0330 B3F80C24 		ldrh	r2, [r3, #1036]
 2653 0334 92B2     		uxth	r2, r2
 2654 0336 22F4F842 		bic	r2, r2, #31744
 2655 033a 92B2     		uxth	r2, r2
 2656 033c A3F80C24 		strh	r2, [r3, #1036]	@ movhi
 439:Drivers/STM32F3xx_HAL_Driver/Src/stm32f3xx_ll_usb.c ****             pmabuffer = ep->pmaaddr1;
 2657              		.loc 1 439 13 discriminator 3 view .LVU898
 2658 0340 B3F80C24 		ldrh	r2, [r3, #1036]
 2659 0344 6FEA4242 		mvn	r2, r2, lsl #17
 2660 0348 6FEA5242 		mvn	r2, r2, lsr #17
 2661 034c 92B2     		uxth	r2, r2
 2662 034e A3F80C24 		strh	r2, [r3, #1036]	@ movhi
 2663 0352 28E0     		b	.L102
 2664              	.LVL291:
 2665              	.L162:
 439:Drivers/STM32F3xx_HAL_Driver/Src/stm32f3xx_ll_usb.c ****             pmabuffer = ep->pmaaddr1;
 2666              		.loc 1 439 13 is_stmt 0 discriminator 3 view .LVU899
 2667              	.LBE85:
ARM GAS  /var/folders/jw/jcj5j9_530958b2rm5vp9wn00000gn/T//ccDSMjf4.s 			page 70


 2668              	.LBE84:
 2669              	.LBE83:
 421:Drivers/STM32F3xx_HAL_Driver/Src/stm32f3xx_ll_usb.c ****             pmabuffer = ep->pmaaddr0;
 2670              		.loc 1 421 13 is_stmt 1 discriminator 16 view .LVU900
 2671              	.LBB88:
 421:Drivers/STM32F3xx_HAL_Driver/Src/stm32f3xx_ll_usb.c ****             pmabuffer = ep->pmaaddr0;
 2672              		.loc 1 421 13 discriminator 16 view .LVU901
 421:Drivers/STM32F3xx_HAL_Driver/Src/stm32f3xx_ll_usb.c ****             pmabuffer = ep->pmaaddr0;
 2673              		.loc 1 421 13 discriminator 16 view .LVU902
 421:Drivers/STM32F3xx_HAL_Driver/Src/stm32f3xx_ll_usb.c ****             pmabuffer = ep->pmaaddr0;
 2674              		.loc 1 421 13 discriminator 16 view .LVU903
 2675 0354 B5F85020 		ldrh	r2, [r5, #80]
 2676 0358 15FA82F2 		uxtah	r2, r5, r2
 2677              	.LVL292:
 421:Drivers/STM32F3xx_HAL_Driver/Src/stm32f3xx_ll_usb.c ****             pmabuffer = ep->pmaaddr0;
 2678              		.loc 1 421 13 discriminator 16 view .LVU904
 2679 035c 02EB0313 		add	r3, r2, r3, lsl #4
 2680              	.LVL293:
 421:Drivers/STM32F3xx_HAL_Driver/Src/stm32f3xx_ll_usb.c ****             pmabuffer = ep->pmaaddr0;
 2681              		.loc 1 421 13 discriminator 16 view .LVU905
 2682 0360 B2B2     		uxth	r2, r6
 2683              	.LVL294:
 421:Drivers/STM32F3xx_HAL_Driver/Src/stm32f3xx_ll_usb.c ****             pmabuffer = ep->pmaaddr0;
 2684              		.loc 1 421 13 is_stmt 0 discriminator 16 view .LVU906
 2685 0362 A3F80424 		strh	r2, [r3, #1028]	@ movhi
 2686 0366 C9E7     		b	.L94
 2687              	.LVL295:
 2688              	.L98:
 421:Drivers/STM32F3xx_HAL_Driver/Src/stm32f3xx_ll_usb.c ****             pmabuffer = ep->pmaaddr0;
 2689              		.loc 1 421 13 discriminator 16 view .LVU907
 2690              	.LBE88:
 434:Drivers/STM32F3xx_HAL_Driver/Src/stm32f3xx_ll_usb.c ****               ep->xfer_len_db = 0U;
 2691              		.loc 1 434 15 is_stmt 1 view .LVU908
 435:Drivers/STM32F3xx_HAL_Driver/Src/stm32f3xx_ll_usb.c ****             }
 2692              		.loc 1 435 15 view .LVU909
 435:Drivers/STM32F3xx_HAL_Driver/Src/stm32f3xx_ll_usb.c ****             }
 2693              		.loc 1 435 31 is_stmt 0 view .LVU910
 2694 0368 0022     		movs	r2, #0
 2695 036a 2262     		str	r2, [r4, #32]
 434:Drivers/STM32F3xx_HAL_Driver/Src/stm32f3xx_ll_usb.c ****               ep->xfer_len_db = 0U;
 2696              		.loc 1 434 19 view .LVU911
 2697 036c 1E46     		mov	r6, r3
 2698 036e D4E7     		b	.L99
 2699              	.LVL296:
 2700              	.L101:
 2701              	.LBB89:
 2702              	.LBB87:
 2703              	.LBB86:
 439:Drivers/STM32F3xx_HAL_Driver/Src/stm32f3xx_ll_usb.c ****             pmabuffer = ep->pmaaddr1;
 2704              		.loc 1 439 13 is_stmt 1 discriminator 4 view .LVU912
 2705 0370 3E2E     		cmp	r6, #62
 2706 0372 09D8     		bhi	.L103
 439:Drivers/STM32F3xx_HAL_Driver/Src/stm32f3xx_ll_usb.c ****             pmabuffer = ep->pmaaddr1;
 2707              		.loc 1 439 13 discriminator 6 view .LVU913
 439:Drivers/STM32F3xx_HAL_Driver/Src/stm32f3xx_ll_usb.c ****             pmabuffer = ep->pmaaddr1;
 2708              		.loc 1 439 13 discriminator 6 view .LVU914
 2709 0374 7208     		lsrs	r2, r6, #1
ARM GAS  /var/folders/jw/jcj5j9_530958b2rm5vp9wn00000gn/T//ccDSMjf4.s 			page 71


 2710              	.LVL297:
 439:Drivers/STM32F3xx_HAL_Driver/Src/stm32f3xx_ll_usb.c ****             pmabuffer = ep->pmaaddr1;
 2711              		.loc 1 439 13 discriminator 6 view .LVU915
 2712 0376 16F0010F 		tst	r6, #1
 2713 037a 00D0     		beq	.L104
 439:Drivers/STM32F3xx_HAL_Driver/Src/stm32f3xx_ll_usb.c ****             pmabuffer = ep->pmaaddr1;
 2714              		.loc 1 439 13 discriminator 8 view .LVU916
 2715 037c 0132     		adds	r2, r2, #1
 2716              	.LVL298:
 2717              	.L104:
 439:Drivers/STM32F3xx_HAL_Driver/Src/stm32f3xx_ll_usb.c ****             pmabuffer = ep->pmaaddr1;
 2718              		.loc 1 439 13 discriminator 10 view .LVU917
 2719 037e 9202     		lsls	r2, r2, #10
 2720              	.LVL299:
 439:Drivers/STM32F3xx_HAL_Driver/Src/stm32f3xx_ll_usb.c ****             pmabuffer = ep->pmaaddr1;
 2721              		.loc 1 439 13 is_stmt 0 discriminator 10 view .LVU918
 2722 0380 92B2     		uxth	r2, r2
 2723 0382 A3F80C24 		strh	r2, [r3, #1036]	@ movhi
 439:Drivers/STM32F3xx_HAL_Driver/Src/stm32f3xx_ll_usb.c ****             pmabuffer = ep->pmaaddr1;
 2724              		.loc 1 439 13 is_stmt 1 discriminator 10 view .LVU919
 2725 0386 0EE0     		b	.L102
 2726              	.L103:
 439:Drivers/STM32F3xx_HAL_Driver/Src/stm32f3xx_ll_usb.c ****             pmabuffer = ep->pmaaddr1;
 2727              		.loc 1 439 13 discriminator 7 view .LVU920
 439:Drivers/STM32F3xx_HAL_Driver/Src/stm32f3xx_ll_usb.c ****             pmabuffer = ep->pmaaddr1;
 2728              		.loc 1 439 13 discriminator 7 view .LVU921
 2729 0388 7209     		lsrs	r2, r6, #5
 2730              	.LVL300:
 439:Drivers/STM32F3xx_HAL_Driver/Src/stm32f3xx_ll_usb.c ****             pmabuffer = ep->pmaaddr1;
 2731              		.loc 1 439 13 discriminator 7 view .LVU922
 2732 038a 16F01F0F 		tst	r6, #31
 2733 038e 00D1     		bne	.L105
 439:Drivers/STM32F3xx_HAL_Driver/Src/stm32f3xx_ll_usb.c ****             pmabuffer = ep->pmaaddr1;
 2734              		.loc 1 439 13 discriminator 12 view .LVU923
 2735 0390 013A     		subs	r2, r2, #1
 2736              	.LVL301:
 2737              	.L105:
 439:Drivers/STM32F3xx_HAL_Driver/Src/stm32f3xx_ll_usb.c ****             pmabuffer = ep->pmaaddr1;
 2738              		.loc 1 439 13 discriminator 14 view .LVU924
 2739 0392 6FEAC262 		mvn	r2, r2, lsl #27
 2740              	.LVL302:
 439:Drivers/STM32F3xx_HAL_Driver/Src/stm32f3xx_ll_usb.c ****             pmabuffer = ep->pmaaddr1;
 2741              		.loc 1 439 13 is_stmt 0 discriminator 14 view .LVU925
 2742 0396 6FEA5242 		mvn	r2, r2, lsr #17
 2743 039a 92B2     		uxth	r2, r2
 2744 039c A3F80C24 		strh	r2, [r3, #1036]	@ movhi
 2745 03a0 01E0     		b	.L102
 2746              	.LVL303:
 2747              	.L100:
 439:Drivers/STM32F3xx_HAL_Driver/Src/stm32f3xx_ll_usb.c ****             pmabuffer = ep->pmaaddr1;
 2748              		.loc 1 439 13 discriminator 14 view .LVU926
 2749              	.LBE86:
 2750              	.LBE87:
 439:Drivers/STM32F3xx_HAL_Driver/Src/stm32f3xx_ll_usb.c ****             pmabuffer = ep->pmaaddr1;
 2751              		.loc 1 439 13 is_stmt 1 discriminator 2 view .LVU927
 2752 03a2 012B     		cmp	r3, #1
 2753 03a4 06D0     		beq	.L163
ARM GAS  /var/folders/jw/jcj5j9_530958b2rm5vp9wn00000gn/T//ccDSMjf4.s 			page 72


 2754              	.LVL304:
 2755              	.L102:
 439:Drivers/STM32F3xx_HAL_Driver/Src/stm32f3xx_ll_usb.c ****             pmabuffer = ep->pmaaddr1;
 2756              		.loc 1 439 13 is_stmt 0 discriminator 2 view .LVU928
 2757              	.LBE89:
 439:Drivers/STM32F3xx_HAL_Driver/Src/stm32f3xx_ll_usb.c ****             pmabuffer = ep->pmaaddr1;
 2758              		.loc 1 439 13 is_stmt 1 discriminator 18 view .LVU929
 440:Drivers/STM32F3xx_HAL_Driver/Src/stm32f3xx_ll_usb.c **** 
 2759              		.loc 1 440 13 discriminator 18 view .LVU930
 443:Drivers/STM32F3xx_HAL_Driver/Src/stm32f3xx_ll_usb.c ****           }
 2760              		.loc 1 443 13 discriminator 18 view .LVU931
 2761 03a6 B3B2     		uxth	r3, r6
 2762 03a8 6289     		ldrh	r2, [r4, #10]
 2763 03aa 6169     		ldr	r1, [r4, #20]
 2764 03ac 2846     		mov	r0, r5
 2765 03ae FFF7FEFF 		bl	USB_WritePMA
 2766              	.LVL305:
 443:Drivers/STM32F3xx_HAL_Driver/Src/stm32f3xx_ll_usb.c ****           }
 2767              		.loc 1 443 13 is_stmt 0 discriminator 18 view .LVU932
 2768 03b2 A2E6     		b	.L74
 2769              	.LVL306:
 2770              	.L163:
 2771              	.LBB90:
 439:Drivers/STM32F3xx_HAL_Driver/Src/stm32f3xx_ll_usb.c ****             pmabuffer = ep->pmaaddr1;
 2772              		.loc 1 439 13 is_stmt 1 discriminator 16 view .LVU933
 2773 03b4 B5F85030 		ldrh	r3, [r5, #80]
 2774 03b8 15FA83F3 		uxtah	r3, r5, r3
 2775              	.LVL307:
 439:Drivers/STM32F3xx_HAL_Driver/Src/stm32f3xx_ll_usb.c ****             pmabuffer = ep->pmaaddr1;
 2776              		.loc 1 439 13 discriminator 16 view .LVU934
 2777 03bc 2278     		ldrb	r2, [r4]	@ zero_extendqisi2
 2778 03be 03EB0213 		add	r3, r3, r2, lsl #4
 2779              	.LVL308:
 439:Drivers/STM32F3xx_HAL_Driver/Src/stm32f3xx_ll_usb.c ****             pmabuffer = ep->pmaaddr1;
 2780              		.loc 1 439 13 discriminator 16 view .LVU935
 2781 03c2 B2B2     		uxth	r2, r6
 2782 03c4 A3F80C24 		strh	r2, [r3, #1036]	@ movhi
 2783 03c8 EDE7     		b	.L102
 2784              	.LVL309:
 2785              	.L76:
 439:Drivers/STM32F3xx_HAL_Driver/Src/stm32f3xx_ll_usb.c ****             pmabuffer = ep->pmaaddr1;
 2786              		.loc 1 439 13 is_stmt 0 discriminator 16 view .LVU936
 2787              	.LBE90:
 449:Drivers/STM32F3xx_HAL_Driver/Src/stm32f3xx_ll_usb.c **** 
 2788              		.loc 1 449 11 is_stmt 1 view .LVU937
 452:Drivers/STM32F3xx_HAL_Driver/Src/stm32f3xx_ll_usb.c **** 
 2789              		.loc 1 452 11 view .LVU938
 2790              	.LBB91:
 452:Drivers/STM32F3xx_HAL_Driver/Src/stm32f3xx_ll_usb.c **** 
 2791              		.loc 1 452 11 view .LVU939
 452:Drivers/STM32F3xx_HAL_Driver/Src/stm32f3xx_ll_usb.c **** 
 2792              		.loc 1 452 11 view .LVU940
 2793 03ca 2178     		ldrb	r1, [r4]	@ zero_extendqisi2
 2794 03cc 35F82120 		ldrh	r2, [r5, r1, lsl #2]
 2795 03d0 92B2     		uxth	r2, r2
 2796 03d2 22F4E242 		bic	r2, r2, #28928
 2797 03d6 22F07002 		bic	r2, r2, #112
ARM GAS  /var/folders/jw/jcj5j9_530958b2rm5vp9wn00000gn/T//ccDSMjf4.s 			page 73


 2798              	.LVL310:
 452:Drivers/STM32F3xx_HAL_Driver/Src/stm32f3xx_ll_usb.c **** 
 2799              		.loc 1 452 11 view .LVU941
 2800 03da 42F40042 		orr	r2, r2, #32768
 2801              	.LVL311:
 452:Drivers/STM32F3xx_HAL_Driver/Src/stm32f3xx_ll_usb.c **** 
 2802              		.loc 1 452 11 is_stmt 0 view .LVU942
 2803 03de 42F08002 		orr	r2, r2, #128
 2804 03e2 25F82120 		strh	r2, [r5, r1, lsl #2]	@ movhi
 2805              	.LBE91:
 452:Drivers/STM32F3xx_HAL_Driver/Src/stm32f3xx_ll_usb.c **** 
 2806              		.loc 1 452 11 is_stmt 1 view .LVU943
 455:Drivers/STM32F3xx_HAL_Driver/Src/stm32f3xx_ll_usb.c ****           pmabuffer = ep->pmaaddr0;
 2807              		.loc 1 455 11 view .LVU944
 2808              	.LBB92:
 455:Drivers/STM32F3xx_HAL_Driver/Src/stm32f3xx_ll_usb.c ****           pmabuffer = ep->pmaaddr0;
 2809              		.loc 1 455 11 view .LVU945
 2810              	.LVL312:
 455:Drivers/STM32F3xx_HAL_Driver/Src/stm32f3xx_ll_usb.c ****           pmabuffer = ep->pmaaddr0;
 2811              		.loc 1 455 11 view .LVU946
 455:Drivers/STM32F3xx_HAL_Driver/Src/stm32f3xx_ll_usb.c ****           pmabuffer = ep->pmaaddr0;
 2812              		.loc 1 455 11 view .LVU947
 2813 03e6 B5F85020 		ldrh	r2, [r5, #80]
 2814 03ea 15FA82F2 		uxtah	r2, r5, r2
 2815              	.LVL313:
 455:Drivers/STM32F3xx_HAL_Driver/Src/stm32f3xx_ll_usb.c ****           pmabuffer = ep->pmaaddr0;
 2816              		.loc 1 455 11 view .LVU948
 2817 03ee 2178     		ldrb	r1, [r4]	@ zero_extendqisi2
 2818 03f0 02EB0112 		add	r2, r2, r1, lsl #4
 2819              	.LVL314:
 455:Drivers/STM32F3xx_HAL_Driver/Src/stm32f3xx_ll_usb.c ****           pmabuffer = ep->pmaaddr0;
 2820              		.loc 1 455 11 view .LVU949
 2821 03f4 9BB2     		uxth	r3, r3
 2822              	.LVL315:
 455:Drivers/STM32F3xx_HAL_Driver/Src/stm32f3xx_ll_usb.c ****           pmabuffer = ep->pmaaddr0;
 2823              		.loc 1 455 11 is_stmt 0 view .LVU950
 2824 03f6 A2F80434 		strh	r3, [r2, #1028]	@ movhi
 2825              	.LBE92:
 455:Drivers/STM32F3xx_HAL_Driver/Src/stm32f3xx_ll_usb.c ****           pmabuffer = ep->pmaaddr0;
 2826              		.loc 1 455 11 is_stmt 1 view .LVU951
 456:Drivers/STM32F3xx_HAL_Driver/Src/stm32f3xx_ll_usb.c **** 
 2827              		.loc 1 456 11 view .LVU952
 2828              	.LVL316:
 459:Drivers/STM32F3xx_HAL_Driver/Src/stm32f3xx_ll_usb.c ****         }
 2829              		.loc 1 459 11 view .LVU953
 2830 03fa 2289     		ldrh	r2, [r4, #8]
 2831              	.LVL317:
 459:Drivers/STM32F3xx_HAL_Driver/Src/stm32f3xx_ll_usb.c ****         }
 2832              		.loc 1 459 11 is_stmt 0 view .LVU954
 2833 03fc 6169     		ldr	r1, [r4, #20]
 459:Drivers/STM32F3xx_HAL_Driver/Src/stm32f3xx_ll_usb.c ****         }
 2834              		.loc 1 459 11 view .LVU955
 2835 03fe 2846     		mov	r0, r5
 2836              	.LVL318:
 459:Drivers/STM32F3xx_HAL_Driver/Src/stm32f3xx_ll_usb.c ****         }
 2837              		.loc 1 459 11 view .LVU956
 2838 0400 FFF7FEFF 		bl	USB_WritePMA
ARM GAS  /var/folders/jw/jcj5j9_530958b2rm5vp9wn00000gn/T//ccDSMjf4.s 			page 74


 2839              	.LVL319:
 459:Drivers/STM32F3xx_HAL_Driver/Src/stm32f3xx_ll_usb.c ****         }
 2840              		.loc 1 459 11 view .LVU957
 2841 0404 79E6     		b	.L74
 2842              	.LVL320:
 2843              	.L108:
 2844              	.LBB93:
 2845              	.LBB68:
 2846              	.LBB67:
 470:Drivers/STM32F3xx_HAL_Driver/Src/stm32f3xx_ll_usb.c ****           pmabuffer = ep->pmaaddr1;
 2847              		.loc 1 470 11 is_stmt 1 discriminator 4 view .LVU958
 2848 0406 3E2E     		cmp	r6, #62
 2849 0408 09D8     		bhi	.L110
 470:Drivers/STM32F3xx_HAL_Driver/Src/stm32f3xx_ll_usb.c ****           pmabuffer = ep->pmaaddr1;
 2850              		.loc 1 470 11 discriminator 6 view .LVU959
 470:Drivers/STM32F3xx_HAL_Driver/Src/stm32f3xx_ll_usb.c ****           pmabuffer = ep->pmaaddr1;
 2851              		.loc 1 470 11 discriminator 6 view .LVU960
 2852 040a 7208     		lsrs	r2, r6, #1
 2853              	.LVL321:
 470:Drivers/STM32F3xx_HAL_Driver/Src/stm32f3xx_ll_usb.c ****           pmabuffer = ep->pmaaddr1;
 2854              		.loc 1 470 11 discriminator 6 view .LVU961
 2855 040c 16F0010F 		tst	r6, #1
 2856 0410 00D0     		beq	.L111
 470:Drivers/STM32F3xx_HAL_Driver/Src/stm32f3xx_ll_usb.c ****           pmabuffer = ep->pmaaddr1;
 2857              		.loc 1 470 11 discriminator 8 view .LVU962
 2858 0412 0132     		adds	r2, r2, #1
 2859              	.LVL322:
 2860              	.L111:
 470:Drivers/STM32F3xx_HAL_Driver/Src/stm32f3xx_ll_usb.c ****           pmabuffer = ep->pmaaddr1;
 2861              		.loc 1 470 11 discriminator 10 view .LVU963
 2862 0414 9202     		lsls	r2, r2, #10
 2863              	.LVL323:
 470:Drivers/STM32F3xx_HAL_Driver/Src/stm32f3xx_ll_usb.c ****           pmabuffer = ep->pmaaddr1;
 2864              		.loc 1 470 11 is_stmt 0 discriminator 10 view .LVU964
 2865 0416 92B2     		uxth	r2, r2
 2866 0418 A3F80C24 		strh	r2, [r3, #1036]	@ movhi
 470:Drivers/STM32F3xx_HAL_Driver/Src/stm32f3xx_ll_usb.c ****           pmabuffer = ep->pmaaddr1;
