ARM GAS  /var/folders/jw/jcj5j9_530958b2rm5vp9wn00000gn/T//ccD0XOAX.s 			page 1


   1              		.cpu cortex-m4
   2              		.eabi_attribute 27, 1
   3              		.eabi_attribute 28, 1
   4              		.eabi_attribute 20, 1
   5              		.eabi_attribute 21, 1
   6              		.eabi_attribute 23, 3
   7              		.eabi_attribute 24, 1
   8              		.eabi_attribute 25, 1
   9              		.eabi_attribute 26, 1
  10              		.eabi_attribute 30, 1
  11              		.eabi_attribute 34, 1
  12              		.eabi_attribute 18, 4
  13              		.file	"stm32f3xx_hal_dma.c"
  14              		.text
  15              	.Ltext0:
  16              		.cfi_sections	.debug_frame
  17              		.section	.text.DMA_SetConfig,"ax",%progbits
  18              		.align	1
  19              		.arch armv7e-m
  20              		.syntax unified
  21              		.thumb
  22              		.thumb_func
  23              		.fpu fpv4-sp-d16
  25              	DMA_SetConfig:
  26              	.LVL0:
  27              	.LFB142:
  28              		.file 1 "Drivers/STM32F3xx_HAL_Driver/Src/stm32f3xx_hal_dma.c"
   1:Drivers/STM32F3xx_HAL_Driver/Src/stm32f3xx_hal_dma.c **** /**
   2:Drivers/STM32F3xx_HAL_Driver/Src/stm32f3xx_hal_dma.c ****   ******************************************************************************
   3:Drivers/STM32F3xx_HAL_Driver/Src/stm32f3xx_hal_dma.c ****   * @file    stm32f3xx_hal_dma.c
   4:Drivers/STM32F3xx_HAL_Driver/Src/stm32f3xx_hal_dma.c ****   * @author  MCD Application Team
   5:Drivers/STM32F3xx_HAL_Driver/Src/stm32f3xx_hal_dma.c ****   * @brief   DMA HAL module driver.
   6:Drivers/STM32F3xx_HAL_Driver/Src/stm32f3xx_hal_dma.c ****   *    
   7:Drivers/STM32F3xx_HAL_Driver/Src/stm32f3xx_hal_dma.c ****   *         This file provides firmware functions to manage the following 
   8:Drivers/STM32F3xx_HAL_Driver/Src/stm32f3xx_hal_dma.c ****   *         functionalities of the Direct Memory Access (DMA) peripheral:
   9:Drivers/STM32F3xx_HAL_Driver/Src/stm32f3xx_hal_dma.c ****   *           + Initialization and de-initialization functions
  10:Drivers/STM32F3xx_HAL_Driver/Src/stm32f3xx_hal_dma.c ****   *           + IO operation functions
  11:Drivers/STM32F3xx_HAL_Driver/Src/stm32f3xx_hal_dma.c ****   *           + Peripheral State and errors functions
  12:Drivers/STM32F3xx_HAL_Driver/Src/stm32f3xx_hal_dma.c ****   @verbatim     
  13:Drivers/STM32F3xx_HAL_Driver/Src/stm32f3xx_hal_dma.c ****   ==============================================================================      
  14:Drivers/STM32F3xx_HAL_Driver/Src/stm32f3xx_hal_dma.c ****                         ##### How to use this driver #####
  15:Drivers/STM32F3xx_HAL_Driver/Src/stm32f3xx_hal_dma.c ****   ============================================================================== 
  16:Drivers/STM32F3xx_HAL_Driver/Src/stm32f3xx_hal_dma.c ****   [..]
  17:Drivers/STM32F3xx_HAL_Driver/Src/stm32f3xx_hal_dma.c ****    (#) Enable and configure the peripheral to be connected to the DMA Channel
  18:Drivers/STM32F3xx_HAL_Driver/Src/stm32f3xx_hal_dma.c ****        (except for internal SRAM / FLASH memories: no initialization is 
  19:Drivers/STM32F3xx_HAL_Driver/Src/stm32f3xx_hal_dma.c ****        necessary). Please refer to Reference manual for connection between peripherals
  20:Drivers/STM32F3xx_HAL_Driver/Src/stm32f3xx_hal_dma.c ****        and DMA requests .
  21:Drivers/STM32F3xx_HAL_Driver/Src/stm32f3xx_hal_dma.c **** 
  22:Drivers/STM32F3xx_HAL_Driver/Src/stm32f3xx_hal_dma.c ****    (#) For a given Channel, program the required configuration through the following parameters:   
  23:Drivers/STM32F3xx_HAL_Driver/Src/stm32f3xx_hal_dma.c ****        Transfer Direction, Source and Destination data formats, 
  24:Drivers/STM32F3xx_HAL_Driver/Src/stm32f3xx_hal_dma.c ****        Circular or Normal mode, Channel Priority level, Source and Destination Increment mode, 
  25:Drivers/STM32F3xx_HAL_Driver/Src/stm32f3xx_hal_dma.c ****        using HAL_DMA_Init() function.
  26:Drivers/STM32F3xx_HAL_Driver/Src/stm32f3xx_hal_dma.c **** 
  27:Drivers/STM32F3xx_HAL_Driver/Src/stm32f3xx_hal_dma.c ****    (#) Use HAL_DMA_GetState() function to return the DMA state and HAL_DMA_GetError() in case of er
  28:Drivers/STM32F3xx_HAL_Driver/Src/stm32f3xx_hal_dma.c ****        detection.
  29:Drivers/STM32F3xx_HAL_Driver/Src/stm32f3xx_hal_dma.c ****                     
  30:Drivers/STM32F3xx_HAL_Driver/Src/stm32f3xx_hal_dma.c ****    (#) Use HAL_DMA_Abort() function to abort the current transfer
ARM GAS  /var/folders/jw/jcj5j9_530958b2rm5vp9wn00000gn/T//ccD0XOAX.s 			page 2


  31:Drivers/STM32F3xx_HAL_Driver/Src/stm32f3xx_hal_dma.c ****                    
  32:Drivers/STM32F3xx_HAL_Driver/Src/stm32f3xx_hal_dma.c ****      -@-   In Memory-to-Memory transfer mode, Circular mode is not allowed.
  33:Drivers/STM32F3xx_HAL_Driver/Src/stm32f3xx_hal_dma.c ****      *** Polling mode IO operation ***
  34:Drivers/STM32F3xx_HAL_Driver/Src/stm32f3xx_hal_dma.c ****      =================================   
  35:Drivers/STM32F3xx_HAL_Driver/Src/stm32f3xx_hal_dma.c ****     [..] 
  36:Drivers/STM32F3xx_HAL_Driver/Src/stm32f3xx_hal_dma.c ****       (+) Use HAL_DMA_Start() to start DMA transfer after the configuration of Source 
  37:Drivers/STM32F3xx_HAL_Driver/Src/stm32f3xx_hal_dma.c ****           address and destination address and the Length of data to be transferred
  38:Drivers/STM32F3xx_HAL_Driver/Src/stm32f3xx_hal_dma.c ****       (+) Use HAL_DMA_PollForTransfer() to poll for the end of current transfer, in this  
  39:Drivers/STM32F3xx_HAL_Driver/Src/stm32f3xx_hal_dma.c ****           case a fixed Timeout can be configured by User depending from his application.
  40:Drivers/STM32F3xx_HAL_Driver/Src/stm32f3xx_hal_dma.c **** 
  41:Drivers/STM32F3xx_HAL_Driver/Src/stm32f3xx_hal_dma.c ****      *** Interrupt mode IO operation ***    
  42:Drivers/STM32F3xx_HAL_Driver/Src/stm32f3xx_hal_dma.c ****      =================================== 
  43:Drivers/STM32F3xx_HAL_Driver/Src/stm32f3xx_hal_dma.c ****     [..]
  44:Drivers/STM32F3xx_HAL_Driver/Src/stm32f3xx_hal_dma.c ****       (+) Configure the DMA interrupt priority using HAL_NVIC_SetPriority()
  45:Drivers/STM32F3xx_HAL_Driver/Src/stm32f3xx_hal_dma.c ****       (+) Enable the DMA IRQ handler using HAL_NVIC_EnableIRQ() 
  46:Drivers/STM32F3xx_HAL_Driver/Src/stm32f3xx_hal_dma.c ****       (+) Use HAL_DMA_Start_IT() to start DMA transfer after the configuration of  
  47:Drivers/STM32F3xx_HAL_Driver/Src/stm32f3xx_hal_dma.c ****           Source address and destination address and the Length of data to be transferred. 
  48:Drivers/STM32F3xx_HAL_Driver/Src/stm32f3xx_hal_dma.c ****           In this case the DMA interrupt is configured 
  49:Drivers/STM32F3xx_HAL_Driver/Src/stm32f3xx_hal_dma.c ****       (+) Use HAL_DMA_Channel_IRQHandler() called under DMA_IRQHandler() Interrupt subroutine
  50:Drivers/STM32F3xx_HAL_Driver/Src/stm32f3xx_hal_dma.c ****       (+) At the end of data transfer HAL_DMA_IRQHandler() function is executed and user can 
  51:Drivers/STM32F3xx_HAL_Driver/Src/stm32f3xx_hal_dma.c ****           add his own function by customization of function pointer XferCpltCallback and 
  52:Drivers/STM32F3xx_HAL_Driver/Src/stm32f3xx_hal_dma.c ****           XferErrorCallback (i.e a member of DMA handle structure). 
  53:Drivers/STM32F3xx_HAL_Driver/Src/stm32f3xx_hal_dma.c **** 
  54:Drivers/STM32F3xx_HAL_Driver/Src/stm32f3xx_hal_dma.c ****      *** DMA HAL driver macros list ***
  55:Drivers/STM32F3xx_HAL_Driver/Src/stm32f3xx_hal_dma.c ****      ============================================= 
  56:Drivers/STM32F3xx_HAL_Driver/Src/stm32f3xx_hal_dma.c ****      [..]
  57:Drivers/STM32F3xx_HAL_Driver/Src/stm32f3xx_hal_dma.c ****        Below the list of most used macros in DMA HAL driver.
  58:Drivers/STM32F3xx_HAL_Driver/Src/stm32f3xx_hal_dma.c **** 
  59:Drivers/STM32F3xx_HAL_Driver/Src/stm32f3xx_hal_dma.c ****      [..] 
  60:Drivers/STM32F3xx_HAL_Driver/Src/stm32f3xx_hal_dma.c ****       (@) You can refer to the DMA HAL driver header file for more useful macros  
  61:Drivers/STM32F3xx_HAL_Driver/Src/stm32f3xx_hal_dma.c **** 
  62:Drivers/STM32F3xx_HAL_Driver/Src/stm32f3xx_hal_dma.c ****   @endverbatim
  63:Drivers/STM32F3xx_HAL_Driver/Src/stm32f3xx_hal_dma.c ****   ******************************************************************************
  64:Drivers/STM32F3xx_HAL_Driver/Src/stm32f3xx_hal_dma.c ****   * @attention
  65:Drivers/STM32F3xx_HAL_Driver/Src/stm32f3xx_hal_dma.c ****   *
  66:Drivers/STM32F3xx_HAL_Driver/Src/stm32f3xx_hal_dma.c ****   * <h2><center>&copy; Copyright (c) 2016 STMicroelectronics.
  67:Drivers/STM32F3xx_HAL_Driver/Src/stm32f3xx_hal_dma.c ****   * All rights reserved.</center></h2>
  68:Drivers/STM32F3xx_HAL_Driver/Src/stm32f3xx_hal_dma.c ****   *
  69:Drivers/STM32F3xx_HAL_Driver/Src/stm32f3xx_hal_dma.c ****   * This software component is licensed by ST under BSD 3-Clause license,
  70:Drivers/STM32F3xx_HAL_Driver/Src/stm32f3xx_hal_dma.c ****   * the "License"; You may not use this file except in compliance with the
  71:Drivers/STM32F3xx_HAL_Driver/Src/stm32f3xx_hal_dma.c ****   * License. You may obtain a copy of the License at:
  72:Drivers/STM32F3xx_HAL_Driver/Src/stm32f3xx_hal_dma.c ****   *                        opensource.org/licenses/BSD-3-Clause
  73:Drivers/STM32F3xx_HAL_Driver/Src/stm32f3xx_hal_dma.c ****   *
  74:Drivers/STM32F3xx_HAL_Driver/Src/stm32f3xx_hal_dma.c ****   ******************************************************************************
  75:Drivers/STM32F3xx_HAL_Driver/Src/stm32f3xx_hal_dma.c ****   */ 
  76:Drivers/STM32F3xx_HAL_Driver/Src/stm32f3xx_hal_dma.c **** 
  77:Drivers/STM32F3xx_HAL_Driver/Src/stm32f3xx_hal_dma.c **** /* Includes ------------------------------------------------------------------*/
  78:Drivers/STM32F3xx_HAL_Driver/Src/stm32f3xx_hal_dma.c **** #include "stm32f3xx_hal.h"
  79:Drivers/STM32F3xx_HAL_Driver/Src/stm32f3xx_hal_dma.c **** 
  80:Drivers/STM32F3xx_HAL_Driver/Src/stm32f3xx_hal_dma.c **** /** @addtogroup STM32F3xx_HAL_Driver
  81:Drivers/STM32F3xx_HAL_Driver/Src/stm32f3xx_hal_dma.c ****   * @{
  82:Drivers/STM32F3xx_HAL_Driver/Src/stm32f3xx_hal_dma.c ****   */
  83:Drivers/STM32F3xx_HAL_Driver/Src/stm32f3xx_hal_dma.c **** 
  84:Drivers/STM32F3xx_HAL_Driver/Src/stm32f3xx_hal_dma.c **** /** @defgroup DMA DMA
  85:Drivers/STM32F3xx_HAL_Driver/Src/stm32f3xx_hal_dma.c ****   * @brief DMA HAL module driver
  86:Drivers/STM32F3xx_HAL_Driver/Src/stm32f3xx_hal_dma.c ****   * @{
  87:Drivers/STM32F3xx_HAL_Driver/Src/stm32f3xx_hal_dma.c ****   */
ARM GAS  /var/folders/jw/jcj5j9_530958b2rm5vp9wn00000gn/T//ccD0XOAX.s 			page 3


  88:Drivers/STM32F3xx_HAL_Driver/Src/stm32f3xx_hal_dma.c **** 
  89:Drivers/STM32F3xx_HAL_Driver/Src/stm32f3xx_hal_dma.c **** #ifdef HAL_DMA_MODULE_ENABLED
  90:Drivers/STM32F3xx_HAL_Driver/Src/stm32f3xx_hal_dma.c **** 
  91:Drivers/STM32F3xx_HAL_Driver/Src/stm32f3xx_hal_dma.c **** /* Private typedef -----------------------------------------------------------*/
  92:Drivers/STM32F3xx_HAL_Driver/Src/stm32f3xx_hal_dma.c **** /* Private define ------------------------------------------------------------*/
  93:Drivers/STM32F3xx_HAL_Driver/Src/stm32f3xx_hal_dma.c **** /* Private macro -------------------------------------------------------------*/
  94:Drivers/STM32F3xx_HAL_Driver/Src/stm32f3xx_hal_dma.c **** /* Private variables ---------------------------------------------------------*/
  95:Drivers/STM32F3xx_HAL_Driver/Src/stm32f3xx_hal_dma.c **** /* Private function prototypes -----------------------------------------------*/
  96:Drivers/STM32F3xx_HAL_Driver/Src/stm32f3xx_hal_dma.c **** /** @defgroup DMA_Private_Functions DMA Private Functions
  97:Drivers/STM32F3xx_HAL_Driver/Src/stm32f3xx_hal_dma.c ****   * @{
  98:Drivers/STM32F3xx_HAL_Driver/Src/stm32f3xx_hal_dma.c ****   */
  99:Drivers/STM32F3xx_HAL_Driver/Src/stm32f3xx_hal_dma.c **** static void DMA_SetConfig(DMA_HandleTypeDef *hdma, uint32_t SrcAddress, uint32_t DstAddress, uint32
 100:Drivers/STM32F3xx_HAL_Driver/Src/stm32f3xx_hal_dma.c **** static void DMA_CalcBaseAndBitshift(DMA_HandleTypeDef *hdma);
 101:Drivers/STM32F3xx_HAL_Driver/Src/stm32f3xx_hal_dma.c **** /**
 102:Drivers/STM32F3xx_HAL_Driver/Src/stm32f3xx_hal_dma.c ****   * @}
 103:Drivers/STM32F3xx_HAL_Driver/Src/stm32f3xx_hal_dma.c ****   */
 104:Drivers/STM32F3xx_HAL_Driver/Src/stm32f3xx_hal_dma.c **** 
 105:Drivers/STM32F3xx_HAL_Driver/Src/stm32f3xx_hal_dma.c **** /* Exported functions ---------------------------------------------------------*/
 106:Drivers/STM32F3xx_HAL_Driver/Src/stm32f3xx_hal_dma.c **** 
 107:Drivers/STM32F3xx_HAL_Driver/Src/stm32f3xx_hal_dma.c **** /** @defgroup DMA_Exported_Functions DMA Exported Functions
 108:Drivers/STM32F3xx_HAL_Driver/Src/stm32f3xx_hal_dma.c ****   * @{
 109:Drivers/STM32F3xx_HAL_Driver/Src/stm32f3xx_hal_dma.c ****   */
 110:Drivers/STM32F3xx_HAL_Driver/Src/stm32f3xx_hal_dma.c **** 
 111:Drivers/STM32F3xx_HAL_Driver/Src/stm32f3xx_hal_dma.c **** /** @defgroup DMA_Exported_Functions_Group1 Initialization and de-initialization functions
 112:Drivers/STM32F3xx_HAL_Driver/Src/stm32f3xx_hal_dma.c ****  *  @brief   Initialization and de-initialization functions 
 113:Drivers/STM32F3xx_HAL_Driver/Src/stm32f3xx_hal_dma.c ****  *
 114:Drivers/STM32F3xx_HAL_Driver/Src/stm32f3xx_hal_dma.c **** @verbatim   
 115:Drivers/STM32F3xx_HAL_Driver/Src/stm32f3xx_hal_dma.c ****  ===============================================================================
 116:Drivers/STM32F3xx_HAL_Driver/Src/stm32f3xx_hal_dma.c ****              ##### Initialization and de-initialization functions  #####
 117:Drivers/STM32F3xx_HAL_Driver/Src/stm32f3xx_hal_dma.c ****  ===============================================================================  
 118:Drivers/STM32F3xx_HAL_Driver/Src/stm32f3xx_hal_dma.c ****     [..]
 119:Drivers/STM32F3xx_HAL_Driver/Src/stm32f3xx_hal_dma.c ****     This section provides functions allowing to initialize the DMA Channel source
 120:Drivers/STM32F3xx_HAL_Driver/Src/stm32f3xx_hal_dma.c ****     and destination addresses, incrementation and data sizes, transfer direction, 
 121:Drivers/STM32F3xx_HAL_Driver/Src/stm32f3xx_hal_dma.c ****     circular/normal mode selection, memory-to-memory mode selection and Channel priority value.
 122:Drivers/STM32F3xx_HAL_Driver/Src/stm32f3xx_hal_dma.c ****     [..]
 123:Drivers/STM32F3xx_HAL_Driver/Src/stm32f3xx_hal_dma.c ****     The HAL_DMA_Init() function follows the DMA configuration procedures as described in
 124:Drivers/STM32F3xx_HAL_Driver/Src/stm32f3xx_hal_dma.c ****     reference manual.  
 125:Drivers/STM32F3xx_HAL_Driver/Src/stm32f3xx_hal_dma.c **** 
 126:Drivers/STM32F3xx_HAL_Driver/Src/stm32f3xx_hal_dma.c **** @endverbatim
 127:Drivers/STM32F3xx_HAL_Driver/Src/stm32f3xx_hal_dma.c ****   * @{
 128:Drivers/STM32F3xx_HAL_Driver/Src/stm32f3xx_hal_dma.c ****   */
 129:Drivers/STM32F3xx_HAL_Driver/Src/stm32f3xx_hal_dma.c ****   
 130:Drivers/STM32F3xx_HAL_Driver/Src/stm32f3xx_hal_dma.c **** /**
 131:Drivers/STM32F3xx_HAL_Driver/Src/stm32f3xx_hal_dma.c ****   * @brief  Initialize the DMA according to the specified
 132:Drivers/STM32F3xx_HAL_Driver/Src/stm32f3xx_hal_dma.c ****   *         parameters in the DMA_InitTypeDef and initialize the associated handle.
 133:Drivers/STM32F3xx_HAL_Driver/Src/stm32f3xx_hal_dma.c ****   * @param  hdma Pointer to a DMA_HandleTypeDef structure that contains
 134:Drivers/STM32F3xx_HAL_Driver/Src/stm32f3xx_hal_dma.c ****   *               the configuration information for the specified DMA Channel.  
 135:Drivers/STM32F3xx_HAL_Driver/Src/stm32f3xx_hal_dma.c ****   * @retval HAL status
 136:Drivers/STM32F3xx_HAL_Driver/Src/stm32f3xx_hal_dma.c ****   */
 137:Drivers/STM32F3xx_HAL_Driver/Src/stm32f3xx_hal_dma.c **** HAL_StatusTypeDef HAL_DMA_Init(DMA_HandleTypeDef *hdma)
 138:Drivers/STM32F3xx_HAL_Driver/Src/stm32f3xx_hal_dma.c **** { 
 139:Drivers/STM32F3xx_HAL_Driver/Src/stm32f3xx_hal_dma.c ****   uint32_t tmp = 0U;
 140:Drivers/STM32F3xx_HAL_Driver/Src/stm32f3xx_hal_dma.c ****   
 141:Drivers/STM32F3xx_HAL_Driver/Src/stm32f3xx_hal_dma.c ****   /* Check the DMA handle allocation */
 142:Drivers/STM32F3xx_HAL_Driver/Src/stm32f3xx_hal_dma.c ****   if(NULL == hdma)
 143:Drivers/STM32F3xx_HAL_Driver/Src/stm32f3xx_hal_dma.c ****   {
 144:Drivers/STM32F3xx_HAL_Driver/Src/stm32f3xx_hal_dma.c ****     return HAL_ERROR;
ARM GAS  /var/folders/jw/jcj5j9_530958b2rm5vp9wn00000gn/T//ccD0XOAX.s 			page 4


 145:Drivers/STM32F3xx_HAL_Driver/Src/stm32f3xx_hal_dma.c ****   }
 146:Drivers/STM32F3xx_HAL_Driver/Src/stm32f3xx_hal_dma.c ****   
 147:Drivers/STM32F3xx_HAL_Driver/Src/stm32f3xx_hal_dma.c ****   /* Check the parameters */
 148:Drivers/STM32F3xx_HAL_Driver/Src/stm32f3xx_hal_dma.c ****   assert_param(IS_DMA_ALL_INSTANCE(hdma->Instance));
 149:Drivers/STM32F3xx_HAL_Driver/Src/stm32f3xx_hal_dma.c ****   assert_param(IS_DMA_DIRECTION(hdma->Init.Direction));
 150:Drivers/STM32F3xx_HAL_Driver/Src/stm32f3xx_hal_dma.c ****   assert_param(IS_DMA_PERIPHERAL_INC_STATE(hdma->Init.PeriphInc));
 151:Drivers/STM32F3xx_HAL_Driver/Src/stm32f3xx_hal_dma.c ****   assert_param(IS_DMA_MEMORY_INC_STATE(hdma->Init.MemInc));
 152:Drivers/STM32F3xx_HAL_Driver/Src/stm32f3xx_hal_dma.c ****   assert_param(IS_DMA_PERIPHERAL_DATA_SIZE(hdma->Init.PeriphDataAlignment));
 153:Drivers/STM32F3xx_HAL_Driver/Src/stm32f3xx_hal_dma.c ****   assert_param(IS_DMA_MEMORY_DATA_SIZE(hdma->Init.MemDataAlignment));
 154:Drivers/STM32F3xx_HAL_Driver/Src/stm32f3xx_hal_dma.c ****   assert_param(IS_DMA_MODE(hdma->Init.Mode));
 155:Drivers/STM32F3xx_HAL_Driver/Src/stm32f3xx_hal_dma.c ****   assert_param(IS_DMA_PRIORITY(hdma->Init.Priority));
 156:Drivers/STM32F3xx_HAL_Driver/Src/stm32f3xx_hal_dma.c ****   
 157:Drivers/STM32F3xx_HAL_Driver/Src/stm32f3xx_hal_dma.c ****   /* Change DMA peripheral state */
 158:Drivers/STM32F3xx_HAL_Driver/Src/stm32f3xx_hal_dma.c ****   hdma->State = HAL_DMA_STATE_BUSY;
 159:Drivers/STM32F3xx_HAL_Driver/Src/stm32f3xx_hal_dma.c **** 
 160:Drivers/STM32F3xx_HAL_Driver/Src/stm32f3xx_hal_dma.c ****   /* Get the CR register value */
 161:Drivers/STM32F3xx_HAL_Driver/Src/stm32f3xx_hal_dma.c ****   tmp = hdma->Instance->CCR;
 162:Drivers/STM32F3xx_HAL_Driver/Src/stm32f3xx_hal_dma.c ****   
 163:Drivers/STM32F3xx_HAL_Driver/Src/stm32f3xx_hal_dma.c ****   /* Clear PL, MSIZE, PSIZE, MINC, PINC, CIRC, DIR bits */
 164:Drivers/STM32F3xx_HAL_Driver/Src/stm32f3xx_hal_dma.c ****   tmp &= ((uint32_t)~(DMA_CCR_PL    | DMA_CCR_MSIZE  | DMA_CCR_PSIZE  | \
 165:Drivers/STM32F3xx_HAL_Driver/Src/stm32f3xx_hal_dma.c ****                       DMA_CCR_MINC  | DMA_CCR_PINC   | DMA_CCR_CIRC   | \
 166:Drivers/STM32F3xx_HAL_Driver/Src/stm32f3xx_hal_dma.c ****                       DMA_CCR_DIR));
 167:Drivers/STM32F3xx_HAL_Driver/Src/stm32f3xx_hal_dma.c ****   
 168:Drivers/STM32F3xx_HAL_Driver/Src/stm32f3xx_hal_dma.c ****   /* Prepare the DMA Channel configuration */
 169:Drivers/STM32F3xx_HAL_Driver/Src/stm32f3xx_hal_dma.c ****   tmp |=  hdma->Init.Direction        |
 170:Drivers/STM32F3xx_HAL_Driver/Src/stm32f3xx_hal_dma.c ****           hdma->Init.PeriphInc           | hdma->Init.MemInc           |
 171:Drivers/STM32F3xx_HAL_Driver/Src/stm32f3xx_hal_dma.c ****           hdma->Init.PeriphDataAlignment | hdma->Init.MemDataAlignment |
 172:Drivers/STM32F3xx_HAL_Driver/Src/stm32f3xx_hal_dma.c ****           hdma->Init.Mode                | hdma->Init.Priority;
 173:Drivers/STM32F3xx_HAL_Driver/Src/stm32f3xx_hal_dma.c **** 
 174:Drivers/STM32F3xx_HAL_Driver/Src/stm32f3xx_hal_dma.c ****   /* Write to DMA Channel CR register */
 175:Drivers/STM32F3xx_HAL_Driver/Src/stm32f3xx_hal_dma.c ****   hdma->Instance->CCR = tmp;  
 176:Drivers/STM32F3xx_HAL_Driver/Src/stm32f3xx_hal_dma.c ****   
 177:Drivers/STM32F3xx_HAL_Driver/Src/stm32f3xx_hal_dma.c ****   /* Initialize DmaBaseAddress and ChannelIndex parameters used 
 178:Drivers/STM32F3xx_HAL_Driver/Src/stm32f3xx_hal_dma.c ****      by HAL_DMA_IRQHandler() and HAL_DMA_PollForTransfer() */
 179:Drivers/STM32F3xx_HAL_Driver/Src/stm32f3xx_hal_dma.c ****   DMA_CalcBaseAndBitshift(hdma);
 180:Drivers/STM32F3xx_HAL_Driver/Src/stm32f3xx_hal_dma.c ****   
 181:Drivers/STM32F3xx_HAL_Driver/Src/stm32f3xx_hal_dma.c ****   /* Initialise the error code */
 182:Drivers/STM32F3xx_HAL_Driver/Src/stm32f3xx_hal_dma.c ****   hdma->ErrorCode = HAL_DMA_ERROR_NONE;
 183:Drivers/STM32F3xx_HAL_Driver/Src/stm32f3xx_hal_dma.c **** 
 184:Drivers/STM32F3xx_HAL_Driver/Src/stm32f3xx_hal_dma.c ****   /* Initialize the DMA state*/
 185:Drivers/STM32F3xx_HAL_Driver/Src/stm32f3xx_hal_dma.c ****   hdma->State = HAL_DMA_STATE_READY;
 186:Drivers/STM32F3xx_HAL_Driver/Src/stm32f3xx_hal_dma.c ****   
 187:Drivers/STM32F3xx_HAL_Driver/Src/stm32f3xx_hal_dma.c ****   /* Allocate lock resource and initialize it */
 188:Drivers/STM32F3xx_HAL_Driver/Src/stm32f3xx_hal_dma.c ****   hdma->Lock = HAL_UNLOCKED;
 189:Drivers/STM32F3xx_HAL_Driver/Src/stm32f3xx_hal_dma.c ****   
 190:Drivers/STM32F3xx_HAL_Driver/Src/stm32f3xx_hal_dma.c ****   return HAL_OK;
 191:Drivers/STM32F3xx_HAL_Driver/Src/stm32f3xx_hal_dma.c **** }  
 192:Drivers/STM32F3xx_HAL_Driver/Src/stm32f3xx_hal_dma.c ****   
 193:Drivers/STM32F3xx_HAL_Driver/Src/stm32f3xx_hal_dma.c **** /**
 194:Drivers/STM32F3xx_HAL_Driver/Src/stm32f3xx_hal_dma.c ****   * @brief  DeInitialize the DMA peripheral 
 195:Drivers/STM32F3xx_HAL_Driver/Src/stm32f3xx_hal_dma.c ****   * @param  hdma pointer to a DMA_HandleTypeDef structure that contains
 196:Drivers/STM32F3xx_HAL_Driver/Src/stm32f3xx_hal_dma.c ****   *               the configuration information for the specified DMA Channel.  
 197:Drivers/STM32F3xx_HAL_Driver/Src/stm32f3xx_hal_dma.c ****   * @retval HAL status
 198:Drivers/STM32F3xx_HAL_Driver/Src/stm32f3xx_hal_dma.c ****   */
 199:Drivers/STM32F3xx_HAL_Driver/Src/stm32f3xx_hal_dma.c **** HAL_StatusTypeDef HAL_DMA_DeInit(DMA_HandleTypeDef *hdma)
 200:Drivers/STM32F3xx_HAL_Driver/Src/stm32f3xx_hal_dma.c **** {
 201:Drivers/STM32F3xx_HAL_Driver/Src/stm32f3xx_hal_dma.c ****   /* Check the DMA handle allocation */
ARM GAS  /var/folders/jw/jcj5j9_530958b2rm5vp9wn00000gn/T//ccD0XOAX.s 			page 5


 202:Drivers/STM32F3xx_HAL_Driver/Src/stm32f3xx_hal_dma.c ****   if(NULL == hdma)
 203:Drivers/STM32F3xx_HAL_Driver/Src/stm32f3xx_hal_dma.c ****   {
 204:Drivers/STM32F3xx_HAL_Driver/Src/stm32f3xx_hal_dma.c ****     return HAL_ERROR;
 205:Drivers/STM32F3xx_HAL_Driver/Src/stm32f3xx_hal_dma.c ****   }
 206:Drivers/STM32F3xx_HAL_Driver/Src/stm32f3xx_hal_dma.c ****   
 207:Drivers/STM32F3xx_HAL_Driver/Src/stm32f3xx_hal_dma.c ****   /* Check the parameters */
 208:Drivers/STM32F3xx_HAL_Driver/Src/stm32f3xx_hal_dma.c ****   assert_param(IS_DMA_ALL_INSTANCE(hdma->Instance));
 209:Drivers/STM32F3xx_HAL_Driver/Src/stm32f3xx_hal_dma.c **** 
 210:Drivers/STM32F3xx_HAL_Driver/Src/stm32f3xx_hal_dma.c ****   /* Disable the selected DMA Channelx */
 211:Drivers/STM32F3xx_HAL_Driver/Src/stm32f3xx_hal_dma.c ****   hdma->Instance->CCR &= ~DMA_CCR_EN;
 212:Drivers/STM32F3xx_HAL_Driver/Src/stm32f3xx_hal_dma.c **** 
 213:Drivers/STM32F3xx_HAL_Driver/Src/stm32f3xx_hal_dma.c ****   /* Reset DMA Channel control register */
 214:Drivers/STM32F3xx_HAL_Driver/Src/stm32f3xx_hal_dma.c ****   hdma->Instance->CCR  = 0U;
 215:Drivers/STM32F3xx_HAL_Driver/Src/stm32f3xx_hal_dma.c **** 
 216:Drivers/STM32F3xx_HAL_Driver/Src/stm32f3xx_hal_dma.c ****   /* Reset DMA Channel Number of Data to Transfer register */
 217:Drivers/STM32F3xx_HAL_Driver/Src/stm32f3xx_hal_dma.c ****   hdma->Instance->CNDTR = 0U;
 218:Drivers/STM32F3xx_HAL_Driver/Src/stm32f3xx_hal_dma.c **** 
 219:Drivers/STM32F3xx_HAL_Driver/Src/stm32f3xx_hal_dma.c ****   /* Reset DMA Channel peripheral address register */
 220:Drivers/STM32F3xx_HAL_Driver/Src/stm32f3xx_hal_dma.c ****   hdma->Instance->CPAR  = 0U;
 221:Drivers/STM32F3xx_HAL_Driver/Src/stm32f3xx_hal_dma.c ****   
 222:Drivers/STM32F3xx_HAL_Driver/Src/stm32f3xx_hal_dma.c ****   /* Reset DMA Channel memory address register */
 223:Drivers/STM32F3xx_HAL_Driver/Src/stm32f3xx_hal_dma.c ****   hdma->Instance->CMAR = 0U;
 224:Drivers/STM32F3xx_HAL_Driver/Src/stm32f3xx_hal_dma.c **** 
 225:Drivers/STM32F3xx_HAL_Driver/Src/stm32f3xx_hal_dma.c ****   /* Get DMA Base Address */  
 226:Drivers/STM32F3xx_HAL_Driver/Src/stm32f3xx_hal_dma.c ****   DMA_CalcBaseAndBitshift(hdma);
 227:Drivers/STM32F3xx_HAL_Driver/Src/stm32f3xx_hal_dma.c **** 
 228:Drivers/STM32F3xx_HAL_Driver/Src/stm32f3xx_hal_dma.c ****   /* Clear all flags */
 229:Drivers/STM32F3xx_HAL_Driver/Src/stm32f3xx_hal_dma.c ****   hdma->DmaBaseAddress->IFCR = DMA_FLAG_GL1 << hdma->ChannelIndex;
 230:Drivers/STM32F3xx_HAL_Driver/Src/stm32f3xx_hal_dma.c **** 
 231:Drivers/STM32F3xx_HAL_Driver/Src/stm32f3xx_hal_dma.c ****   /* Clean callbacks */
 232:Drivers/STM32F3xx_HAL_Driver/Src/stm32f3xx_hal_dma.c ****   hdma->XferCpltCallback = NULL;
 233:Drivers/STM32F3xx_HAL_Driver/Src/stm32f3xx_hal_dma.c ****   hdma->XferHalfCpltCallback = NULL;
 234:Drivers/STM32F3xx_HAL_Driver/Src/stm32f3xx_hal_dma.c ****   hdma->XferErrorCallback = NULL;
 235:Drivers/STM32F3xx_HAL_Driver/Src/stm32f3xx_hal_dma.c ****   hdma->XferAbortCallback = NULL;
 236:Drivers/STM32F3xx_HAL_Driver/Src/stm32f3xx_hal_dma.c **** 
 237:Drivers/STM32F3xx_HAL_Driver/Src/stm32f3xx_hal_dma.c ****   /* Reset the error code */
 238:Drivers/STM32F3xx_HAL_Driver/Src/stm32f3xx_hal_dma.c ****   hdma->ErrorCode = HAL_DMA_ERROR_NONE;
 239:Drivers/STM32F3xx_HAL_Driver/Src/stm32f3xx_hal_dma.c **** 
 240:Drivers/STM32F3xx_HAL_Driver/Src/stm32f3xx_hal_dma.c ****   /* Reset the DMA state */
 241:Drivers/STM32F3xx_HAL_Driver/Src/stm32f3xx_hal_dma.c ****   hdma->State = HAL_DMA_STATE_RESET;
 242:Drivers/STM32F3xx_HAL_Driver/Src/stm32f3xx_hal_dma.c **** 
 243:Drivers/STM32F3xx_HAL_Driver/Src/stm32f3xx_hal_dma.c ****   /* Release Lock */
 244:Drivers/STM32F3xx_HAL_Driver/Src/stm32f3xx_hal_dma.c ****   __HAL_UNLOCK(hdma);
 245:Drivers/STM32F3xx_HAL_Driver/Src/stm32f3xx_hal_dma.c **** 
 246:Drivers/STM32F3xx_HAL_Driver/Src/stm32f3xx_hal_dma.c ****   return HAL_OK;
 247:Drivers/STM32F3xx_HAL_Driver/Src/stm32f3xx_hal_dma.c **** }
 248:Drivers/STM32F3xx_HAL_Driver/Src/stm32f3xx_hal_dma.c **** 
 249:Drivers/STM32F3xx_HAL_Driver/Src/stm32f3xx_hal_dma.c **** /**
 250:Drivers/STM32F3xx_HAL_Driver/Src/stm32f3xx_hal_dma.c ****   * @}
 251:Drivers/STM32F3xx_HAL_Driver/Src/stm32f3xx_hal_dma.c ****   */
 252:Drivers/STM32F3xx_HAL_Driver/Src/stm32f3xx_hal_dma.c **** 
 253:Drivers/STM32F3xx_HAL_Driver/Src/stm32f3xx_hal_dma.c **** /** @defgroup DMA_Exported_Functions_Group2 Input and Output operation functions 
 254:Drivers/STM32F3xx_HAL_Driver/Src/stm32f3xx_hal_dma.c ****  *  @brief   I/O operation functions  
 255:Drivers/STM32F3xx_HAL_Driver/Src/stm32f3xx_hal_dma.c ****  *
 256:Drivers/STM32F3xx_HAL_Driver/Src/stm32f3xx_hal_dma.c **** @verbatim   
 257:Drivers/STM32F3xx_HAL_Driver/Src/stm32f3xx_hal_dma.c ****  ===============================================================================
 258:Drivers/STM32F3xx_HAL_Driver/Src/stm32f3xx_hal_dma.c ****                       #####  IO operation functions  #####
ARM GAS  /var/folders/jw/jcj5j9_530958b2rm5vp9wn00000gn/T//ccD0XOAX.s 			page 6


 259:Drivers/STM32F3xx_HAL_Driver/Src/stm32f3xx_hal_dma.c ****  ===============================================================================  
 260:Drivers/STM32F3xx_HAL_Driver/Src/stm32f3xx_hal_dma.c ****     [..]  This section provides functions allowing to:
 261:Drivers/STM32F3xx_HAL_Driver/Src/stm32f3xx_hal_dma.c ****       (+) Configure the source, destination address and data length and Start DMA transfer
 262:Drivers/STM32F3xx_HAL_Driver/Src/stm32f3xx_hal_dma.c ****       (+) Configure the source, destination address and data length and 
 263:Drivers/STM32F3xx_HAL_Driver/Src/stm32f3xx_hal_dma.c ****           Start DMA transfer with interrupt
 264:Drivers/STM32F3xx_HAL_Driver/Src/stm32f3xx_hal_dma.c ****       (+) Abort DMA transfer
 265:Drivers/STM32F3xx_HAL_Driver/Src/stm32f3xx_hal_dma.c ****       (+) Poll for transfer complete
 266:Drivers/STM32F3xx_HAL_Driver/Src/stm32f3xx_hal_dma.c ****       (+) Handle DMA interrupt request  
 267:Drivers/STM32F3xx_HAL_Driver/Src/stm32f3xx_hal_dma.c **** 
 268:Drivers/STM32F3xx_HAL_Driver/Src/stm32f3xx_hal_dma.c **** @endverbatim
 269:Drivers/STM32F3xx_HAL_Driver/Src/stm32f3xx_hal_dma.c ****   * @{
 270:Drivers/STM32F3xx_HAL_Driver/Src/stm32f3xx_hal_dma.c ****   */
 271:Drivers/STM32F3xx_HAL_Driver/Src/stm32f3xx_hal_dma.c **** 
 272:Drivers/STM32F3xx_HAL_Driver/Src/stm32f3xx_hal_dma.c **** /**
 273:Drivers/STM32F3xx_HAL_Driver/Src/stm32f3xx_hal_dma.c ****   * @brief  Start the DMA Transfer.
 274:Drivers/STM32F3xx_HAL_Driver/Src/stm32f3xx_hal_dma.c ****   * @param  hdma      : pointer to a DMA_HandleTypeDef structure that contains
 275:Drivers/STM32F3xx_HAL_Driver/Src/stm32f3xx_hal_dma.c ****   *                     the configuration information for the specified DMA Channel.  
 276:Drivers/STM32F3xx_HAL_Driver/Src/stm32f3xx_hal_dma.c ****   * @param  SrcAddress The source memory Buffer address
 277:Drivers/STM32F3xx_HAL_Driver/Src/stm32f3xx_hal_dma.c ****   * @param  DstAddress The destination memory Buffer address
 278:Drivers/STM32F3xx_HAL_Driver/Src/stm32f3xx_hal_dma.c ****   * @param  DataLength The length of data to be transferred from source to destination
 279:Drivers/STM32F3xx_HAL_Driver/Src/stm32f3xx_hal_dma.c ****   * @retval HAL status
 280:Drivers/STM32F3xx_HAL_Driver/Src/stm32f3xx_hal_dma.c ****   */
 281:Drivers/STM32F3xx_HAL_Driver/Src/stm32f3xx_hal_dma.c **** HAL_StatusTypeDef HAL_DMA_Start(DMA_HandleTypeDef *hdma, uint32_t SrcAddress, uint32_t DstAddress, 
 282:Drivers/STM32F3xx_HAL_Driver/Src/stm32f3xx_hal_dma.c **** {
 283:Drivers/STM32F3xx_HAL_Driver/Src/stm32f3xx_hal_dma.c **** 	HAL_StatusTypeDef status = HAL_OK;
 284:Drivers/STM32F3xx_HAL_Driver/Src/stm32f3xx_hal_dma.c **** 
 285:Drivers/STM32F3xx_HAL_Driver/Src/stm32f3xx_hal_dma.c ****   /* Check the parameters */
 286:Drivers/STM32F3xx_HAL_Driver/Src/stm32f3xx_hal_dma.c ****   assert_param(IS_DMA_BUFFER_SIZE(DataLength));
 287:Drivers/STM32F3xx_HAL_Driver/Src/stm32f3xx_hal_dma.c ****   
 288:Drivers/STM32F3xx_HAL_Driver/Src/stm32f3xx_hal_dma.c ****   /* Process locked */
 289:Drivers/STM32F3xx_HAL_Driver/Src/stm32f3xx_hal_dma.c ****   __HAL_LOCK(hdma);
 290:Drivers/STM32F3xx_HAL_Driver/Src/stm32f3xx_hal_dma.c ****   
 291:Drivers/STM32F3xx_HAL_Driver/Src/stm32f3xx_hal_dma.c ****   if(HAL_DMA_STATE_READY == hdma->State)
 292:Drivers/STM32F3xx_HAL_Driver/Src/stm32f3xx_hal_dma.c ****   {
 293:Drivers/STM32F3xx_HAL_Driver/Src/stm32f3xx_hal_dma.c ****   	/* Change DMA peripheral state */  
 294:Drivers/STM32F3xx_HAL_Driver/Src/stm32f3xx_hal_dma.c ****   	hdma->State = HAL_DMA_STATE_BUSY;
 295:Drivers/STM32F3xx_HAL_Driver/Src/stm32f3xx_hal_dma.c ****   	
 296:Drivers/STM32F3xx_HAL_Driver/Src/stm32f3xx_hal_dma.c ****   	hdma->ErrorCode = HAL_DMA_ERROR_NONE;
 297:Drivers/STM32F3xx_HAL_Driver/Src/stm32f3xx_hal_dma.c ****   	
 298:Drivers/STM32F3xx_HAL_Driver/Src/stm32f3xx_hal_dma.c ****   	/* Disable the peripheral */
 299:Drivers/STM32F3xx_HAL_Driver/Src/stm32f3xx_hal_dma.c ****   	hdma->Instance->CCR &= ~DMA_CCR_EN;  
 300:Drivers/STM32F3xx_HAL_Driver/Src/stm32f3xx_hal_dma.c ****   	
 301:Drivers/STM32F3xx_HAL_Driver/Src/stm32f3xx_hal_dma.c ****   	/* Configure the source, destination address and the data length */
 302:Drivers/STM32F3xx_HAL_Driver/Src/stm32f3xx_hal_dma.c ****   	DMA_SetConfig(hdma, SrcAddress, DstAddress, DataLength);
 303:Drivers/STM32F3xx_HAL_Driver/Src/stm32f3xx_hal_dma.c ****   	
 304:Drivers/STM32F3xx_HAL_Driver/Src/stm32f3xx_hal_dma.c ****   	/* Enable the Peripheral */
 305:Drivers/STM32F3xx_HAL_Driver/Src/stm32f3xx_hal_dma.c ****   	hdma->Instance->CCR |= DMA_CCR_EN;  
 306:Drivers/STM32F3xx_HAL_Driver/Src/stm32f3xx_hal_dma.c ****   }
 307:Drivers/STM32F3xx_HAL_Driver/Src/stm32f3xx_hal_dma.c ****   else
 308:Drivers/STM32F3xx_HAL_Driver/Src/stm32f3xx_hal_dma.c ****   {
 309:Drivers/STM32F3xx_HAL_Driver/Src/stm32f3xx_hal_dma.c ****   	/* Process Unlocked */
 310:Drivers/STM32F3xx_HAL_Driver/Src/stm32f3xx_hal_dma.c ****   	__HAL_UNLOCK(hdma);
 311:Drivers/STM32F3xx_HAL_Driver/Src/stm32f3xx_hal_dma.c ****   	
 312:Drivers/STM32F3xx_HAL_Driver/Src/stm32f3xx_hal_dma.c ****   	/* Remain BUSY */
 313:Drivers/STM32F3xx_HAL_Driver/Src/stm32f3xx_hal_dma.c ****   	status = HAL_BUSY;
 314:Drivers/STM32F3xx_HAL_Driver/Src/stm32f3xx_hal_dma.c ****   }  
 315:Drivers/STM32F3xx_HAL_Driver/Src/stm32f3xx_hal_dma.c **** 
ARM GAS  /var/folders/jw/jcj5j9_530958b2rm5vp9wn00000gn/T//ccD0XOAX.s 			page 7


 316:Drivers/STM32F3xx_HAL_Driver/Src/stm32f3xx_hal_dma.c ****   return status; 
 317:Drivers/STM32F3xx_HAL_Driver/Src/stm32f3xx_hal_dma.c **** } 
 318:Drivers/STM32F3xx_HAL_Driver/Src/stm32f3xx_hal_dma.c **** 
 319:Drivers/STM32F3xx_HAL_Driver/Src/stm32f3xx_hal_dma.c **** /**
 320:Drivers/STM32F3xx_HAL_Driver/Src/stm32f3xx_hal_dma.c ****   * @brief  Start the DMA Transfer with interrupt enabled.
 321:Drivers/STM32F3xx_HAL_Driver/Src/stm32f3xx_hal_dma.c ****   * @param  hdma       pointer to a DMA_HandleTypeDef structure that contains
 322:Drivers/STM32F3xx_HAL_Driver/Src/stm32f3xx_hal_dma.c ****   *                     the configuration information for the specified DMA Channel.  
 323:Drivers/STM32F3xx_HAL_Driver/Src/stm32f3xx_hal_dma.c ****   * @param  SrcAddress The source memory Buffer address
 324:Drivers/STM32F3xx_HAL_Driver/Src/stm32f3xx_hal_dma.c ****   * @param  DstAddress The destination memory Buffer address
 325:Drivers/STM32F3xx_HAL_Driver/Src/stm32f3xx_hal_dma.c ****   * @param  DataLength The length of data to be transferred from source to destination
 326:Drivers/STM32F3xx_HAL_Driver/Src/stm32f3xx_hal_dma.c ****   * @retval HAL status
 327:Drivers/STM32F3xx_HAL_Driver/Src/stm32f3xx_hal_dma.c ****   */
 328:Drivers/STM32F3xx_HAL_Driver/Src/stm32f3xx_hal_dma.c **** HAL_StatusTypeDef HAL_DMA_Start_IT(DMA_HandleTypeDef *hdma, uint32_t SrcAddress, uint32_t DstAddres
 329:Drivers/STM32F3xx_HAL_Driver/Src/stm32f3xx_hal_dma.c **** {
 330:Drivers/STM32F3xx_HAL_Driver/Src/stm32f3xx_hal_dma.c **** 	HAL_StatusTypeDef status = HAL_OK;
 331:Drivers/STM32F3xx_HAL_Driver/Src/stm32f3xx_hal_dma.c **** 
 332:Drivers/STM32F3xx_HAL_Driver/Src/stm32f3xx_hal_dma.c ****   /* Check the parameters */
 333:Drivers/STM32F3xx_HAL_Driver/Src/stm32f3xx_hal_dma.c ****   assert_param(IS_DMA_BUFFER_SIZE(DataLength));
 334:Drivers/STM32F3xx_HAL_Driver/Src/stm32f3xx_hal_dma.c ****   
 335:Drivers/STM32F3xx_HAL_Driver/Src/stm32f3xx_hal_dma.c ****   /* Process locked */
 336:Drivers/STM32F3xx_HAL_Driver/Src/stm32f3xx_hal_dma.c ****   __HAL_LOCK(hdma);
 337:Drivers/STM32F3xx_HAL_Driver/Src/stm32f3xx_hal_dma.c ****   
 338:Drivers/STM32F3xx_HAL_Driver/Src/stm32f3xx_hal_dma.c ****   if(HAL_DMA_STATE_READY == hdma->State)
 339:Drivers/STM32F3xx_HAL_Driver/Src/stm32f3xx_hal_dma.c ****   {
 340:Drivers/STM32F3xx_HAL_Driver/Src/stm32f3xx_hal_dma.c ****   	/* Change DMA peripheral state */  
 341:Drivers/STM32F3xx_HAL_Driver/Src/stm32f3xx_hal_dma.c ****   	hdma->State = HAL_DMA_STATE_BUSY;
 342:Drivers/STM32F3xx_HAL_Driver/Src/stm32f3xx_hal_dma.c ****   	
 343:Drivers/STM32F3xx_HAL_Driver/Src/stm32f3xx_hal_dma.c ****   	hdma->ErrorCode = HAL_DMA_ERROR_NONE;
 344:Drivers/STM32F3xx_HAL_Driver/Src/stm32f3xx_hal_dma.c ****   	
 345:Drivers/STM32F3xx_HAL_Driver/Src/stm32f3xx_hal_dma.c ****   	/* Disable the peripheral */
 346:Drivers/STM32F3xx_HAL_Driver/Src/stm32f3xx_hal_dma.c ****   	hdma->Instance->CCR &= ~DMA_CCR_EN;
 347:Drivers/STM32F3xx_HAL_Driver/Src/stm32f3xx_hal_dma.c ****   	
 348:Drivers/STM32F3xx_HAL_Driver/Src/stm32f3xx_hal_dma.c ****   	/* Configure the source, destination address and the data length */  
 349:Drivers/STM32F3xx_HAL_Driver/Src/stm32f3xx_hal_dma.c ****   	DMA_SetConfig(hdma, SrcAddress, DstAddress, DataLength);
 350:Drivers/STM32F3xx_HAL_Driver/Src/stm32f3xx_hal_dma.c ****   	
 351:Drivers/STM32F3xx_HAL_Driver/Src/stm32f3xx_hal_dma.c ****   	/* Enable the transfer complete, & transfer error interrupts */
 352:Drivers/STM32F3xx_HAL_Driver/Src/stm32f3xx_hal_dma.c ****   	/* Half transfer interrupt is optional: enable it only if associated callback is available */
 353:Drivers/STM32F3xx_HAL_Driver/Src/stm32f3xx_hal_dma.c ****     if(NULL != hdma->XferHalfCpltCallback )
 354:Drivers/STM32F3xx_HAL_Driver/Src/stm32f3xx_hal_dma.c ****     {
 355:Drivers/STM32F3xx_HAL_Driver/Src/stm32f3xx_hal_dma.c ****       hdma->Instance->CCR |= (DMA_IT_TC | DMA_IT_HT | DMA_IT_TE);
 356:Drivers/STM32F3xx_HAL_Driver/Src/stm32f3xx_hal_dma.c ****     }
 357:Drivers/STM32F3xx_HAL_Driver/Src/stm32f3xx_hal_dma.c ****   	else
 358:Drivers/STM32F3xx_HAL_Driver/Src/stm32f3xx_hal_dma.c ****   	{
 359:Drivers/STM32F3xx_HAL_Driver/Src/stm32f3xx_hal_dma.c ****   		hdma->Instance->CCR |= (DMA_IT_TC | DMA_IT_TE);
 360:Drivers/STM32F3xx_HAL_Driver/Src/stm32f3xx_hal_dma.c ****   		hdma->Instance->CCR &= ~DMA_IT_HT;
 361:Drivers/STM32F3xx_HAL_Driver/Src/stm32f3xx_hal_dma.c ****   	}
 362:Drivers/STM32F3xx_HAL_Driver/Src/stm32f3xx_hal_dma.c ****   	
 363:Drivers/STM32F3xx_HAL_Driver/Src/stm32f3xx_hal_dma.c ****   	/* Enable the Peripheral */
 364:Drivers/STM32F3xx_HAL_Driver/Src/stm32f3xx_hal_dma.c ****   	hdma->Instance->CCR |= DMA_CCR_EN;
 365:Drivers/STM32F3xx_HAL_Driver/Src/stm32f3xx_hal_dma.c ****   }
 366:Drivers/STM32F3xx_HAL_Driver/Src/stm32f3xx_hal_dma.c ****   else
 367:Drivers/STM32F3xx_HAL_Driver/Src/stm32f3xx_hal_dma.c ****   {
 368:Drivers/STM32F3xx_HAL_Driver/Src/stm32f3xx_hal_dma.c ****   	/* Process Unlocked */
 369:Drivers/STM32F3xx_HAL_Driver/Src/stm32f3xx_hal_dma.c ****     __HAL_UNLOCK(hdma); 
 370:Drivers/STM32F3xx_HAL_Driver/Src/stm32f3xx_hal_dma.c ****   
 371:Drivers/STM32F3xx_HAL_Driver/Src/stm32f3xx_hal_dma.c ****     /* Remain BUSY */
 372:Drivers/STM32F3xx_HAL_Driver/Src/stm32f3xx_hal_dma.c ****     status = HAL_BUSY;
ARM GAS  /var/folders/jw/jcj5j9_530958b2rm5vp9wn00000gn/T//ccD0XOAX.s 			page 8


 373:Drivers/STM32F3xx_HAL_Driver/Src/stm32f3xx_hal_dma.c ****   }     
 374:Drivers/STM32F3xx_HAL_Driver/Src/stm32f3xx_hal_dma.c ****   
 375:Drivers/STM32F3xx_HAL_Driver/Src/stm32f3xx_hal_dma.c ****   return status;    
 376:Drivers/STM32F3xx_HAL_Driver/Src/stm32f3xx_hal_dma.c **** } 
 377:Drivers/STM32F3xx_HAL_Driver/Src/stm32f3xx_hal_dma.c **** 
 378:Drivers/STM32F3xx_HAL_Driver/Src/stm32f3xx_hal_dma.c **** /**
 379:Drivers/STM32F3xx_HAL_Driver/Src/stm32f3xx_hal_dma.c ****   * @brief  Abort the DMA Transfer.
 380:Drivers/STM32F3xx_HAL_Driver/Src/stm32f3xx_hal_dma.c ****   * @param  hdma  : pointer to a DMA_HandleTypeDef structure that contains
 381:Drivers/STM32F3xx_HAL_Driver/Src/stm32f3xx_hal_dma.c ****   *                 the configuration information for the specified DMA Channel.
 382:Drivers/STM32F3xx_HAL_Driver/Src/stm32f3xx_hal_dma.c ****   * @retval HAL status
 383:Drivers/STM32F3xx_HAL_Driver/Src/stm32f3xx_hal_dma.c ****   */
 384:Drivers/STM32F3xx_HAL_Driver/Src/stm32f3xx_hal_dma.c **** HAL_StatusTypeDef HAL_DMA_Abort(DMA_HandleTypeDef *hdma)
 385:Drivers/STM32F3xx_HAL_Driver/Src/stm32f3xx_hal_dma.c **** {
 386:Drivers/STM32F3xx_HAL_Driver/Src/stm32f3xx_hal_dma.c ****   if(hdma->State != HAL_DMA_STATE_BUSY)
 387:Drivers/STM32F3xx_HAL_Driver/Src/stm32f3xx_hal_dma.c ****   {
 388:Drivers/STM32F3xx_HAL_Driver/Src/stm32f3xx_hal_dma.c ****     /* no transfer ongoing */
 389:Drivers/STM32F3xx_HAL_Driver/Src/stm32f3xx_hal_dma.c ****     hdma->ErrorCode = HAL_DMA_ERROR_NO_XFER;
 390:Drivers/STM32F3xx_HAL_Driver/Src/stm32f3xx_hal_dma.c ****     
 391:Drivers/STM32F3xx_HAL_Driver/Src/stm32f3xx_hal_dma.c ****     /* Process Unlocked */
 392:Drivers/STM32F3xx_HAL_Driver/Src/stm32f3xx_hal_dma.c ****     __HAL_UNLOCK(hdma);
 393:Drivers/STM32F3xx_HAL_Driver/Src/stm32f3xx_hal_dma.c ****     
 394:Drivers/STM32F3xx_HAL_Driver/Src/stm32f3xx_hal_dma.c ****     return HAL_ERROR;
 395:Drivers/STM32F3xx_HAL_Driver/Src/stm32f3xx_hal_dma.c ****   }
 396:Drivers/STM32F3xx_HAL_Driver/Src/stm32f3xx_hal_dma.c ****   else
 397:Drivers/STM32F3xx_HAL_Driver/Src/stm32f3xx_hal_dma.c ****   {
 398:Drivers/STM32F3xx_HAL_Driver/Src/stm32f3xx_hal_dma.c ****     /* Disable DMA IT */
 399:Drivers/STM32F3xx_HAL_Driver/Src/stm32f3xx_hal_dma.c ****      hdma->Instance->CCR &= ~(DMA_IT_TC | DMA_IT_HT | DMA_IT_TE);
 400:Drivers/STM32F3xx_HAL_Driver/Src/stm32f3xx_hal_dma.c ****     
 401:Drivers/STM32F3xx_HAL_Driver/Src/stm32f3xx_hal_dma.c ****     /* Disable the channel */
 402:Drivers/STM32F3xx_HAL_Driver/Src/stm32f3xx_hal_dma.c ****     hdma->Instance->CCR &= ~DMA_CCR_EN;
 403:Drivers/STM32F3xx_HAL_Driver/Src/stm32f3xx_hal_dma.c ****     
 404:Drivers/STM32F3xx_HAL_Driver/Src/stm32f3xx_hal_dma.c ****     /* Clear all flags */
 405:Drivers/STM32F3xx_HAL_Driver/Src/stm32f3xx_hal_dma.c ****     hdma->DmaBaseAddress->IFCR = (DMA_FLAG_GL1 << hdma->ChannelIndex);
 406:Drivers/STM32F3xx_HAL_Driver/Src/stm32f3xx_hal_dma.c ****   }
 407:Drivers/STM32F3xx_HAL_Driver/Src/stm32f3xx_hal_dma.c ****   /* Change the DMA state*/
 408:Drivers/STM32F3xx_HAL_Driver/Src/stm32f3xx_hal_dma.c ****   hdma->State = HAL_DMA_STATE_READY; 
 409:Drivers/STM32F3xx_HAL_Driver/Src/stm32f3xx_hal_dma.c ****   
 410:Drivers/STM32F3xx_HAL_Driver/Src/stm32f3xx_hal_dma.c ****   /* Process Unlocked */
 411:Drivers/STM32F3xx_HAL_Driver/Src/stm32f3xx_hal_dma.c ****   __HAL_UNLOCK(hdma);
 412:Drivers/STM32F3xx_HAL_Driver/Src/stm32f3xx_hal_dma.c ****   
 413:Drivers/STM32F3xx_HAL_Driver/Src/stm32f3xx_hal_dma.c ****   return HAL_OK;
 414:Drivers/STM32F3xx_HAL_Driver/Src/stm32f3xx_hal_dma.c **** }
 415:Drivers/STM32F3xx_HAL_Driver/Src/stm32f3xx_hal_dma.c **** 
 416:Drivers/STM32F3xx_HAL_Driver/Src/stm32f3xx_hal_dma.c **** /**
 417:Drivers/STM32F3xx_HAL_Driver/Src/stm32f3xx_hal_dma.c ****   * @brief  Abort the DMA Transfer in Interrupt mode.
 418:Drivers/STM32F3xx_HAL_Driver/Src/stm32f3xx_hal_dma.c ****   * @param  hdma  : pointer to a DMA_HandleTypeDef structure that contains
 419:Drivers/STM32F3xx_HAL_Driver/Src/stm32f3xx_hal_dma.c ****   *                 the configuration information for the specified DMA Stream.
 420:Drivers/STM32F3xx_HAL_Driver/Src/stm32f3xx_hal_dma.c ****   * @retval HAL status
 421:Drivers/STM32F3xx_HAL_Driver/Src/stm32f3xx_hal_dma.c ****   */
 422:Drivers/STM32F3xx_HAL_Driver/Src/stm32f3xx_hal_dma.c **** HAL_StatusTypeDef HAL_DMA_Abort_IT(DMA_HandleTypeDef *hdma)
 423:Drivers/STM32F3xx_HAL_Driver/Src/stm32f3xx_hal_dma.c **** {  
 424:Drivers/STM32F3xx_HAL_Driver/Src/stm32f3xx_hal_dma.c ****   HAL_StatusTypeDef status = HAL_OK;
 425:Drivers/STM32F3xx_HAL_Driver/Src/stm32f3xx_hal_dma.c ****   
 426:Drivers/STM32F3xx_HAL_Driver/Src/stm32f3xx_hal_dma.c ****   if(HAL_DMA_STATE_BUSY != hdma->State)
 427:Drivers/STM32F3xx_HAL_Driver/Src/stm32f3xx_hal_dma.c ****   {
 428:Drivers/STM32F3xx_HAL_Driver/Src/stm32f3xx_hal_dma.c ****     /* no transfer ongoing */
 429:Drivers/STM32F3xx_HAL_Driver/Src/stm32f3xx_hal_dma.c ****     hdma->ErrorCode = HAL_DMA_ERROR_NO_XFER;
ARM GAS  /var/folders/jw/jcj5j9_530958b2rm5vp9wn00000gn/T//ccD0XOAX.s 			page 9


 430:Drivers/STM32F3xx_HAL_Driver/Src/stm32f3xx_hal_dma.c ****         
 431:Drivers/STM32F3xx_HAL_Driver/Src/stm32f3xx_hal_dma.c ****     status = HAL_ERROR;
 432:Drivers/STM32F3xx_HAL_Driver/Src/stm32f3xx_hal_dma.c ****   }
 433:Drivers/STM32F3xx_HAL_Driver/Src/stm32f3xx_hal_dma.c ****   else
 434:Drivers/STM32F3xx_HAL_Driver/Src/stm32f3xx_hal_dma.c ****   { 
 435:Drivers/STM32F3xx_HAL_Driver/Src/stm32f3xx_hal_dma.c ****   
 436:Drivers/STM32F3xx_HAL_Driver/Src/stm32f3xx_hal_dma.c ****     /* Disable DMA IT */
 437:Drivers/STM32F3xx_HAL_Driver/Src/stm32f3xx_hal_dma.c ****     hdma->Instance->CCR &= ~(DMA_IT_TC | DMA_IT_HT | DMA_IT_TE);
 438:Drivers/STM32F3xx_HAL_Driver/Src/stm32f3xx_hal_dma.c ****     
 439:Drivers/STM32F3xx_HAL_Driver/Src/stm32f3xx_hal_dma.c ****     /* Disable the channel */
 440:Drivers/STM32F3xx_HAL_Driver/Src/stm32f3xx_hal_dma.c ****     hdma->Instance->CCR &= ~DMA_CCR_EN;
 441:Drivers/STM32F3xx_HAL_Driver/Src/stm32f3xx_hal_dma.c ****     
 442:Drivers/STM32F3xx_HAL_Driver/Src/stm32f3xx_hal_dma.c ****     /* Clear all flags */
 443:Drivers/STM32F3xx_HAL_Driver/Src/stm32f3xx_hal_dma.c ****     hdma->DmaBaseAddress->IFCR = DMA_FLAG_GL1 << hdma->ChannelIndex;
 444:Drivers/STM32F3xx_HAL_Driver/Src/stm32f3xx_hal_dma.c ****     
 445:Drivers/STM32F3xx_HAL_Driver/Src/stm32f3xx_hal_dma.c ****     /* Change the DMA state */
 446:Drivers/STM32F3xx_HAL_Driver/Src/stm32f3xx_hal_dma.c ****     hdma->State = HAL_DMA_STATE_READY;
 447:Drivers/STM32F3xx_HAL_Driver/Src/stm32f3xx_hal_dma.c ****     
 448:Drivers/STM32F3xx_HAL_Driver/Src/stm32f3xx_hal_dma.c ****     /* Process Unlocked */
 449:Drivers/STM32F3xx_HAL_Driver/Src/stm32f3xx_hal_dma.c ****     __HAL_UNLOCK(hdma);
 450:Drivers/STM32F3xx_HAL_Driver/Src/stm32f3xx_hal_dma.c ****     
 451:Drivers/STM32F3xx_HAL_Driver/Src/stm32f3xx_hal_dma.c ****     /* Call User Abort callback */ 
 452:Drivers/STM32F3xx_HAL_Driver/Src/stm32f3xx_hal_dma.c ****     if(hdma->XferAbortCallback != NULL)
 453:Drivers/STM32F3xx_HAL_Driver/Src/stm32f3xx_hal_dma.c ****     {
 454:Drivers/STM32F3xx_HAL_Driver/Src/stm32f3xx_hal_dma.c ****       hdma->XferAbortCallback(hdma);
 455:Drivers/STM32F3xx_HAL_Driver/Src/stm32f3xx_hal_dma.c ****     } 
 456:Drivers/STM32F3xx_HAL_Driver/Src/stm32f3xx_hal_dma.c ****   }
 457:Drivers/STM32F3xx_HAL_Driver/Src/stm32f3xx_hal_dma.c ****   return status;
 458:Drivers/STM32F3xx_HAL_Driver/Src/stm32f3xx_hal_dma.c **** }
 459:Drivers/STM32F3xx_HAL_Driver/Src/stm32f3xx_hal_dma.c **** 
 460:Drivers/STM32F3xx_HAL_Driver/Src/stm32f3xx_hal_dma.c **** /**
 461:Drivers/STM32F3xx_HAL_Driver/Src/stm32f3xx_hal_dma.c ****   * @brief  Polling for transfer complete.
 462:Drivers/STM32F3xx_HAL_Driver/Src/stm32f3xx_hal_dma.c ****   * @param  hdma    pointer to a DMA_HandleTypeDef structure that contains
 463:Drivers/STM32F3xx_HAL_Driver/Src/stm32f3xx_hal_dma.c ****   *                  the configuration information for the specified DMA Channel.
 464:Drivers/STM32F3xx_HAL_Driver/Src/stm32f3xx_hal_dma.c ****   * @param  CompleteLevel Specifies the DMA level complete.  
 465:Drivers/STM32F3xx_HAL_Driver/Src/stm32f3xx_hal_dma.c ****   * @param  Timeout       Timeout duration.
 466:Drivers/STM32F3xx_HAL_Driver/Src/stm32f3xx_hal_dma.c ****   * @retval HAL status
 467:Drivers/STM32F3xx_HAL_Driver/Src/stm32f3xx_hal_dma.c ****   */
 468:Drivers/STM32F3xx_HAL_Driver/Src/stm32f3xx_hal_dma.c **** HAL_StatusTypeDef HAL_DMA_PollForTransfer(DMA_HandleTypeDef *hdma, uint32_t CompleteLevel, uint32_t
 469:Drivers/STM32F3xx_HAL_Driver/Src/stm32f3xx_hal_dma.c **** {
 470:Drivers/STM32F3xx_HAL_Driver/Src/stm32f3xx_hal_dma.c ****   uint32_t temp;
 471:Drivers/STM32F3xx_HAL_Driver/Src/stm32f3xx_hal_dma.c ****   uint32_t tickstart = 0U;
 472:Drivers/STM32F3xx_HAL_Driver/Src/stm32f3xx_hal_dma.c ****   
 473:Drivers/STM32F3xx_HAL_Driver/Src/stm32f3xx_hal_dma.c ****   if(HAL_DMA_STATE_BUSY != hdma->State)
 474:Drivers/STM32F3xx_HAL_Driver/Src/stm32f3xx_hal_dma.c ****   {
 475:Drivers/STM32F3xx_HAL_Driver/Src/stm32f3xx_hal_dma.c ****     /* no transfer ongoing */
 476:Drivers/STM32F3xx_HAL_Driver/Src/stm32f3xx_hal_dma.c ****     hdma->ErrorCode = HAL_DMA_ERROR_NO_XFER;
 477:Drivers/STM32F3xx_HAL_Driver/Src/stm32f3xx_hal_dma.c ****     __HAL_UNLOCK(hdma);
 478:Drivers/STM32F3xx_HAL_Driver/Src/stm32f3xx_hal_dma.c ****     return HAL_ERROR;
 479:Drivers/STM32F3xx_HAL_Driver/Src/stm32f3xx_hal_dma.c ****   }
 480:Drivers/STM32F3xx_HAL_Driver/Src/stm32f3xx_hal_dma.c ****   
 481:Drivers/STM32F3xx_HAL_Driver/Src/stm32f3xx_hal_dma.c ****   /* Polling mode not supported in circular mode */
 482:Drivers/STM32F3xx_HAL_Driver/Src/stm32f3xx_hal_dma.c ****   if (RESET != (hdma->Instance->CCR & DMA_CCR_CIRC))
 483:Drivers/STM32F3xx_HAL_Driver/Src/stm32f3xx_hal_dma.c ****   {
 484:Drivers/STM32F3xx_HAL_Driver/Src/stm32f3xx_hal_dma.c ****     hdma->ErrorCode = HAL_DMA_ERROR_NOT_SUPPORTED;
 485:Drivers/STM32F3xx_HAL_Driver/Src/stm32f3xx_hal_dma.c ****     return HAL_ERROR;
 486:Drivers/STM32F3xx_HAL_Driver/Src/stm32f3xx_hal_dma.c ****   }
ARM GAS  /var/folders/jw/jcj5j9_530958b2rm5vp9wn00000gn/T//ccD0XOAX.s 			page 10


 487:Drivers/STM32F3xx_HAL_Driver/Src/stm32f3xx_hal_dma.c ****   
 488:Drivers/STM32F3xx_HAL_Driver/Src/stm32f3xx_hal_dma.c ****   /* Get the level transfer complete flag */
 489:Drivers/STM32F3xx_HAL_Driver/Src/stm32f3xx_hal_dma.c ****   if(HAL_DMA_FULL_TRANSFER == CompleteLevel)
 490:Drivers/STM32F3xx_HAL_Driver/Src/stm32f3xx_hal_dma.c ****   {
 491:Drivers/STM32F3xx_HAL_Driver/Src/stm32f3xx_hal_dma.c ****     /* Transfer Complete flag */
 492:Drivers/STM32F3xx_HAL_Driver/Src/stm32f3xx_hal_dma.c ****     temp = DMA_FLAG_TC1 << hdma->ChannelIndex;
 493:Drivers/STM32F3xx_HAL_Driver/Src/stm32f3xx_hal_dma.c ****   }
 494:Drivers/STM32F3xx_HAL_Driver/Src/stm32f3xx_hal_dma.c ****   else
 495:Drivers/STM32F3xx_HAL_Driver/Src/stm32f3xx_hal_dma.c ****   {
 496:Drivers/STM32F3xx_HAL_Driver/Src/stm32f3xx_hal_dma.c ****     /* Half Transfer Complete flag */
 497:Drivers/STM32F3xx_HAL_Driver/Src/stm32f3xx_hal_dma.c ****     temp = DMA_FLAG_HT1 << hdma->ChannelIndex;
 498:Drivers/STM32F3xx_HAL_Driver/Src/stm32f3xx_hal_dma.c ****   }
 499:Drivers/STM32F3xx_HAL_Driver/Src/stm32f3xx_hal_dma.c **** 
 500:Drivers/STM32F3xx_HAL_Driver/Src/stm32f3xx_hal_dma.c ****   /* Get tick */
 501:Drivers/STM32F3xx_HAL_Driver/Src/stm32f3xx_hal_dma.c ****   tickstart = HAL_GetTick();
 502:Drivers/STM32F3xx_HAL_Driver/Src/stm32f3xx_hal_dma.c **** 
 503:Drivers/STM32F3xx_HAL_Driver/Src/stm32f3xx_hal_dma.c ****   while(RESET == (hdma->DmaBaseAddress->ISR & temp))
 504:Drivers/STM32F3xx_HAL_Driver/Src/stm32f3xx_hal_dma.c ****   {
 505:Drivers/STM32F3xx_HAL_Driver/Src/stm32f3xx_hal_dma.c ****     if(RESET != (hdma->DmaBaseAddress->ISR & (DMA_FLAG_TE1 << hdma->ChannelIndex)))
 506:Drivers/STM32F3xx_HAL_Driver/Src/stm32f3xx_hal_dma.c ****     {      
 507:Drivers/STM32F3xx_HAL_Driver/Src/stm32f3xx_hal_dma.c ****       /* When a DMA transfer error occurs */
 508:Drivers/STM32F3xx_HAL_Driver/Src/stm32f3xx_hal_dma.c ****       /* A hardware clear of its EN bits is performed */
 509:Drivers/STM32F3xx_HAL_Driver/Src/stm32f3xx_hal_dma.c ****       /* Clear all flags */
 510:Drivers/STM32F3xx_HAL_Driver/Src/stm32f3xx_hal_dma.c ****       hdma->DmaBaseAddress->IFCR = DMA_FLAG_GL1 << hdma->ChannelIndex;
 511:Drivers/STM32F3xx_HAL_Driver/Src/stm32f3xx_hal_dma.c ****       
 512:Drivers/STM32F3xx_HAL_Driver/Src/stm32f3xx_hal_dma.c ****       /* Update error code */
 513:Drivers/STM32F3xx_HAL_Driver/Src/stm32f3xx_hal_dma.c ****       hdma->ErrorCode = HAL_DMA_ERROR_TE;
 514:Drivers/STM32F3xx_HAL_Driver/Src/stm32f3xx_hal_dma.c **** 
 515:Drivers/STM32F3xx_HAL_Driver/Src/stm32f3xx_hal_dma.c ****       /* Change the DMA state */
 516:Drivers/STM32F3xx_HAL_Driver/Src/stm32f3xx_hal_dma.c ****       hdma->State= HAL_DMA_STATE_READY;       
 517:Drivers/STM32F3xx_HAL_Driver/Src/stm32f3xx_hal_dma.c ****       
 518:Drivers/STM32F3xx_HAL_Driver/Src/stm32f3xx_hal_dma.c ****       /* Process Unlocked */
 519:Drivers/STM32F3xx_HAL_Driver/Src/stm32f3xx_hal_dma.c ****       __HAL_UNLOCK(hdma);
 520:Drivers/STM32F3xx_HAL_Driver/Src/stm32f3xx_hal_dma.c ****       
 521:Drivers/STM32F3xx_HAL_Driver/Src/stm32f3xx_hal_dma.c ****       return HAL_ERROR;      
 522:Drivers/STM32F3xx_HAL_Driver/Src/stm32f3xx_hal_dma.c ****     }      
 523:Drivers/STM32F3xx_HAL_Driver/Src/stm32f3xx_hal_dma.c ****     /* Check for the Timeout */
 524:Drivers/STM32F3xx_HAL_Driver/Src/stm32f3xx_hal_dma.c ****     if(Timeout != HAL_MAX_DELAY)
 525:Drivers/STM32F3xx_HAL_Driver/Src/stm32f3xx_hal_dma.c ****     {
 526:Drivers/STM32F3xx_HAL_Driver/Src/stm32f3xx_hal_dma.c ****       if((Timeout == 0U) || ((HAL_GetTick() - tickstart) > Timeout))
 527:Drivers/STM32F3xx_HAL_Driver/Src/stm32f3xx_hal_dma.c ****       {
 528:Drivers/STM32F3xx_HAL_Driver/Src/stm32f3xx_hal_dma.c ****         /* Update error code */
 529:Drivers/STM32F3xx_HAL_Driver/Src/stm32f3xx_hal_dma.c ****         hdma->ErrorCode = HAL_DMA_ERROR_TIMEOUT;
 530:Drivers/STM32F3xx_HAL_Driver/Src/stm32f3xx_hal_dma.c ****         
 531:Drivers/STM32F3xx_HAL_Driver/Src/stm32f3xx_hal_dma.c ****         /* Change the DMA state */
 532:Drivers/STM32F3xx_HAL_Driver/Src/stm32f3xx_hal_dma.c ****         hdma->State = HAL_DMA_STATE_READY;
 533:Drivers/STM32F3xx_HAL_Driver/Src/stm32f3xx_hal_dma.c **** 
 534:Drivers/STM32F3xx_HAL_Driver/Src/stm32f3xx_hal_dma.c ****         /* Process Unlocked */
 535:Drivers/STM32F3xx_HAL_Driver/Src/stm32f3xx_hal_dma.c ****         __HAL_UNLOCK(hdma);
 536:Drivers/STM32F3xx_HAL_Driver/Src/stm32f3xx_hal_dma.c **** 
 537:Drivers/STM32F3xx_HAL_Driver/Src/stm32f3xx_hal_dma.c ****         return HAL_ERROR;
 538:Drivers/STM32F3xx_HAL_Driver/Src/stm32f3xx_hal_dma.c ****       }
 539:Drivers/STM32F3xx_HAL_Driver/Src/stm32f3xx_hal_dma.c ****     }
 540:Drivers/STM32F3xx_HAL_Driver/Src/stm32f3xx_hal_dma.c ****   }
 541:Drivers/STM32F3xx_HAL_Driver/Src/stm32f3xx_hal_dma.c **** 
 542:Drivers/STM32F3xx_HAL_Driver/Src/stm32f3xx_hal_dma.c ****   if(HAL_DMA_FULL_TRANSFER == CompleteLevel)
 543:Drivers/STM32F3xx_HAL_Driver/Src/stm32f3xx_hal_dma.c ****   {
ARM GAS  /var/folders/jw/jcj5j9_530958b2rm5vp9wn00000gn/T//ccD0XOAX.s 			page 11


 544:Drivers/STM32F3xx_HAL_Driver/Src/stm32f3xx_hal_dma.c ****     /* Clear the transfer complete flag */
 545:Drivers/STM32F3xx_HAL_Driver/Src/stm32f3xx_hal_dma.c ****     hdma->DmaBaseAddress->IFCR = DMA_FLAG_TC1 << hdma->ChannelIndex;
 546:Drivers/STM32F3xx_HAL_Driver/Src/stm32f3xx_hal_dma.c **** 
 547:Drivers/STM32F3xx_HAL_Driver/Src/stm32f3xx_hal_dma.c ****     /* The selected Channelx EN bit is cleared (DMA is disabled and 
 548:Drivers/STM32F3xx_HAL_Driver/Src/stm32f3xx_hal_dma.c ****     all transfers are complete) */
 549:Drivers/STM32F3xx_HAL_Driver/Src/stm32f3xx_hal_dma.c ****     hdma->State = HAL_DMA_STATE_READY;
 550:Drivers/STM32F3xx_HAL_Driver/Src/stm32f3xx_hal_dma.c ****   }
 551:Drivers/STM32F3xx_HAL_Driver/Src/stm32f3xx_hal_dma.c ****   else
 552:Drivers/STM32F3xx_HAL_Driver/Src/stm32f3xx_hal_dma.c ****   { 
 553:Drivers/STM32F3xx_HAL_Driver/Src/stm32f3xx_hal_dma.c ****     /* Clear the half transfer complete flag */
 554:Drivers/STM32F3xx_HAL_Driver/Src/stm32f3xx_hal_dma.c ****     hdma->DmaBaseAddress->IFCR = DMA_FLAG_HT1 << hdma->ChannelIndex;
 555:Drivers/STM32F3xx_HAL_Driver/Src/stm32f3xx_hal_dma.c ****   }
 556:Drivers/STM32F3xx_HAL_Driver/Src/stm32f3xx_hal_dma.c ****   
 557:Drivers/STM32F3xx_HAL_Driver/Src/stm32f3xx_hal_dma.c ****   /* Process unlocked */
 558:Drivers/STM32F3xx_HAL_Driver/Src/stm32f3xx_hal_dma.c ****   __HAL_UNLOCK(hdma);  
 559:Drivers/STM32F3xx_HAL_Driver/Src/stm32f3xx_hal_dma.c **** 
 560:Drivers/STM32F3xx_HAL_Driver/Src/stm32f3xx_hal_dma.c ****   return HAL_OK;
 561:Drivers/STM32F3xx_HAL_Driver/Src/stm32f3xx_hal_dma.c **** }
 562:Drivers/STM32F3xx_HAL_Driver/Src/stm32f3xx_hal_dma.c **** 
 563:Drivers/STM32F3xx_HAL_Driver/Src/stm32f3xx_hal_dma.c **** /**
 564:Drivers/STM32F3xx_HAL_Driver/Src/stm32f3xx_hal_dma.c ****   * @brief  Handle DMA interrupt request.
 565:Drivers/STM32F3xx_HAL_Driver/Src/stm32f3xx_hal_dma.c ****   * @param  hdma pointer to a DMA_HandleTypeDef structure that contains
 566:Drivers/STM32F3xx_HAL_Driver/Src/stm32f3xx_hal_dma.c ****   *               the configuration information for the specified DMA Channel.  
 567:Drivers/STM32F3xx_HAL_Driver/Src/stm32f3xx_hal_dma.c ****   * @retval None
 568:Drivers/STM32F3xx_HAL_Driver/Src/stm32f3xx_hal_dma.c ****   */
 569:Drivers/STM32F3xx_HAL_Driver/Src/stm32f3xx_hal_dma.c **** void HAL_DMA_IRQHandler(DMA_HandleTypeDef *hdma)
 570:Drivers/STM32F3xx_HAL_Driver/Src/stm32f3xx_hal_dma.c **** {
 571:Drivers/STM32F3xx_HAL_Driver/Src/stm32f3xx_hal_dma.c **** 	uint32_t flag_it = hdma->DmaBaseAddress->ISR;
 572:Drivers/STM32F3xx_HAL_Driver/Src/stm32f3xx_hal_dma.c ****   uint32_t source_it = hdma->Instance->CCR;
 573:Drivers/STM32F3xx_HAL_Driver/Src/stm32f3xx_hal_dma.c ****           
 574:Drivers/STM32F3xx_HAL_Driver/Src/stm32f3xx_hal_dma.c ****   /* Half Transfer Complete Interrupt management ******************************/
 575:Drivers/STM32F3xx_HAL_Driver/Src/stm32f3xx_hal_dma.c ****   if ((RESET != (flag_it & (DMA_FLAG_HT1 << hdma->ChannelIndex))) && (RESET != (source_it & DMA_IT_
 576:Drivers/STM32F3xx_HAL_Driver/Src/stm32f3xx_hal_dma.c ****   {
 577:Drivers/STM32F3xx_HAL_Driver/Src/stm32f3xx_hal_dma.c ****   	/* Disable the half transfer interrupt if the DMA mode is not CIRCULAR */
 578:Drivers/STM32F3xx_HAL_Driver/Src/stm32f3xx_hal_dma.c ****   	if((hdma->Instance->CCR & DMA_CCR_CIRC) == 0U)
 579:Drivers/STM32F3xx_HAL_Driver/Src/stm32f3xx_hal_dma.c ****   	{
 580:Drivers/STM32F3xx_HAL_Driver/Src/stm32f3xx_hal_dma.c ****   		/* Disable the half transfer interrupt */
 581:Drivers/STM32F3xx_HAL_Driver/Src/stm32f3xx_hal_dma.c ****   		hdma->Instance->CCR &= ~DMA_IT_HT;
 582:Drivers/STM32F3xx_HAL_Driver/Src/stm32f3xx_hal_dma.c ****   	}
 583:Drivers/STM32F3xx_HAL_Driver/Src/stm32f3xx_hal_dma.c ****   	
 584:Drivers/STM32F3xx_HAL_Driver/Src/stm32f3xx_hal_dma.c ****   	/* Clear the half transfer complete flag */
 585:Drivers/STM32F3xx_HAL_Driver/Src/stm32f3xx_hal_dma.c ****   	hdma->DmaBaseAddress->IFCR = DMA_FLAG_HT1 << hdma->ChannelIndex;
 586:Drivers/STM32F3xx_HAL_Driver/Src/stm32f3xx_hal_dma.c ****   	
 587:Drivers/STM32F3xx_HAL_Driver/Src/stm32f3xx_hal_dma.c ****   	/* DMA peripheral state is not updated in Half Transfer */
 588:Drivers/STM32F3xx_HAL_Driver/Src/stm32f3xx_hal_dma.c ****   	/* State is updated only in Transfer Complete case */
 589:Drivers/STM32F3xx_HAL_Driver/Src/stm32f3xx_hal_dma.c ****   	
 590:Drivers/STM32F3xx_HAL_Driver/Src/stm32f3xx_hal_dma.c ****   	if(hdma->XferHalfCpltCallback != NULL)
 591:Drivers/STM32F3xx_HAL_Driver/Src/stm32f3xx_hal_dma.c ****   	{
 592:Drivers/STM32F3xx_HAL_Driver/Src/stm32f3xx_hal_dma.c ****   		/* Half transfer callback */
 593:Drivers/STM32F3xx_HAL_Driver/Src/stm32f3xx_hal_dma.c ****   		hdma->XferHalfCpltCallback(hdma);
 594:Drivers/STM32F3xx_HAL_Driver/Src/stm32f3xx_hal_dma.c ****   	}
 595:Drivers/STM32F3xx_HAL_Driver/Src/stm32f3xx_hal_dma.c ****   }
 596:Drivers/STM32F3xx_HAL_Driver/Src/stm32f3xx_hal_dma.c ****   
 597:Drivers/STM32F3xx_HAL_Driver/Src/stm32f3xx_hal_dma.c ****   /* Transfer Complete Interrupt management ***********************************/
 598:Drivers/STM32F3xx_HAL_Driver/Src/stm32f3xx_hal_dma.c ****   else if ((RESET != (flag_it & (DMA_FLAG_TC1 << hdma->ChannelIndex))) && (RESET != (source_it & DM
 599:Drivers/STM32F3xx_HAL_Driver/Src/stm32f3xx_hal_dma.c ****   {
 600:Drivers/STM32F3xx_HAL_Driver/Src/stm32f3xx_hal_dma.c ****   	if((hdma->Instance->CCR & DMA_CCR_CIRC) == 0U)
ARM GAS  /var/folders/jw/jcj5j9_530958b2rm5vp9wn00000gn/T//ccD0XOAX.s 			page 12


 601:Drivers/STM32F3xx_HAL_Driver/Src/stm32f3xx_hal_dma.c ****   	{
 602:Drivers/STM32F3xx_HAL_Driver/Src/stm32f3xx_hal_dma.c ****   		/* Disable the transfer complete  & transfer error interrupts */
 603:Drivers/STM32F3xx_HAL_Driver/Src/stm32f3xx_hal_dma.c ****   		/* if the DMA mode is not CIRCULAR */
 604:Drivers/STM32F3xx_HAL_Driver/Src/stm32f3xx_hal_dma.c ****   		hdma->Instance->CCR &= ~(DMA_IT_TC | DMA_IT_TE);
 605:Drivers/STM32F3xx_HAL_Driver/Src/stm32f3xx_hal_dma.c ****   		
 606:Drivers/STM32F3xx_HAL_Driver/Src/stm32f3xx_hal_dma.c ****   		/* Change the DMA state */
 607:Drivers/STM32F3xx_HAL_Driver/Src/stm32f3xx_hal_dma.c ****   		hdma->State = HAL_DMA_STATE_READY;
 608:Drivers/STM32F3xx_HAL_Driver/Src/stm32f3xx_hal_dma.c ****   	}
 609:Drivers/STM32F3xx_HAL_Driver/Src/stm32f3xx_hal_dma.c ****   	
 610:Drivers/STM32F3xx_HAL_Driver/Src/stm32f3xx_hal_dma.c ****   	/* Clear the transfer complete flag */
 611:Drivers/STM32F3xx_HAL_Driver/Src/stm32f3xx_hal_dma.c ****   	hdma->DmaBaseAddress->IFCR = DMA_FLAG_TC1 << hdma->ChannelIndex;
 612:Drivers/STM32F3xx_HAL_Driver/Src/stm32f3xx_hal_dma.c ****   	
 613:Drivers/STM32F3xx_HAL_Driver/Src/stm32f3xx_hal_dma.c ****   	/* Process Unlocked */
 614:Drivers/STM32F3xx_HAL_Driver/Src/stm32f3xx_hal_dma.c ****   	__HAL_UNLOCK(hdma);
 615:Drivers/STM32F3xx_HAL_Driver/Src/stm32f3xx_hal_dma.c ****   	
 616:Drivers/STM32F3xx_HAL_Driver/Src/stm32f3xx_hal_dma.c ****   	if(hdma->XferCpltCallback != NULL)
 617:Drivers/STM32F3xx_HAL_Driver/Src/stm32f3xx_hal_dma.c ****   	{
 618:Drivers/STM32F3xx_HAL_Driver/Src/stm32f3xx_hal_dma.c ****   		/* Transfer complete callback */
 619:Drivers/STM32F3xx_HAL_Driver/Src/stm32f3xx_hal_dma.c ****   		hdma->XferCpltCallback(hdma);
 620:Drivers/STM32F3xx_HAL_Driver/Src/stm32f3xx_hal_dma.c ****   	}
 621:Drivers/STM32F3xx_HAL_Driver/Src/stm32f3xx_hal_dma.c ****   }
 622:Drivers/STM32F3xx_HAL_Driver/Src/stm32f3xx_hal_dma.c ****   
 623:Drivers/STM32F3xx_HAL_Driver/Src/stm32f3xx_hal_dma.c ****   /* Transfer Error Interrupt management ***************************************/
 624:Drivers/STM32F3xx_HAL_Driver/Src/stm32f3xx_hal_dma.c ****   else if (( RESET != (flag_it & (DMA_FLAG_TE1 << hdma->ChannelIndex))) && (RESET != (source_it & D
 625:Drivers/STM32F3xx_HAL_Driver/Src/stm32f3xx_hal_dma.c ****   {
 626:Drivers/STM32F3xx_HAL_Driver/Src/stm32f3xx_hal_dma.c ****   	/* When a DMA transfer error occurs */
 627:Drivers/STM32F3xx_HAL_Driver/Src/stm32f3xx_hal_dma.c ****     /* A hardware clear of its EN bits is performed */
 628:Drivers/STM32F3xx_HAL_Driver/Src/stm32f3xx_hal_dma.c ****     /* Then, disable all DMA interrupts */
 629:Drivers/STM32F3xx_HAL_Driver/Src/stm32f3xx_hal_dma.c ****     hdma->Instance->CCR &= ~(DMA_IT_TC | DMA_IT_HT | DMA_IT_TE);
 630:Drivers/STM32F3xx_HAL_Driver/Src/stm32f3xx_hal_dma.c ****     
 631:Drivers/STM32F3xx_HAL_Driver/Src/stm32f3xx_hal_dma.c ****     /* Clear all flags */
 632:Drivers/STM32F3xx_HAL_Driver/Src/stm32f3xx_hal_dma.c ****     hdma->DmaBaseAddress->IFCR = DMA_FLAG_GL1 << hdma->ChannelIndex;
 633:Drivers/STM32F3xx_HAL_Driver/Src/stm32f3xx_hal_dma.c ****     
 634:Drivers/STM32F3xx_HAL_Driver/Src/stm32f3xx_hal_dma.c ****     /* Update error code */
 635:Drivers/STM32F3xx_HAL_Driver/Src/stm32f3xx_hal_dma.c ****     hdma->ErrorCode = HAL_DMA_ERROR_TE;
 636:Drivers/STM32F3xx_HAL_Driver/Src/stm32f3xx_hal_dma.c ****     
 637:Drivers/STM32F3xx_HAL_Driver/Src/stm32f3xx_hal_dma.c ****     /* Change the DMA state */
 638:Drivers/STM32F3xx_HAL_Driver/Src/stm32f3xx_hal_dma.c ****     hdma->State = HAL_DMA_STATE_READY;    
 639:Drivers/STM32F3xx_HAL_Driver/Src/stm32f3xx_hal_dma.c ****     
 640:Drivers/STM32F3xx_HAL_Driver/Src/stm32f3xx_hal_dma.c ****     /* Process Unlocked */
 641:Drivers/STM32F3xx_HAL_Driver/Src/stm32f3xx_hal_dma.c ****     __HAL_UNLOCK(hdma); 
 642:Drivers/STM32F3xx_HAL_Driver/Src/stm32f3xx_hal_dma.c ****     
 643:Drivers/STM32F3xx_HAL_Driver/Src/stm32f3xx_hal_dma.c ****     if(hdma->XferErrorCallback != NULL)
 644:Drivers/STM32F3xx_HAL_Driver/Src/stm32f3xx_hal_dma.c ****     {
 645:Drivers/STM32F3xx_HAL_Driver/Src/stm32f3xx_hal_dma.c ****     	/* Transfer error callback */
 646:Drivers/STM32F3xx_HAL_Driver/Src/stm32f3xx_hal_dma.c ****     	hdma->XferErrorCallback(hdma);
 647:Drivers/STM32F3xx_HAL_Driver/Src/stm32f3xx_hal_dma.c ****     }
 648:Drivers/STM32F3xx_HAL_Driver/Src/stm32f3xx_hal_dma.c ****   }
 649:Drivers/STM32F3xx_HAL_Driver/Src/stm32f3xx_hal_dma.c **** }  
 650:Drivers/STM32F3xx_HAL_Driver/Src/stm32f3xx_hal_dma.c **** 
 651:Drivers/STM32F3xx_HAL_Driver/Src/stm32f3xx_hal_dma.c **** /**
 652:Drivers/STM32F3xx_HAL_Driver/Src/stm32f3xx_hal_dma.c ****   * @brief  Register callbacks
 653:Drivers/STM32F3xx_HAL_Driver/Src/stm32f3xx_hal_dma.c ****   * @param  hdma                 pointer to a DMA_HandleTypeDef structure that contains
 654:Drivers/STM32F3xx_HAL_Driver/Src/stm32f3xx_hal_dma.c ****   *                               the configuration information for the specified DMA Stream.
 655:Drivers/STM32F3xx_HAL_Driver/Src/stm32f3xx_hal_dma.c ****   * @param  CallbackID           User Callback identifer
 656:Drivers/STM32F3xx_HAL_Driver/Src/stm32f3xx_hal_dma.c ****   *                               a HAL_DMA_CallbackIDTypeDef ENUM as parameter.
 657:Drivers/STM32F3xx_HAL_Driver/Src/stm32f3xx_hal_dma.c ****   * @param  pCallback            pointer to private callback function which has pointer to 
ARM GAS  /var/folders/jw/jcj5j9_530958b2rm5vp9wn00000gn/T//ccD0XOAX.s 			page 13


 658:Drivers/STM32F3xx_HAL_Driver/Src/stm32f3xx_hal_dma.c ****   *                               a DMA_HandleTypeDef structure as parameter.
 659:Drivers/STM32F3xx_HAL_Driver/Src/stm32f3xx_hal_dma.c ****   * @retval HAL status
 660:Drivers/STM32F3xx_HAL_Driver/Src/stm32f3xx_hal_dma.c ****   */                          
 661:Drivers/STM32F3xx_HAL_Driver/Src/stm32f3xx_hal_dma.c **** HAL_StatusTypeDef HAL_DMA_RegisterCallback(DMA_HandleTypeDef *hdma, HAL_DMA_CallbackIDTypeDef Callb
 662:Drivers/STM32F3xx_HAL_Driver/Src/stm32f3xx_hal_dma.c **** {
 663:Drivers/STM32F3xx_HAL_Driver/Src/stm32f3xx_hal_dma.c ****   HAL_StatusTypeDef status = HAL_OK;
 664:Drivers/STM32F3xx_HAL_Driver/Src/stm32f3xx_hal_dma.c ****   
 665:Drivers/STM32F3xx_HAL_Driver/Src/stm32f3xx_hal_dma.c ****   /* Process locked */
 666:Drivers/STM32F3xx_HAL_Driver/Src/stm32f3xx_hal_dma.c ****   __HAL_LOCK(hdma);
 667:Drivers/STM32F3xx_HAL_Driver/Src/stm32f3xx_hal_dma.c ****   
 668:Drivers/STM32F3xx_HAL_Driver/Src/stm32f3xx_hal_dma.c ****   if(HAL_DMA_STATE_READY == hdma->State)
 669:Drivers/STM32F3xx_HAL_Driver/Src/stm32f3xx_hal_dma.c ****   {
 670:Drivers/STM32F3xx_HAL_Driver/Src/stm32f3xx_hal_dma.c ****     switch (CallbackID)
 671:Drivers/STM32F3xx_HAL_Driver/Src/stm32f3xx_hal_dma.c ****     {
 672:Drivers/STM32F3xx_HAL_Driver/Src/stm32f3xx_hal_dma.c ****      case  HAL_DMA_XFER_CPLT_CB_ID:
 673:Drivers/STM32F3xx_HAL_Driver/Src/stm32f3xx_hal_dma.c ****            hdma->XferCpltCallback = pCallback;
 674:Drivers/STM32F3xx_HAL_Driver/Src/stm32f3xx_hal_dma.c ****            break;
 675:Drivers/STM32F3xx_HAL_Driver/Src/stm32f3xx_hal_dma.c ****        
 676:Drivers/STM32F3xx_HAL_Driver/Src/stm32f3xx_hal_dma.c ****      case  HAL_DMA_XFER_HALFCPLT_CB_ID:
 677:Drivers/STM32F3xx_HAL_Driver/Src/stm32f3xx_hal_dma.c ****            hdma->XferHalfCpltCallback = pCallback;
 678:Drivers/STM32F3xx_HAL_Driver/Src/stm32f3xx_hal_dma.c ****            break;         
 679:Drivers/STM32F3xx_HAL_Driver/Src/stm32f3xx_hal_dma.c **** 
 680:Drivers/STM32F3xx_HAL_Driver/Src/stm32f3xx_hal_dma.c ****      case  HAL_DMA_XFER_ERROR_CB_ID:
 681:Drivers/STM32F3xx_HAL_Driver/Src/stm32f3xx_hal_dma.c ****            hdma->XferErrorCallback = pCallback;
 682:Drivers/STM32F3xx_HAL_Driver/Src/stm32f3xx_hal_dma.c ****            break;         
 683:Drivers/STM32F3xx_HAL_Driver/Src/stm32f3xx_hal_dma.c ****            
 684:Drivers/STM32F3xx_HAL_Driver/Src/stm32f3xx_hal_dma.c ****      case  HAL_DMA_XFER_ABORT_CB_ID:
 685:Drivers/STM32F3xx_HAL_Driver/Src/stm32f3xx_hal_dma.c ****            hdma->XferAbortCallback = pCallback;
 686:Drivers/STM32F3xx_HAL_Driver/Src/stm32f3xx_hal_dma.c ****            break; 
 687:Drivers/STM32F3xx_HAL_Driver/Src/stm32f3xx_hal_dma.c ****            
 688:Drivers/STM32F3xx_HAL_Driver/Src/stm32f3xx_hal_dma.c ****      default:
 689:Drivers/STM32F3xx_HAL_Driver/Src/stm32f3xx_hal_dma.c ****            status = HAL_ERROR;
 690:Drivers/STM32F3xx_HAL_Driver/Src/stm32f3xx_hal_dma.c ****            break;                                                            
 691:Drivers/STM32F3xx_HAL_Driver/Src/stm32f3xx_hal_dma.c ****     }
 692:Drivers/STM32F3xx_HAL_Driver/Src/stm32f3xx_hal_dma.c ****   }
 693:Drivers/STM32F3xx_HAL_Driver/Src/stm32f3xx_hal_dma.c ****   else
 694:Drivers/STM32F3xx_HAL_Driver/Src/stm32f3xx_hal_dma.c ****   {
 695:Drivers/STM32F3xx_HAL_Driver/Src/stm32f3xx_hal_dma.c ****     status = HAL_ERROR;
 696:Drivers/STM32F3xx_HAL_Driver/Src/stm32f3xx_hal_dma.c ****   } 
 697:Drivers/STM32F3xx_HAL_Driver/Src/stm32f3xx_hal_dma.c ****   
 698:Drivers/STM32F3xx_HAL_Driver/Src/stm32f3xx_hal_dma.c ****   /* Release Lock */
 699:Drivers/STM32F3xx_HAL_Driver/Src/stm32f3xx_hal_dma.c ****   __HAL_UNLOCK(hdma);
 700:Drivers/STM32F3xx_HAL_Driver/Src/stm32f3xx_hal_dma.c ****   
 701:Drivers/STM32F3xx_HAL_Driver/Src/stm32f3xx_hal_dma.c ****   return status;
 702:Drivers/STM32F3xx_HAL_Driver/Src/stm32f3xx_hal_dma.c **** }
 703:Drivers/STM32F3xx_HAL_Driver/Src/stm32f3xx_hal_dma.c **** 
 704:Drivers/STM32F3xx_HAL_Driver/Src/stm32f3xx_hal_dma.c **** /**
 705:Drivers/STM32F3xx_HAL_Driver/Src/stm32f3xx_hal_dma.c ****   * @brief  UnRegister callbacks
 706:Drivers/STM32F3xx_HAL_Driver/Src/stm32f3xx_hal_dma.c ****   * @param  hdma                 pointer to a DMA_HandleTypeDef structure that contains
 707:Drivers/STM32F3xx_HAL_Driver/Src/stm32f3xx_hal_dma.c ****   *                               the configuration information for the specified DMA Stream.
 708:Drivers/STM32F3xx_HAL_Driver/Src/stm32f3xx_hal_dma.c ****   * @param  CallbackID           User Callback identifer
 709:Drivers/STM32F3xx_HAL_Driver/Src/stm32f3xx_hal_dma.c ****   *                               a HAL_DMA_CallbackIDTypeDef ENUM as parameter.
 710:Drivers/STM32F3xx_HAL_Driver/Src/stm32f3xx_hal_dma.c ****   * @retval HAL status
 711:Drivers/STM32F3xx_HAL_Driver/Src/stm32f3xx_hal_dma.c ****   */              
 712:Drivers/STM32F3xx_HAL_Driver/Src/stm32f3xx_hal_dma.c **** HAL_StatusTypeDef HAL_DMA_UnRegisterCallback(DMA_HandleTypeDef *hdma, HAL_DMA_CallbackIDTypeDef Cal
 713:Drivers/STM32F3xx_HAL_Driver/Src/stm32f3xx_hal_dma.c **** {
 714:Drivers/STM32F3xx_HAL_Driver/Src/stm32f3xx_hal_dma.c ****   HAL_StatusTypeDef status = HAL_OK;
ARM GAS  /var/folders/jw/jcj5j9_530958b2rm5vp9wn00000gn/T//ccD0XOAX.s 			page 14


 715:Drivers/STM32F3xx_HAL_Driver/Src/stm32f3xx_hal_dma.c **** 
 716:Drivers/STM32F3xx_HAL_Driver/Src/stm32f3xx_hal_dma.c ****     /* Process locked */
 717:Drivers/STM32F3xx_HAL_Driver/Src/stm32f3xx_hal_dma.c ****   __HAL_LOCK(hdma);
 718:Drivers/STM32F3xx_HAL_Driver/Src/stm32f3xx_hal_dma.c ****   
 719:Drivers/STM32F3xx_HAL_Driver/Src/stm32f3xx_hal_dma.c ****   if(HAL_DMA_STATE_READY == hdma->State)
 720:Drivers/STM32F3xx_HAL_Driver/Src/stm32f3xx_hal_dma.c ****   {
 721:Drivers/STM32F3xx_HAL_Driver/Src/stm32f3xx_hal_dma.c ****     switch (CallbackID)
 722:Drivers/STM32F3xx_HAL_Driver/Src/stm32f3xx_hal_dma.c ****     {
 723:Drivers/STM32F3xx_HAL_Driver/Src/stm32f3xx_hal_dma.c ****      case  HAL_DMA_XFER_CPLT_CB_ID:
 724:Drivers/STM32F3xx_HAL_Driver/Src/stm32f3xx_hal_dma.c ****            hdma->XferCpltCallback = NULL;
 725:Drivers/STM32F3xx_HAL_Driver/Src/stm32f3xx_hal_dma.c ****            break;
 726:Drivers/STM32F3xx_HAL_Driver/Src/stm32f3xx_hal_dma.c ****        
 727:Drivers/STM32F3xx_HAL_Driver/Src/stm32f3xx_hal_dma.c ****      case  HAL_DMA_XFER_HALFCPLT_CB_ID:
 728:Drivers/STM32F3xx_HAL_Driver/Src/stm32f3xx_hal_dma.c ****            hdma->XferHalfCpltCallback = NULL;
 729:Drivers/STM32F3xx_HAL_Driver/Src/stm32f3xx_hal_dma.c ****            break;         
 730:Drivers/STM32F3xx_HAL_Driver/Src/stm32f3xx_hal_dma.c **** 
 731:Drivers/STM32F3xx_HAL_Driver/Src/stm32f3xx_hal_dma.c ****      case  HAL_DMA_XFER_ERROR_CB_ID:
 732:Drivers/STM32F3xx_HAL_Driver/Src/stm32f3xx_hal_dma.c ****            hdma->XferErrorCallback = NULL;
 733:Drivers/STM32F3xx_HAL_Driver/Src/stm32f3xx_hal_dma.c ****            break;         
 734:Drivers/STM32F3xx_HAL_Driver/Src/stm32f3xx_hal_dma.c ****            
 735:Drivers/STM32F3xx_HAL_Driver/Src/stm32f3xx_hal_dma.c ****      case  HAL_DMA_XFER_ABORT_CB_ID:
 736:Drivers/STM32F3xx_HAL_Driver/Src/stm32f3xx_hal_dma.c ****            hdma->XferAbortCallback = NULL;
 737:Drivers/STM32F3xx_HAL_Driver/Src/stm32f3xx_hal_dma.c ****            break; 
 738:Drivers/STM32F3xx_HAL_Driver/Src/stm32f3xx_hal_dma.c ****      
 739:Drivers/STM32F3xx_HAL_Driver/Src/stm32f3xx_hal_dma.c ****     case   HAL_DMA_XFER_ALL_CB_ID:
 740:Drivers/STM32F3xx_HAL_Driver/Src/stm32f3xx_hal_dma.c ****            hdma->XferCpltCallback = NULL;
 741:Drivers/STM32F3xx_HAL_Driver/Src/stm32f3xx_hal_dma.c ****            hdma->XferHalfCpltCallback = NULL;
 742:Drivers/STM32F3xx_HAL_Driver/Src/stm32f3xx_hal_dma.c ****            hdma->XferErrorCallback = NULL;
 743:Drivers/STM32F3xx_HAL_Driver/Src/stm32f3xx_hal_dma.c ****            hdma->XferAbortCallback = NULL;
 744:Drivers/STM32F3xx_HAL_Driver/Src/stm32f3xx_hal_dma.c ****            break; 
 745:Drivers/STM32F3xx_HAL_Driver/Src/stm32f3xx_hal_dma.c ****      
 746:Drivers/STM32F3xx_HAL_Driver/Src/stm32f3xx_hal_dma.c ****     default:
 747:Drivers/STM32F3xx_HAL_Driver/Src/stm32f3xx_hal_dma.c ****            status = HAL_ERROR;
 748:Drivers/STM32F3xx_HAL_Driver/Src/stm32f3xx_hal_dma.c ****            break;                                                            
 749:Drivers/STM32F3xx_HAL_Driver/Src/stm32f3xx_hal_dma.c ****     }
 750:Drivers/STM32F3xx_HAL_Driver/Src/stm32f3xx_hal_dma.c ****   }
 751:Drivers/STM32F3xx_HAL_Driver/Src/stm32f3xx_hal_dma.c ****   else
 752:Drivers/STM32F3xx_HAL_Driver/Src/stm32f3xx_hal_dma.c ****   {
 753:Drivers/STM32F3xx_HAL_Driver/Src/stm32f3xx_hal_dma.c ****     status = HAL_ERROR;
 754:Drivers/STM32F3xx_HAL_Driver/Src/stm32f3xx_hal_dma.c ****   } 
 755:Drivers/STM32F3xx_HAL_Driver/Src/stm32f3xx_hal_dma.c ****   
 756:Drivers/STM32F3xx_HAL_Driver/Src/stm32f3xx_hal_dma.c ****   /* Release Lock */
 757:Drivers/STM32F3xx_HAL_Driver/Src/stm32f3xx_hal_dma.c ****   __HAL_UNLOCK(hdma);
 758:Drivers/STM32F3xx_HAL_Driver/Src/stm32f3xx_hal_dma.c ****   
 759:Drivers/STM32F3xx_HAL_Driver/Src/stm32f3xx_hal_dma.c ****   return status;
 760:Drivers/STM32F3xx_HAL_Driver/Src/stm32f3xx_hal_dma.c **** }
 761:Drivers/STM32F3xx_HAL_Driver/Src/stm32f3xx_hal_dma.c **** 
 762:Drivers/STM32F3xx_HAL_Driver/Src/stm32f3xx_hal_dma.c **** /**
 763:Drivers/STM32F3xx_HAL_Driver/Src/stm32f3xx_hal_dma.c ****   * @}
 764:Drivers/STM32F3xx_HAL_Driver/Src/stm32f3xx_hal_dma.c ****   */
 765:Drivers/STM32F3xx_HAL_Driver/Src/stm32f3xx_hal_dma.c **** 
 766:Drivers/STM32F3xx_HAL_Driver/Src/stm32f3xx_hal_dma.c **** /** @defgroup DMA_Exported_Functions_Group3 Peripheral State functions
 767:Drivers/STM32F3xx_HAL_Driver/Src/stm32f3xx_hal_dma.c ****  *  @brief    Peripheral State functions 
 768:Drivers/STM32F3xx_HAL_Driver/Src/stm32f3xx_hal_dma.c ****  *
 769:Drivers/STM32F3xx_HAL_Driver/Src/stm32f3xx_hal_dma.c **** @verbatim   
 770:Drivers/STM32F3xx_HAL_Driver/Src/stm32f3xx_hal_dma.c ****  ===============================================================================
 771:Drivers/STM32F3xx_HAL_Driver/Src/stm32f3xx_hal_dma.c ****                     ##### State and Errors functions #####
ARM GAS  /var/folders/jw/jcj5j9_530958b2rm5vp9wn00000gn/T//ccD0XOAX.s 			page 15


 772:Drivers/STM32F3xx_HAL_Driver/Src/stm32f3xx_hal_dma.c ****  ===============================================================================  
 773:Drivers/STM32F3xx_HAL_Driver/Src/stm32f3xx_hal_dma.c ****     [..]
 774:Drivers/STM32F3xx_HAL_Driver/Src/stm32f3xx_hal_dma.c ****     This subsection provides functions allowing to
 775:Drivers/STM32F3xx_HAL_Driver/Src/stm32f3xx_hal_dma.c ****       (+) Check the DMA state
 776:Drivers/STM32F3xx_HAL_Driver/Src/stm32f3xx_hal_dma.c ****       (+) Get error code
 777:Drivers/STM32F3xx_HAL_Driver/Src/stm32f3xx_hal_dma.c **** 
 778:Drivers/STM32F3xx_HAL_Driver/Src/stm32f3xx_hal_dma.c **** @endverbatim
 779:Drivers/STM32F3xx_HAL_Driver/Src/stm32f3xx_hal_dma.c ****   * @{
 780:Drivers/STM32F3xx_HAL_Driver/Src/stm32f3xx_hal_dma.c ****   */  
 781:Drivers/STM32F3xx_HAL_Driver/Src/stm32f3xx_hal_dma.c **** 
 782:Drivers/STM32F3xx_HAL_Driver/Src/stm32f3xx_hal_dma.c **** /**
 783:Drivers/STM32F3xx_HAL_Driver/Src/stm32f3xx_hal_dma.c ****   * @brief  Returns the DMA state.
 784:Drivers/STM32F3xx_HAL_Driver/Src/stm32f3xx_hal_dma.c ****   * @param  hdma pointer to a DMA_HandleTypeDef structure that contains
 785:Drivers/STM32F3xx_HAL_Driver/Src/stm32f3xx_hal_dma.c ****   *               the configuration information for the specified DMA Channel.  
 786:Drivers/STM32F3xx_HAL_Driver/Src/stm32f3xx_hal_dma.c ****   * @retval HAL state
 787:Drivers/STM32F3xx_HAL_Driver/Src/stm32f3xx_hal_dma.c ****   */
 788:Drivers/STM32F3xx_HAL_Driver/Src/stm32f3xx_hal_dma.c **** HAL_DMA_StateTypeDef HAL_DMA_GetState(DMA_HandleTypeDef *hdma)
 789:Drivers/STM32F3xx_HAL_Driver/Src/stm32f3xx_hal_dma.c **** {
 790:Drivers/STM32F3xx_HAL_Driver/Src/stm32f3xx_hal_dma.c ****   return hdma->State;
 791:Drivers/STM32F3xx_HAL_Driver/Src/stm32f3xx_hal_dma.c **** }
 792:Drivers/STM32F3xx_HAL_Driver/Src/stm32f3xx_hal_dma.c **** 
 793:Drivers/STM32F3xx_HAL_Driver/Src/stm32f3xx_hal_dma.c **** /**
 794:Drivers/STM32F3xx_HAL_Driver/Src/stm32f3xx_hal_dma.c ****   * @brief  Return the DMA error code
 795:Drivers/STM32F3xx_HAL_Driver/Src/stm32f3xx_hal_dma.c ****   * @param  hdma pointer to a DMA_HandleTypeDef structure that contains
 796:Drivers/STM32F3xx_HAL_Driver/Src/stm32f3xx_hal_dma.c ****   *              the configuration information for the specified DMA Channel.
 797:Drivers/STM32F3xx_HAL_Driver/Src/stm32f3xx_hal_dma.c ****   * @retval DMA Error Code
 798:Drivers/STM32F3xx_HAL_Driver/Src/stm32f3xx_hal_dma.c ****   */
 799:Drivers/STM32F3xx_HAL_Driver/Src/stm32f3xx_hal_dma.c **** uint32_t HAL_DMA_GetError(DMA_HandleTypeDef *hdma)
 800:Drivers/STM32F3xx_HAL_Driver/Src/stm32f3xx_hal_dma.c **** {
 801:Drivers/STM32F3xx_HAL_Driver/Src/stm32f3xx_hal_dma.c ****   return hdma->ErrorCode;
 802:Drivers/STM32F3xx_HAL_Driver/Src/stm32f3xx_hal_dma.c **** }
 803:Drivers/STM32F3xx_HAL_Driver/Src/stm32f3xx_hal_dma.c **** 
 804:Drivers/STM32F3xx_HAL_Driver/Src/stm32f3xx_hal_dma.c **** /**
 805:Drivers/STM32F3xx_HAL_Driver/Src/stm32f3xx_hal_dma.c ****   * @}
 806:Drivers/STM32F3xx_HAL_Driver/Src/stm32f3xx_hal_dma.c ****   */
 807:Drivers/STM32F3xx_HAL_Driver/Src/stm32f3xx_hal_dma.c **** 
 808:Drivers/STM32F3xx_HAL_Driver/Src/stm32f3xx_hal_dma.c **** /**
 809:Drivers/STM32F3xx_HAL_Driver/Src/stm32f3xx_hal_dma.c ****   * @}
 810:Drivers/STM32F3xx_HAL_Driver/Src/stm32f3xx_hal_dma.c ****   */
 811:Drivers/STM32F3xx_HAL_Driver/Src/stm32f3xx_hal_dma.c **** 
 812:Drivers/STM32F3xx_HAL_Driver/Src/stm32f3xx_hal_dma.c **** /** @addtogroup DMA_Private_Functions
 813:Drivers/STM32F3xx_HAL_Driver/Src/stm32f3xx_hal_dma.c ****   * @{
 814:Drivers/STM32F3xx_HAL_Driver/Src/stm32f3xx_hal_dma.c ****   */
 815:Drivers/STM32F3xx_HAL_Driver/Src/stm32f3xx_hal_dma.c **** 
 816:Drivers/STM32F3xx_HAL_Driver/Src/stm32f3xx_hal_dma.c **** /**
 817:Drivers/STM32F3xx_HAL_Driver/Src/stm32f3xx_hal_dma.c ****   * @brief  Set the DMA Transfer parameters.
 818:Drivers/STM32F3xx_HAL_Driver/Src/stm32f3xx_hal_dma.c ****   * @param  hdma       pointer to a DMA_HandleTypeDef structure that contains
 819:Drivers/STM32F3xx_HAL_Driver/Src/stm32f3xx_hal_dma.c ****   *                     the configuration information for the specified DMA Channel.  
 820:Drivers/STM32F3xx_HAL_Driver/Src/stm32f3xx_hal_dma.c ****   * @param  SrcAddress The source memory Buffer address
 821:Drivers/STM32F3xx_HAL_Driver/Src/stm32f3xx_hal_dma.c ****   * @param  DstAddress The destination memory Buffer address
 822:Drivers/STM32F3xx_HAL_Driver/Src/stm32f3xx_hal_dma.c ****   * @param  DataLength The length of data to be transferred from source to destination
 823:Drivers/STM32F3xx_HAL_Driver/Src/stm32f3xx_hal_dma.c ****   * @retval HAL status
 824:Drivers/STM32F3xx_HAL_Driver/Src/stm32f3xx_hal_dma.c ****   */
 825:Drivers/STM32F3xx_HAL_Driver/Src/stm32f3xx_hal_dma.c **** static void DMA_SetConfig(DMA_HandleTypeDef *hdma, uint32_t SrcAddress, uint32_t DstAddress, uint32
 826:Drivers/STM32F3xx_HAL_Driver/Src/stm32f3xx_hal_dma.c **** {
  29              		.loc 1 826 1 view -0
  30              		.cfi_startproc
ARM GAS  /var/folders/jw/jcj5j9_530958b2rm5vp9wn00000gn/T//ccD0XOAX.s 			page 16


  31              		@ args = 0, pretend = 0, frame = 0
  32              		@ frame_needed = 0, uses_anonymous_args = 0
  33              		@ link register save eliminated.
  34              		.loc 1 826 1 is_stmt 0 view .LVU1
  35 0000 70B4     		push	{r4, r5, r6}
  36              	.LCFI0:
  37              		.cfi_def_cfa_offset 12
  38              		.cfi_offset 4, -12
  39              		.cfi_offset 5, -8
  40              		.cfi_offset 6, -4
 827:Drivers/STM32F3xx_HAL_Driver/Src/stm32f3xx_hal_dma.c **** 	/* Clear all flags */
 828:Drivers/STM32F3xx_HAL_Driver/Src/stm32f3xx_hal_dma.c ****   hdma->DmaBaseAddress->IFCR  = (DMA_FLAG_GL1 << hdma->ChannelIndex);
  41              		.loc 1 828 3 is_stmt 1 view .LVU2
  42              		.loc 1 828 54 is_stmt 0 view .LVU3
  43 0002 066C     		ldr	r6, [r0, #64]
  44              		.loc 1 828 7 view .LVU4
  45 0004 C56B     		ldr	r5, [r0, #60]
  46              		.loc 1 828 47 view .LVU5
  47 0006 0124     		movs	r4, #1
  48 0008 B440     		lsls	r4, r4, r6
  49              		.loc 1 828 31 view .LVU6
  50 000a 6C60     		str	r4, [r5, #4]
 829:Drivers/STM32F3xx_HAL_Driver/Src/stm32f3xx_hal_dma.c ****   
 830:Drivers/STM32F3xx_HAL_Driver/Src/stm32f3xx_hal_dma.c ****   /* Configure DMA Channel data length */
 831:Drivers/STM32F3xx_HAL_Driver/Src/stm32f3xx_hal_dma.c ****   hdma->Instance->CNDTR = DataLength;
  51              		.loc 1 831 3 is_stmt 1 view .LVU7
  52              		.loc 1 831 7 is_stmt 0 view .LVU8
  53 000c 0468     		ldr	r4, [r0]
  54              		.loc 1 831 25 view .LVU9
  55 000e 6360     		str	r3, [r4, #4]
 832:Drivers/STM32F3xx_HAL_Driver/Src/stm32f3xx_hal_dma.c ****   
 833:Drivers/STM32F3xx_HAL_Driver/Src/stm32f3xx_hal_dma.c ****   /* Peripheral to Memory */
 834:Drivers/STM32F3xx_HAL_Driver/Src/stm32f3xx_hal_dma.c ****   if((hdma->Init.Direction) == DMA_MEMORY_TO_PERIPH)
  56              		.loc 1 834 3 is_stmt 1 view .LVU10
  57              		.loc 1 834 17 is_stmt 0 view .LVU11
  58 0010 4368     		ldr	r3, [r0, #4]
  59              	.LVL1:
  60              		.loc 1 834 5 view .LVU12
  61 0012 102B     		cmp	r3, #16
  62 0014 05D0     		beq	.L5
 835:Drivers/STM32F3xx_HAL_Driver/Src/stm32f3xx_hal_dma.c ****   {   
 836:Drivers/STM32F3xx_HAL_Driver/Src/stm32f3xx_hal_dma.c ****     /* Configure DMA Channel destination address */
 837:Drivers/STM32F3xx_HAL_Driver/Src/stm32f3xx_hal_dma.c ****     hdma->Instance->CPAR = DstAddress;
 838:Drivers/STM32F3xx_HAL_Driver/Src/stm32f3xx_hal_dma.c ****     
 839:Drivers/STM32F3xx_HAL_Driver/Src/stm32f3xx_hal_dma.c ****     /* Configure DMA Channel source address */
 840:Drivers/STM32F3xx_HAL_Driver/Src/stm32f3xx_hal_dma.c ****     hdma->Instance->CMAR = SrcAddress;
 841:Drivers/STM32F3xx_HAL_Driver/Src/stm32f3xx_hal_dma.c ****   }
 842:Drivers/STM32F3xx_HAL_Driver/Src/stm32f3xx_hal_dma.c ****   /* Memory to Peripheral */
 843:Drivers/STM32F3xx_HAL_Driver/Src/stm32f3xx_hal_dma.c ****   else
 844:Drivers/STM32F3xx_HAL_Driver/Src/stm32f3xx_hal_dma.c ****   {
 845:Drivers/STM32F3xx_HAL_Driver/Src/stm32f3xx_hal_dma.c ****     /* Configure DMA Channel source address */
 846:Drivers/STM32F3xx_HAL_Driver/Src/stm32f3xx_hal_dma.c ****     hdma->Instance->CPAR = SrcAddress;
  63              		.loc 1 846 5 is_stmt 1 view .LVU13
  64              		.loc 1 846 9 is_stmt 0 view .LVU14
  65 0016 0368     		ldr	r3, [r0]
  66              		.loc 1 846 26 view .LVU15
  67 0018 9960     		str	r1, [r3, #8]
ARM GAS  /var/folders/jw/jcj5j9_530958b2rm5vp9wn00000gn/T//ccD0XOAX.s 			page 17


  68              	.LVL2:
 847:Drivers/STM32F3xx_HAL_Driver/Src/stm32f3xx_hal_dma.c ****     
 848:Drivers/STM32F3xx_HAL_Driver/Src/stm32f3xx_hal_dma.c ****     /* Configure DMA Channel destination address */
 849:Drivers/STM32F3xx_HAL_Driver/Src/stm32f3xx_hal_dma.c ****     hdma->Instance->CMAR = DstAddress;
  69              		.loc 1 849 5 is_stmt 1 view .LVU16
  70              		.loc 1 849 9 is_stmt 0 view .LVU17
  71 001a 0368     		ldr	r3, [r0]
  72              		.loc 1 849 26 view .LVU18
  73 001c DA60     		str	r2, [r3, #12]
  74              	.L1:
 850:Drivers/STM32F3xx_HAL_Driver/Src/stm32f3xx_hal_dma.c ****   }
 851:Drivers/STM32F3xx_HAL_Driver/Src/stm32f3xx_hal_dma.c **** }
  75              		.loc 1 851 1 view .LVU19
  76 001e 70BC     		pop	{r4, r5, r6}
  77              	.LCFI1:
  78              		.cfi_remember_state
  79              		.cfi_restore 6
  80              		.cfi_restore 5
  81              		.cfi_restore 4
  82              		.cfi_def_cfa_offset 0
  83 0020 7047     		bx	lr
  84              	.LVL3:
  85              	.L5:
  86              	.LCFI2:
  87              		.cfi_restore_state
 837:Drivers/STM32F3xx_HAL_Driver/Src/stm32f3xx_hal_dma.c ****     
  88              		.loc 1 837 5 is_stmt 1 view .LVU20
 837:Drivers/STM32F3xx_HAL_Driver/Src/stm32f3xx_hal_dma.c ****     
  89              		.loc 1 837 9 is_stmt 0 view .LVU21
  90 0022 0368     		ldr	r3, [r0]
 837:Drivers/STM32F3xx_HAL_Driver/Src/stm32f3xx_hal_dma.c ****     
  91              		.loc 1 837 26 view .LVU22
  92 0024 9A60     		str	r2, [r3, #8]
  93              	.LVL4:
 840:Drivers/STM32F3xx_HAL_Driver/Src/stm32f3xx_hal_dma.c ****   }
  94              		.loc 1 840 5 is_stmt 1 view .LVU23
 840:Drivers/STM32F3xx_HAL_Driver/Src/stm32f3xx_hal_dma.c ****   }
  95              		.loc 1 840 9 is_stmt 0 view .LVU24
  96 0026 0368     		ldr	r3, [r0]
 840:Drivers/STM32F3xx_HAL_Driver/Src/stm32f3xx_hal_dma.c ****   }
  97              		.loc 1 840 26 view .LVU25
  98 0028 D960     		str	r1, [r3, #12]
  99 002a F8E7     		b	.L1
 100              		.cfi_endproc
 101              	.LFE142:
 103              		.section	.text.DMA_CalcBaseAndBitshift,"ax",%progbits
 104              		.align	1
 105              		.syntax unified
 106              		.thumb
 107              		.thumb_func
 108              		.fpu fpv4-sp-d16
 110              	DMA_CalcBaseAndBitshift:
 111              	.LVL5:
 112              	.LFB143:
 852:Drivers/STM32F3xx_HAL_Driver/Src/stm32f3xx_hal_dma.c **** 
 853:Drivers/STM32F3xx_HAL_Driver/Src/stm32f3xx_hal_dma.c **** /**
 854:Drivers/STM32F3xx_HAL_Driver/Src/stm32f3xx_hal_dma.c ****   * @brief  Set the DMA base address and channel index depending on DMA instance
ARM GAS  /var/folders/jw/jcj5j9_530958b2rm5vp9wn00000gn/T//ccD0XOAX.s 			page 18


 855:Drivers/STM32F3xx_HAL_Driver/Src/stm32f3xx_hal_dma.c ****   * @param  hdma       pointer to a DMA_HandleTypeDef structure that contains
 856:Drivers/STM32F3xx_HAL_Driver/Src/stm32f3xx_hal_dma.c ****   *                     the configuration information for the specified DMA Stream. 
 857:Drivers/STM32F3xx_HAL_Driver/Src/stm32f3xx_hal_dma.c ****   * @retval None
 858:Drivers/STM32F3xx_HAL_Driver/Src/stm32f3xx_hal_dma.c ****   */
 859:Drivers/STM32F3xx_HAL_Driver/Src/stm32f3xx_hal_dma.c **** static void DMA_CalcBaseAndBitshift(DMA_HandleTypeDef *hdma)
 860:Drivers/STM32F3xx_HAL_Driver/Src/stm32f3xx_hal_dma.c **** {
 113              		.loc 1 860 1 is_stmt 1 view -0
 114              		.cfi_startproc
 115              		@ args = 0, pretend = 0, frame = 0
 116              		@ frame_needed = 0, uses_anonymous_args = 0
 117              		@ link register save eliminated.
 861:Drivers/STM32F3xx_HAL_Driver/Src/stm32f3xx_hal_dma.c **** #if defined (DMA2)
 862:Drivers/STM32F3xx_HAL_Driver/Src/stm32f3xx_hal_dma.c ****   /* calculation of the channel index */
 863:Drivers/STM32F3xx_HAL_Driver/Src/stm32f3xx_hal_dma.c ****   if ((uint32_t)(hdma->Instance) < (uint32_t)(DMA2_Channel1))
 118              		.loc 1 863 3 view .LVU27
 119              		.loc 1 863 22 is_stmt 0 view .LVU28
 120 0000 0268     		ldr	r2, [r0]
 121              		.loc 1 863 6 view .LVU29
 122 0002 0C4B     		ldr	r3, .L9
 123 0004 9A42     		cmp	r2, r3
 124 0006 0AD8     		bhi	.L7
 864:Drivers/STM32F3xx_HAL_Driver/Src/stm32f3xx_hal_dma.c ****   {
 865:Drivers/STM32F3xx_HAL_Driver/Src/stm32f3xx_hal_dma.c ****     /* DMA1 */
 866:Drivers/STM32F3xx_HAL_Driver/Src/stm32f3xx_hal_dma.c ****     hdma->ChannelIndex = (((uint32_t)hdma->Instance - (uint32_t)DMA1_Channel1) / ((uint32_t)DMA1_Ch
 125              		.loc 1 866 5 is_stmt 1 view .LVU30
 126              		.loc 1 866 53 is_stmt 0 view .LVU31
 127 0008 0B4B     		ldr	r3, .L9+4
 128 000a 1344     		add	r3, r3, r2
 129              		.loc 1 866 80 view .LVU32
 130 000c 0B4A     		ldr	r2, .L9+8
 131 000e A2FB0323 		umull	r2, r3, r2, r3
 132 0012 1B09     		lsrs	r3, r3, #4
 133              		.loc 1 866 135 view .LVU33
 134 0014 9B00     		lsls	r3, r3, #2
 135              		.loc 1 866 24 view .LVU34
 136 0016 0364     		str	r3, [r0, #64]
 867:Drivers/STM32F3xx_HAL_Driver/Src/stm32f3xx_hal_dma.c ****     hdma->DmaBaseAddress = DMA1;
 137              		.loc 1 867 5 is_stmt 1 view .LVU35
 138              		.loc 1 867 26 is_stmt 0 view .LVU36
 139 0018 094B     		ldr	r3, .L9+12
 140 001a C363     		str	r3, [r0, #60]
 141 001c 7047     		bx	lr
 142              	.L7:
 868:Drivers/STM32F3xx_HAL_Driver/Src/stm32f3xx_hal_dma.c ****   }
 869:Drivers/STM32F3xx_HAL_Driver/Src/stm32f3xx_hal_dma.c ****   else 
 870:Drivers/STM32F3xx_HAL_Driver/Src/stm32f3xx_hal_dma.c ****   {
 871:Drivers/STM32F3xx_HAL_Driver/Src/stm32f3xx_hal_dma.c ****     /* DMA2 */
 872:Drivers/STM32F3xx_HAL_Driver/Src/stm32f3xx_hal_dma.c ****     hdma->ChannelIndex = (((uint32_t)hdma->Instance - (uint32_t)DMA2_Channel1) / ((uint32_t)DMA2_Ch
 143              		.loc 1 872 5 is_stmt 1 view .LVU37
 144              		.loc 1 872 53 is_stmt 0 view .LVU38
 145 001e 094B     		ldr	r3, .L9+16
 146 0020 1344     		add	r3, r3, r2
 147              		.loc 1 872 80 view .LVU39
 148 0022 064A     		ldr	r2, .L9+8
 149 0024 A2FB0323 		umull	r2, r3, r2, r3
 150 0028 1B09     		lsrs	r3, r3, #4
 151              		.loc 1 872 135 view .LVU40
ARM GAS  /var/folders/jw/jcj5j9_530958b2rm5vp9wn00000gn/T//ccD0XOAX.s 			page 19


 152 002a 9B00     		lsls	r3, r3, #2
 153              		.loc 1 872 24 view .LVU41
 154 002c 0364     		str	r3, [r0, #64]
 873:Drivers/STM32F3xx_HAL_Driver/Src/stm32f3xx_hal_dma.c ****     hdma->DmaBaseAddress = DMA2;
 155              		.loc 1 873 5 is_stmt 1 view .LVU42
 156              		.loc 1 873 26 is_stmt 0 view .LVU43
 157 002e 064B     		ldr	r3, .L9+20
 158 0030 C363     		str	r3, [r0, #60]
 874:Drivers/STM32F3xx_HAL_Driver/Src/stm32f3xx_hal_dma.c ****   }
 875:Drivers/STM32F3xx_HAL_Driver/Src/stm32f3xx_hal_dma.c **** #else
 876:Drivers/STM32F3xx_HAL_Driver/Src/stm32f3xx_hal_dma.c ****   /* calculation of the channel index */
 877:Drivers/STM32F3xx_HAL_Driver/Src/stm32f3xx_hal_dma.c ****   /* DMA1 */
 878:Drivers/STM32F3xx_HAL_Driver/Src/stm32f3xx_hal_dma.c ****   hdma->ChannelIndex = (((uint32_t)hdma->Instance - (uint32_t)DMA1_Channel1) / ((uint32_t)DMA1_Chan
 879:Drivers/STM32F3xx_HAL_Driver/Src/stm32f3xx_hal_dma.c ****   hdma->DmaBaseAddress = DMA1;
 880:Drivers/STM32F3xx_HAL_Driver/Src/stm32f3xx_hal_dma.c **** #endif
 881:Drivers/STM32F3xx_HAL_Driver/Src/stm32f3xx_hal_dma.c **** }
 159              		.loc 1 881 1 view .LVU44
 160 0032 7047     		bx	lr
 161              	.L10:
 162              		.align	2
 163              	.L9:
 164 0034 07040240 		.word	1073873927
 165 0038 F8FFFDBF 		.word	-1073872904
 166 003c CDCCCCCC 		.word	-858993459
 167 0040 00000240 		.word	1073872896
 168 0044 F8FBFDBF 		.word	-1073873928
 169 0048 00040240 		.word	1073873920
 170              		.cfi_endproc
 171              	.LFE143:
 173              		.section	.text.HAL_DMA_Init,"ax",%progbits
 174              		.align	1
 175              		.global	HAL_DMA_Init
 176              		.syntax unified
 177              		.thumb
 178              		.thumb_func
 179              		.fpu fpv4-sp-d16
 181              	HAL_DMA_Init:
 182              	.LVL6:
 183              	.LFB130:
 138:Drivers/STM32F3xx_HAL_Driver/Src/stm32f3xx_hal_dma.c ****   uint32_t tmp = 0U;
 184              		.loc 1 138 1 is_stmt 1 view -0
 185              		.cfi_startproc
 186              		@ args = 0, pretend = 0, frame = 0
 187              		@ frame_needed = 0, uses_anonymous_args = 0
 139:Drivers/STM32F3xx_HAL_Driver/Src/stm32f3xx_hal_dma.c ****   
 188              		.loc 1 139 3 view .LVU46
 142:Drivers/STM32F3xx_HAL_Driver/Src/stm32f3xx_hal_dma.c ****   {
 189              		.loc 1 142 3 view .LVU47
 142:Drivers/STM32F3xx_HAL_Driver/Src/stm32f3xx_hal_dma.c ****   {
 190              		.loc 1 142 5 is_stmt 0 view .LVU48
 191 0000 20B3     		cbz	r0, .L13
 138:Drivers/STM32F3xx_HAL_Driver/Src/stm32f3xx_hal_dma.c ****   uint32_t tmp = 0U;
 192              		.loc 1 138 1 view .LVU49
 193 0002 10B5     		push	{r4, lr}
 194              	.LCFI3:
 195              		.cfi_def_cfa_offset 8
 196              		.cfi_offset 4, -8
ARM GAS  /var/folders/jw/jcj5j9_530958b2rm5vp9wn00000gn/T//ccD0XOAX.s 			page 20


 197              		.cfi_offset 14, -4
 198 0004 0446     		mov	r4, r0
 148:Drivers/STM32F3xx_HAL_Driver/Src/stm32f3xx_hal_dma.c ****   assert_param(IS_DMA_DIRECTION(hdma->Init.Direction));
 199              		.loc 1 148 3 is_stmt 1 view .LVU50
 149:Drivers/STM32F3xx_HAL_Driver/Src/stm32f3xx_hal_dma.c ****   assert_param(IS_DMA_PERIPHERAL_INC_STATE(hdma->Init.PeriphInc));
 200              		.loc 1 149 3 view .LVU51
 150:Drivers/STM32F3xx_HAL_Driver/Src/stm32f3xx_hal_dma.c ****   assert_param(IS_DMA_MEMORY_INC_STATE(hdma->Init.MemInc));
 201              		.loc 1 150 3 view .LVU52
 151:Drivers/STM32F3xx_HAL_Driver/Src/stm32f3xx_hal_dma.c ****   assert_param(IS_DMA_PERIPHERAL_DATA_SIZE(hdma->Init.PeriphDataAlignment));
 202              		.loc 1 151 3 view .LVU53
 152:Drivers/STM32F3xx_HAL_Driver/Src/stm32f3xx_hal_dma.c ****   assert_param(IS_DMA_MEMORY_DATA_SIZE(hdma->Init.MemDataAlignment));
 203              		.loc 1 152 3 view .LVU54
 153:Drivers/STM32F3xx_HAL_Driver/Src/stm32f3xx_hal_dma.c ****   assert_param(IS_DMA_MODE(hdma->Init.Mode));
 204              		.loc 1 153 3 view .LVU55
 154:Drivers/STM32F3xx_HAL_Driver/Src/stm32f3xx_hal_dma.c ****   assert_param(IS_DMA_PRIORITY(hdma->Init.Priority));
 205              		.loc 1 154 3 view .LVU56
 155:Drivers/STM32F3xx_HAL_Driver/Src/stm32f3xx_hal_dma.c ****   
 206              		.loc 1 155 3 view .LVU57
 158:Drivers/STM32F3xx_HAL_Driver/Src/stm32f3xx_hal_dma.c **** 
 207              		.loc 1 158 3 view .LVU58
 158:Drivers/STM32F3xx_HAL_Driver/Src/stm32f3xx_hal_dma.c **** 
 208              		.loc 1 158 15 is_stmt 0 view .LVU59
 209 0006 0223     		movs	r3, #2
 210 0008 80F82130 		strb	r3, [r0, #33]
 161:Drivers/STM32F3xx_HAL_Driver/Src/stm32f3xx_hal_dma.c ****   
 211              		.loc 1 161 3 is_stmt 1 view .LVU60
 161:Drivers/STM32F3xx_HAL_Driver/Src/stm32f3xx_hal_dma.c ****   
 212              		.loc 1 161 13 is_stmt 0 view .LVU61
 213 000c 0168     		ldr	r1, [r0]
 161:Drivers/STM32F3xx_HAL_Driver/Src/stm32f3xx_hal_dma.c ****   
 214              		.loc 1 161 7 view .LVU62
 215 000e 0A68     		ldr	r2, [r1]
 216              	.LVL7:
 164:Drivers/STM32F3xx_HAL_Driver/Src/stm32f3xx_hal_dma.c ****                       DMA_CCR_MINC  | DMA_CCR_PINC   | DMA_CCR_CIRC   | \
 217              		.loc 1 164 3 is_stmt 1 view .LVU63
 164:Drivers/STM32F3xx_HAL_Driver/Src/stm32f3xx_hal_dma.c ****                       DMA_CCR_MINC  | DMA_CCR_PINC   | DMA_CCR_CIRC   | \
 218              		.loc 1 164 7 is_stmt 0 view .LVU64
 219 0010 22F47F52 		bic	r2, r2, #16320
 220              	.LVL8:
 164:Drivers/STM32F3xx_HAL_Driver/Src/stm32f3xx_hal_dma.c ****                       DMA_CCR_MINC  | DMA_CCR_PINC   | DMA_CCR_CIRC   | \
 221              		.loc 1 164 7 view .LVU65
 222 0014 22F03002 		bic	r2, r2, #48
 223              	.LVL9:
 169:Drivers/STM32F3xx_HAL_Driver/Src/stm32f3xx_hal_dma.c ****           hdma->Init.PeriphInc           | hdma->Init.MemInc           |
 224              		.loc 1 169 3 is_stmt 1 view .LVU66
 169:Drivers/STM32F3xx_HAL_Driver/Src/stm32f3xx_hal_dma.c ****           hdma->Init.PeriphInc           | hdma->Init.MemInc           |
 225              		.loc 1 169 21 is_stmt 0 view .LVU67
 226 0018 4368     		ldr	r3, [r0, #4]
 170:Drivers/STM32F3xx_HAL_Driver/Src/stm32f3xx_hal_dma.c ****           hdma->Init.PeriphDataAlignment | hdma->Init.MemDataAlignment |
 227              		.loc 1 170 21 view .LVU68
 228 001a 8068     		ldr	r0, [r0, #8]
 229              	.LVL10:
 169:Drivers/STM32F3xx_HAL_Driver/Src/stm32f3xx_hal_dma.c ****           hdma->Init.PeriphInc           | hdma->Init.MemInc           |
 230              		.loc 1 169 39 view .LVU69
 231 001c 0343     		orrs	r3, r3, r0
 170:Drivers/STM32F3xx_HAL_Driver/Src/stm32f3xx_hal_dma.c ****           hdma->Init.PeriphDataAlignment | hdma->Init.MemDataAlignment |
 232              		.loc 1 170 54 view .LVU70
ARM GAS  /var/folders/jw/jcj5j9_530958b2rm5vp9wn00000gn/T//ccD0XOAX.s 			page 21


 233 001e E068     		ldr	r0, [r4, #12]
 170:Drivers/STM32F3xx_HAL_Driver/Src/stm32f3xx_hal_dma.c ****           hdma->Init.PeriphDataAlignment | hdma->Init.MemDataAlignment |
 234              		.loc 1 170 42 view .LVU71
 235 0020 0343     		orrs	r3, r3, r0
 171:Drivers/STM32F3xx_HAL_Driver/Src/stm32f3xx_hal_dma.c ****           hdma->Init.Mode                | hdma->Init.Priority;
 236              		.loc 1 171 21 view .LVU72
 237 0022 2069     		ldr	r0, [r4, #16]
 170:Drivers/STM32F3xx_HAL_Driver/Src/stm32f3xx_hal_dma.c ****           hdma->Init.PeriphDataAlignment | hdma->Init.MemDataAlignment |
 238              		.loc 1 170 72 view .LVU73
 239 0024 0343     		orrs	r3, r3, r0
 171:Drivers/STM32F3xx_HAL_Driver/Src/stm32f3xx_hal_dma.c ****           hdma->Init.Mode                | hdma->Init.Priority;
 240              		.loc 1 171 54 view .LVU74
 241 0026 6069     		ldr	r0, [r4, #20]
 171:Drivers/STM32F3xx_HAL_Driver/Src/stm32f3xx_hal_dma.c ****           hdma->Init.Mode                | hdma->Init.Priority;
 242              		.loc 1 171 42 view .LVU75
 243 0028 0343     		orrs	r3, r3, r0
 172:Drivers/STM32F3xx_HAL_Driver/Src/stm32f3xx_hal_dma.c **** 
 244              		.loc 1 172 21 view .LVU76
 245 002a A069     		ldr	r0, [r4, #24]
 171:Drivers/STM32F3xx_HAL_Driver/Src/stm32f3xx_hal_dma.c ****           hdma->Init.Mode                | hdma->Init.Priority;
 246              		.loc 1 171 72 view .LVU77
 247 002c 0343     		orrs	r3, r3, r0
 172:Drivers/STM32F3xx_HAL_Driver/Src/stm32f3xx_hal_dma.c **** 
 248              		.loc 1 172 54 view .LVU78
 249 002e E069     		ldr	r0, [r4, #28]
 172:Drivers/STM32F3xx_HAL_Driver/Src/stm32f3xx_hal_dma.c **** 
 250              		.loc 1 172 42 view .LVU79
 251 0030 0343     		orrs	r3, r3, r0
 169:Drivers/STM32F3xx_HAL_Driver/Src/stm32f3xx_hal_dma.c ****           hdma->Init.PeriphInc           | hdma->Init.MemInc           |
 252              		.loc 1 169 7 view .LVU80
 253 0032 1343     		orrs	r3, r3, r2
 254              	.LVL11:
 175:Drivers/STM32F3xx_HAL_Driver/Src/stm32f3xx_hal_dma.c ****   
 255              		.loc 1 175 3 is_stmt 1 view .LVU81
 175:Drivers/STM32F3xx_HAL_Driver/Src/stm32f3xx_hal_dma.c ****   
 256              		.loc 1 175 23 is_stmt 0 view .LVU82
 257 0034 0B60     		str	r3, [r1]
 179:Drivers/STM32F3xx_HAL_Driver/Src/stm32f3xx_hal_dma.c ****   
 258              		.loc 1 179 3 is_stmt 1 view .LVU83
 259 0036 2046     		mov	r0, r4
 260 0038 FFF7FEFF 		bl	DMA_CalcBaseAndBitshift
 261              	.LVL12:
 182:Drivers/STM32F3xx_HAL_Driver/Src/stm32f3xx_hal_dma.c **** 
 262              		.loc 1 182 3 view .LVU84
 182:Drivers/STM32F3xx_HAL_Driver/Src/stm32f3xx_hal_dma.c **** 
 263              		.loc 1 182 19 is_stmt 0 view .LVU85
 264 003c 0020     		movs	r0, #0
 265 003e A063     		str	r0, [r4, #56]
 185:Drivers/STM32F3xx_HAL_Driver/Src/stm32f3xx_hal_dma.c ****   
 266              		.loc 1 185 3 is_stmt 1 view .LVU86
 185:Drivers/STM32F3xx_HAL_Driver/Src/stm32f3xx_hal_dma.c ****   
 267              		.loc 1 185 15 is_stmt 0 view .LVU87
 268 0040 0123     		movs	r3, #1
 269 0042 84F82130 		strb	r3, [r4, #33]
 188:Drivers/STM32F3xx_HAL_Driver/Src/stm32f3xx_hal_dma.c ****   
 270              		.loc 1 188 3 is_stmt 1 view .LVU88
 188:Drivers/STM32F3xx_HAL_Driver/Src/stm32f3xx_hal_dma.c ****   
ARM GAS  /var/folders/jw/jcj5j9_530958b2rm5vp9wn00000gn/T//ccD0XOAX.s 			page 22


 271              		.loc 1 188 14 is_stmt 0 view .LVU89
 272 0046 84F82000 		strb	r0, [r4, #32]
 190:Drivers/STM32F3xx_HAL_Driver/Src/stm32f3xx_hal_dma.c **** }  
 273              		.loc 1 190 3 is_stmt 1 view .LVU90
 191:Drivers/STM32F3xx_HAL_Driver/Src/stm32f3xx_hal_dma.c ****   
 274              		.loc 1 191 1 is_stmt 0 view .LVU91
 275 004a 10BD     		pop	{r4, pc}
 276              	.LVL13:
 277              	.L13:
 278              	.LCFI4:
 279              		.cfi_def_cfa_offset 0
 280              		.cfi_restore 4
 281              		.cfi_restore 14
 144:Drivers/STM32F3xx_HAL_Driver/Src/stm32f3xx_hal_dma.c ****   }
 282              		.loc 1 144 12 view .LVU92
 283 004c 0120     		movs	r0, #1
 284              	.LVL14:
 191:Drivers/STM32F3xx_HAL_Driver/Src/stm32f3xx_hal_dma.c ****   
 285              		.loc 1 191 1 view .LVU93
 286 004e 7047     		bx	lr
 287              		.cfi_endproc
 288              	.LFE130:
 290              		.section	.text.HAL_DMA_DeInit,"ax",%progbits
 291              		.align	1
 292              		.global	HAL_DMA_DeInit
 293              		.syntax unified
 294              		.thumb
 295              		.thumb_func
 296              		.fpu fpv4-sp-d16
 298              	HAL_DMA_DeInit:
 299              	.LVL15:
 300              	.LFB131:
 200:Drivers/STM32F3xx_HAL_Driver/Src/stm32f3xx_hal_dma.c ****   /* Check the DMA handle allocation */
 301              		.loc 1 200 1 is_stmt 1 view -0
 302              		.cfi_startproc
 303              		@ args = 0, pretend = 0, frame = 0
 304              		@ frame_needed = 0, uses_anonymous_args = 0
 202:Drivers/STM32F3xx_HAL_Driver/Src/stm32f3xx_hal_dma.c ****   {
 305              		.loc 1 202 3 view .LVU95
 202:Drivers/STM32F3xx_HAL_Driver/Src/stm32f3xx_hal_dma.c ****   {
 306              		.loc 1 202 5 is_stmt 0 view .LVU96
 307 0000 08B3     		cbz	r0, .L20
 200:Drivers/STM32F3xx_HAL_Driver/Src/stm32f3xx_hal_dma.c ****   /* Check the DMA handle allocation */
 308              		.loc 1 200 1 view .LVU97
 309 0002 38B5     		push	{r3, r4, r5, lr}
 310              	.LCFI5:
 311              		.cfi_def_cfa_offset 16
 312              		.cfi_offset 3, -16
 313              		.cfi_offset 4, -12
 314              		.cfi_offset 5, -8
 315              		.cfi_offset 14, -4
 316 0004 0446     		mov	r4, r0
 208:Drivers/STM32F3xx_HAL_Driver/Src/stm32f3xx_hal_dma.c **** 
 317              		.loc 1 208 3 is_stmt 1 view .LVU98
 211:Drivers/STM32F3xx_HAL_Driver/Src/stm32f3xx_hal_dma.c **** 
 318              		.loc 1 211 3 view .LVU99
 211:Drivers/STM32F3xx_HAL_Driver/Src/stm32f3xx_hal_dma.c **** 
ARM GAS  /var/folders/jw/jcj5j9_530958b2rm5vp9wn00000gn/T//ccD0XOAX.s 			page 23


 319              		.loc 1 211 7 is_stmt 0 view .LVU100
 320 0006 0268     		ldr	r2, [r0]
 211:Drivers/STM32F3xx_HAL_Driver/Src/stm32f3xx_hal_dma.c **** 
 321              		.loc 1 211 23 view .LVU101
 322 0008 1368     		ldr	r3, [r2]
 323 000a 23F00103 		bic	r3, r3, #1
 324 000e 1360     		str	r3, [r2]
 214:Drivers/STM32F3xx_HAL_Driver/Src/stm32f3xx_hal_dma.c **** 
 325              		.loc 1 214 3 is_stmt 1 view .LVU102
 214:Drivers/STM32F3xx_HAL_Driver/Src/stm32f3xx_hal_dma.c **** 
 326              		.loc 1 214 7 is_stmt 0 view .LVU103
 327 0010 0368     		ldr	r3, [r0]
 214:Drivers/STM32F3xx_HAL_Driver/Src/stm32f3xx_hal_dma.c **** 
 328              		.loc 1 214 24 view .LVU104
 329 0012 0025     		movs	r5, #0
 330 0014 1D60     		str	r5, [r3]
 217:Drivers/STM32F3xx_HAL_Driver/Src/stm32f3xx_hal_dma.c **** 
 331              		.loc 1 217 3 is_stmt 1 view .LVU105
 217:Drivers/STM32F3xx_HAL_Driver/Src/stm32f3xx_hal_dma.c **** 
 332              		.loc 1 217 7 is_stmt 0 view .LVU106
 333 0016 0368     		ldr	r3, [r0]
 217:Drivers/STM32F3xx_HAL_Driver/Src/stm32f3xx_hal_dma.c **** 
 334              		.loc 1 217 25 view .LVU107
 335 0018 5D60     		str	r5, [r3, #4]
 220:Drivers/STM32F3xx_HAL_Driver/Src/stm32f3xx_hal_dma.c ****   
 336              		.loc 1 220 3 is_stmt 1 view .LVU108
 220:Drivers/STM32F3xx_HAL_Driver/Src/stm32f3xx_hal_dma.c ****   
 337              		.loc 1 220 7 is_stmt 0 view .LVU109
 338 001a 0368     		ldr	r3, [r0]
 220:Drivers/STM32F3xx_HAL_Driver/Src/stm32f3xx_hal_dma.c ****   
 339              		.loc 1 220 25 view .LVU110
 340 001c 9D60     		str	r5, [r3, #8]
 223:Drivers/STM32F3xx_HAL_Driver/Src/stm32f3xx_hal_dma.c **** 
 341              		.loc 1 223 3 is_stmt 1 view .LVU111
 223:Drivers/STM32F3xx_HAL_Driver/Src/stm32f3xx_hal_dma.c **** 
 342              		.loc 1 223 7 is_stmt 0 view .LVU112
 343 001e 0368     		ldr	r3, [r0]
 223:Drivers/STM32F3xx_HAL_Driver/Src/stm32f3xx_hal_dma.c **** 
 344              		.loc 1 223 24 view .LVU113
 345 0020 DD60     		str	r5, [r3, #12]
 226:Drivers/STM32F3xx_HAL_Driver/Src/stm32f3xx_hal_dma.c **** 
 346              		.loc 1 226 3 is_stmt 1 view .LVU114
 347 0022 FFF7FEFF 		bl	DMA_CalcBaseAndBitshift
 348              	.LVL16:
 229:Drivers/STM32F3xx_HAL_Driver/Src/stm32f3xx_hal_dma.c **** 
 349              		.loc 1 229 3 view .LVU115
 229:Drivers/STM32F3xx_HAL_Driver/Src/stm32f3xx_hal_dma.c **** 
 350              		.loc 1 229 52 is_stmt 0 view .LVU116
 351 0026 216C     		ldr	r1, [r4, #64]
 229:Drivers/STM32F3xx_HAL_Driver/Src/stm32f3xx_hal_dma.c **** 
 352              		.loc 1 229 7 view .LVU117
 353 0028 E26B     		ldr	r2, [r4, #60]
 229:Drivers/STM32F3xx_HAL_Driver/Src/stm32f3xx_hal_dma.c **** 
 354              		.loc 1 229 45 view .LVU118
 355 002a 0123     		movs	r3, #1
 356 002c 8B40     		lsls	r3, r3, r1
 229:Drivers/STM32F3xx_HAL_Driver/Src/stm32f3xx_hal_dma.c **** 
ARM GAS  /var/folders/jw/jcj5j9_530958b2rm5vp9wn00000gn/T//ccD0XOAX.s 			page 24


 357              		.loc 1 229 30 view .LVU119
 358 002e 5360     		str	r3, [r2, #4]
 232:Drivers/STM32F3xx_HAL_Driver/Src/stm32f3xx_hal_dma.c ****   hdma->XferHalfCpltCallback = NULL;
 359              		.loc 1 232 3 is_stmt 1 view .LVU120
 232:Drivers/STM32F3xx_HAL_Driver/Src/stm32f3xx_hal_dma.c ****   hdma->XferHalfCpltCallback = NULL;
 360              		.loc 1 232 26 is_stmt 0 view .LVU121
 361 0030 A562     		str	r5, [r4, #40]
 233:Drivers/STM32F3xx_HAL_Driver/Src/stm32f3xx_hal_dma.c ****   hdma->XferErrorCallback = NULL;
 362              		.loc 1 233 3 is_stmt 1 view .LVU122
 233:Drivers/STM32F3xx_HAL_Driver/Src/stm32f3xx_hal_dma.c ****   hdma->XferErrorCallback = NULL;
 363              		.loc 1 233 30 is_stmt 0 view .LVU123
 364 0032 E562     		str	r5, [r4, #44]
 234:Drivers/STM32F3xx_HAL_Driver/Src/stm32f3xx_hal_dma.c ****   hdma->XferAbortCallback = NULL;
 365              		.loc 1 234 3 is_stmt 1 view .LVU124
 234:Drivers/STM32F3xx_HAL_Driver/Src/stm32f3xx_hal_dma.c ****   hdma->XferAbortCallback = NULL;
 366              		.loc 1 234 27 is_stmt 0 view .LVU125
 367 0034 2563     		str	r5, [r4, #48]
 235:Drivers/STM32F3xx_HAL_Driver/Src/stm32f3xx_hal_dma.c **** 
 368              		.loc 1 235 3 is_stmt 1 view .LVU126
 235:Drivers/STM32F3xx_HAL_Driver/Src/stm32f3xx_hal_dma.c **** 
 369              		.loc 1 235 27 is_stmt 0 view .LVU127
 370 0036 6563     		str	r5, [r4, #52]
 238:Drivers/STM32F3xx_HAL_Driver/Src/stm32f3xx_hal_dma.c **** 
 371              		.loc 1 238 3 is_stmt 1 view .LVU128
 238:Drivers/STM32F3xx_HAL_Driver/Src/stm32f3xx_hal_dma.c **** 
 372              		.loc 1 238 19 is_stmt 0 view .LVU129
 373 0038 A563     		str	r5, [r4, #56]
 241:Drivers/STM32F3xx_HAL_Driver/Src/stm32f3xx_hal_dma.c **** 
 374              		.loc 1 241 3 is_stmt 1 view .LVU130
 241:Drivers/STM32F3xx_HAL_Driver/Src/stm32f3xx_hal_dma.c **** 
 375              		.loc 1 241 15 is_stmt 0 view .LVU131
 376 003a 84F82150 		strb	r5, [r4, #33]
 244:Drivers/STM32F3xx_HAL_Driver/Src/stm32f3xx_hal_dma.c **** 
 377              		.loc 1 244 3 is_stmt 1 view .LVU132
 244:Drivers/STM32F3xx_HAL_Driver/Src/stm32f3xx_hal_dma.c **** 
 378              		.loc 1 244 3 view .LVU133
 379 003e 84F82050 		strb	r5, [r4, #32]
 244:Drivers/STM32F3xx_HAL_Driver/Src/stm32f3xx_hal_dma.c **** 
 380              		.loc 1 244 3 view .LVU134
 246:Drivers/STM32F3xx_HAL_Driver/Src/stm32f3xx_hal_dma.c **** }
 381              		.loc 1 246 3 view .LVU135
 246:Drivers/STM32F3xx_HAL_Driver/Src/stm32f3xx_hal_dma.c **** }
 382              		.loc 1 246 10 is_stmt 0 view .LVU136
 383 0042 2846     		mov	r0, r5
 247:Drivers/STM32F3xx_HAL_Driver/Src/stm32f3xx_hal_dma.c **** 
 384              		.loc 1 247 1 view .LVU137
 385 0044 38BD     		pop	{r3, r4, r5, pc}
 386              	.LVL17:
 387              	.L20:
 388              	.LCFI6:
 389              		.cfi_def_cfa_offset 0
 390              		.cfi_restore 3
 391              		.cfi_restore 4
 392              		.cfi_restore 5
 393              		.cfi_restore 14
 204:Drivers/STM32F3xx_HAL_Driver/Src/stm32f3xx_hal_dma.c ****   }
 394              		.loc 1 204 12 view .LVU138
ARM GAS  /var/folders/jw/jcj5j9_530958b2rm5vp9wn00000gn/T//ccD0XOAX.s 			page 25


 395 0046 0120     		movs	r0, #1
 396              	.LVL18:
 247:Drivers/STM32F3xx_HAL_Driver/Src/stm32f3xx_hal_dma.c **** 
 397              		.loc 1 247 1 view .LVU139
 398 0048 7047     		bx	lr
 399              		.cfi_endproc
 400              	.LFE131:
 402              		.section	.text.HAL_DMA_Start,"ax",%progbits
 403              		.align	1
 404              		.global	HAL_DMA_Start
 405              		.syntax unified
 406              		.thumb
 407              		.thumb_func
 408              		.fpu fpv4-sp-d16
 410              	HAL_DMA_Start:
 411              	.LVL19:
 412              	.LFB132:
 282:Drivers/STM32F3xx_HAL_Driver/Src/stm32f3xx_hal_dma.c **** 	HAL_StatusTypeDef status = HAL_OK;
 413              		.loc 1 282 1 is_stmt 1 view -0
 414              		.cfi_startproc
 415              		@ args = 0, pretend = 0, frame = 0
 416              		@ frame_needed = 0, uses_anonymous_args = 0
 282:Drivers/STM32F3xx_HAL_Driver/Src/stm32f3xx_hal_dma.c **** 	HAL_StatusTypeDef status = HAL_OK;
 417              		.loc 1 282 1 is_stmt 0 view .LVU141
 418 0000 70B5     		push	{r4, r5, r6, lr}
 419              	.LCFI7:
 420              		.cfi_def_cfa_offset 16
 421              		.cfi_offset 4, -16
 422              		.cfi_offset 5, -12
 423              		.cfi_offset 6, -8
 424              		.cfi_offset 14, -4
 425 0002 0446     		mov	r4, r0
 283:Drivers/STM32F3xx_HAL_Driver/Src/stm32f3xx_hal_dma.c **** 
 426              		.loc 1 283 2 is_stmt 1 view .LVU142
 427              	.LVL20:
 286:Drivers/STM32F3xx_HAL_Driver/Src/stm32f3xx_hal_dma.c ****   
 428              		.loc 1 286 3 view .LVU143
 289:Drivers/STM32F3xx_HAL_Driver/Src/stm32f3xx_hal_dma.c ****   
 429              		.loc 1 289 3 view .LVU144
 289:Drivers/STM32F3xx_HAL_Driver/Src/stm32f3xx_hal_dma.c ****   
 430              		.loc 1 289 3 view .LVU145
 431 0004 90F82000 		ldrb	r0, [r0, #32]	@ zero_extendqisi2
 432              	.LVL21:
 289:Drivers/STM32F3xx_HAL_Driver/Src/stm32f3xx_hal_dma.c ****   
 433              		.loc 1 289 3 is_stmt 0 view .LVU146
 434 0008 0128     		cmp	r0, #1
 435 000a 1FD0     		beq	.L28
 289:Drivers/STM32F3xx_HAL_Driver/Src/stm32f3xx_hal_dma.c ****   
 436              		.loc 1 289 3 is_stmt 1 discriminator 2 view .LVU147
 437 000c 0120     		movs	r0, #1
 438 000e 84F82000 		strb	r0, [r4, #32]
 289:Drivers/STM32F3xx_HAL_Driver/Src/stm32f3xx_hal_dma.c ****   
 439              		.loc 1 289 3 discriminator 2 view .LVU148
 291:Drivers/STM32F3xx_HAL_Driver/Src/stm32f3xx_hal_dma.c ****   {
 440              		.loc 1 291 3 discriminator 2 view .LVU149
 291:Drivers/STM32F3xx_HAL_Driver/Src/stm32f3xx_hal_dma.c ****   {
 441              		.loc 1 291 33 is_stmt 0 discriminator 2 view .LVU150
ARM GAS  /var/folders/jw/jcj5j9_530958b2rm5vp9wn00000gn/T//ccD0XOAX.s 			page 26


 442 0012 94F82100 		ldrb	r0, [r4, #33]	@ zero_extendqisi2
 291:Drivers/STM32F3xx_HAL_Driver/Src/stm32f3xx_hal_dma.c ****   {
 443              		.loc 1 291 5 discriminator 2 view .LVU151
 444 0016 0128     		cmp	r0, #1
 445 0018 04D0     		beq	.L30
 310:Drivers/STM32F3xx_HAL_Driver/Src/stm32f3xx_hal_dma.c ****   	
 446              		.loc 1 310 4 is_stmt 1 view .LVU152
 310:Drivers/STM32F3xx_HAL_Driver/Src/stm32f3xx_hal_dma.c ****   	
 447              		.loc 1 310 4 view .LVU153
 448 001a 0023     		movs	r3, #0
 449              	.LVL22:
 310:Drivers/STM32F3xx_HAL_Driver/Src/stm32f3xx_hal_dma.c ****   	
 450              		.loc 1 310 4 is_stmt 0 view .LVU154
 451 001c 84F82030 		strb	r3, [r4, #32]
 310:Drivers/STM32F3xx_HAL_Driver/Src/stm32f3xx_hal_dma.c ****   	
 452              		.loc 1 310 4 is_stmt 1 view .LVU155
 313:Drivers/STM32F3xx_HAL_Driver/Src/stm32f3xx_hal_dma.c ****   }  
 453              		.loc 1 313 4 view .LVU156
 454              	.LVL23:
 313:Drivers/STM32F3xx_HAL_Driver/Src/stm32f3xx_hal_dma.c ****   }  
 455              		.loc 1 313 11 is_stmt 0 view .LVU157
 456 0020 0220     		movs	r0, #2
 457              	.LVL24:
 458              	.L26:
 317:Drivers/STM32F3xx_HAL_Driver/Src/stm32f3xx_hal_dma.c **** 
 459              		.loc 1 317 1 view .LVU158
 460 0022 70BD     		pop	{r4, r5, r6, pc}
 461              	.LVL25:
 462              	.L30:
 294:Drivers/STM32F3xx_HAL_Driver/Src/stm32f3xx_hal_dma.c ****   	
 463              		.loc 1 294 4 is_stmt 1 view .LVU159
 294:Drivers/STM32F3xx_HAL_Driver/Src/stm32f3xx_hal_dma.c ****   	
 464              		.loc 1 294 16 is_stmt 0 view .LVU160
 465 0024 0220     		movs	r0, #2
 466 0026 84F82100 		strb	r0, [r4, #33]
 296:Drivers/STM32F3xx_HAL_Driver/Src/stm32f3xx_hal_dma.c ****   	
 467              		.loc 1 296 4 is_stmt 1 view .LVU161
 296:Drivers/STM32F3xx_HAL_Driver/Src/stm32f3xx_hal_dma.c ****   	
 468              		.loc 1 296 20 is_stmt 0 view .LVU162
 469 002a 0025     		movs	r5, #0
 470 002c A563     		str	r5, [r4, #56]
 299:Drivers/STM32F3xx_HAL_Driver/Src/stm32f3xx_hal_dma.c ****   	
 471              		.loc 1 299 4 is_stmt 1 view .LVU163
 299:Drivers/STM32F3xx_HAL_Driver/Src/stm32f3xx_hal_dma.c ****   	
 472              		.loc 1 299 8 is_stmt 0 view .LVU164
 473 002e 2668     		ldr	r6, [r4]
 299:Drivers/STM32F3xx_HAL_Driver/Src/stm32f3xx_hal_dma.c ****   	
 474              		.loc 1 299 24 view .LVU165
 475 0030 3068     		ldr	r0, [r6]
 476 0032 20F00100 		bic	r0, r0, #1
 477 0036 3060     		str	r0, [r6]
 302:Drivers/STM32F3xx_HAL_Driver/Src/stm32f3xx_hal_dma.c ****   	
 478              		.loc 1 302 4 is_stmt 1 view .LVU166
 479 0038 2046     		mov	r0, r4
 480 003a FFF7FEFF 		bl	DMA_SetConfig
 481              	.LVL26:
 305:Drivers/STM32F3xx_HAL_Driver/Src/stm32f3xx_hal_dma.c ****   }
ARM GAS  /var/folders/jw/jcj5j9_530958b2rm5vp9wn00000gn/T//ccD0XOAX.s 			page 27


 482              		.loc 1 305 4 view .LVU167
 305:Drivers/STM32F3xx_HAL_Driver/Src/stm32f3xx_hal_dma.c ****   }
 483              		.loc 1 305 8 is_stmt 0 view .LVU168
 484 003e 2268     		ldr	r2, [r4]
 305:Drivers/STM32F3xx_HAL_Driver/Src/stm32f3xx_hal_dma.c ****   }
 485              		.loc 1 305 24 view .LVU169
 486 0040 1368     		ldr	r3, [r2]
 487 0042 43F00103 		orr	r3, r3, #1
 488 0046 1360     		str	r3, [r2]
 283:Drivers/STM32F3xx_HAL_Driver/Src/stm32f3xx_hal_dma.c **** 
 489              		.loc 1 283 20 view .LVU170
 490 0048 2846     		mov	r0, r5
 491 004a EAE7     		b	.L26
 492              	.LVL27:
 493              	.L28:
 289:Drivers/STM32F3xx_HAL_Driver/Src/stm32f3xx_hal_dma.c ****   
 494              		.loc 1 289 3 view .LVU171
 495 004c 0220     		movs	r0, #2
 496 004e E8E7     		b	.L26
 497              		.cfi_endproc
 498              	.LFE132:
 500              		.section	.text.HAL_DMA_Start_IT,"ax",%progbits
 501              		.align	1
 502              		.global	HAL_DMA_Start_IT
 503              		.syntax unified
 504              		.thumb
 505              		.thumb_func
 506              		.fpu fpv4-sp-d16
 508              	HAL_DMA_Start_IT:
 509              	.LVL28:
 510              	.LFB133:
 329:Drivers/STM32F3xx_HAL_Driver/Src/stm32f3xx_hal_dma.c **** 	HAL_StatusTypeDef status = HAL_OK;
 511              		.loc 1 329 1 is_stmt 1 view -0
 512              		.cfi_startproc
 513              		@ args = 0, pretend = 0, frame = 0
 514              		@ frame_needed = 0, uses_anonymous_args = 0
 329:Drivers/STM32F3xx_HAL_Driver/Src/stm32f3xx_hal_dma.c **** 	HAL_StatusTypeDef status = HAL_OK;
 515              		.loc 1 329 1 is_stmt 0 view .LVU173
 516 0000 38B5     		push	{r3, r4, r5, lr}
 517              	.LCFI8:
 518              		.cfi_def_cfa_offset 16
 519              		.cfi_offset 3, -16
 520              		.cfi_offset 4, -12
 521              		.cfi_offset 5, -8
 522              		.cfi_offset 14, -4
 523 0002 0446     		mov	r4, r0
 330:Drivers/STM32F3xx_HAL_Driver/Src/stm32f3xx_hal_dma.c **** 
 524              		.loc 1 330 2 is_stmt 1 view .LVU174
 525              	.LVL29:
 333:Drivers/STM32F3xx_HAL_Driver/Src/stm32f3xx_hal_dma.c ****   
 526              		.loc 1 333 3 view .LVU175
 336:Drivers/STM32F3xx_HAL_Driver/Src/stm32f3xx_hal_dma.c ****   
 527              		.loc 1 336 3 view .LVU176
 336:Drivers/STM32F3xx_HAL_Driver/Src/stm32f3xx_hal_dma.c ****   
 528              		.loc 1 336 3 view .LVU177
 529 0004 90F82000 		ldrb	r0, [r0, #32]	@ zero_extendqisi2
 530              	.LVL30:
ARM GAS  /var/folders/jw/jcj5j9_530958b2rm5vp9wn00000gn/T//ccD0XOAX.s 			page 28


 336:Drivers/STM32F3xx_HAL_Driver/Src/stm32f3xx_hal_dma.c ****   
 531              		.loc 1 336 3 is_stmt 0 view .LVU178
 532 0008 0128     		cmp	r0, #1
 533 000a 31D0     		beq	.L36
 336:Drivers/STM32F3xx_HAL_Driver/Src/stm32f3xx_hal_dma.c ****   
 534              		.loc 1 336 3 is_stmt 1 discriminator 2 view .LVU179
 535 000c 0120     		movs	r0, #1
 536 000e 84F82000 		strb	r0, [r4, #32]
 336:Drivers/STM32F3xx_HAL_Driver/Src/stm32f3xx_hal_dma.c ****   
 537              		.loc 1 336 3 discriminator 2 view .LVU180
 338:Drivers/STM32F3xx_HAL_Driver/Src/stm32f3xx_hal_dma.c ****   {
 538              		.loc 1 338 3 discriminator 2 view .LVU181
 338:Drivers/STM32F3xx_HAL_Driver/Src/stm32f3xx_hal_dma.c ****   {
 539              		.loc 1 338 33 is_stmt 0 discriminator 2 view .LVU182
 540 0012 94F82100 		ldrb	r0, [r4, #33]	@ zero_extendqisi2
 338:Drivers/STM32F3xx_HAL_Driver/Src/stm32f3xx_hal_dma.c ****   {
 541              		.loc 1 338 5 discriminator 2 view .LVU183
 542 0016 0128     		cmp	r0, #1
 543 0018 04D0     		beq	.L38
 369:Drivers/STM32F3xx_HAL_Driver/Src/stm32f3xx_hal_dma.c ****   
 544              		.loc 1 369 5 is_stmt 1 view .LVU184
 369:Drivers/STM32F3xx_HAL_Driver/Src/stm32f3xx_hal_dma.c ****   
 545              		.loc 1 369 5 view .LVU185
 546 001a 0023     		movs	r3, #0
 547              	.LVL31:
 369:Drivers/STM32F3xx_HAL_Driver/Src/stm32f3xx_hal_dma.c ****   
 548              		.loc 1 369 5 is_stmt 0 view .LVU186
 549 001c 84F82030 		strb	r3, [r4, #32]
 369:Drivers/STM32F3xx_HAL_Driver/Src/stm32f3xx_hal_dma.c ****   
 550              		.loc 1 369 5 is_stmt 1 view .LVU187
 372:Drivers/STM32F3xx_HAL_Driver/Src/stm32f3xx_hal_dma.c ****   }     
 551              		.loc 1 372 5 view .LVU188
 552              	.LVL32:
 372:Drivers/STM32F3xx_HAL_Driver/Src/stm32f3xx_hal_dma.c ****   }     
 553              		.loc 1 372 12 is_stmt 0 view .LVU189
 554 0020 0220     		movs	r0, #2
 555              	.LVL33:
 556              	.L32:
 376:Drivers/STM32F3xx_HAL_Driver/Src/stm32f3xx_hal_dma.c **** 
 557              		.loc 1 376 1 view .LVU190
 558 0022 38BD     		pop	{r3, r4, r5, pc}
 559              	.LVL34:
 560              	.L38:
 341:Drivers/STM32F3xx_HAL_Driver/Src/stm32f3xx_hal_dma.c ****   	
 561              		.loc 1 341 4 is_stmt 1 view .LVU191
 341:Drivers/STM32F3xx_HAL_Driver/Src/stm32f3xx_hal_dma.c ****   	
 562              		.loc 1 341 16 is_stmt 0 view .LVU192
 563 0024 0220     		movs	r0, #2
 564 0026 84F82100 		strb	r0, [r4, #33]
 343:Drivers/STM32F3xx_HAL_Driver/Src/stm32f3xx_hal_dma.c ****   	
 565              		.loc 1 343 4 is_stmt 1 view .LVU193
 343:Drivers/STM32F3xx_HAL_Driver/Src/stm32f3xx_hal_dma.c ****   	
 566              		.loc 1 343 20 is_stmt 0 view .LVU194
 567 002a 0020     		movs	r0, #0
 568 002c A063     		str	r0, [r4, #56]
 346:Drivers/STM32F3xx_HAL_Driver/Src/stm32f3xx_hal_dma.c ****   	
 569              		.loc 1 346 4 is_stmt 1 view .LVU195
ARM GAS  /var/folders/jw/jcj5j9_530958b2rm5vp9wn00000gn/T//ccD0XOAX.s 			page 29


 346:Drivers/STM32F3xx_HAL_Driver/Src/stm32f3xx_hal_dma.c ****   	
 570              		.loc 1 346 8 is_stmt 0 view .LVU196
 571 002e 2568     		ldr	r5, [r4]
 346:Drivers/STM32F3xx_HAL_Driver/Src/stm32f3xx_hal_dma.c ****   	
 572              		.loc 1 346 24 view .LVU197
 573 0030 2868     		ldr	r0, [r5]
 574 0032 20F00100 		bic	r0, r0, #1
 575 0036 2860     		str	r0, [r5]
 349:Drivers/STM32F3xx_HAL_Driver/Src/stm32f3xx_hal_dma.c ****   	
 576              		.loc 1 349 4 is_stmt 1 view .LVU198
 577 0038 2046     		mov	r0, r4
 578 003a FFF7FEFF 		bl	DMA_SetConfig
 579              	.LVL35:
 353:Drivers/STM32F3xx_HAL_Driver/Src/stm32f3xx_hal_dma.c ****     {
 580              		.loc 1 353 5 view .LVU199
 353:Drivers/STM32F3xx_HAL_Driver/Src/stm32f3xx_hal_dma.c ****     {
 581              		.loc 1 353 20 is_stmt 0 view .LVU200
 582 003e E36A     		ldr	r3, [r4, #44]
 353:Drivers/STM32F3xx_HAL_Driver/Src/stm32f3xx_hal_dma.c ****     {
 583              		.loc 1 353 7 view .LVU201
 584 0040 5BB1     		cbz	r3, .L34
 355:Drivers/STM32F3xx_HAL_Driver/Src/stm32f3xx_hal_dma.c ****     }
 585              		.loc 1 355 7 is_stmt 1 view .LVU202
 355:Drivers/STM32F3xx_HAL_Driver/Src/stm32f3xx_hal_dma.c ****     }
 586              		.loc 1 355 11 is_stmt 0 view .LVU203
 587 0042 2268     		ldr	r2, [r4]
 355:Drivers/STM32F3xx_HAL_Driver/Src/stm32f3xx_hal_dma.c ****     }
 588              		.loc 1 355 27 view .LVU204
 589 0044 1368     		ldr	r3, [r2]
 590 0046 43F00E03 		orr	r3, r3, #14
 591 004a 1360     		str	r3, [r2]
 592              	.L35:
 364:Drivers/STM32F3xx_HAL_Driver/Src/stm32f3xx_hal_dma.c ****   }
 593              		.loc 1 364 4 is_stmt 1 view .LVU205
 364:Drivers/STM32F3xx_HAL_Driver/Src/stm32f3xx_hal_dma.c ****   }
 594              		.loc 1 364 8 is_stmt 0 view .LVU206
 595 004c 2268     		ldr	r2, [r4]
 364:Drivers/STM32F3xx_HAL_Driver/Src/stm32f3xx_hal_dma.c ****   }
 596              		.loc 1 364 24 view .LVU207
 597 004e 1368     		ldr	r3, [r2]
 598 0050 43F00103 		orr	r3, r3, #1
 599 0054 1360     		str	r3, [r2]
 330:Drivers/STM32F3xx_HAL_Driver/Src/stm32f3xx_hal_dma.c **** 
 600              		.loc 1 330 20 view .LVU208
 601 0056 0020     		movs	r0, #0
 602 0058 E3E7     		b	.L32
 603              	.L34:
 359:Drivers/STM32F3xx_HAL_Driver/Src/stm32f3xx_hal_dma.c ****   		hdma->Instance->CCR &= ~DMA_IT_HT;
 604              		.loc 1 359 5 is_stmt 1 view .LVU209
 359:Drivers/STM32F3xx_HAL_Driver/Src/stm32f3xx_hal_dma.c ****   		hdma->Instance->CCR &= ~DMA_IT_HT;
 605              		.loc 1 359 9 is_stmt 0 view .LVU210
 606 005a 2268     		ldr	r2, [r4]
 359:Drivers/STM32F3xx_HAL_Driver/Src/stm32f3xx_hal_dma.c ****   		hdma->Instance->CCR &= ~DMA_IT_HT;
 607              		.loc 1 359 25 view .LVU211
 608 005c 1368     		ldr	r3, [r2]
 609 005e 43F00A03 		orr	r3, r3, #10
 610 0062 1360     		str	r3, [r2]
ARM GAS  /var/folders/jw/jcj5j9_530958b2rm5vp9wn00000gn/T//ccD0XOAX.s 			page 30


 360:Drivers/STM32F3xx_HAL_Driver/Src/stm32f3xx_hal_dma.c ****   	}
 611              		.loc 1 360 5 is_stmt 1 view .LVU212
 360:Drivers/STM32F3xx_HAL_Driver/Src/stm32f3xx_hal_dma.c ****   	}
 612              		.loc 1 360 9 is_stmt 0 view .LVU213
 613 0064 2268     		ldr	r2, [r4]
 360:Drivers/STM32F3xx_HAL_Driver/Src/stm32f3xx_hal_dma.c ****   	}
 614              		.loc 1 360 25 view .LVU214
 615 0066 1368     		ldr	r3, [r2]
 616 0068 23F00403 		bic	r3, r3, #4
 617 006c 1360     		str	r3, [r2]
 618 006e EDE7     		b	.L35
 619              	.LVL36:
 620              	.L36:
 336:Drivers/STM32F3xx_HAL_Driver/Src/stm32f3xx_hal_dma.c ****   
 621              		.loc 1 336 3 view .LVU215
 622 0070 0220     		movs	r0, #2
 623 0072 D6E7     		b	.L32
 624              		.cfi_endproc
 625              	.LFE133:
 627              		.section	.text.HAL_DMA_Abort,"ax",%progbits
 628              		.align	1
 629              		.global	HAL_DMA_Abort
 630              		.syntax unified
 631              		.thumb
 632              		.thumb_func
 633              		.fpu fpv4-sp-d16
 635              	HAL_DMA_Abort:
 636              	.LVL37:
 637              	.LFB134:
 385:Drivers/STM32F3xx_HAL_Driver/Src/stm32f3xx_hal_dma.c ****   if(hdma->State != HAL_DMA_STATE_BUSY)
 638              		.loc 1 385 1 is_stmt 1 view -0
 639              		.cfi_startproc
 640              		@ args = 0, pretend = 0, frame = 0
 641              		@ frame_needed = 0, uses_anonymous_args = 0
 642              		@ link register save eliminated.
 386:Drivers/STM32F3xx_HAL_Driver/Src/stm32f3xx_hal_dma.c ****   {
 643              		.loc 1 386 3 view .LVU217
 386:Drivers/STM32F3xx_HAL_Driver/Src/stm32f3xx_hal_dma.c ****   {
 644              		.loc 1 386 10 is_stmt 0 view .LVU218
 645 0000 90F82130 		ldrb	r3, [r0, #33]	@ zero_extendqisi2
 386:Drivers/STM32F3xx_HAL_Driver/Src/stm32f3xx_hal_dma.c ****   {
 646              		.loc 1 386 5 view .LVU219
 647 0004 022B     		cmp	r3, #2
 648 0006 06D0     		beq	.L40
 389:Drivers/STM32F3xx_HAL_Driver/Src/stm32f3xx_hal_dma.c ****     
 649              		.loc 1 389 5 is_stmt 1 view .LVU220
 389:Drivers/STM32F3xx_HAL_Driver/Src/stm32f3xx_hal_dma.c ****     
 650              		.loc 1 389 21 is_stmt 0 view .LVU221
 651 0008 0423     		movs	r3, #4
 652 000a 8363     		str	r3, [r0, #56]
 392:Drivers/STM32F3xx_HAL_Driver/Src/stm32f3xx_hal_dma.c ****     
 653              		.loc 1 392 5 is_stmt 1 view .LVU222
 392:Drivers/STM32F3xx_HAL_Driver/Src/stm32f3xx_hal_dma.c ****     
 654              		.loc 1 392 5 view .LVU223
 655 000c 0023     		movs	r3, #0
 656 000e 80F82030 		strb	r3, [r0, #32]
 392:Drivers/STM32F3xx_HAL_Driver/Src/stm32f3xx_hal_dma.c ****     
ARM GAS  /var/folders/jw/jcj5j9_530958b2rm5vp9wn00000gn/T//ccD0XOAX.s 			page 31


 657              		.loc 1 392 5 view .LVU224
 394:Drivers/STM32F3xx_HAL_Driver/Src/stm32f3xx_hal_dma.c ****   }
 658              		.loc 1 394 5 view .LVU225
 394:Drivers/STM32F3xx_HAL_Driver/Src/stm32f3xx_hal_dma.c ****   }
 659              		.loc 1 394 12 is_stmt 0 view .LVU226
 660 0012 0120     		movs	r0, #1
 661              	.LVL38:
 394:Drivers/STM32F3xx_HAL_Driver/Src/stm32f3xx_hal_dma.c ****   }
 662              		.loc 1 394 12 view .LVU227
 663 0014 7047     		bx	lr
 664              	.LVL39:
 665              	.L40:
 399:Drivers/STM32F3xx_HAL_Driver/Src/stm32f3xx_hal_dma.c ****     
 666              		.loc 1 399 6 is_stmt 1 view .LVU228
 399:Drivers/STM32F3xx_HAL_Driver/Src/stm32f3xx_hal_dma.c ****     
 667              		.loc 1 399 10 is_stmt 0 view .LVU229
 668 0016 0268     		ldr	r2, [r0]
 399:Drivers/STM32F3xx_HAL_Driver/Src/stm32f3xx_hal_dma.c ****     
 669              		.loc 1 399 26 view .LVU230
 670 0018 1368     		ldr	r3, [r2]
 671 001a 23F00E03 		bic	r3, r3, #14
 672 001e 1360     		str	r3, [r2]
 402:Drivers/STM32F3xx_HAL_Driver/Src/stm32f3xx_hal_dma.c ****     
 673              		.loc 1 402 5 is_stmt 1 view .LVU231
 402:Drivers/STM32F3xx_HAL_Driver/Src/stm32f3xx_hal_dma.c ****     
 674              		.loc 1 402 9 is_stmt 0 view .LVU232
 675 0020 0268     		ldr	r2, [r0]
 402:Drivers/STM32F3xx_HAL_Driver/Src/stm32f3xx_hal_dma.c ****     
 676              		.loc 1 402 25 view .LVU233
 677 0022 1368     		ldr	r3, [r2]
 678 0024 23F00103 		bic	r3, r3, #1
 679 0028 1360     		str	r3, [r2]
 405:Drivers/STM32F3xx_HAL_Driver/Src/stm32f3xx_hal_dma.c ****   }
 680              		.loc 1 405 5 is_stmt 1 view .LVU234
 405:Drivers/STM32F3xx_HAL_Driver/Src/stm32f3xx_hal_dma.c ****   }
 681              		.loc 1 405 55 is_stmt 0 view .LVU235
 682 002a 036C     		ldr	r3, [r0, #64]
 405:Drivers/STM32F3xx_HAL_Driver/Src/stm32f3xx_hal_dma.c ****   }
 683              		.loc 1 405 9 view .LVU236
 684 002c C16B     		ldr	r1, [r0, #60]
 405:Drivers/STM32F3xx_HAL_Driver/Src/stm32f3xx_hal_dma.c ****   }
 685              		.loc 1 405 48 view .LVU237
 686 002e 0122     		movs	r2, #1
 687 0030 02FA03F3 		lsl	r3, r2, r3
 405:Drivers/STM32F3xx_HAL_Driver/Src/stm32f3xx_hal_dma.c ****   }
 688              		.loc 1 405 32 view .LVU238
 689 0034 4B60     		str	r3, [r1, #4]
 408:Drivers/STM32F3xx_HAL_Driver/Src/stm32f3xx_hal_dma.c ****   
 690              		.loc 1 408 3 is_stmt 1 view .LVU239
 408:Drivers/STM32F3xx_HAL_Driver/Src/stm32f3xx_hal_dma.c ****   
 691              		.loc 1 408 15 is_stmt 0 view .LVU240
 692 0036 80F82120 		strb	r2, [r0, #33]
 411:Drivers/STM32F3xx_HAL_Driver/Src/stm32f3xx_hal_dma.c ****   
 693              		.loc 1 411 3 is_stmt 1 view .LVU241
 411:Drivers/STM32F3xx_HAL_Driver/Src/stm32f3xx_hal_dma.c ****   
 694              		.loc 1 411 3 view .LVU242
 695 003a 0023     		movs	r3, #0
ARM GAS  /var/folders/jw/jcj5j9_530958b2rm5vp9wn00000gn/T//ccD0XOAX.s 			page 32


 696 003c 80F82030 		strb	r3, [r0, #32]
 411:Drivers/STM32F3xx_HAL_Driver/Src/stm32f3xx_hal_dma.c ****   
 697              		.loc 1 411 3 view .LVU243
 413:Drivers/STM32F3xx_HAL_Driver/Src/stm32f3xx_hal_dma.c **** }
 698              		.loc 1 413 3 view .LVU244
 413:Drivers/STM32F3xx_HAL_Driver/Src/stm32f3xx_hal_dma.c **** }
 699              		.loc 1 413 10 is_stmt 0 view .LVU245
 700 0040 1846     		mov	r0, r3
 701              	.LVL40:
 414:Drivers/STM32F3xx_HAL_Driver/Src/stm32f3xx_hal_dma.c **** 
 702              		.loc 1 414 1 view .LVU246
 703 0042 7047     		bx	lr
 704              		.cfi_endproc
 705              	.LFE134:
 707              		.section	.text.HAL_DMA_Abort_IT,"ax",%progbits
 708              		.align	1
 709              		.global	HAL_DMA_Abort_IT
 710              		.syntax unified
 711              		.thumb
 712              		.thumb_func
 713              		.fpu fpv4-sp-d16
 715              	HAL_DMA_Abort_IT:
 716              	.LVL41:
 717              	.LFB135:
 423:Drivers/STM32F3xx_HAL_Driver/Src/stm32f3xx_hal_dma.c ****   HAL_StatusTypeDef status = HAL_OK;
 718              		.loc 1 423 1 is_stmt 1 view -0
 719              		.cfi_startproc
 720              		@ args = 0, pretend = 0, frame = 0
 721              		@ frame_needed = 0, uses_anonymous_args = 0
 423:Drivers/STM32F3xx_HAL_Driver/Src/stm32f3xx_hal_dma.c ****   HAL_StatusTypeDef status = HAL_OK;
 722              		.loc 1 423 1 is_stmt 0 view .LVU248
 723 0000 08B5     		push	{r3, lr}
 724              	.LCFI9:
 725              		.cfi_def_cfa_offset 8
 726              		.cfi_offset 3, -8
 727              		.cfi_offset 14, -4
 424:Drivers/STM32F3xx_HAL_Driver/Src/stm32f3xx_hal_dma.c ****   
 728              		.loc 1 424 3 is_stmt 1 view .LVU249
 729              	.LVL42:
 426:Drivers/STM32F3xx_HAL_Driver/Src/stm32f3xx_hal_dma.c ****   {
 730              		.loc 1 426 3 view .LVU250
 426:Drivers/STM32F3xx_HAL_Driver/Src/stm32f3xx_hal_dma.c ****   {
 731              		.loc 1 426 32 is_stmt 0 view .LVU251
 732 0002 90F82130 		ldrb	r3, [r0, #33]	@ zero_extendqisi2
 426:Drivers/STM32F3xx_HAL_Driver/Src/stm32f3xx_hal_dma.c ****   {
 733              		.loc 1 426 5 view .LVU252
 734 0006 022B     		cmp	r3, #2
 735 0008 03D0     		beq	.L43
 429:Drivers/STM32F3xx_HAL_Driver/Src/stm32f3xx_hal_dma.c ****         
 736              		.loc 1 429 5 is_stmt 1 view .LVU253
 429:Drivers/STM32F3xx_HAL_Driver/Src/stm32f3xx_hal_dma.c ****         
 737              		.loc 1 429 21 is_stmt 0 view .LVU254
 738 000a 0423     		movs	r3, #4
 739 000c 8363     		str	r3, [r0, #56]
 431:Drivers/STM32F3xx_HAL_Driver/Src/stm32f3xx_hal_dma.c ****   }
 740              		.loc 1 431 5 is_stmt 1 view .LVU255
 741              	.LVL43:
ARM GAS  /var/folders/jw/jcj5j9_530958b2rm5vp9wn00000gn/T//ccD0XOAX.s 			page 33


 431:Drivers/STM32F3xx_HAL_Driver/Src/stm32f3xx_hal_dma.c ****   }
 742              		.loc 1 431 12 is_stmt 0 view .LVU256
 743 000e 0120     		movs	r0, #1
 744              	.LVL44:
 745              	.L44:
 457:Drivers/STM32F3xx_HAL_Driver/Src/stm32f3xx_hal_dma.c **** }
 746              		.loc 1 457 3 is_stmt 1 view .LVU257
 458:Drivers/STM32F3xx_HAL_Driver/Src/stm32f3xx_hal_dma.c **** 
 747              		.loc 1 458 1 is_stmt 0 view .LVU258
 748 0010 08BD     		pop	{r3, pc}
 749              	.LVL45:
 750              	.L43:
 437:Drivers/STM32F3xx_HAL_Driver/Src/stm32f3xx_hal_dma.c ****     
 751              		.loc 1 437 5 is_stmt 1 view .LVU259
 437:Drivers/STM32F3xx_HAL_Driver/Src/stm32f3xx_hal_dma.c ****     
 752              		.loc 1 437 9 is_stmt 0 view .LVU260
 753 0012 0268     		ldr	r2, [r0]
 437:Drivers/STM32F3xx_HAL_Driver/Src/stm32f3xx_hal_dma.c ****     
 754              		.loc 1 437 25 view .LVU261
 755 0014 1368     		ldr	r3, [r2]
 756 0016 23F00E03 		bic	r3, r3, #14
 757 001a 1360     		str	r3, [r2]
 440:Drivers/STM32F3xx_HAL_Driver/Src/stm32f3xx_hal_dma.c ****     
 758              		.loc 1 440 5 is_stmt 1 view .LVU262
 440:Drivers/STM32F3xx_HAL_Driver/Src/stm32f3xx_hal_dma.c ****     
 759              		.loc 1 440 9 is_stmt 0 view .LVU263
 760 001c 0268     		ldr	r2, [r0]
 440:Drivers/STM32F3xx_HAL_Driver/Src/stm32f3xx_hal_dma.c ****     
 761              		.loc 1 440 25 view .LVU264
 762 001e 1368     		ldr	r3, [r2]
 763 0020 23F00103 		bic	r3, r3, #1
 764 0024 1360     		str	r3, [r2]
 443:Drivers/STM32F3xx_HAL_Driver/Src/stm32f3xx_hal_dma.c ****     
 765              		.loc 1 443 5 is_stmt 1 view .LVU265
 443:Drivers/STM32F3xx_HAL_Driver/Src/stm32f3xx_hal_dma.c ****     
 766              		.loc 1 443 54 is_stmt 0 view .LVU266
 767 0026 036C     		ldr	r3, [r0, #64]
 443:Drivers/STM32F3xx_HAL_Driver/Src/stm32f3xx_hal_dma.c ****     
 768              		.loc 1 443 9 view .LVU267
 769 0028 C16B     		ldr	r1, [r0, #60]
 443:Drivers/STM32F3xx_HAL_Driver/Src/stm32f3xx_hal_dma.c ****     
 770              		.loc 1 443 47 view .LVU268
 771 002a 0122     		movs	r2, #1
 772 002c 02FA03F3 		lsl	r3, r2, r3
 443:Drivers/STM32F3xx_HAL_Driver/Src/stm32f3xx_hal_dma.c ****     
 773              		.loc 1 443 32 view .LVU269
 774 0030 4B60     		str	r3, [r1, #4]
 446:Drivers/STM32F3xx_HAL_Driver/Src/stm32f3xx_hal_dma.c ****     
 775              		.loc 1 446 5 is_stmt 1 view .LVU270
 446:Drivers/STM32F3xx_HAL_Driver/Src/stm32f3xx_hal_dma.c ****     
 776              		.loc 1 446 17 is_stmt 0 view .LVU271
 777 0032 80F82120 		strb	r2, [r0, #33]
 449:Drivers/STM32F3xx_HAL_Driver/Src/stm32f3xx_hal_dma.c ****     
 778              		.loc 1 449 5 is_stmt 1 view .LVU272
 449:Drivers/STM32F3xx_HAL_Driver/Src/stm32f3xx_hal_dma.c ****     
 779              		.loc 1 449 5 view .LVU273
 780 0036 0023     		movs	r3, #0
ARM GAS  /var/folders/jw/jcj5j9_530958b2rm5vp9wn00000gn/T//ccD0XOAX.s 			page 34


 781 0038 80F82030 		strb	r3, [r0, #32]
 449:Drivers/STM32F3xx_HAL_Driver/Src/stm32f3xx_hal_dma.c ****     
 782              		.loc 1 449 5 view .LVU274
 452:Drivers/STM32F3xx_HAL_Driver/Src/stm32f3xx_hal_dma.c ****     {
 783              		.loc 1 452 5 view .LVU275
 452:Drivers/STM32F3xx_HAL_Driver/Src/stm32f3xx_hal_dma.c ****     {
 784              		.loc 1 452 12 is_stmt 0 view .LVU276
 785 003c 436B     		ldr	r3, [r0, #52]
 452:Drivers/STM32F3xx_HAL_Driver/Src/stm32f3xx_hal_dma.c ****     {
 786              		.loc 1 452 7 view .LVU277
 787 003e 13B1     		cbz	r3, .L45
 454:Drivers/STM32F3xx_HAL_Driver/Src/stm32f3xx_hal_dma.c ****     } 
 788              		.loc 1 454 7 is_stmt 1 view .LVU278
 789 0040 9847     		blx	r3
 790              	.LVL46:
 424:Drivers/STM32F3xx_HAL_Driver/Src/stm32f3xx_hal_dma.c ****   
 791              		.loc 1 424 21 is_stmt 0 view .LVU279
 792 0042 0020     		movs	r0, #0
 793 0044 E4E7     		b	.L44
 794              	.LVL47:
 795              	.L45:
 424:Drivers/STM32F3xx_HAL_Driver/Src/stm32f3xx_hal_dma.c ****   
 796              		.loc 1 424 21 view .LVU280
 797 0046 0020     		movs	r0, #0
 798              	.LVL48:
 424:Drivers/STM32F3xx_HAL_Driver/Src/stm32f3xx_hal_dma.c ****   
 799              		.loc 1 424 21 view .LVU281
 800 0048 E2E7     		b	.L44
 801              		.cfi_endproc
 802              	.LFE135:
 804              		.section	.text.HAL_DMA_PollForTransfer,"ax",%progbits
 805              		.align	1
 806              		.global	HAL_DMA_PollForTransfer
 807              		.syntax unified
 808              		.thumb
 809              		.thumb_func
 810              		.fpu fpv4-sp-d16
 812              	HAL_DMA_PollForTransfer:
 813              	.LVL49:
 814              	.LFB136:
 469:Drivers/STM32F3xx_HAL_Driver/Src/stm32f3xx_hal_dma.c ****   uint32_t temp;
 815              		.loc 1 469 1 is_stmt 1 view -0
 816              		.cfi_startproc
 817              		@ args = 0, pretend = 0, frame = 0
 818              		@ frame_needed = 0, uses_anonymous_args = 0
 469:Drivers/STM32F3xx_HAL_Driver/Src/stm32f3xx_hal_dma.c ****   uint32_t temp;
 819              		.loc 1 469 1 is_stmt 0 view .LVU283
 820 0000 2DE9F843 		push	{r3, r4, r5, r6, r7, r8, r9, lr}
 821              	.LCFI10:
 822              		.cfi_def_cfa_offset 32
 823              		.cfi_offset 3, -32
 824              		.cfi_offset 4, -28
 825              		.cfi_offset 5, -24
 826              		.cfi_offset 6, -20
 827              		.cfi_offset 7, -16
 828              		.cfi_offset 8, -12
 829              		.cfi_offset 9, -8
ARM GAS  /var/folders/jw/jcj5j9_530958b2rm5vp9wn00000gn/T//ccD0XOAX.s 			page 35


 830              		.cfi_offset 14, -4
 831 0004 0446     		mov	r4, r0
 470:Drivers/STM32F3xx_HAL_Driver/Src/stm32f3xx_hal_dma.c ****   uint32_t tickstart = 0U;
 832              		.loc 1 470 3 is_stmt 1 view .LVU284
 471:Drivers/STM32F3xx_HAL_Driver/Src/stm32f3xx_hal_dma.c ****   
 833              		.loc 1 471 3 view .LVU285
 834              	.LVL50:
 473:Drivers/STM32F3xx_HAL_Driver/Src/stm32f3xx_hal_dma.c ****   {
 835              		.loc 1 473 3 view .LVU286
 473:Drivers/STM32F3xx_HAL_Driver/Src/stm32f3xx_hal_dma.c ****   {
 836              		.loc 1 473 32 is_stmt 0 view .LVU287
 837 0006 90F82130 		ldrb	r3, [r0, #33]	@ zero_extendqisi2
 473:Drivers/STM32F3xx_HAL_Driver/Src/stm32f3xx_hal_dma.c ****   {
 838              		.loc 1 473 5 view .LVU288
 839 000a 022B     		cmp	r3, #2
 840 000c 07D0     		beq	.L48
 476:Drivers/STM32F3xx_HAL_Driver/Src/stm32f3xx_hal_dma.c ****     __HAL_UNLOCK(hdma);
 841              		.loc 1 476 5 is_stmt 1 view .LVU289
 476:Drivers/STM32F3xx_HAL_Driver/Src/stm32f3xx_hal_dma.c ****     __HAL_UNLOCK(hdma);
 842              		.loc 1 476 21 is_stmt 0 view .LVU290
 843 000e 0423     		movs	r3, #4
 844 0010 8363     		str	r3, [r0, #56]
 477:Drivers/STM32F3xx_HAL_Driver/Src/stm32f3xx_hal_dma.c ****     return HAL_ERROR;
 845              		.loc 1 477 5 is_stmt 1 view .LVU291
 477:Drivers/STM32F3xx_HAL_Driver/Src/stm32f3xx_hal_dma.c ****     return HAL_ERROR;
 846              		.loc 1 477 5 view .LVU292
 847 0012 0023     		movs	r3, #0
 848 0014 80F82030 		strb	r3, [r0, #32]
 477:Drivers/STM32F3xx_HAL_Driver/Src/stm32f3xx_hal_dma.c ****     return HAL_ERROR;
 849              		.loc 1 477 5 view .LVU293
 478:Drivers/STM32F3xx_HAL_Driver/Src/stm32f3xx_hal_dma.c ****   }
 850              		.loc 1 478 5 view .LVU294
 478:Drivers/STM32F3xx_HAL_Driver/Src/stm32f3xx_hal_dma.c ****   }
 851              		.loc 1 478 12 is_stmt 0 view .LVU295
 852 0018 0120     		movs	r0, #1
 853              	.LVL51:
 854              	.L49:
 561:Drivers/STM32F3xx_HAL_Driver/Src/stm32f3xx_hal_dma.c **** 
 855              		.loc 1 561 1 view .LVU296
 856 001a BDE8F883 		pop	{r3, r4, r5, r6, r7, r8, r9, pc}
 857              	.LVL52:
 858              	.L48:
 561:Drivers/STM32F3xx_HAL_Driver/Src/stm32f3xx_hal_dma.c **** 
 859              		.loc 1 561 1 view .LVU297
 860 001e 8846     		mov	r8, r1
 861 0020 1646     		mov	r6, r2
 482:Drivers/STM32F3xx_HAL_Driver/Src/stm32f3xx_hal_dma.c ****   {
 862              		.loc 1 482 3 is_stmt 1 view .LVU298
 482:Drivers/STM32F3xx_HAL_Driver/Src/stm32f3xx_hal_dma.c ****   {
 863              		.loc 1 482 21 is_stmt 0 view .LVU299
 864 0022 0368     		ldr	r3, [r0]
 482:Drivers/STM32F3xx_HAL_Driver/Src/stm32f3xx_hal_dma.c ****   {
 865              		.loc 1 482 31 view .LVU300
 866 0024 1B68     		ldr	r3, [r3]
 482:Drivers/STM32F3xx_HAL_Driver/Src/stm32f3xx_hal_dma.c ****   {
 867              		.loc 1 482 6 view .LVU301
 868 0026 13F0200F 		tst	r3, #32
ARM GAS  /var/folders/jw/jcj5j9_530958b2rm5vp9wn00000gn/T//ccD0XOAX.s 			page 36


 869 002a 23D1     		bne	.L61
 489:Drivers/STM32F3xx_HAL_Driver/Src/stm32f3xx_hal_dma.c ****   {
 870              		.loc 1 489 3 is_stmt 1 view .LVU302
 489:Drivers/STM32F3xx_HAL_Driver/Src/stm32f3xx_hal_dma.c ****   {
 871              		.loc 1 489 5 is_stmt 0 view .LVU303
 872 002c 39BB     		cbnz	r1, .L51
 492:Drivers/STM32F3xx_HAL_Driver/Src/stm32f3xx_hal_dma.c ****   }
 873              		.loc 1 492 5 is_stmt 1 view .LVU304
 492:Drivers/STM32F3xx_HAL_Driver/Src/stm32f3xx_hal_dma.c ****   }
 874              		.loc 1 492 32 is_stmt 0 view .LVU305
 875 002e 036C     		ldr	r3, [r0, #64]
 492:Drivers/STM32F3xx_HAL_Driver/Src/stm32f3xx_hal_dma.c ****   }
 876              		.loc 1 492 10 view .LVU306
 877 0030 0227     		movs	r7, #2
 878 0032 9F40     		lsls	r7, r7, r3
 879              	.LVL53:
 880              	.L52:
 501:Drivers/STM32F3xx_HAL_Driver/Src/stm32f3xx_hal_dma.c **** 
 881              		.loc 1 501 3 is_stmt 1 view .LVU307
 501:Drivers/STM32F3xx_HAL_Driver/Src/stm32f3xx_hal_dma.c **** 
 882              		.loc 1 501 15 is_stmt 0 view .LVU308
 883 0034 FFF7FEFF 		bl	HAL_GetTick
 884              	.LVL54:
 501:Drivers/STM32F3xx_HAL_Driver/Src/stm32f3xx_hal_dma.c **** 
 885              		.loc 1 501 15 view .LVU309
 886 0038 8146     		mov	r9, r0
 887              	.LVL55:
 503:Drivers/STM32F3xx_HAL_Driver/Src/stm32f3xx_hal_dma.c ****   {
 888              		.loc 1 503 3 is_stmt 1 view .LVU310
 889              	.L55:
 503:Drivers/STM32F3xx_HAL_Driver/Src/stm32f3xx_hal_dma.c ****   {
 890              		.loc 1 503 8 view .LVU311
 503:Drivers/STM32F3xx_HAL_Driver/Src/stm32f3xx_hal_dma.c ****   {
 891              		.loc 1 503 23 is_stmt 0 view .LVU312
 892 003a E56B     		ldr	r5, [r4, #60]
 503:Drivers/STM32F3xx_HAL_Driver/Src/stm32f3xx_hal_dma.c ****   {
 893              		.loc 1 503 39 view .LVU313
 894 003c 2B68     		ldr	r3, [r5]
 503:Drivers/STM32F3xx_HAL_Driver/Src/stm32f3xx_hal_dma.c ****   {
 895              		.loc 1 503 8 view .LVU314
 896 003e 3B42     		tst	r3, r7
 897 0040 2CD1     		bne	.L62
 505:Drivers/STM32F3xx_HAL_Driver/Src/stm32f3xx_hal_dma.c ****     {      
 898              		.loc 1 505 5 is_stmt 1 view .LVU315
 505:Drivers/STM32F3xx_HAL_Driver/Src/stm32f3xx_hal_dma.c ****     {      
 899              		.loc 1 505 38 is_stmt 0 view .LVU316
 900 0042 2968     		ldr	r1, [r5]
 505:Drivers/STM32F3xx_HAL_Driver/Src/stm32f3xx_hal_dma.c ****     {      
 901              		.loc 1 505 67 view .LVU317
 902 0044 226C     		ldr	r2, [r4, #64]
 505:Drivers/STM32F3xx_HAL_Driver/Src/stm32f3xx_hal_dma.c ****     {      
 903              		.loc 1 505 60 view .LVU318
 904 0046 0823     		movs	r3, #8
 905 0048 9340     		lsls	r3, r3, r2
 505:Drivers/STM32F3xx_HAL_Driver/Src/stm32f3xx_hal_dma.c ****     {      
 906              		.loc 1 505 7 view .LVU319
 907 004a 1942     		tst	r1, r3
ARM GAS  /var/folders/jw/jcj5j9_530958b2rm5vp9wn00000gn/T//ccD0XOAX.s 			page 37


 908 004c 1BD1     		bne	.L63
 524:Drivers/STM32F3xx_HAL_Driver/Src/stm32f3xx_hal_dma.c ****     {
 909              		.loc 1 524 5 is_stmt 1 view .LVU320
 524:Drivers/STM32F3xx_HAL_Driver/Src/stm32f3xx_hal_dma.c ****     {
 910              		.loc 1 524 7 is_stmt 0 view .LVU321
 911 004e B6F1FF3F 		cmp	r6, #-1
 912 0052 F2D0     		beq	.L55
 526:Drivers/STM32F3xx_HAL_Driver/Src/stm32f3xx_hal_dma.c ****       {
 913              		.loc 1 526 7 is_stmt 1 view .LVU322
 526:Drivers/STM32F3xx_HAL_Driver/Src/stm32f3xx_hal_dma.c ****       {
 914              		.loc 1 526 9 is_stmt 0 view .LVU323
 915 0054 2EB1     		cbz	r6, .L56
 526:Drivers/STM32F3xx_HAL_Driver/Src/stm32f3xx_hal_dma.c ****       {
 916              		.loc 1 526 31 discriminator 1 view .LVU324
 917 0056 FFF7FEFF 		bl	HAL_GetTick
 918              	.LVL56:
 526:Drivers/STM32F3xx_HAL_Driver/Src/stm32f3xx_hal_dma.c ****       {
 919              		.loc 1 526 45 discriminator 1 view .LVU325
 920 005a A0EB0900 		sub	r0, r0, r9
 526:Drivers/STM32F3xx_HAL_Driver/Src/stm32f3xx_hal_dma.c ****       {
 921              		.loc 1 526 26 discriminator 1 view .LVU326
 922 005e B042     		cmp	r0, r6
 923 0060 EBD9     		bls	.L55
 924              	.L56:
 529:Drivers/STM32F3xx_HAL_Driver/Src/stm32f3xx_hal_dma.c ****         
 925              		.loc 1 529 9 is_stmt 1 view .LVU327
 529:Drivers/STM32F3xx_HAL_Driver/Src/stm32f3xx_hal_dma.c ****         
 926              		.loc 1 529 25 is_stmt 0 view .LVU328
 927 0062 2023     		movs	r3, #32
 928 0064 A363     		str	r3, [r4, #56]
 532:Drivers/STM32F3xx_HAL_Driver/Src/stm32f3xx_hal_dma.c **** 
 929              		.loc 1 532 9 is_stmt 1 view .LVU329
 532:Drivers/STM32F3xx_HAL_Driver/Src/stm32f3xx_hal_dma.c **** 
 930              		.loc 1 532 21 is_stmt 0 view .LVU330
 931 0066 0120     		movs	r0, #1
 932 0068 84F82100 		strb	r0, [r4, #33]
 535:Drivers/STM32F3xx_HAL_Driver/Src/stm32f3xx_hal_dma.c **** 
 933              		.loc 1 535 9 is_stmt 1 view .LVU331
 535:Drivers/STM32F3xx_HAL_Driver/Src/stm32f3xx_hal_dma.c **** 
 934              		.loc 1 535 9 view .LVU332
 935 006c 0023     		movs	r3, #0
 936 006e 84F82030 		strb	r3, [r4, #32]
 535:Drivers/STM32F3xx_HAL_Driver/Src/stm32f3xx_hal_dma.c **** 
 937              		.loc 1 535 9 view .LVU333
 537:Drivers/STM32F3xx_HAL_Driver/Src/stm32f3xx_hal_dma.c ****       }
 938              		.loc 1 537 9 view .LVU334
 537:Drivers/STM32F3xx_HAL_Driver/Src/stm32f3xx_hal_dma.c ****       }
 939              		.loc 1 537 16 is_stmt 0 view .LVU335
 940 0072 D2E7     		b	.L49
 941              	.LVL57:
 942              	.L61:
 484:Drivers/STM32F3xx_HAL_Driver/Src/stm32f3xx_hal_dma.c ****     return HAL_ERROR;
 943              		.loc 1 484 5 is_stmt 1 view .LVU336
 484:Drivers/STM32F3xx_HAL_Driver/Src/stm32f3xx_hal_dma.c ****     return HAL_ERROR;
 944              		.loc 1 484 21 is_stmt 0 view .LVU337
 945 0074 4FF48073 		mov	r3, #256
 946 0078 8363     		str	r3, [r0, #56]
ARM GAS  /var/folders/jw/jcj5j9_530958b2rm5vp9wn00000gn/T//ccD0XOAX.s 			page 38


 485:Drivers/STM32F3xx_HAL_Driver/Src/stm32f3xx_hal_dma.c ****   }
 947              		.loc 1 485 5 is_stmt 1 view .LVU338
 485:Drivers/STM32F3xx_HAL_Driver/Src/stm32f3xx_hal_dma.c ****   }
 948              		.loc 1 485 12 is_stmt 0 view .LVU339
 949 007a 0120     		movs	r0, #1
 950              	.LVL58:
 485:Drivers/STM32F3xx_HAL_Driver/Src/stm32f3xx_hal_dma.c ****   }
 951              		.loc 1 485 12 view .LVU340
 952 007c CDE7     		b	.L49
 953              	.LVL59:
 954              	.L51:
 497:Drivers/STM32F3xx_HAL_Driver/Src/stm32f3xx_hal_dma.c ****   }
 955              		.loc 1 497 5 is_stmt 1 view .LVU341
 497:Drivers/STM32F3xx_HAL_Driver/Src/stm32f3xx_hal_dma.c ****   }
 956              		.loc 1 497 32 is_stmt 0 view .LVU342
 957 007e 036C     		ldr	r3, [r0, #64]
 497:Drivers/STM32F3xx_HAL_Driver/Src/stm32f3xx_hal_dma.c ****   }
 958              		.loc 1 497 10 view .LVU343
 959 0080 0427     		movs	r7, #4
 960 0082 9F40     		lsls	r7, r7, r3
 961              	.LVL60:
 497:Drivers/STM32F3xx_HAL_Driver/Src/stm32f3xx_hal_dma.c ****   }
 962              		.loc 1 497 10 view .LVU344
 963 0084 D6E7     		b	.L52
 964              	.LVL61:
 965              	.L63:
 510:Drivers/STM32F3xx_HAL_Driver/Src/stm32f3xx_hal_dma.c ****       
 966              		.loc 1 510 7 is_stmt 1 view .LVU345
 510:Drivers/STM32F3xx_HAL_Driver/Src/stm32f3xx_hal_dma.c ****       
 967              		.loc 1 510 49 is_stmt 0 view .LVU346
 968 0086 0120     		movs	r0, #1
 969 0088 00FA02F2 		lsl	r2, r0, r2
 510:Drivers/STM32F3xx_HAL_Driver/Src/stm32f3xx_hal_dma.c ****       
 970              		.loc 1 510 34 view .LVU347
 971 008c 6A60     		str	r2, [r5, #4]
 513:Drivers/STM32F3xx_HAL_Driver/Src/stm32f3xx_hal_dma.c **** 
 972              		.loc 1 513 7 is_stmt 1 view .LVU348
 513:Drivers/STM32F3xx_HAL_Driver/Src/stm32f3xx_hal_dma.c **** 
 973              		.loc 1 513 23 is_stmt 0 view .LVU349
 974 008e A063     		str	r0, [r4, #56]
 516:Drivers/STM32F3xx_HAL_Driver/Src/stm32f3xx_hal_dma.c ****       
 975              		.loc 1 516 7 is_stmt 1 view .LVU350
 516:Drivers/STM32F3xx_HAL_Driver/Src/stm32f3xx_hal_dma.c ****       
 976              		.loc 1 516 18 is_stmt 0 view .LVU351
 977 0090 84F82100 		strb	r0, [r4, #33]
 519:Drivers/STM32F3xx_HAL_Driver/Src/stm32f3xx_hal_dma.c ****       
 978              		.loc 1 519 7 is_stmt 1 view .LVU352
 519:Drivers/STM32F3xx_HAL_Driver/Src/stm32f3xx_hal_dma.c ****       
 979              		.loc 1 519 7 view .LVU353
 980 0094 0023     		movs	r3, #0
 981 0096 84F82030 		strb	r3, [r4, #32]
 519:Drivers/STM32F3xx_HAL_Driver/Src/stm32f3xx_hal_dma.c ****       
 982              		.loc 1 519 7 view .LVU354
 521:Drivers/STM32F3xx_HAL_Driver/Src/stm32f3xx_hal_dma.c ****     }      
 983              		.loc 1 521 7 view .LVU355
 521:Drivers/STM32F3xx_HAL_Driver/Src/stm32f3xx_hal_dma.c ****     }      
 984              		.loc 1 521 14 is_stmt 0 view .LVU356
ARM GAS  /var/folders/jw/jcj5j9_530958b2rm5vp9wn00000gn/T//ccD0XOAX.s 			page 39


 985 009a BEE7     		b	.L49
 986              	.L62:
 542:Drivers/STM32F3xx_HAL_Driver/Src/stm32f3xx_hal_dma.c ****   {
 987              		.loc 1 542 3 is_stmt 1 view .LVU357
 542:Drivers/STM32F3xx_HAL_Driver/Src/stm32f3xx_hal_dma.c ****   {
 988              		.loc 1 542 5 is_stmt 0 view .LVU358
 989 009c B8F1000F 		cmp	r8, #0
 990 00a0 0AD1     		bne	.L58
 545:Drivers/STM32F3xx_HAL_Driver/Src/stm32f3xx_hal_dma.c **** 
 991              		.loc 1 545 5 is_stmt 1 view .LVU359
 545:Drivers/STM32F3xx_HAL_Driver/Src/stm32f3xx_hal_dma.c **** 
 992              		.loc 1 545 54 is_stmt 0 view .LVU360
 993 00a2 226C     		ldr	r2, [r4, #64]
 545:Drivers/STM32F3xx_HAL_Driver/Src/stm32f3xx_hal_dma.c **** 
 994              		.loc 1 545 47 view .LVU361
 995 00a4 0223     		movs	r3, #2
 996 00a6 9340     		lsls	r3, r3, r2
 545:Drivers/STM32F3xx_HAL_Driver/Src/stm32f3xx_hal_dma.c **** 
 997              		.loc 1 545 32 view .LVU362
 998 00a8 6B60     		str	r3, [r5, #4]
 549:Drivers/STM32F3xx_HAL_Driver/Src/stm32f3xx_hal_dma.c ****   }
 999              		.loc 1 549 5 is_stmt 1 view .LVU363
 549:Drivers/STM32F3xx_HAL_Driver/Src/stm32f3xx_hal_dma.c ****   }
 1000              		.loc 1 549 17 is_stmt 0 view .LVU364
 1001 00aa 0123     		movs	r3, #1
 1002 00ac 84F82130 		strb	r3, [r4, #33]
 1003              	.L59:
 558:Drivers/STM32F3xx_HAL_Driver/Src/stm32f3xx_hal_dma.c **** 
 1004              		.loc 1 558 3 is_stmt 1 view .LVU365
 558:Drivers/STM32F3xx_HAL_Driver/Src/stm32f3xx_hal_dma.c **** 
 1005              		.loc 1 558 3 view .LVU366
 1006 00b0 0020     		movs	r0, #0
 1007 00b2 84F82000 		strb	r0, [r4, #32]
 558:Drivers/STM32F3xx_HAL_Driver/Src/stm32f3xx_hal_dma.c **** 
 1008              		.loc 1 558 3 view .LVU367
 560:Drivers/STM32F3xx_HAL_Driver/Src/stm32f3xx_hal_dma.c **** }
 1009              		.loc 1 560 3 view .LVU368
 560:Drivers/STM32F3xx_HAL_Driver/Src/stm32f3xx_hal_dma.c **** }
 1010              		.loc 1 560 10 is_stmt 0 view .LVU369
 1011 00b6 B0E7     		b	.L49
 1012              	.L58:
 554:Drivers/STM32F3xx_HAL_Driver/Src/stm32f3xx_hal_dma.c ****   }
 1013              		.loc 1 554 5 is_stmt 1 view .LVU370
 554:Drivers/STM32F3xx_HAL_Driver/Src/stm32f3xx_hal_dma.c ****   }
 1014              		.loc 1 554 54 is_stmt 0 view .LVU371
 1015 00b8 226C     		ldr	r2, [r4, #64]
 554:Drivers/STM32F3xx_HAL_Driver/Src/stm32f3xx_hal_dma.c ****   }
 1016              		.loc 1 554 47 view .LVU372
 1017 00ba 0423     		movs	r3, #4
 1018 00bc 9340     		lsls	r3, r3, r2
 554:Drivers/STM32F3xx_HAL_Driver/Src/stm32f3xx_hal_dma.c ****   }
 1019              		.loc 1 554 32 view .LVU373
 1020 00be 6B60     		str	r3, [r5, #4]
 1021 00c0 F6E7     		b	.L59
 1022              		.cfi_endproc
 1023              	.LFE136:
 1025              		.section	.text.HAL_DMA_IRQHandler,"ax",%progbits
ARM GAS  /var/folders/jw/jcj5j9_530958b2rm5vp9wn00000gn/T//ccD0XOAX.s 			page 40


 1026              		.align	1
 1027              		.global	HAL_DMA_IRQHandler
 1028              		.syntax unified
 1029              		.thumb
 1030              		.thumb_func
 1031              		.fpu fpv4-sp-d16
 1033              	HAL_DMA_IRQHandler:
 1034              	.LVL62:
 1035              	.LFB137:
 570:Drivers/STM32F3xx_HAL_Driver/Src/stm32f3xx_hal_dma.c **** 	uint32_t flag_it = hdma->DmaBaseAddress->ISR;
 1036              		.loc 1 570 1 is_stmt 1 view -0
 1037              		.cfi_startproc
 1038              		@ args = 0, pretend = 0, frame = 0
 1039              		@ frame_needed = 0, uses_anonymous_args = 0
 570:Drivers/STM32F3xx_HAL_Driver/Src/stm32f3xx_hal_dma.c **** 	uint32_t flag_it = hdma->DmaBaseAddress->ISR;
 1040              		.loc 1 570 1 is_stmt 0 view .LVU375
 1041 0000 38B5     		push	{r3, r4, r5, lr}
 1042              	.LCFI11:
 1043              		.cfi_def_cfa_offset 16
 1044              		.cfi_offset 3, -16
 1045              		.cfi_offset 4, -12
 1046              		.cfi_offset 5, -8
 1047              		.cfi_offset 14, -4
 571:Drivers/STM32F3xx_HAL_Driver/Src/stm32f3xx_hal_dma.c ****   uint32_t source_it = hdma->Instance->CCR;
 1048              		.loc 1 571 2 is_stmt 1 view .LVU376
 571:Drivers/STM32F3xx_HAL_Driver/Src/stm32f3xx_hal_dma.c ****   uint32_t source_it = hdma->Instance->CCR;
 1049              		.loc 1 571 25 is_stmt 0 view .LVU377
 1050 0002 C36B     		ldr	r3, [r0, #60]
 571:Drivers/STM32F3xx_HAL_Driver/Src/stm32f3xx_hal_dma.c ****   uint32_t source_it = hdma->Instance->CCR;
 1051              		.loc 1 571 11 view .LVU378
 1052 0004 1A68     		ldr	r2, [r3]
 1053              	.LVL63:
 572:Drivers/STM32F3xx_HAL_Driver/Src/stm32f3xx_hal_dma.c ****           
 1054              		.loc 1 572 3 is_stmt 1 view .LVU379
 572:Drivers/STM32F3xx_HAL_Driver/Src/stm32f3xx_hal_dma.c ****           
 1055              		.loc 1 572 28 is_stmt 0 view .LVU380
 1056 0006 0468     		ldr	r4, [r0]
 572:Drivers/STM32F3xx_HAL_Driver/Src/stm32f3xx_hal_dma.c ****           
 1057              		.loc 1 572 12 view .LVU381
 1058 0008 2568     		ldr	r5, [r4]
 1059              	.LVL64:
 575:Drivers/STM32F3xx_HAL_Driver/Src/stm32f3xx_hal_dma.c ****   {
 1060              		.loc 1 575 3 is_stmt 1 view .LVU382
 575:Drivers/STM32F3xx_HAL_Driver/Src/stm32f3xx_hal_dma.c ****   {
 1061              		.loc 1 575 49 is_stmt 0 view .LVU383
 1062 000a 016C     		ldr	r1, [r0, #64]
 575:Drivers/STM32F3xx_HAL_Driver/Src/stm32f3xx_hal_dma.c ****   {
 1063              		.loc 1 575 42 view .LVU384
 1064 000c 0423     		movs	r3, #4
 1065 000e 8B40     		lsls	r3, r3, r1
 575:Drivers/STM32F3xx_HAL_Driver/Src/stm32f3xx_hal_dma.c ****   {
 1066              		.loc 1 575 6 view .LVU385
 1067 0010 1342     		tst	r3, r2
 1068 0012 13D0     		beq	.L65
 575:Drivers/STM32F3xx_HAL_Driver/Src/stm32f3xx_hal_dma.c ****   {
 1069              		.loc 1 575 67 discriminator 1 view .LVU386
 1070 0014 15F0040F 		tst	r5, #4
ARM GAS  /var/folders/jw/jcj5j9_530958b2rm5vp9wn00000gn/T//ccD0XOAX.s 			page 41


 1071 0018 10D0     		beq	.L65
 578:Drivers/STM32F3xx_HAL_Driver/Src/stm32f3xx_hal_dma.c ****   	{
 1072              		.loc 1 578 4 is_stmt 1 view .LVU387
 578:Drivers/STM32F3xx_HAL_Driver/Src/stm32f3xx_hal_dma.c ****   	{
 1073              		.loc 1 578 22 is_stmt 0 view .LVU388
 1074 001a 2368     		ldr	r3, [r4]
 578:Drivers/STM32F3xx_HAL_Driver/Src/stm32f3xx_hal_dma.c ****   	{
 1075              		.loc 1 578 6 view .LVU389
 1076 001c 13F0200F 		tst	r3, #32
 1077 0020 03D1     		bne	.L66
 581:Drivers/STM32F3xx_HAL_Driver/Src/stm32f3xx_hal_dma.c ****   	}
 1078              		.loc 1 581 5 is_stmt 1 view .LVU390
 581:Drivers/STM32F3xx_HAL_Driver/Src/stm32f3xx_hal_dma.c ****   	}
 1079              		.loc 1 581 25 is_stmt 0 view .LVU391
 1080 0022 2368     		ldr	r3, [r4]
 1081 0024 23F00403 		bic	r3, r3, #4
 1082 0028 2360     		str	r3, [r4]
 1083              	.L66:
 585:Drivers/STM32F3xx_HAL_Driver/Src/stm32f3xx_hal_dma.c ****   	
 1084              		.loc 1 585 4 is_stmt 1 view .LVU392
 585:Drivers/STM32F3xx_HAL_Driver/Src/stm32f3xx_hal_dma.c ****   	
 1085              		.loc 1 585 53 is_stmt 0 view .LVU393
 1086 002a 016C     		ldr	r1, [r0, #64]
 585:Drivers/STM32F3xx_HAL_Driver/Src/stm32f3xx_hal_dma.c ****   	
 1087              		.loc 1 585 8 view .LVU394
 1088 002c C26B     		ldr	r2, [r0, #60]
 1089              	.LVL65:
 585:Drivers/STM32F3xx_HAL_Driver/Src/stm32f3xx_hal_dma.c ****   	
 1090              		.loc 1 585 46 view .LVU395
 1091 002e 0423     		movs	r3, #4
 1092 0030 8B40     		lsls	r3, r3, r1
 585:Drivers/STM32F3xx_HAL_Driver/Src/stm32f3xx_hal_dma.c ****   	
 1093              		.loc 1 585 31 view .LVU396
 1094 0032 5360     		str	r3, [r2, #4]
 590:Drivers/STM32F3xx_HAL_Driver/Src/stm32f3xx_hal_dma.c ****   	{
 1095              		.loc 1 590 4 is_stmt 1 view .LVU397
 590:Drivers/STM32F3xx_HAL_Driver/Src/stm32f3xx_hal_dma.c ****   	{
 1096              		.loc 1 590 11 is_stmt 0 view .LVU398
 1097 0034 C36A     		ldr	r3, [r0, #44]
 590:Drivers/STM32F3xx_HAL_Driver/Src/stm32f3xx_hal_dma.c ****   	{
 1098              		.loc 1 590 6 view .LVU399
 1099 0036 03B1     		cbz	r3, .L64
 593:Drivers/STM32F3xx_HAL_Driver/Src/stm32f3xx_hal_dma.c ****   	}
 1100              		.loc 1 593 5 is_stmt 1 view .LVU400
 1101 0038 9847     		blx	r3
 1102              	.LVL66:
 1103              	.L64:
 649:Drivers/STM32F3xx_HAL_Driver/Src/stm32f3xx_hal_dma.c **** 
 1104              		.loc 1 649 1 is_stmt 0 view .LVU401
 1105 003a 38BD     		pop	{r3, r4, r5, pc}
 1106              	.LVL67:
 1107              	.L65:
 598:Drivers/STM32F3xx_HAL_Driver/Src/stm32f3xx_hal_dma.c ****   {
 1108              		.loc 1 598 8 is_stmt 1 view .LVU402
 598:Drivers/STM32F3xx_HAL_Driver/Src/stm32f3xx_hal_dma.c ****   {
 1109              		.loc 1 598 47 is_stmt 0 view .LVU403
 1110 003c 0223     		movs	r3, #2
ARM GAS  /var/folders/jw/jcj5j9_530958b2rm5vp9wn00000gn/T//ccD0XOAX.s 			page 42


 1111 003e 8B40     		lsls	r3, r3, r1
 598:Drivers/STM32F3xx_HAL_Driver/Src/stm32f3xx_hal_dma.c ****   {
 1112              		.loc 1 598 11 view .LVU404
 1113 0040 1342     		tst	r3, r2
 1114 0042 1AD0     		beq	.L68
 598:Drivers/STM32F3xx_HAL_Driver/Src/stm32f3xx_hal_dma.c ****   {
 1115              		.loc 1 598 72 discriminator 1 view .LVU405
 1116 0044 15F0020F 		tst	r5, #2
 1117 0048 17D0     		beq	.L68
 600:Drivers/STM32F3xx_HAL_Driver/Src/stm32f3xx_hal_dma.c ****   	{
 1118              		.loc 1 600 4 is_stmt 1 view .LVU406
 600:Drivers/STM32F3xx_HAL_Driver/Src/stm32f3xx_hal_dma.c ****   	{
 1119              		.loc 1 600 22 is_stmt 0 view .LVU407
 1120 004a 2368     		ldr	r3, [r4]
 600:Drivers/STM32F3xx_HAL_Driver/Src/stm32f3xx_hal_dma.c ****   	{
 1121              		.loc 1 600 6 view .LVU408
 1122 004c 13F0200F 		tst	r3, #32
 1123 0050 06D1     		bne	.L69
 604:Drivers/STM32F3xx_HAL_Driver/Src/stm32f3xx_hal_dma.c ****   		
 1124              		.loc 1 604 5 is_stmt 1 view .LVU409
 604:Drivers/STM32F3xx_HAL_Driver/Src/stm32f3xx_hal_dma.c ****   		
 1125              		.loc 1 604 25 is_stmt 0 view .LVU410
 1126 0052 2368     		ldr	r3, [r4]
 1127 0054 23F00A03 		bic	r3, r3, #10
 1128 0058 2360     		str	r3, [r4]
 607:Drivers/STM32F3xx_HAL_Driver/Src/stm32f3xx_hal_dma.c ****   	}
 1129              		.loc 1 607 5 is_stmt 1 view .LVU411
 607:Drivers/STM32F3xx_HAL_Driver/Src/stm32f3xx_hal_dma.c ****   	}
 1130              		.loc 1 607 17 is_stmt 0 view .LVU412
 1131 005a 0123     		movs	r3, #1
 1132 005c 80F82130 		strb	r3, [r0, #33]
 1133              	.L69:
 611:Drivers/STM32F3xx_HAL_Driver/Src/stm32f3xx_hal_dma.c ****   	
 1134              		.loc 1 611 4 is_stmt 1 view .LVU413
 611:Drivers/STM32F3xx_HAL_Driver/Src/stm32f3xx_hal_dma.c ****   	
 1135              		.loc 1 611 53 is_stmt 0 view .LVU414
 1136 0060 016C     		ldr	r1, [r0, #64]
 611:Drivers/STM32F3xx_HAL_Driver/Src/stm32f3xx_hal_dma.c ****   	
 1137              		.loc 1 611 8 view .LVU415
 1138 0062 C26B     		ldr	r2, [r0, #60]
 1139              	.LVL68:
 611:Drivers/STM32F3xx_HAL_Driver/Src/stm32f3xx_hal_dma.c ****   	
 1140              		.loc 1 611 46 view .LVU416
 1141 0064 0223     		movs	r3, #2
 1142 0066 8B40     		lsls	r3, r3, r1
 611:Drivers/STM32F3xx_HAL_Driver/Src/stm32f3xx_hal_dma.c ****   	
 1143              		.loc 1 611 31 view .LVU417
 1144 0068 5360     		str	r3, [r2, #4]
 614:Drivers/STM32F3xx_HAL_Driver/Src/stm32f3xx_hal_dma.c ****   	
 1145              		.loc 1 614 4 is_stmt 1 view .LVU418
 614:Drivers/STM32F3xx_HAL_Driver/Src/stm32f3xx_hal_dma.c ****   	
 1146              		.loc 1 614 4 view .LVU419
 1147 006a 0023     		movs	r3, #0
 1148 006c 80F82030 		strb	r3, [r0, #32]
 614:Drivers/STM32F3xx_HAL_Driver/Src/stm32f3xx_hal_dma.c ****   	
 1149              		.loc 1 614 4 view .LVU420
 616:Drivers/STM32F3xx_HAL_Driver/Src/stm32f3xx_hal_dma.c ****   	{
ARM GAS  /var/folders/jw/jcj5j9_530958b2rm5vp9wn00000gn/T//ccD0XOAX.s 			page 43


 1150              		.loc 1 616 4 view .LVU421
 616:Drivers/STM32F3xx_HAL_Driver/Src/stm32f3xx_hal_dma.c ****   	{
 1151              		.loc 1 616 11 is_stmt 0 view .LVU422
 1152 0070 836A     		ldr	r3, [r0, #40]
 616:Drivers/STM32F3xx_HAL_Driver/Src/stm32f3xx_hal_dma.c ****   	{
 1153              		.loc 1 616 6 view .LVU423
 1154 0072 002B     		cmp	r3, #0
 1155 0074 E1D0     		beq	.L64
 619:Drivers/STM32F3xx_HAL_Driver/Src/stm32f3xx_hal_dma.c ****   	}
 1156              		.loc 1 619 5 is_stmt 1 view .LVU424
 1157 0076 9847     		blx	r3
 1158              	.LVL69:
 619:Drivers/STM32F3xx_HAL_Driver/Src/stm32f3xx_hal_dma.c ****   	}
 1159              		.loc 1 619 5 is_stmt 0 view .LVU425
 1160 0078 DFE7     		b	.L64
 1161              	.LVL70:
 1162              	.L68:
 624:Drivers/STM32F3xx_HAL_Driver/Src/stm32f3xx_hal_dma.c ****   {
 1163              		.loc 1 624 8 is_stmt 1 view .LVU426
 624:Drivers/STM32F3xx_HAL_Driver/Src/stm32f3xx_hal_dma.c ****   {
 1164              		.loc 1 624 48 is_stmt 0 view .LVU427
 1165 007a 0823     		movs	r3, #8
 1166 007c 03FA01F1 		lsl	r1, r3, r1
 624:Drivers/STM32F3xx_HAL_Driver/Src/stm32f3xx_hal_dma.c ****   {
 1167              		.loc 1 624 11 view .LVU428
 1168 0080 1142     		tst	r1, r2
 1169 0082 DAD0     		beq	.L64
 624:Drivers/STM32F3xx_HAL_Driver/Src/stm32f3xx_hal_dma.c ****   {
 1170              		.loc 1 624 73 discriminator 1 view .LVU429
 1171 0084 15F0080F 		tst	r5, #8
 1172 0088 D7D0     		beq	.L64
 629:Drivers/STM32F3xx_HAL_Driver/Src/stm32f3xx_hal_dma.c ****     
 1173              		.loc 1 629 5 is_stmt 1 view .LVU430
 629:Drivers/STM32F3xx_HAL_Driver/Src/stm32f3xx_hal_dma.c ****     
 1174              		.loc 1 629 25 is_stmt 0 view .LVU431
 1175 008a 2368     		ldr	r3, [r4]
 1176 008c 23F00E03 		bic	r3, r3, #14
 1177 0090 2360     		str	r3, [r4]
 632:Drivers/STM32F3xx_HAL_Driver/Src/stm32f3xx_hal_dma.c ****     
 1178              		.loc 1 632 5 is_stmt 1 view .LVU432
 632:Drivers/STM32F3xx_HAL_Driver/Src/stm32f3xx_hal_dma.c ****     
 1179              		.loc 1 632 54 is_stmt 0 view .LVU433
 1180 0092 026C     		ldr	r2, [r0, #64]
 1181              	.LVL71:
 632:Drivers/STM32F3xx_HAL_Driver/Src/stm32f3xx_hal_dma.c ****     
 1182              		.loc 1 632 9 view .LVU434
 1183 0094 C16B     		ldr	r1, [r0, #60]
 632:Drivers/STM32F3xx_HAL_Driver/Src/stm32f3xx_hal_dma.c ****     
 1184              		.loc 1 632 47 view .LVU435
 1185 0096 0123     		movs	r3, #1
 1186 0098 03FA02F2 		lsl	r2, r3, r2
 632:Drivers/STM32F3xx_HAL_Driver/Src/stm32f3xx_hal_dma.c ****     
 1187              		.loc 1 632 32 view .LVU436
 1188 009c 4A60     		str	r2, [r1, #4]
 635:Drivers/STM32F3xx_HAL_Driver/Src/stm32f3xx_hal_dma.c ****     
 1189              		.loc 1 635 5 is_stmt 1 view .LVU437
 635:Drivers/STM32F3xx_HAL_Driver/Src/stm32f3xx_hal_dma.c ****     
ARM GAS  /var/folders/jw/jcj5j9_530958b2rm5vp9wn00000gn/T//ccD0XOAX.s 			page 44


 1190              		.loc 1 635 21 is_stmt 0 view .LVU438
 1191 009e 8363     		str	r3, [r0, #56]
 638:Drivers/STM32F3xx_HAL_Driver/Src/stm32f3xx_hal_dma.c ****     
 1192              		.loc 1 638 5 is_stmt 1 view .LVU439
 638:Drivers/STM32F3xx_HAL_Driver/Src/stm32f3xx_hal_dma.c ****     
 1193              		.loc 1 638 17 is_stmt 0 view .LVU440
 1194 00a0 80F82130 		strb	r3, [r0, #33]
 641:Drivers/STM32F3xx_HAL_Driver/Src/stm32f3xx_hal_dma.c ****     
 1195              		.loc 1 641 5 is_stmt 1 view .LVU441
 641:Drivers/STM32F3xx_HAL_Driver/Src/stm32f3xx_hal_dma.c ****     
 1196              		.loc 1 641 5 view .LVU442
 1197 00a4 0023     		movs	r3, #0
 1198 00a6 80F82030 		strb	r3, [r0, #32]
 641:Drivers/STM32F3xx_HAL_Driver/Src/stm32f3xx_hal_dma.c ****     
 1199              		.loc 1 641 5 view .LVU443
 643:Drivers/STM32F3xx_HAL_Driver/Src/stm32f3xx_hal_dma.c ****     {
 1200              		.loc 1 643 5 view .LVU444
 643:Drivers/STM32F3xx_HAL_Driver/Src/stm32f3xx_hal_dma.c ****     {
 1201              		.loc 1 643 12 is_stmt 0 view .LVU445
 1202 00aa 036B     		ldr	r3, [r0, #48]
 643:Drivers/STM32F3xx_HAL_Driver/Src/stm32f3xx_hal_dma.c ****     {
 1203              		.loc 1 643 7 view .LVU446
 1204 00ac 002B     		cmp	r3, #0
 1205 00ae C4D0     		beq	.L64
 646:Drivers/STM32F3xx_HAL_Driver/Src/stm32f3xx_hal_dma.c ****     }
 1206              		.loc 1 646 6 is_stmt 1 view .LVU447
 1207 00b0 9847     		blx	r3
 1208              	.LVL72:
 649:Drivers/STM32F3xx_HAL_Driver/Src/stm32f3xx_hal_dma.c **** 
 1209              		.loc 1 649 1 is_stmt 0 view .LVU448
 1210 00b2 C2E7     		b	.L64
 1211              		.cfi_endproc
 1212              	.LFE137:
 1214              		.section	.text.HAL_DMA_RegisterCallback,"ax",%progbits
 1215              		.align	1
 1216              		.global	HAL_DMA_RegisterCallback
 1217              		.syntax unified
 1218              		.thumb
 1219              		.thumb_func
 1220              		.fpu fpv4-sp-d16
 1222              	HAL_DMA_RegisterCallback:
 1223              	.LVL73:
 1224              	.LFB138:
 662:Drivers/STM32F3xx_HAL_Driver/Src/stm32f3xx_hal_dma.c ****   HAL_StatusTypeDef status = HAL_OK;
 1225              		.loc 1 662 1 is_stmt 1 view -0
 1226              		.cfi_startproc
 1227              		@ args = 0, pretend = 0, frame = 0
 1228              		@ frame_needed = 0, uses_anonymous_args = 0
 1229              		@ link register save eliminated.
 662:Drivers/STM32F3xx_HAL_Driver/Src/stm32f3xx_hal_dma.c ****   HAL_StatusTypeDef status = HAL_OK;
 1230              		.loc 1 662 1 is_stmt 0 view .LVU450
 1231 0000 0346     		mov	r3, r0
 663:Drivers/STM32F3xx_HAL_Driver/Src/stm32f3xx_hal_dma.c ****   
 1232              		.loc 1 663 3 is_stmt 1 view .LVU451
 1233              	.LVL74:
 666:Drivers/STM32F3xx_HAL_Driver/Src/stm32f3xx_hal_dma.c ****   
 1234              		.loc 1 666 3 view .LVU452
ARM GAS  /var/folders/jw/jcj5j9_530958b2rm5vp9wn00000gn/T//ccD0XOAX.s 			page 45


 666:Drivers/STM32F3xx_HAL_Driver/Src/stm32f3xx_hal_dma.c ****   
 1235              		.loc 1 666 3 view .LVU453
 1236 0002 90F82000 		ldrb	r0, [r0, #32]	@ zero_extendqisi2
 1237              	.LVL75:
 666:Drivers/STM32F3xx_HAL_Driver/Src/stm32f3xx_hal_dma.c ****   
 1238              		.loc 1 666 3 is_stmt 0 view .LVU454
 1239 0006 0128     		cmp	r0, #1
 1240 0008 1AD0     		beq	.L79
 666:Drivers/STM32F3xx_HAL_Driver/Src/stm32f3xx_hal_dma.c ****   
 1241              		.loc 1 666 3 is_stmt 1 discriminator 2 view .LVU455
 666:Drivers/STM32F3xx_HAL_Driver/Src/stm32f3xx_hal_dma.c ****   
 1242              		.loc 1 666 3 discriminator 2 view .LVU456
 668:Drivers/STM32F3xx_HAL_Driver/Src/stm32f3xx_hal_dma.c ****   {
 1243              		.loc 1 668 3 discriminator 2 view .LVU457
 668:Drivers/STM32F3xx_HAL_Driver/Src/stm32f3xx_hal_dma.c ****   {
 1244              		.loc 1 668 33 is_stmt 0 discriminator 2 view .LVU458
 1245 000a 93F82100 		ldrb	r0, [r3, #33]	@ zero_extendqisi2
 668:Drivers/STM32F3xx_HAL_Driver/Src/stm32f3xx_hal_dma.c ****   {
 1246              		.loc 1 668 5 discriminator 2 view .LVU459
 1247 000e 0128     		cmp	r0, #1
 1248 0010 04D0     		beq	.L81
 695:Drivers/STM32F3xx_HAL_Driver/Src/stm32f3xx_hal_dma.c ****   } 
 1249              		.loc 1 695 12 view .LVU460
 1250 0012 0120     		movs	r0, #1
 1251              	.L73:
 1252              	.LVL76:
 699:Drivers/STM32F3xx_HAL_Driver/Src/stm32f3xx_hal_dma.c ****   
 1253              		.loc 1 699 3 is_stmt 1 view .LVU461
 699:Drivers/STM32F3xx_HAL_Driver/Src/stm32f3xx_hal_dma.c ****   
 1254              		.loc 1 699 3 view .LVU462
 1255 0014 0022     		movs	r2, #0
 1256              	.LVL77:
 699:Drivers/STM32F3xx_HAL_Driver/Src/stm32f3xx_hal_dma.c ****   
 1257              		.loc 1 699 3 is_stmt 0 view .LVU463
 1258 0016 83F82020 		strb	r2, [r3, #32]
 699:Drivers/STM32F3xx_HAL_Driver/Src/stm32f3xx_hal_dma.c ****   
 1259              		.loc 1 699 3 is_stmt 1 view .LVU464
 701:Drivers/STM32F3xx_HAL_Driver/Src/stm32f3xx_hal_dma.c **** }
 1260              		.loc 1 701 3 view .LVU465
 701:Drivers/STM32F3xx_HAL_Driver/Src/stm32f3xx_hal_dma.c **** }
 1261              		.loc 1 701 10 is_stmt 0 view .LVU466
 1262 001a 7047     		bx	lr
 1263              	.LVL78:
 1264              	.L81:
 670:Drivers/STM32F3xx_HAL_Driver/Src/stm32f3xx_hal_dma.c ****     {
 1265              		.loc 1 670 5 is_stmt 1 view .LVU467
 1266 001c 0329     		cmp	r1, #3
 1267 001e F9D8     		bhi	.L73
 1268 0020 DFE801F0 		tbb	[pc, r1]
 1269              	.L75:
 1270 0024 02       		.byte	(.L78-.L75)/2
 1271 0025 05       		.byte	(.L77-.L75)/2
 1272 0026 08       		.byte	(.L76-.L75)/2
 1273 0027 0B       		.byte	(.L74-.L75)/2
 1274              		.p2align 1
 1275              	.L78:
 673:Drivers/STM32F3xx_HAL_Driver/Src/stm32f3xx_hal_dma.c ****            break;
ARM GAS  /var/folders/jw/jcj5j9_530958b2rm5vp9wn00000gn/T//ccD0XOAX.s 			page 46


 1276              		.loc 1 673 12 view .LVU468
 673:Drivers/STM32F3xx_HAL_Driver/Src/stm32f3xx_hal_dma.c ****            break;
 1277              		.loc 1 673 35 is_stmt 0 view .LVU469
 1278 0028 9A62     		str	r2, [r3, #40]
 674:Drivers/STM32F3xx_HAL_Driver/Src/stm32f3xx_hal_dma.c ****        
 1279              		.loc 1 674 12 is_stmt 1 view .LVU470
 663:Drivers/STM32F3xx_HAL_Driver/Src/stm32f3xx_hal_dma.c ****   
 1280              		.loc 1 663 21 is_stmt 0 view .LVU471
 1281 002a 0846     		mov	r0, r1
 674:Drivers/STM32F3xx_HAL_Driver/Src/stm32f3xx_hal_dma.c ****        
 1282              		.loc 1 674 12 view .LVU472
 1283 002c F2E7     		b	.L73
 1284              	.L77:
 677:Drivers/STM32F3xx_HAL_Driver/Src/stm32f3xx_hal_dma.c ****            break;         
 1285              		.loc 1 677 12 is_stmt 1 view .LVU473
 677:Drivers/STM32F3xx_HAL_Driver/Src/stm32f3xx_hal_dma.c ****            break;         
 1286              		.loc 1 677 39 is_stmt 0 view .LVU474
 1287 002e DA62     		str	r2, [r3, #44]
 678:Drivers/STM32F3xx_HAL_Driver/Src/stm32f3xx_hal_dma.c **** 
 1288              		.loc 1 678 12 is_stmt 1 view .LVU475
 663:Drivers/STM32F3xx_HAL_Driver/Src/stm32f3xx_hal_dma.c ****   
 1289              		.loc 1 663 21 is_stmt 0 view .LVU476
 1290 0030 0020     		movs	r0, #0
 678:Drivers/STM32F3xx_HAL_Driver/Src/stm32f3xx_hal_dma.c **** 
 1291              		.loc 1 678 12 view .LVU477
 1292 0032 EFE7     		b	.L73
 1293              	.L76:
 681:Drivers/STM32F3xx_HAL_Driver/Src/stm32f3xx_hal_dma.c ****            break;         
 1294              		.loc 1 681 12 is_stmt 1 view .LVU478
 681:Drivers/STM32F3xx_HAL_Driver/Src/stm32f3xx_hal_dma.c ****            break;         
 1295              		.loc 1 681 36 is_stmt 0 view .LVU479
 1296 0034 1A63     		str	r2, [r3, #48]
 682:Drivers/STM32F3xx_HAL_Driver/Src/stm32f3xx_hal_dma.c ****            
 1297              		.loc 1 682 12 is_stmt 1 view .LVU480
 663:Drivers/STM32F3xx_HAL_Driver/Src/stm32f3xx_hal_dma.c ****   
 1298              		.loc 1 663 21 is_stmt 0 view .LVU481
 1299 0036 0020     		movs	r0, #0
 682:Drivers/STM32F3xx_HAL_Driver/Src/stm32f3xx_hal_dma.c ****            
 1300              		.loc 1 682 12 view .LVU482
 1301 0038 ECE7     		b	.L73
 1302              	.L74:
 685:Drivers/STM32F3xx_HAL_Driver/Src/stm32f3xx_hal_dma.c ****            break; 
 1303              		.loc 1 685 12 is_stmt 1 view .LVU483
 685:Drivers/STM32F3xx_HAL_Driver/Src/stm32f3xx_hal_dma.c ****            break; 
 1304              		.loc 1 685 36 is_stmt 0 view .LVU484
 1305 003a 5A63     		str	r2, [r3, #52]
 686:Drivers/STM32F3xx_HAL_Driver/Src/stm32f3xx_hal_dma.c ****            
 1306              		.loc 1 686 12 is_stmt 1 view .LVU485
 663:Drivers/STM32F3xx_HAL_Driver/Src/stm32f3xx_hal_dma.c ****   
 1307              		.loc 1 663 21 is_stmt 0 view .LVU486
 1308 003c 0020     		movs	r0, #0
 686:Drivers/STM32F3xx_HAL_Driver/Src/stm32f3xx_hal_dma.c ****            
 1309              		.loc 1 686 12 view .LVU487
 1310 003e E9E7     		b	.L73
 1311              	.L79:
 666:Drivers/STM32F3xx_HAL_Driver/Src/stm32f3xx_hal_dma.c ****   
 1312              		.loc 1 666 3 view .LVU488
ARM GAS  /var/folders/jw/jcj5j9_530958b2rm5vp9wn00000gn/T//ccD0XOAX.s 			page 47


 1313 0040 0220     		movs	r0, #2
 702:Drivers/STM32F3xx_HAL_Driver/Src/stm32f3xx_hal_dma.c **** 
 1314              		.loc 1 702 1 view .LVU489
 1315 0042 7047     		bx	lr
 1316              		.cfi_endproc
 1317              	.LFE138:
 1319              		.section	.text.HAL_DMA_UnRegisterCallback,"ax",%progbits
 1320              		.align	1
 1321              		.global	HAL_DMA_UnRegisterCallback
 1322              		.syntax unified
 1323              		.thumb
 1324              		.thumb_func
 1325              		.fpu fpv4-sp-d16
 1327              	HAL_DMA_UnRegisterCallback:
 1328              	.LVL79:
 1329              	.LFB139:
 713:Drivers/STM32F3xx_HAL_Driver/Src/stm32f3xx_hal_dma.c ****   HAL_StatusTypeDef status = HAL_OK;
 1330              		.loc 1 713 1 is_stmt 1 view -0
 1331              		.cfi_startproc
 1332              		@ args = 0, pretend = 0, frame = 0
 1333              		@ frame_needed = 0, uses_anonymous_args = 0
 1334              		@ link register save eliminated.
 713:Drivers/STM32F3xx_HAL_Driver/Src/stm32f3xx_hal_dma.c ****   HAL_StatusTypeDef status = HAL_OK;
 1335              		.loc 1 713 1 is_stmt 0 view .LVU491
 1336 0000 0346     		mov	r3, r0
 714:Drivers/STM32F3xx_HAL_Driver/Src/stm32f3xx_hal_dma.c **** 
 1337              		.loc 1 714 3 is_stmt 1 view .LVU492
 1338              	.LVL80:
 717:Drivers/STM32F3xx_HAL_Driver/Src/stm32f3xx_hal_dma.c ****   
 1339              		.loc 1 717 3 view .LVU493
 717:Drivers/STM32F3xx_HAL_Driver/Src/stm32f3xx_hal_dma.c ****   
 1340              		.loc 1 717 3 view .LVU494
 1341 0002 90F82020 		ldrb	r2, [r0, #32]	@ zero_extendqisi2
 1342 0006 012A     		cmp	r2, #1
 1343 0008 25D0     		beq	.L91
 717:Drivers/STM32F3xx_HAL_Driver/Src/stm32f3xx_hal_dma.c ****   
 1344              		.loc 1 717 3 discriminator 2 view .LVU495
 1345 000a 0122     		movs	r2, #1
 1346 000c 80F82020 		strb	r2, [r0, #32]
 717:Drivers/STM32F3xx_HAL_Driver/Src/stm32f3xx_hal_dma.c ****   
 1347              		.loc 1 717 3 discriminator 2 view .LVU496
 719:Drivers/STM32F3xx_HAL_Driver/Src/stm32f3xx_hal_dma.c ****   {
 1348              		.loc 1 719 3 discriminator 2 view .LVU497
 719:Drivers/STM32F3xx_HAL_Driver/Src/stm32f3xx_hal_dma.c ****   {
 1349              		.loc 1 719 33 is_stmt 0 discriminator 2 view .LVU498
 1350 0010 90F82100 		ldrb	r0, [r0, #33]	@ zero_extendqisi2
 1351              	.LVL81:
 719:Drivers/STM32F3xx_HAL_Driver/Src/stm32f3xx_hal_dma.c ****   {
 1352              		.loc 1 719 5 discriminator 2 view .LVU499
 1353 0014 9042     		cmp	r0, r2
 1354 0016 04D0     		beq	.L93
 753:Drivers/STM32F3xx_HAL_Driver/Src/stm32f3xx_hal_dma.c ****   } 
 1355              		.loc 1 753 12 view .LVU500
 1356 0018 0120     		movs	r0, #1
 1357              	.L84:
 1358              	.LVL82:
 757:Drivers/STM32F3xx_HAL_Driver/Src/stm32f3xx_hal_dma.c ****   
ARM GAS  /var/folders/jw/jcj5j9_530958b2rm5vp9wn00000gn/T//ccD0XOAX.s 			page 48


 1359              		.loc 1 757 3 is_stmt 1 view .LVU501
 757:Drivers/STM32F3xx_HAL_Driver/Src/stm32f3xx_hal_dma.c ****   
 1360              		.loc 1 757 3 view .LVU502
 1361 001a 0022     		movs	r2, #0
 1362 001c 83F82020 		strb	r2, [r3, #32]
 757:Drivers/STM32F3xx_HAL_Driver/Src/stm32f3xx_hal_dma.c ****   
 1363              		.loc 1 757 3 view .LVU503
 759:Drivers/STM32F3xx_HAL_Driver/Src/stm32f3xx_hal_dma.c **** }
 1364              		.loc 1 759 3 view .LVU504
 759:Drivers/STM32F3xx_HAL_Driver/Src/stm32f3xx_hal_dma.c **** }
 1365              		.loc 1 759 10 is_stmt 0 view .LVU505
 1366 0020 7047     		bx	lr
 1367              	.LVL83:
 1368              	.L93:
 721:Drivers/STM32F3xx_HAL_Driver/Src/stm32f3xx_hal_dma.c ****     {
 1369              		.loc 1 721 5 is_stmt 1 view .LVU506
 1370 0022 0429     		cmp	r1, #4
 1371 0024 F9D8     		bhi	.L84
 1372 0026 DFE801F0 		tbb	[pc, r1]
 1373              	.L86:
 1374 002a 03       		.byte	(.L90-.L86)/2
 1375 002b 07       		.byte	(.L89-.L86)/2
 1376 002c 0A       		.byte	(.L88-.L86)/2
 1377 002d 0D       		.byte	(.L87-.L86)/2
 1378 002e 10       		.byte	(.L85-.L86)/2
 1379 002f 00       		.p2align 1
 1380              	.L90:
 724:Drivers/STM32F3xx_HAL_Driver/Src/stm32f3xx_hal_dma.c ****            break;
 1381              		.loc 1 724 12 view .LVU507
 724:Drivers/STM32F3xx_HAL_Driver/Src/stm32f3xx_hal_dma.c ****            break;
 1382              		.loc 1 724 35 is_stmt 0 view .LVU508
 1383 0030 0022     		movs	r2, #0
 1384 0032 9A62     		str	r2, [r3, #40]
 725:Drivers/STM32F3xx_HAL_Driver/Src/stm32f3xx_hal_dma.c ****        
 1385              		.loc 1 725 12 is_stmt 1 view .LVU509
 714:Drivers/STM32F3xx_HAL_Driver/Src/stm32f3xx_hal_dma.c **** 
 1386              		.loc 1 714 21 is_stmt 0 view .LVU510
 1387 0034 0846     		mov	r0, r1
 725:Drivers/STM32F3xx_HAL_Driver/Src/stm32f3xx_hal_dma.c ****        
 1388              		.loc 1 725 12 view .LVU511
 1389 0036 F0E7     		b	.L84
 1390              	.L89:
 728:Drivers/STM32F3xx_HAL_Driver/Src/stm32f3xx_hal_dma.c ****            break;         
 1391              		.loc 1 728 12 is_stmt 1 view .LVU512
 728:Drivers/STM32F3xx_HAL_Driver/Src/stm32f3xx_hal_dma.c ****            break;         
 1392              		.loc 1 728 39 is_stmt 0 view .LVU513
 1393 0038 0020     		movs	r0, #0
 1394 003a D862     		str	r0, [r3, #44]
 729:Drivers/STM32F3xx_HAL_Driver/Src/stm32f3xx_hal_dma.c **** 
 1395              		.loc 1 729 12 is_stmt 1 view .LVU514
 1396 003c EDE7     		b	.L84
 1397              	.L88:
 732:Drivers/STM32F3xx_HAL_Driver/Src/stm32f3xx_hal_dma.c ****            break;         
 1398              		.loc 1 732 12 view .LVU515
 732:Drivers/STM32F3xx_HAL_Driver/Src/stm32f3xx_hal_dma.c ****            break;         
 1399              		.loc 1 732 36 is_stmt 0 view .LVU516
 1400 003e 0020     		movs	r0, #0
ARM GAS  /var/folders/jw/jcj5j9_530958b2rm5vp9wn00000gn/T//ccD0XOAX.s 			page 49


 1401 0040 1863     		str	r0, [r3, #48]
 733:Drivers/STM32F3xx_HAL_Driver/Src/stm32f3xx_hal_dma.c ****            
 1402              		.loc 1 733 12 is_stmt 1 view .LVU517
 1403 0042 EAE7     		b	.L84
 1404              	.L87:
 736:Drivers/STM32F3xx_HAL_Driver/Src/stm32f3xx_hal_dma.c ****            break; 
 1405              		.loc 1 736 12 view .LVU518
 736:Drivers/STM32F3xx_HAL_Driver/Src/stm32f3xx_hal_dma.c ****            break; 
 1406              		.loc 1 736 36 is_stmt 0 view .LVU519
 1407 0044 0020     		movs	r0, #0
 1408 0046 5863     		str	r0, [r3, #52]
 737:Drivers/STM32F3xx_HAL_Driver/Src/stm32f3xx_hal_dma.c ****      
 1409              		.loc 1 737 12 is_stmt 1 view .LVU520
 1410 0048 E7E7     		b	.L84
 1411              	.L85:
 740:Drivers/STM32F3xx_HAL_Driver/Src/stm32f3xx_hal_dma.c ****            hdma->XferHalfCpltCallback = NULL;
 1412              		.loc 1 740 12 view .LVU521
 740:Drivers/STM32F3xx_HAL_Driver/Src/stm32f3xx_hal_dma.c ****            hdma->XferHalfCpltCallback = NULL;
 1413              		.loc 1 740 35 is_stmt 0 view .LVU522
 1414 004a 0020     		movs	r0, #0
 1415 004c 9862     		str	r0, [r3, #40]
 741:Drivers/STM32F3xx_HAL_Driver/Src/stm32f3xx_hal_dma.c ****            hdma->XferErrorCallback = NULL;
 1416              		.loc 1 741 12 is_stmt 1 view .LVU523
 741:Drivers/STM32F3xx_HAL_Driver/Src/stm32f3xx_hal_dma.c ****            hdma->XferErrorCallback = NULL;
 1417              		.loc 1 741 39 is_stmt 0 view .LVU524
 1418 004e D862     		str	r0, [r3, #44]
 742:Drivers/STM32F3xx_HAL_Driver/Src/stm32f3xx_hal_dma.c ****            hdma->XferAbortCallback = NULL;
 1419              		.loc 1 742 12 is_stmt 1 view .LVU525
 742:Drivers/STM32F3xx_HAL_Driver/Src/stm32f3xx_hal_dma.c ****            hdma->XferAbortCallback = NULL;
 1420              		.loc 1 742 36 is_stmt 0 view .LVU526
 1421 0050 1863     		str	r0, [r3, #48]
 743:Drivers/STM32F3xx_HAL_Driver/Src/stm32f3xx_hal_dma.c ****            break; 
 1422              		.loc 1 743 12 is_stmt 1 view .LVU527
 743:Drivers/STM32F3xx_HAL_Driver/Src/stm32f3xx_hal_dma.c ****            break; 
 1423              		.loc 1 743 36 is_stmt 0 view .LVU528
 1424 0052 5863     		str	r0, [r3, #52]
 744:Drivers/STM32F3xx_HAL_Driver/Src/stm32f3xx_hal_dma.c ****      
 1425              		.loc 1 744 12 is_stmt 1 view .LVU529
 1426 0054 E1E7     		b	.L84
 1427              	.LVL84:
 1428              	.L91:
 717:Drivers/STM32F3xx_HAL_Driver/Src/stm32f3xx_hal_dma.c ****   
 1429              		.loc 1 717 3 is_stmt 0 view .LVU530
 1430 0056 0220     		movs	r0, #2
 1431              	.LVL85:
 760:Drivers/STM32F3xx_HAL_Driver/Src/stm32f3xx_hal_dma.c **** 
 1432              		.loc 1 760 1 view .LVU531
 1433 0058 7047     		bx	lr
 1434              		.cfi_endproc
 1435              	.LFE139:
 1437              		.section	.text.HAL_DMA_GetState,"ax",%progbits
 1438              		.align	1
 1439              		.global	HAL_DMA_GetState
 1440              		.syntax unified
 1441              		.thumb
 1442              		.thumb_func
 1443              		.fpu fpv4-sp-d16
ARM GAS  /var/folders/jw/jcj5j9_530958b2rm5vp9wn00000gn/T//ccD0XOAX.s 			page 50


 1445              	HAL_DMA_GetState:
 1446              	.LVL86:
 1447              	.LFB140:
 789:Drivers/STM32F3xx_HAL_Driver/Src/stm32f3xx_hal_dma.c ****   return hdma->State;
 1448              		.loc 1 789 1 is_stmt 1 view -0
 1449              		.cfi_startproc
 1450              		@ args = 0, pretend = 0, frame = 0
 1451              		@ frame_needed = 0, uses_anonymous_args = 0
 1452              		@ link register save eliminated.
 790:Drivers/STM32F3xx_HAL_Driver/Src/stm32f3xx_hal_dma.c **** }
 1453              		.loc 1 790 3 view .LVU533
 791:Drivers/STM32F3xx_HAL_Driver/Src/stm32f3xx_hal_dma.c **** 
 1454              		.loc 1 791 1 is_stmt 0 view .LVU534
 1455 0000 90F82100 		ldrb	r0, [r0, #33]	@ zero_extendqisi2
 1456              	.LVL87:
 791:Drivers/STM32F3xx_HAL_Driver/Src/stm32f3xx_hal_dma.c **** 
 1457              		.loc 1 791 1 view .LVU535
 1458 0004 7047     		bx	lr
 1459              		.cfi_endproc
 1460              	.LFE140:
 1462              		.section	.text.HAL_DMA_GetError,"ax",%progbits
 1463              		.align	1
 1464              		.global	HAL_DMA_GetError
 1465              		.syntax unified
 1466              		.thumb
 1467              		.thumb_func
 1468              		.fpu fpv4-sp-d16
 1470              	HAL_DMA_GetError:
 1471              	.LVL88:
 1472              	.LFB141:
 800:Drivers/STM32F3xx_HAL_Driver/Src/stm32f3xx_hal_dma.c ****   return hdma->ErrorCode;
 1473              		.loc 1 800 1 is_stmt 1 view -0
 1474              		.cfi_startproc
 1475              		@ args = 0, pretend = 0, frame = 0
 1476              		@ frame_needed = 0, uses_anonymous_args = 0
 1477              		@ link register save eliminated.
 801:Drivers/STM32F3xx_HAL_Driver/Src/stm32f3xx_hal_dma.c **** }
 1478              		.loc 1 801 3 view .LVU537
 801:Drivers/STM32F3xx_HAL_Driver/Src/stm32f3xx_hal_dma.c **** }
 1479              		.loc 1 801 14 is_stmt 0 view .LVU538
 1480 0000 806B     		ldr	r0, [r0, #56]
 1481              	.LVL89:
 802:Drivers/STM32F3xx_HAL_Driver/Src/stm32f3xx_hal_dma.c **** 
 1482              		.loc 1 802 1 view .LVU539
 1483 0002 7047     		bx	lr
 1484              		.cfi_endproc
 1485              	.LFE141:
 1487              		.text
 1488              	.Letext0:
 1489              		.file 2 "/Users/javier/Library/xPacks/@xpack-dev-tools/arm-none-eabi-gcc/9.3.1-1.4.1/.content/arm-
 1490              		.file 3 "/Users/javier/Library/xPacks/@xpack-dev-tools/arm-none-eabi-gcc/9.3.1-1.4.1/.content/arm-
 1491              		.file 4 "Drivers/CMSIS/Include/core_cm4.h"
 1492              		.file 5 "Drivers/CMSIS/Device/ST/STM32F3xx/Include/system_stm32f3xx.h"
 1493              		.file 6 "Drivers/CMSIS/Device/ST/STM32F3xx/Include/stm32f373xc.h"
 1494              		.file 7 "Drivers/CMSIS/Device/ST/STM32F3xx/Include/stm32f3xx.h"
 1495              		.file 8 "Drivers/STM32F3xx_HAL_Driver/Inc/stm32f3xx_hal_def.h"
 1496              		.file 9 "Drivers/STM32F3xx_HAL_Driver/Inc/stm32f3xx_hal_dma.h"
ARM GAS  /var/folders/jw/jcj5j9_530958b2rm5vp9wn00000gn/T//ccD0XOAX.s 			page 51


 1497              		.file 10 "Drivers/STM32F3xx_HAL_Driver/Inc/stm32f3xx_hal.h"
ARM GAS  /var/folders/jw/jcj5j9_530958b2rm5vp9wn00000gn/T//ccD0XOAX.s 			page 52

