ARM GAS  /var/folders/jw/jcj5j9_530958b2rm5vp9wn00000gn/T//ccNrK2vt.s 			page 1


   1              		.cpu cortex-m4
   2              		.eabi_attribute 27, 1
   3              		.eabi_attribute 28, 1
   4              		.eabi_attribute 20, 1
   5              		.eabi_attribute 21, 1
   6              		.eabi_attribute 23, 3
   7              		.eabi_attribute 24, 1
   8              		.eabi_attribute 25, 1
   9              		.eabi_attribute 26, 1
  10              		.eabi_attribute 30, 1
  11              		.eabi_attribute 34, 1
  12              		.eabi_attribute 18, 4
  13              		.file	"stm32f3xx_hal_gpio.c"
  14              		.text
  15              	.Ltext0:
  16              		.cfi_sections	.debug_frame
  17              		.section	.text.HAL_GPIO_Init,"ax",%progbits
  18              		.align	1
  19              		.global	HAL_GPIO_Init
  20              		.arch armv7e-m
  21              		.syntax unified
  22              		.thumb
  23              		.thumb_func
  24              		.fpu fpv4-sp-d16
  26              	HAL_GPIO_Init:
  27              	.LVL0:
  28              	.LFB130:
  29              		.file 1 "Drivers/STM32F3xx_HAL_Driver/Src/stm32f3xx_hal_gpio.c"
   1:Drivers/STM32F3xx_HAL_Driver/Src/stm32f3xx_hal_gpio.c **** /**
   2:Drivers/STM32F3xx_HAL_Driver/Src/stm32f3xx_hal_gpio.c ****   ******************************************************************************
   3:Drivers/STM32F3xx_HAL_Driver/Src/stm32f3xx_hal_gpio.c ****   * @file    stm32f3xx_hal_gpio.c
   4:Drivers/STM32F3xx_HAL_Driver/Src/stm32f3xx_hal_gpio.c ****   * @author  MCD Application Team
   5:Drivers/STM32F3xx_HAL_Driver/Src/stm32f3xx_hal_gpio.c ****   * @brief   GPIO HAL module driver.
   6:Drivers/STM32F3xx_HAL_Driver/Src/stm32f3xx_hal_gpio.c ****   *          This file provides firmware functions to manage the following
   7:Drivers/STM32F3xx_HAL_Driver/Src/stm32f3xx_hal_gpio.c ****   *          functionalities of the General Purpose Input/Output (GPIO) peripheral:
   8:Drivers/STM32F3xx_HAL_Driver/Src/stm32f3xx_hal_gpio.c ****   *           + Initialization and de-initialization functions
   9:Drivers/STM32F3xx_HAL_Driver/Src/stm32f3xx_hal_gpio.c ****   *           + IO operation functions
  10:Drivers/STM32F3xx_HAL_Driver/Src/stm32f3xx_hal_gpio.c ****   *
  11:Drivers/STM32F3xx_HAL_Driver/Src/stm32f3xx_hal_gpio.c ****   @verbatim
  12:Drivers/STM32F3xx_HAL_Driver/Src/stm32f3xx_hal_gpio.c ****   ==============================================================================
  13:Drivers/STM32F3xx_HAL_Driver/Src/stm32f3xx_hal_gpio.c ****                     ##### GPIO Peripheral features #####
  14:Drivers/STM32F3xx_HAL_Driver/Src/stm32f3xx_hal_gpio.c ****   ==============================================================================
  15:Drivers/STM32F3xx_HAL_Driver/Src/stm32f3xx_hal_gpio.c ****   [..]
  16:Drivers/STM32F3xx_HAL_Driver/Src/stm32f3xx_hal_gpio.c ****     (+) Each port bit of the general-purpose I/O (GPIO) ports can be individually
  17:Drivers/STM32F3xx_HAL_Driver/Src/stm32f3xx_hal_gpio.c ****         configured by software in several modes:
  18:Drivers/STM32F3xx_HAL_Driver/Src/stm32f3xx_hal_gpio.c ****         (++) Input mode
  19:Drivers/STM32F3xx_HAL_Driver/Src/stm32f3xx_hal_gpio.c ****         (++) Analog mode
  20:Drivers/STM32F3xx_HAL_Driver/Src/stm32f3xx_hal_gpio.c ****         (++) Output mode
  21:Drivers/STM32F3xx_HAL_Driver/Src/stm32f3xx_hal_gpio.c ****         (++) Alternate function mode
  22:Drivers/STM32F3xx_HAL_Driver/Src/stm32f3xx_hal_gpio.c ****         (++) External interrupt/event lines
  23:Drivers/STM32F3xx_HAL_Driver/Src/stm32f3xx_hal_gpio.c **** 
  24:Drivers/STM32F3xx_HAL_Driver/Src/stm32f3xx_hal_gpio.c ****     (+) During and just after reset, the alternate functions and external interrupt
  25:Drivers/STM32F3xx_HAL_Driver/Src/stm32f3xx_hal_gpio.c ****         lines are not active and the I/O ports are configured in input floating mode.
  26:Drivers/STM32F3xx_HAL_Driver/Src/stm32f3xx_hal_gpio.c **** 
  27:Drivers/STM32F3xx_HAL_Driver/Src/stm32f3xx_hal_gpio.c ****     (+) All GPIO pins have weak internal pull-up and pull-down resistors, which can be
  28:Drivers/STM32F3xx_HAL_Driver/Src/stm32f3xx_hal_gpio.c ****         activated or not.
  29:Drivers/STM32F3xx_HAL_Driver/Src/stm32f3xx_hal_gpio.c **** 
ARM GAS  /var/folders/jw/jcj5j9_530958b2rm5vp9wn00000gn/T//ccNrK2vt.s 			page 2


  30:Drivers/STM32F3xx_HAL_Driver/Src/stm32f3xx_hal_gpio.c ****     (+) In Output or Alternate mode, each IO can be configured on open-drain or push-pull
  31:Drivers/STM32F3xx_HAL_Driver/Src/stm32f3xx_hal_gpio.c ****         type and the IO speed can be selected depending on the VDD value.
  32:Drivers/STM32F3xx_HAL_Driver/Src/stm32f3xx_hal_gpio.c **** 
  33:Drivers/STM32F3xx_HAL_Driver/Src/stm32f3xx_hal_gpio.c ****     (+) The microcontroller IO pins are connected to onboard peripherals/modules through a
  34:Drivers/STM32F3xx_HAL_Driver/Src/stm32f3xx_hal_gpio.c ****         multiplexer that allows only one peripheral alternate function (AF) connected
  35:Drivers/STM32F3xx_HAL_Driver/Src/stm32f3xx_hal_gpio.c ****        to an IO pin at a time. In this way, there can be no conflict between peripherals
  36:Drivers/STM32F3xx_HAL_Driver/Src/stm32f3xx_hal_gpio.c ****        sharing the same IO pin.
  37:Drivers/STM32F3xx_HAL_Driver/Src/stm32f3xx_hal_gpio.c **** 
  38:Drivers/STM32F3xx_HAL_Driver/Src/stm32f3xx_hal_gpio.c ****     (+) All ports have external interrupt/event capability. To use external interrupt
  39:Drivers/STM32F3xx_HAL_Driver/Src/stm32f3xx_hal_gpio.c ****         lines, the port must be configured in input mode. All available GPIO pins are
  40:Drivers/STM32F3xx_HAL_Driver/Src/stm32f3xx_hal_gpio.c ****         connected to the 16 external interrupt/event lines from EXTI0 to EXTI15.
  41:Drivers/STM32F3xx_HAL_Driver/Src/stm32f3xx_hal_gpio.c **** 
  42:Drivers/STM32F3xx_HAL_Driver/Src/stm32f3xx_hal_gpio.c ****     (+) The external interrupt/event controller consists of up to 23 edge detectors
  43:Drivers/STM32F3xx_HAL_Driver/Src/stm32f3xx_hal_gpio.c ****         (16 lines are connected to GPIO) for generating event/interrupt requests (each
  44:Drivers/STM32F3xx_HAL_Driver/Src/stm32f3xx_hal_gpio.c ****         input line can be independently configured to select the type (interrupt or event)
  45:Drivers/STM32F3xx_HAL_Driver/Src/stm32f3xx_hal_gpio.c ****         and the corresponding trigger event (rising or falling or both). Each line can
  46:Drivers/STM32F3xx_HAL_Driver/Src/stm32f3xx_hal_gpio.c ****         also be masked independently.
  47:Drivers/STM32F3xx_HAL_Driver/Src/stm32f3xx_hal_gpio.c **** 
  48:Drivers/STM32F3xx_HAL_Driver/Src/stm32f3xx_hal_gpio.c ****                      ##### How to use this driver #####
  49:Drivers/STM32F3xx_HAL_Driver/Src/stm32f3xx_hal_gpio.c ****   ==============================================================================
  50:Drivers/STM32F3xx_HAL_Driver/Src/stm32f3xx_hal_gpio.c ****   [..]
  51:Drivers/STM32F3xx_HAL_Driver/Src/stm32f3xx_hal_gpio.c ****     (#) Enable the GPIO AHB clock using the following function: __HAL_RCC_GPIOx_CLK_ENABLE().
  52:Drivers/STM32F3xx_HAL_Driver/Src/stm32f3xx_hal_gpio.c **** 
  53:Drivers/STM32F3xx_HAL_Driver/Src/stm32f3xx_hal_gpio.c ****     (#) Configure the GPIO pin(s) using HAL_GPIO_Init().
  54:Drivers/STM32F3xx_HAL_Driver/Src/stm32f3xx_hal_gpio.c ****         (++) Configure the IO mode using "Mode" member from GPIO_InitTypeDef structure
  55:Drivers/STM32F3xx_HAL_Driver/Src/stm32f3xx_hal_gpio.c ****         (++) Activate Pull-up, Pull-down resistor using "Pull" member from GPIO_InitTypeDef
  56:Drivers/STM32F3xx_HAL_Driver/Src/stm32f3xx_hal_gpio.c ****              structure.
  57:Drivers/STM32F3xx_HAL_Driver/Src/stm32f3xx_hal_gpio.c ****         (++) In case of Output or alternate function mode selection: the speed is
  58:Drivers/STM32F3xx_HAL_Driver/Src/stm32f3xx_hal_gpio.c ****              configured through "Speed" member from GPIO_InitTypeDef structure.
  59:Drivers/STM32F3xx_HAL_Driver/Src/stm32f3xx_hal_gpio.c ****         (++) In alternate mode is selection, the alternate function connected to the IO
  60:Drivers/STM32F3xx_HAL_Driver/Src/stm32f3xx_hal_gpio.c ****              is configured through "Alternate" member from GPIO_InitTypeDef structure.
  61:Drivers/STM32F3xx_HAL_Driver/Src/stm32f3xx_hal_gpio.c ****         (++) Analog mode is required when a pin is to be used as ADC channel
  62:Drivers/STM32F3xx_HAL_Driver/Src/stm32f3xx_hal_gpio.c ****              or DAC output.
  63:Drivers/STM32F3xx_HAL_Driver/Src/stm32f3xx_hal_gpio.c ****         (++) In case of external interrupt/event selection the "Mode" member from
  64:Drivers/STM32F3xx_HAL_Driver/Src/stm32f3xx_hal_gpio.c ****              GPIO_InitTypeDef structure select the type (interrupt or event) and
  65:Drivers/STM32F3xx_HAL_Driver/Src/stm32f3xx_hal_gpio.c ****              the corresponding trigger event (rising or falling or both).
  66:Drivers/STM32F3xx_HAL_Driver/Src/stm32f3xx_hal_gpio.c **** 
  67:Drivers/STM32F3xx_HAL_Driver/Src/stm32f3xx_hal_gpio.c ****     (#) In case of external interrupt/event mode selection, configure NVIC IRQ priority
  68:Drivers/STM32F3xx_HAL_Driver/Src/stm32f3xx_hal_gpio.c ****         mapped to the EXTI line using HAL_NVIC_SetPriority() and enable it using
  69:Drivers/STM32F3xx_HAL_Driver/Src/stm32f3xx_hal_gpio.c ****         HAL_NVIC_EnableIRQ().
  70:Drivers/STM32F3xx_HAL_Driver/Src/stm32f3xx_hal_gpio.c **** 
  71:Drivers/STM32F3xx_HAL_Driver/Src/stm32f3xx_hal_gpio.c ****     (#) To get the level of a pin configured in input mode use HAL_GPIO_ReadPin().
  72:Drivers/STM32F3xx_HAL_Driver/Src/stm32f3xx_hal_gpio.c **** 
  73:Drivers/STM32F3xx_HAL_Driver/Src/stm32f3xx_hal_gpio.c ****     (#) To set/reset the level of a pin configured in output mode use
  74:Drivers/STM32F3xx_HAL_Driver/Src/stm32f3xx_hal_gpio.c ****         HAL_GPIO_WritePin()/HAL_GPIO_TogglePin().
  75:Drivers/STM32F3xx_HAL_Driver/Src/stm32f3xx_hal_gpio.c **** 
  76:Drivers/STM32F3xx_HAL_Driver/Src/stm32f3xx_hal_gpio.c ****    (#) To lock pin configuration until next reset use HAL_GPIO_LockPin().
  77:Drivers/STM32F3xx_HAL_Driver/Src/stm32f3xx_hal_gpio.c ****   
  78:Drivers/STM32F3xx_HAL_Driver/Src/stm32f3xx_hal_gpio.c ****     (#) During and just after reset, the alternate functions are not
  79:Drivers/STM32F3xx_HAL_Driver/Src/stm32f3xx_hal_gpio.c ****         active and the GPIO pins are configured in input floating mode (except JTAG
  80:Drivers/STM32F3xx_HAL_Driver/Src/stm32f3xx_hal_gpio.c ****         pins).
  81:Drivers/STM32F3xx_HAL_Driver/Src/stm32f3xx_hal_gpio.c **** 
  82:Drivers/STM32F3xx_HAL_Driver/Src/stm32f3xx_hal_gpio.c ****     (#) The LSE oscillator pins OSC32_IN and OSC32_OUT can be used as general purpose
  83:Drivers/STM32F3xx_HAL_Driver/Src/stm32f3xx_hal_gpio.c ****         (PC14 and PC15U, respectively) when the LSE oscillator is off. The LSE has
  84:Drivers/STM32F3xx_HAL_Driver/Src/stm32f3xx_hal_gpio.c ****         priority over the GPIO function.
  85:Drivers/STM32F3xx_HAL_Driver/Src/stm32f3xx_hal_gpio.c **** 
  86:Drivers/STM32F3xx_HAL_Driver/Src/stm32f3xx_hal_gpio.c ****     (#) The HSE oscillator pins OSC_IN/OSC_OUT can be used as
ARM GAS  /var/folders/jw/jcj5j9_530958b2rm5vp9wn00000gn/T//ccNrK2vt.s 			page 3


  87:Drivers/STM32F3xx_HAL_Driver/Src/stm32f3xx_hal_gpio.c ****         general purpose PF0 and PF1, respectively, when the HSE oscillator is off.
  88:Drivers/STM32F3xx_HAL_Driver/Src/stm32f3xx_hal_gpio.c ****         The HSE has priority over the GPIO function.
  89:Drivers/STM32F3xx_HAL_Driver/Src/stm32f3xx_hal_gpio.c **** 
  90:Drivers/STM32F3xx_HAL_Driver/Src/stm32f3xx_hal_gpio.c ****   @endverbatim
  91:Drivers/STM32F3xx_HAL_Driver/Src/stm32f3xx_hal_gpio.c ****   ******************************************************************************
  92:Drivers/STM32F3xx_HAL_Driver/Src/stm32f3xx_hal_gpio.c ****   * @attention
  93:Drivers/STM32F3xx_HAL_Driver/Src/stm32f3xx_hal_gpio.c ****   *
  94:Drivers/STM32F3xx_HAL_Driver/Src/stm32f3xx_hal_gpio.c ****   * <h2><center>&copy; Copyright (c) 2016 STMicroelectronics.
  95:Drivers/STM32F3xx_HAL_Driver/Src/stm32f3xx_hal_gpio.c ****   * All rights reserved.</center></h2>
  96:Drivers/STM32F3xx_HAL_Driver/Src/stm32f3xx_hal_gpio.c ****   *
  97:Drivers/STM32F3xx_HAL_Driver/Src/stm32f3xx_hal_gpio.c ****   * This software component is licensed by ST under BSD 3-Clause license,
  98:Drivers/STM32F3xx_HAL_Driver/Src/stm32f3xx_hal_gpio.c ****   * the "License"; You may not use this file except in compliance with the
  99:Drivers/STM32F3xx_HAL_Driver/Src/stm32f3xx_hal_gpio.c ****   * License. You may obtain a copy of the License at:
 100:Drivers/STM32F3xx_HAL_Driver/Src/stm32f3xx_hal_gpio.c ****   *                        opensource.org/licenses/BSD-3-Clause
 101:Drivers/STM32F3xx_HAL_Driver/Src/stm32f3xx_hal_gpio.c ****   *
 102:Drivers/STM32F3xx_HAL_Driver/Src/stm32f3xx_hal_gpio.c ****   ******************************************************************************
 103:Drivers/STM32F3xx_HAL_Driver/Src/stm32f3xx_hal_gpio.c ****   */
 104:Drivers/STM32F3xx_HAL_Driver/Src/stm32f3xx_hal_gpio.c **** 
 105:Drivers/STM32F3xx_HAL_Driver/Src/stm32f3xx_hal_gpio.c **** /* Includes ------------------------------------------------------------------*/
 106:Drivers/STM32F3xx_HAL_Driver/Src/stm32f3xx_hal_gpio.c **** #include "stm32f3xx_hal.h"
 107:Drivers/STM32F3xx_HAL_Driver/Src/stm32f3xx_hal_gpio.c **** 
 108:Drivers/STM32F3xx_HAL_Driver/Src/stm32f3xx_hal_gpio.c **** /** @addtogroup STM32F3xx_HAL_Driver
 109:Drivers/STM32F3xx_HAL_Driver/Src/stm32f3xx_hal_gpio.c ****   * @{
 110:Drivers/STM32F3xx_HAL_Driver/Src/stm32f3xx_hal_gpio.c ****   */
 111:Drivers/STM32F3xx_HAL_Driver/Src/stm32f3xx_hal_gpio.c **** 
 112:Drivers/STM32F3xx_HAL_Driver/Src/stm32f3xx_hal_gpio.c **** /** @defgroup GPIO GPIO
 113:Drivers/STM32F3xx_HAL_Driver/Src/stm32f3xx_hal_gpio.c ****   * @brief GPIO HAL module driver
 114:Drivers/STM32F3xx_HAL_Driver/Src/stm32f3xx_hal_gpio.c ****   * @{
 115:Drivers/STM32F3xx_HAL_Driver/Src/stm32f3xx_hal_gpio.c ****   */
 116:Drivers/STM32F3xx_HAL_Driver/Src/stm32f3xx_hal_gpio.c **** 
 117:Drivers/STM32F3xx_HAL_Driver/Src/stm32f3xx_hal_gpio.c **** /** MISRA C:2012 deviation rule has been granted for following rules:
 118:Drivers/STM32F3xx_HAL_Driver/Src/stm32f3xx_hal_gpio.c ****   * Rule-18.1_d - Medium: Array pointer `GPIOx' is accessed with index [..,..]
 119:Drivers/STM32F3xx_HAL_Driver/Src/stm32f3xx_hal_gpio.c ****   * which may be out of array bounds [..,UNKNOWN] in following APIs:
 120:Drivers/STM32F3xx_HAL_Driver/Src/stm32f3xx_hal_gpio.c ****   * HAL_GPIO_Init
 121:Drivers/STM32F3xx_HAL_Driver/Src/stm32f3xx_hal_gpio.c ****   * HAL_GPIO_DeInit
 122:Drivers/STM32F3xx_HAL_Driver/Src/stm32f3xx_hal_gpio.c ****   */
 123:Drivers/STM32F3xx_HAL_Driver/Src/stm32f3xx_hal_gpio.c **** 
 124:Drivers/STM32F3xx_HAL_Driver/Src/stm32f3xx_hal_gpio.c **** #ifdef HAL_GPIO_MODULE_ENABLED
 125:Drivers/STM32F3xx_HAL_Driver/Src/stm32f3xx_hal_gpio.c **** 
 126:Drivers/STM32F3xx_HAL_Driver/Src/stm32f3xx_hal_gpio.c **** /* Private typedef -----------------------------------------------------------*/
 127:Drivers/STM32F3xx_HAL_Driver/Src/stm32f3xx_hal_gpio.c **** /* Private defines -----------------------------------------------------------*/
 128:Drivers/STM32F3xx_HAL_Driver/Src/stm32f3xx_hal_gpio.c **** /** @defgroup GPIO_Private_Defines GPIO Private Defines
 129:Drivers/STM32F3xx_HAL_Driver/Src/stm32f3xx_hal_gpio.c ****   * @{
 130:Drivers/STM32F3xx_HAL_Driver/Src/stm32f3xx_hal_gpio.c ****   */
 131:Drivers/STM32F3xx_HAL_Driver/Src/stm32f3xx_hal_gpio.c **** #define GPIO_MODE             (0x00000003U)
 132:Drivers/STM32F3xx_HAL_Driver/Src/stm32f3xx_hal_gpio.c **** #define EXTI_MODE             (0x10000000U)
 133:Drivers/STM32F3xx_HAL_Driver/Src/stm32f3xx_hal_gpio.c **** #define GPIO_MODE_IT          (0x00010000U)
 134:Drivers/STM32F3xx_HAL_Driver/Src/stm32f3xx_hal_gpio.c **** #define GPIO_MODE_EVT         (0x00020000U)
 135:Drivers/STM32F3xx_HAL_Driver/Src/stm32f3xx_hal_gpio.c **** #define RISING_EDGE           (0x00100000U)
 136:Drivers/STM32F3xx_HAL_Driver/Src/stm32f3xx_hal_gpio.c **** #define FALLING_EDGE          (0x00200000U)
 137:Drivers/STM32F3xx_HAL_Driver/Src/stm32f3xx_hal_gpio.c **** #define GPIO_OUTPUT_TYPE      (0x00000010U)
 138:Drivers/STM32F3xx_HAL_Driver/Src/stm32f3xx_hal_gpio.c **** 
 139:Drivers/STM32F3xx_HAL_Driver/Src/stm32f3xx_hal_gpio.c **** #define GPIO_NUMBER           (16U)
 140:Drivers/STM32F3xx_HAL_Driver/Src/stm32f3xx_hal_gpio.c **** /**
 141:Drivers/STM32F3xx_HAL_Driver/Src/stm32f3xx_hal_gpio.c ****   * @}
 142:Drivers/STM32F3xx_HAL_Driver/Src/stm32f3xx_hal_gpio.c ****   */
 143:Drivers/STM32F3xx_HAL_Driver/Src/stm32f3xx_hal_gpio.c ****   
ARM GAS  /var/folders/jw/jcj5j9_530958b2rm5vp9wn00000gn/T//ccNrK2vt.s 			page 4


 144:Drivers/STM32F3xx_HAL_Driver/Src/stm32f3xx_hal_gpio.c **** /* Private macros ------------------------------------------------------------*/
 145:Drivers/STM32F3xx_HAL_Driver/Src/stm32f3xx_hal_gpio.c **** /* Private macros ------------------------------------------------------------*/
 146:Drivers/STM32F3xx_HAL_Driver/Src/stm32f3xx_hal_gpio.c **** /** @defgroup GPIO_Private_Macros GPIO Private Macros
 147:Drivers/STM32F3xx_HAL_Driver/Src/stm32f3xx_hal_gpio.c ****   * @{
 148:Drivers/STM32F3xx_HAL_Driver/Src/stm32f3xx_hal_gpio.c ****   */
 149:Drivers/STM32F3xx_HAL_Driver/Src/stm32f3xx_hal_gpio.c **** /**
 150:Drivers/STM32F3xx_HAL_Driver/Src/stm32f3xx_hal_gpio.c ****   * @}
 151:Drivers/STM32F3xx_HAL_Driver/Src/stm32f3xx_hal_gpio.c ****   */
 152:Drivers/STM32F3xx_HAL_Driver/Src/stm32f3xx_hal_gpio.c **** /* Private variables ---------------------------------------------------------*/
 153:Drivers/STM32F3xx_HAL_Driver/Src/stm32f3xx_hal_gpio.c **** /* Private function prototypes -----------------------------------------------*/
 154:Drivers/STM32F3xx_HAL_Driver/Src/stm32f3xx_hal_gpio.c **** /* Exported functions --------------------------------------------------------*/
 155:Drivers/STM32F3xx_HAL_Driver/Src/stm32f3xx_hal_gpio.c **** 
 156:Drivers/STM32F3xx_HAL_Driver/Src/stm32f3xx_hal_gpio.c **** /** @defgroup GPIO_Exported_Functions GPIO Exported Functions
 157:Drivers/STM32F3xx_HAL_Driver/Src/stm32f3xx_hal_gpio.c ****   * @{
 158:Drivers/STM32F3xx_HAL_Driver/Src/stm32f3xx_hal_gpio.c ****   */
 159:Drivers/STM32F3xx_HAL_Driver/Src/stm32f3xx_hal_gpio.c **** 
 160:Drivers/STM32F3xx_HAL_Driver/Src/stm32f3xx_hal_gpio.c **** /** @defgroup GPIO_Exported_Functions_Group1 Initialization/de-initialization functions 
 161:Drivers/STM32F3xx_HAL_Driver/Src/stm32f3xx_hal_gpio.c ****  *  @brief    Initialization and Configuration functions
 162:Drivers/STM32F3xx_HAL_Driver/Src/stm32f3xx_hal_gpio.c ****  *
 163:Drivers/STM32F3xx_HAL_Driver/Src/stm32f3xx_hal_gpio.c **** @verbatim
 164:Drivers/STM32F3xx_HAL_Driver/Src/stm32f3xx_hal_gpio.c ****  ===============================================================================
 165:Drivers/STM32F3xx_HAL_Driver/Src/stm32f3xx_hal_gpio.c ****               ##### Initialization and de-initialization functions #####
 166:Drivers/STM32F3xx_HAL_Driver/Src/stm32f3xx_hal_gpio.c ****  ===============================================================================
 167:Drivers/STM32F3xx_HAL_Driver/Src/stm32f3xx_hal_gpio.c **** 
 168:Drivers/STM32F3xx_HAL_Driver/Src/stm32f3xx_hal_gpio.c **** @endverbatim
 169:Drivers/STM32F3xx_HAL_Driver/Src/stm32f3xx_hal_gpio.c ****   * @{
 170:Drivers/STM32F3xx_HAL_Driver/Src/stm32f3xx_hal_gpio.c ****   */
 171:Drivers/STM32F3xx_HAL_Driver/Src/stm32f3xx_hal_gpio.c **** 
 172:Drivers/STM32F3xx_HAL_Driver/Src/stm32f3xx_hal_gpio.c **** /**
 173:Drivers/STM32F3xx_HAL_Driver/Src/stm32f3xx_hal_gpio.c ****   * @brief  Initialize the GPIOx peripheral according to the specified parameters in the GPIO_Init.
 174:Drivers/STM32F3xx_HAL_Driver/Src/stm32f3xx_hal_gpio.c ****   * @param  GPIOx where x can be (A..F) to select the GPIO peripheral for STM32F3 family devices
 175:Drivers/STM32F3xx_HAL_Driver/Src/stm32f3xx_hal_gpio.c ****   * @param  GPIO_Init pointer to a GPIO_InitTypeDef structure that contains
 176:Drivers/STM32F3xx_HAL_Driver/Src/stm32f3xx_hal_gpio.c ****   *         the configuration information for the specified GPIO peripheral.
 177:Drivers/STM32F3xx_HAL_Driver/Src/stm32f3xx_hal_gpio.c ****   * @retval None
 178:Drivers/STM32F3xx_HAL_Driver/Src/stm32f3xx_hal_gpio.c ****   */
 179:Drivers/STM32F3xx_HAL_Driver/Src/stm32f3xx_hal_gpio.c **** void HAL_GPIO_Init(GPIO_TypeDef  *GPIOx, GPIO_InitTypeDef *GPIO_Init)
 180:Drivers/STM32F3xx_HAL_Driver/Src/stm32f3xx_hal_gpio.c **** {
  30              		.loc 1 180 1 view -0
  31              		.cfi_startproc
  32              		@ args = 0, pretend = 0, frame = 8
  33              		@ frame_needed = 0, uses_anonymous_args = 0
  34              		.loc 1 180 1 is_stmt 0 view .LVU1
  35 0000 F0B5     		push	{r4, r5, r6, r7, lr}
  36              	.LCFI0:
  37              		.cfi_def_cfa_offset 20
  38              		.cfi_offset 4, -20
  39              		.cfi_offset 5, -16
  40              		.cfi_offset 6, -12
  41              		.cfi_offset 7, -8
  42              		.cfi_offset 14, -4
  43 0002 83B0     		sub	sp, sp, #12
  44              	.LCFI1:
  45              		.cfi_def_cfa_offset 32
 181:Drivers/STM32F3xx_HAL_Driver/Src/stm32f3xx_hal_gpio.c ****   uint32_t position = 0x00u;
  46              		.loc 1 181 3 is_stmt 1 view .LVU2
  47              	.LVL1:
 182:Drivers/STM32F3xx_HAL_Driver/Src/stm32f3xx_hal_gpio.c ****   uint32_t iocurrent;
ARM GAS  /var/folders/jw/jcj5j9_530958b2rm5vp9wn00000gn/T//ccNrK2vt.s 			page 5


  48              		.loc 1 182 3 view .LVU3
 183:Drivers/STM32F3xx_HAL_Driver/Src/stm32f3xx_hal_gpio.c ****   uint32_t temp;
  49              		.loc 1 183 3 view .LVU4
 184:Drivers/STM32F3xx_HAL_Driver/Src/stm32f3xx_hal_gpio.c **** 
 185:Drivers/STM32F3xx_HAL_Driver/Src/stm32f3xx_hal_gpio.c ****   /* Check the parameters */
 186:Drivers/STM32F3xx_HAL_Driver/Src/stm32f3xx_hal_gpio.c ****   assert_param(IS_GPIO_ALL_INSTANCE(GPIOx));
  50              		.loc 1 186 3 view .LVU5
 187:Drivers/STM32F3xx_HAL_Driver/Src/stm32f3xx_hal_gpio.c ****   assert_param(IS_GPIO_PIN(GPIO_Init->Pin));
  51              		.loc 1 187 3 view .LVU6
 188:Drivers/STM32F3xx_HAL_Driver/Src/stm32f3xx_hal_gpio.c ****   assert_param(IS_GPIO_MODE(GPIO_Init->Mode));
  52              		.loc 1 188 3 view .LVU7
 189:Drivers/STM32F3xx_HAL_Driver/Src/stm32f3xx_hal_gpio.c ****   assert_param(IS_GPIO_PULL(GPIO_Init->Pull));
  53              		.loc 1 189 3 view .LVU8
 190:Drivers/STM32F3xx_HAL_Driver/Src/stm32f3xx_hal_gpio.c **** 
 191:Drivers/STM32F3xx_HAL_Driver/Src/stm32f3xx_hal_gpio.c ****   /* Configure the port pins */
 192:Drivers/STM32F3xx_HAL_Driver/Src/stm32f3xx_hal_gpio.c ****   while (((GPIO_Init->Pin) >> position) != 0x00u)
  54              		.loc 1 192 3 view .LVU9
 181:Drivers/STM32F3xx_HAL_Driver/Src/stm32f3xx_hal_gpio.c ****   uint32_t iocurrent;
  55              		.loc 1 181 12 is_stmt 0 view .LVU10
  56 0004 0023     		movs	r3, #0
  57              		.loc 1 192 9 view .LVU11
  58 0006 36E0     		b	.L2
  59              	.LVL2:
  60              	.L21:
 193:Drivers/STM32F3xx_HAL_Driver/Src/stm32f3xx_hal_gpio.c ****   {
 194:Drivers/STM32F3xx_HAL_Driver/Src/stm32f3xx_hal_gpio.c ****     /* Get current io position */
 195:Drivers/STM32F3xx_HAL_Driver/Src/stm32f3xx_hal_gpio.c ****     iocurrent = (GPIO_Init->Pin) & (1uL << position);
 196:Drivers/STM32F3xx_HAL_Driver/Src/stm32f3xx_hal_gpio.c **** 
 197:Drivers/STM32F3xx_HAL_Driver/Src/stm32f3xx_hal_gpio.c ****     if (iocurrent != 0x00u)
 198:Drivers/STM32F3xx_HAL_Driver/Src/stm32f3xx_hal_gpio.c ****     {
 199:Drivers/STM32F3xx_HAL_Driver/Src/stm32f3xx_hal_gpio.c ****       /*--------------------- GPIO Mode Configuration ------------------------*/
 200:Drivers/STM32F3xx_HAL_Driver/Src/stm32f3xx_hal_gpio.c ****       /* In case of Output or Alternate function mode selection */
 201:Drivers/STM32F3xx_HAL_Driver/Src/stm32f3xx_hal_gpio.c ****       if((GPIO_Init->Mode == GPIO_MODE_OUTPUT_PP) || (GPIO_Init->Mode == GPIO_MODE_AF_PP) ||
 202:Drivers/STM32F3xx_HAL_Driver/Src/stm32f3xx_hal_gpio.c ****          (GPIO_Init->Mode == GPIO_MODE_OUTPUT_OD) || (GPIO_Init->Mode == GPIO_MODE_AF_OD))
 203:Drivers/STM32F3xx_HAL_Driver/Src/stm32f3xx_hal_gpio.c ****       {
 204:Drivers/STM32F3xx_HAL_Driver/Src/stm32f3xx_hal_gpio.c ****         /* Check the Speed parameter */
 205:Drivers/STM32F3xx_HAL_Driver/Src/stm32f3xx_hal_gpio.c ****         assert_param(IS_GPIO_SPEED(GPIO_Init->Speed));
 206:Drivers/STM32F3xx_HAL_Driver/Src/stm32f3xx_hal_gpio.c ****         /* Configure the IO Speed */
 207:Drivers/STM32F3xx_HAL_Driver/Src/stm32f3xx_hal_gpio.c ****         temp = GPIOx->OSPEEDR;
 208:Drivers/STM32F3xx_HAL_Driver/Src/stm32f3xx_hal_gpio.c ****         temp &= ~(GPIO_OSPEEDER_OSPEEDR0 << (position * 2u));
 209:Drivers/STM32F3xx_HAL_Driver/Src/stm32f3xx_hal_gpio.c ****         temp |= (GPIO_Init->Speed << (position * 2u));
 210:Drivers/STM32F3xx_HAL_Driver/Src/stm32f3xx_hal_gpio.c ****         GPIOx->OSPEEDR = temp;
 211:Drivers/STM32F3xx_HAL_Driver/Src/stm32f3xx_hal_gpio.c **** 
 212:Drivers/STM32F3xx_HAL_Driver/Src/stm32f3xx_hal_gpio.c ****         /* Configure the IO Output Type */
 213:Drivers/STM32F3xx_HAL_Driver/Src/stm32f3xx_hal_gpio.c ****         temp = GPIOx->OTYPER;
 214:Drivers/STM32F3xx_HAL_Driver/Src/stm32f3xx_hal_gpio.c ****         temp &= ~(GPIO_OTYPER_OT_0 << position) ;
 215:Drivers/STM32F3xx_HAL_Driver/Src/stm32f3xx_hal_gpio.c ****         temp |= (((GPIO_Init->Mode & GPIO_OUTPUT_TYPE) >> 4u) << position);
 216:Drivers/STM32F3xx_HAL_Driver/Src/stm32f3xx_hal_gpio.c ****         GPIOx->OTYPER = temp;
 217:Drivers/STM32F3xx_HAL_Driver/Src/stm32f3xx_hal_gpio.c ****       }
 218:Drivers/STM32F3xx_HAL_Driver/Src/stm32f3xx_hal_gpio.c **** 
 219:Drivers/STM32F3xx_HAL_Driver/Src/stm32f3xx_hal_gpio.c ****       /* Activate the Pull-up or Pull down resistor for the current IO */
 220:Drivers/STM32F3xx_HAL_Driver/Src/stm32f3xx_hal_gpio.c ****       temp = GPIOx->PUPDR;
 221:Drivers/STM32F3xx_HAL_Driver/Src/stm32f3xx_hal_gpio.c ****       temp &= ~(GPIO_PUPDR_PUPDR0 << (position * 2u));
 222:Drivers/STM32F3xx_HAL_Driver/Src/stm32f3xx_hal_gpio.c ****       temp |= ((GPIO_Init->Pull) << (position * 2u));
 223:Drivers/STM32F3xx_HAL_Driver/Src/stm32f3xx_hal_gpio.c ****       GPIOx->PUPDR = temp;
 224:Drivers/STM32F3xx_HAL_Driver/Src/stm32f3xx_hal_gpio.c **** 
 225:Drivers/STM32F3xx_HAL_Driver/Src/stm32f3xx_hal_gpio.c ****       /* In case of Alternate function mode selection */
ARM GAS  /var/folders/jw/jcj5j9_530958b2rm5vp9wn00000gn/T//ccNrK2vt.s 			page 6


 226:Drivers/STM32F3xx_HAL_Driver/Src/stm32f3xx_hal_gpio.c ****       if((GPIO_Init->Mode == GPIO_MODE_AF_PP) || (GPIO_Init->Mode == GPIO_MODE_AF_OD))
 227:Drivers/STM32F3xx_HAL_Driver/Src/stm32f3xx_hal_gpio.c ****       {
 228:Drivers/STM32F3xx_HAL_Driver/Src/stm32f3xx_hal_gpio.c ****         /* Check the Alternate function parameters */
 229:Drivers/STM32F3xx_HAL_Driver/Src/stm32f3xx_hal_gpio.c ****         assert_param(IS_GPIO_AF_INSTANCE(GPIOx));
 230:Drivers/STM32F3xx_HAL_Driver/Src/stm32f3xx_hal_gpio.c ****         assert_param(IS_GPIO_AF(GPIO_Init->Alternate));
 231:Drivers/STM32F3xx_HAL_Driver/Src/stm32f3xx_hal_gpio.c **** 
 232:Drivers/STM32F3xx_HAL_Driver/Src/stm32f3xx_hal_gpio.c ****         /* Configure Alternate function mapped with the current IO */
 233:Drivers/STM32F3xx_HAL_Driver/Src/stm32f3xx_hal_gpio.c ****         temp = GPIOx->AFR[position >> 3u];
 234:Drivers/STM32F3xx_HAL_Driver/Src/stm32f3xx_hal_gpio.c ****         temp &= ~(0xFu << ((position & 0x07u) * 4u));
 235:Drivers/STM32F3xx_HAL_Driver/Src/stm32f3xx_hal_gpio.c ****         temp |= ((GPIO_Init->Alternate) << ((position & 0x07u) * 4u));
 236:Drivers/STM32F3xx_HAL_Driver/Src/stm32f3xx_hal_gpio.c ****         GPIOx->AFR[position >> 3u] = temp;
 237:Drivers/STM32F3xx_HAL_Driver/Src/stm32f3xx_hal_gpio.c ****       }
 238:Drivers/STM32F3xx_HAL_Driver/Src/stm32f3xx_hal_gpio.c **** 
 239:Drivers/STM32F3xx_HAL_Driver/Src/stm32f3xx_hal_gpio.c ****       /* Configure IO Direction mode (Input, Output, Alternate or Analog) */
 240:Drivers/STM32F3xx_HAL_Driver/Src/stm32f3xx_hal_gpio.c ****       temp = GPIOx->MODER;
 241:Drivers/STM32F3xx_HAL_Driver/Src/stm32f3xx_hal_gpio.c ****       temp &= ~(GPIO_MODER_MODER0 << (position * 2u));
 242:Drivers/STM32F3xx_HAL_Driver/Src/stm32f3xx_hal_gpio.c ****       temp |= ((GPIO_Init->Mode & GPIO_MODE) << (position * 2u));
 243:Drivers/STM32F3xx_HAL_Driver/Src/stm32f3xx_hal_gpio.c ****       GPIOx->MODER = temp;
 244:Drivers/STM32F3xx_HAL_Driver/Src/stm32f3xx_hal_gpio.c **** 
 245:Drivers/STM32F3xx_HAL_Driver/Src/stm32f3xx_hal_gpio.c ****       /*--------------------- EXTI Mode Configuration ------------------------*/
 246:Drivers/STM32F3xx_HAL_Driver/Src/stm32f3xx_hal_gpio.c ****       /* Configure the External Interrupt or event for the current IO */
 247:Drivers/STM32F3xx_HAL_Driver/Src/stm32f3xx_hal_gpio.c ****       if((GPIO_Init->Mode & EXTI_MODE) == EXTI_MODE)
 248:Drivers/STM32F3xx_HAL_Driver/Src/stm32f3xx_hal_gpio.c ****       {
 249:Drivers/STM32F3xx_HAL_Driver/Src/stm32f3xx_hal_gpio.c ****         /* Enable SYSCFG Clock */
 250:Drivers/STM32F3xx_HAL_Driver/Src/stm32f3xx_hal_gpio.c ****         __HAL_RCC_SYSCFG_CLK_ENABLE();
 251:Drivers/STM32F3xx_HAL_Driver/Src/stm32f3xx_hal_gpio.c **** 
 252:Drivers/STM32F3xx_HAL_Driver/Src/stm32f3xx_hal_gpio.c ****         temp = SYSCFG->EXTICR[position >> 2u];
 253:Drivers/STM32F3xx_HAL_Driver/Src/stm32f3xx_hal_gpio.c ****         temp &= ~(0x0FuL << (4u * (position & 0x03u)));
 254:Drivers/STM32F3xx_HAL_Driver/Src/stm32f3xx_hal_gpio.c ****         temp |= (GPIO_GET_INDEX(GPIOx) << (4u * (position & 0x03u)));
  61              		.loc 1 254 18 view .LVU12
  62 0008 0424     		movs	r4, #4
  63 000a 00E0     		b	.L8
  64              	.L14:
  65 000c 0024     		movs	r4, #0
  66              	.L8:
  67              		.loc 1 254 40 discriminator 20 view .LVU13
  68 000e B440     		lsls	r4, r4, r6
  69              		.loc 1 254 14 discriminator 20 view .LVU14
  70 0010 3C43     		orrs	r4, r4, r7
  71              	.LVL3:
 255:Drivers/STM32F3xx_HAL_Driver/Src/stm32f3xx_hal_gpio.c ****         SYSCFG->EXTICR[position >> 2u] = temp;
  72              		.loc 1 255 9 is_stmt 1 discriminator 20 view .LVU15
  73              		.loc 1 255 40 is_stmt 0 discriminator 20 view .LVU16
  74 0012 0235     		adds	r5, r5, #2
  75 0014 5C4E     		ldr	r6, .L22
  76 0016 46F82540 		str	r4, [r6, r5, lsl #2]
 256:Drivers/STM32F3xx_HAL_Driver/Src/stm32f3xx_hal_gpio.c **** 
 257:Drivers/STM32F3xx_HAL_Driver/Src/stm32f3xx_hal_gpio.c ****         /* Clear EXTI line configuration */
 258:Drivers/STM32F3xx_HAL_Driver/Src/stm32f3xx_hal_gpio.c ****         temp = EXTI->IMR;
  77              		.loc 1 258 9 is_stmt 1 discriminator 20 view .LVU17
  78              		.loc 1 258 14 is_stmt 0 discriminator 20 view .LVU18
  79 001a 5C4C     		ldr	r4, .L22+4
  80              	.LVL4:
  81              		.loc 1 258 14 discriminator 20 view .LVU19
  82 001c 2568     		ldr	r5, [r4]
  83              	.LVL5:
 259:Drivers/STM32F3xx_HAL_Driver/Src/stm32f3xx_hal_gpio.c ****         temp &= ~(iocurrent);
ARM GAS  /var/folders/jw/jcj5j9_530958b2rm5vp9wn00000gn/T//ccNrK2vt.s 			page 7


  84              		.loc 1 259 9 is_stmt 1 discriminator 20 view .LVU20
  85              		.loc 1 259 17 is_stmt 0 discriminator 20 view .LVU21
  86 001e D443     		mvns	r4, r2
  87              		.loc 1 259 14 discriminator 20 view .LVU22
  88 0020 25EA0206 		bic	r6, r5, r2
  89              	.LVL6:
 260:Drivers/STM32F3xx_HAL_Driver/Src/stm32f3xx_hal_gpio.c ****         if((GPIO_Init->Mode & GPIO_MODE_IT) == GPIO_MODE_IT)
  90              		.loc 1 260 9 is_stmt 1 discriminator 20 view .LVU23
  91              		.loc 1 260 22 is_stmt 0 discriminator 20 view .LVU24
  92 0024 4F68     		ldr	r7, [r1, #4]
  93              		.loc 1 260 11 discriminator 20 view .LVU25
  94 0026 17F4803F 		tst	r7, #65536
  95 002a 01D0     		beq	.L9
 261:Drivers/STM32F3xx_HAL_Driver/Src/stm32f3xx_hal_gpio.c ****         {
 262:Drivers/STM32F3xx_HAL_Driver/Src/stm32f3xx_hal_gpio.c ****           temp |= iocurrent;
  96              		.loc 1 262 11 is_stmt 1 view .LVU26
  97              		.loc 1 262 16 is_stmt 0 view .LVU27
  98 002c 42EA0506 		orr	r6, r2, r5
  99              	.LVL7:
 100              	.L9:
 263:Drivers/STM32F3xx_HAL_Driver/Src/stm32f3xx_hal_gpio.c ****         }
 264:Drivers/STM32F3xx_HAL_Driver/Src/stm32f3xx_hal_gpio.c ****         EXTI->IMR = temp;
 101              		.loc 1 264 9 is_stmt 1 view .LVU28
 102              		.loc 1 264 19 is_stmt 0 view .LVU29
 103 0030 564D     		ldr	r5, .L22+4
 104 0032 2E60     		str	r6, [r5]
 265:Drivers/STM32F3xx_HAL_Driver/Src/stm32f3xx_hal_gpio.c **** 
 266:Drivers/STM32F3xx_HAL_Driver/Src/stm32f3xx_hal_gpio.c ****         temp = EXTI->EMR;
 105              		.loc 1 266 9 is_stmt 1 view .LVU30
 106              		.loc 1 266 14 is_stmt 0 view .LVU31
 107 0034 6D68     		ldr	r5, [r5, #4]
 108              	.LVL8:
 267:Drivers/STM32F3xx_HAL_Driver/Src/stm32f3xx_hal_gpio.c ****         temp &= ~(iocurrent);
 109              		.loc 1 267 9 is_stmt 1 view .LVU32
 110              		.loc 1 267 14 is_stmt 0 view .LVU33
 111 0036 04EA0506 		and	r6, r4, r5
 112              	.LVL9:
 268:Drivers/STM32F3xx_HAL_Driver/Src/stm32f3xx_hal_gpio.c ****         if((GPIO_Init->Mode & GPIO_MODE_EVT) == GPIO_MODE_EVT)
 113              		.loc 1 268 9 is_stmt 1 view .LVU34
 114              		.loc 1 268 22 is_stmt 0 view .LVU35
 115 003a 4F68     		ldr	r7, [r1, #4]
 116              		.loc 1 268 11 view .LVU36
 117 003c 17F4003F 		tst	r7, #131072
 118 0040 01D0     		beq	.L10
 269:Drivers/STM32F3xx_HAL_Driver/Src/stm32f3xx_hal_gpio.c ****         {
 270:Drivers/STM32F3xx_HAL_Driver/Src/stm32f3xx_hal_gpio.c ****           temp |= iocurrent;
 119              		.loc 1 270 11 is_stmt 1 view .LVU37
 120              		.loc 1 270 16 is_stmt 0 view .LVU38
 121 0042 42EA0506 		orr	r6, r2, r5
 122              	.LVL10:
 123              	.L10:
 271:Drivers/STM32F3xx_HAL_Driver/Src/stm32f3xx_hal_gpio.c ****         }
 272:Drivers/STM32F3xx_HAL_Driver/Src/stm32f3xx_hal_gpio.c ****         EXTI->EMR = temp;
 124              		.loc 1 272 9 is_stmt 1 view .LVU39
 125              		.loc 1 272 19 is_stmt 0 view .LVU40
 126 0046 514D     		ldr	r5, .L22+4
 127 0048 6E60     		str	r6, [r5, #4]
ARM GAS  /var/folders/jw/jcj5j9_530958b2rm5vp9wn00000gn/T//ccNrK2vt.s 			page 8


 273:Drivers/STM32F3xx_HAL_Driver/Src/stm32f3xx_hal_gpio.c **** 
 274:Drivers/STM32F3xx_HAL_Driver/Src/stm32f3xx_hal_gpio.c ****         /* Clear Rising Falling edge configuration */
 275:Drivers/STM32F3xx_HAL_Driver/Src/stm32f3xx_hal_gpio.c ****         temp = EXTI->RTSR;
 128              		.loc 1 275 9 is_stmt 1 view .LVU41
 129              		.loc 1 275 14 is_stmt 0 view .LVU42
 130 004a AD68     		ldr	r5, [r5, #8]
 131              	.LVL11:
 276:Drivers/STM32F3xx_HAL_Driver/Src/stm32f3xx_hal_gpio.c ****         temp &= ~(iocurrent);
 132              		.loc 1 276 9 is_stmt 1 view .LVU43
 133              		.loc 1 276 14 is_stmt 0 view .LVU44
 134 004c 04EA0506 		and	r6, r4, r5
 135              	.LVL12:
 277:Drivers/STM32F3xx_HAL_Driver/Src/stm32f3xx_hal_gpio.c ****         if((GPIO_Init->Mode & RISING_EDGE) == RISING_EDGE)
 136              		.loc 1 277 9 is_stmt 1 view .LVU45
 137              		.loc 1 277 22 is_stmt 0 view .LVU46
 138 0050 4F68     		ldr	r7, [r1, #4]
 139              		.loc 1 277 11 view .LVU47
 140 0052 17F4801F 		tst	r7, #1048576
 141 0056 01D0     		beq	.L11
 278:Drivers/STM32F3xx_HAL_Driver/Src/stm32f3xx_hal_gpio.c ****         {
 279:Drivers/STM32F3xx_HAL_Driver/Src/stm32f3xx_hal_gpio.c ****           temp |= iocurrent;
 142              		.loc 1 279 11 is_stmt 1 view .LVU48
 143              		.loc 1 279 16 is_stmt 0 view .LVU49
 144 0058 42EA0506 		orr	r6, r2, r5
 145              	.LVL13:
 146              	.L11:
 280:Drivers/STM32F3xx_HAL_Driver/Src/stm32f3xx_hal_gpio.c ****         }
 281:Drivers/STM32F3xx_HAL_Driver/Src/stm32f3xx_hal_gpio.c ****         EXTI->RTSR = temp;
 147              		.loc 1 281 9 is_stmt 1 view .LVU50
 148              		.loc 1 281 20 is_stmt 0 view .LVU51
 149 005c 4B4D     		ldr	r5, .L22+4
 150 005e AE60     		str	r6, [r5, #8]
 282:Drivers/STM32F3xx_HAL_Driver/Src/stm32f3xx_hal_gpio.c **** 
 283:Drivers/STM32F3xx_HAL_Driver/Src/stm32f3xx_hal_gpio.c ****         temp = EXTI->FTSR;
 151              		.loc 1 283 9 is_stmt 1 view .LVU52
 152              		.loc 1 283 14 is_stmt 0 view .LVU53
 153 0060 ED68     		ldr	r5, [r5, #12]
 154              	.LVL14:
 284:Drivers/STM32F3xx_HAL_Driver/Src/stm32f3xx_hal_gpio.c ****         temp &= ~(iocurrent);
 155              		.loc 1 284 9 is_stmt 1 view .LVU54
 156              		.loc 1 284 14 is_stmt 0 view .LVU55
 157 0062 2C40     		ands	r4, r4, r5
 158              	.LVL15:
 285:Drivers/STM32F3xx_HAL_Driver/Src/stm32f3xx_hal_gpio.c ****         if((GPIO_Init->Mode & FALLING_EDGE) == FALLING_EDGE)
 159              		.loc 1 285 9 is_stmt 1 view .LVU56
 160              		.loc 1 285 22 is_stmt 0 view .LVU57
 161 0064 4E68     		ldr	r6, [r1, #4]
 162              		.loc 1 285 11 view .LVU58
 163 0066 16F4001F 		tst	r6, #2097152
 164 006a 01D0     		beq	.L12
 286:Drivers/STM32F3xx_HAL_Driver/Src/stm32f3xx_hal_gpio.c ****         {
 287:Drivers/STM32F3xx_HAL_Driver/Src/stm32f3xx_hal_gpio.c ****           temp |= iocurrent;
 165              		.loc 1 287 11 is_stmt 1 view .LVU59
 166              		.loc 1 287 16 is_stmt 0 view .LVU60
 167 006c 42EA0504 		orr	r4, r2, r5
 168              	.LVL16:
 169              	.L12:
ARM GAS  /var/folders/jw/jcj5j9_530958b2rm5vp9wn00000gn/T//ccNrK2vt.s 			page 9


 288:Drivers/STM32F3xx_HAL_Driver/Src/stm32f3xx_hal_gpio.c ****         }
 289:Drivers/STM32F3xx_HAL_Driver/Src/stm32f3xx_hal_gpio.c ****         EXTI->FTSR = temp;
 170              		.loc 1 289 9 is_stmt 1 view .LVU61
 171              		.loc 1 289 20 is_stmt 0 view .LVU62
 172 0070 464A     		ldr	r2, .L22+4
 173              	.LVL17:
 174              		.loc 1 289 20 view .LVU63
 175 0072 D460     		str	r4, [r2, #12]
 176              	.LVL18:
 177              	.L3:
 290:Drivers/STM32F3xx_HAL_Driver/Src/stm32f3xx_hal_gpio.c ****       }
 291:Drivers/STM32F3xx_HAL_Driver/Src/stm32f3xx_hal_gpio.c ****     }
 292:Drivers/STM32F3xx_HAL_Driver/Src/stm32f3xx_hal_gpio.c **** 
 293:Drivers/STM32F3xx_HAL_Driver/Src/stm32f3xx_hal_gpio.c ****     position++;
 178              		.loc 1 293 5 is_stmt 1 view .LVU64
 179              		.loc 1 293 13 is_stmt 0 view .LVU65
 180 0074 0133     		adds	r3, r3, #1
 181              	.LVL19:
 182              	.L2:
 192:Drivers/STM32F3xx_HAL_Driver/Src/stm32f3xx_hal_gpio.c ****   {
 183              		.loc 1 192 9 is_stmt 1 view .LVU66
 192:Drivers/STM32F3xx_HAL_Driver/Src/stm32f3xx_hal_gpio.c ****   {
 184              		.loc 1 192 21 is_stmt 0 view .LVU67
 185 0076 0A68     		ldr	r2, [r1]
 192:Drivers/STM32F3xx_HAL_Driver/Src/stm32f3xx_hal_gpio.c ****   {
 186              		.loc 1 192 9 view .LVU68
 187 0078 32FA03F4 		lsrs	r4, r2, r3
 188 007c 00F08180 		beq	.L20
 195:Drivers/STM32F3xx_HAL_Driver/Src/stm32f3xx_hal_gpio.c **** 
 189              		.loc 1 195 5 is_stmt 1 view .LVU69
 195:Drivers/STM32F3xx_HAL_Driver/Src/stm32f3xx_hal_gpio.c **** 
 190              		.loc 1 195 41 is_stmt 0 view .LVU70
 191 0080 0124     		movs	r4, #1
 192 0082 9C40     		lsls	r4, r4, r3
 193              	.LVL20:
 197:Drivers/STM32F3xx_HAL_Driver/Src/stm32f3xx_hal_gpio.c ****     {
 194              		.loc 1 197 5 is_stmt 1 view .LVU71
 197:Drivers/STM32F3xx_HAL_Driver/Src/stm32f3xx_hal_gpio.c ****     {
 195              		.loc 1 197 8 is_stmt 0 view .LVU72
 196 0084 2240     		ands	r2, r4, r2
 197              	.LVL21:
 197:Drivers/STM32F3xx_HAL_Driver/Src/stm32f3xx_hal_gpio.c ****     {
 198              		.loc 1 197 8 view .LVU73
 199 0086 F5D0     		beq	.L3
 201:Drivers/STM32F3xx_HAL_Driver/Src/stm32f3xx_hal_gpio.c ****          (GPIO_Init->Mode == GPIO_MODE_OUTPUT_OD) || (GPIO_Init->Mode == GPIO_MODE_AF_OD))
 200              		.loc 1 201 7 is_stmt 1 view .LVU74
 201:Drivers/STM32F3xx_HAL_Driver/Src/stm32f3xx_hal_gpio.c ****          (GPIO_Init->Mode == GPIO_MODE_OUTPUT_OD) || (GPIO_Init->Mode == GPIO_MODE_AF_OD))
 201              		.loc 1 201 20 is_stmt 0 view .LVU75
 202 0088 4D68     		ldr	r5, [r1, #4]
 201:Drivers/STM32F3xx_HAL_Driver/Src/stm32f3xx_hal_gpio.c ****          (GPIO_Init->Mode == GPIO_MODE_OUTPUT_OD) || (GPIO_Init->Mode == GPIO_MODE_AF_OD))
 203              		.loc 1 201 51 view .LVU76
 204 008a 6E1E     		subs	r6, r5, #1
 201:Drivers/STM32F3xx_HAL_Driver/Src/stm32f3xx_hal_gpio.c ****          (GPIO_Init->Mode == GPIO_MODE_OUTPUT_OD) || (GPIO_Init->Mode == GPIO_MODE_AF_OD))
 205              		.loc 1 201 9 view .LVU77
 206 008c 012E     		cmp	r6, #1
 207 008e 03D9     		bls	.L4
 201:Drivers/STM32F3xx_HAL_Driver/Src/stm32f3xx_hal_gpio.c ****          (GPIO_Init->Mode == GPIO_MODE_OUTPUT_OD) || (GPIO_Init->Mode == GPIO_MODE_AF_OD))
ARM GAS  /var/folders/jw/jcj5j9_530958b2rm5vp9wn00000gn/T//ccNrK2vt.s 			page 10


 208              		.loc 1 201 91 discriminator 1 view .LVU78
 209 0090 112D     		cmp	r5, #17
 210 0092 01D0     		beq	.L4
 202:Drivers/STM32F3xx_HAL_Driver/Src/stm32f3xx_hal_gpio.c ****       {
 211              		.loc 1 202 51 view .LVU79
 212 0094 122D     		cmp	r5, #18
 213 0096 12D1     		bne	.L5
 214              	.L4:
 205:Drivers/STM32F3xx_HAL_Driver/Src/stm32f3xx_hal_gpio.c ****         /* Configure the IO Speed */
 215              		.loc 1 205 9 is_stmt 1 view .LVU80
 207:Drivers/STM32F3xx_HAL_Driver/Src/stm32f3xx_hal_gpio.c ****         temp &= ~(GPIO_OSPEEDER_OSPEEDR0 << (position * 2u));
 216              		.loc 1 207 9 view .LVU81
 207:Drivers/STM32F3xx_HAL_Driver/Src/stm32f3xx_hal_gpio.c ****         temp &= ~(GPIO_OSPEEDER_OSPEEDR0 << (position * 2u));
 217              		.loc 1 207 14 is_stmt 0 view .LVU82
 218 0098 8668     		ldr	r6, [r0, #8]
 219              	.LVL22:
 208:Drivers/STM32F3xx_HAL_Driver/Src/stm32f3xx_hal_gpio.c ****         temp |= (GPIO_Init->Speed << (position * 2u));
 220              		.loc 1 208 9 is_stmt 1 view .LVU83
 208:Drivers/STM32F3xx_HAL_Driver/Src/stm32f3xx_hal_gpio.c ****         temp |= (GPIO_Init->Speed << (position * 2u));
 221              		.loc 1 208 55 is_stmt 0 view .LVU84
 222 009a 5F00     		lsls	r7, r3, #1
 208:Drivers/STM32F3xx_HAL_Driver/Src/stm32f3xx_hal_gpio.c ****         temp |= (GPIO_Init->Speed << (position * 2u));
 223              		.loc 1 208 42 view .LVU85
 224 009c 0325     		movs	r5, #3
 225 009e BD40     		lsls	r5, r5, r7
 208:Drivers/STM32F3xx_HAL_Driver/Src/stm32f3xx_hal_gpio.c ****         temp |= (GPIO_Init->Speed << (position * 2u));
 226              		.loc 1 208 14 view .LVU86
 227 00a0 26EA0506 		bic	r6, r6, r5
 228              	.LVL23:
 209:Drivers/STM32F3xx_HAL_Driver/Src/stm32f3xx_hal_gpio.c ****         GPIOx->OSPEEDR = temp;
 229              		.loc 1 209 9 is_stmt 1 view .LVU87
 209:Drivers/STM32F3xx_HAL_Driver/Src/stm32f3xx_hal_gpio.c ****         GPIOx->OSPEEDR = temp;
 230              		.loc 1 209 27 is_stmt 0 view .LVU88
 231 00a4 CD68     		ldr	r5, [r1, #12]
 209:Drivers/STM32F3xx_HAL_Driver/Src/stm32f3xx_hal_gpio.c ****         GPIOx->OSPEEDR = temp;
 232              		.loc 1 209 35 view .LVU89
 233 00a6 BD40     		lsls	r5, r5, r7
 209:Drivers/STM32F3xx_HAL_Driver/Src/stm32f3xx_hal_gpio.c ****         GPIOx->OSPEEDR = temp;
 234              		.loc 1 209 14 view .LVU90
 235 00a8 3543     		orrs	r5, r5, r6
 236              	.LVL24:
 210:Drivers/STM32F3xx_HAL_Driver/Src/stm32f3xx_hal_gpio.c **** 
 237              		.loc 1 210 9 is_stmt 1 view .LVU91
 210:Drivers/STM32F3xx_HAL_Driver/Src/stm32f3xx_hal_gpio.c **** 
 238              		.loc 1 210 24 is_stmt 0 view .LVU92
 239 00aa 8560     		str	r5, [r0, #8]
 213:Drivers/STM32F3xx_HAL_Driver/Src/stm32f3xx_hal_gpio.c ****         temp &= ~(GPIO_OTYPER_OT_0 << position) ;
 240              		.loc 1 213 9 is_stmt 1 view .LVU93
 213:Drivers/STM32F3xx_HAL_Driver/Src/stm32f3xx_hal_gpio.c ****         temp &= ~(GPIO_OTYPER_OT_0 << position) ;
 241              		.loc 1 213 14 is_stmt 0 view .LVU94
 242 00ac 4668     		ldr	r6, [r0, #4]
 243              	.LVL25:
 214:Drivers/STM32F3xx_HAL_Driver/Src/stm32f3xx_hal_gpio.c ****         temp |= (((GPIO_Init->Mode & GPIO_OUTPUT_TYPE) >> 4u) << position);
 244              		.loc 1 214 9 is_stmt 1 view .LVU95
 214:Drivers/STM32F3xx_HAL_Driver/Src/stm32f3xx_hal_gpio.c ****         temp |= (((GPIO_Init->Mode & GPIO_OUTPUT_TYPE) >> 4u) << position);
 245              		.loc 1 214 14 is_stmt 0 view .LVU96
 246 00ae 26EA0406 		bic	r6, r6, r4
ARM GAS  /var/folders/jw/jcj5j9_530958b2rm5vp9wn00000gn/T//ccNrK2vt.s 			page 11


 247              	.LVL26:
 215:Drivers/STM32F3xx_HAL_Driver/Src/stm32f3xx_hal_gpio.c ****         GPIOx->OTYPER = temp;
 248              		.loc 1 215 9 is_stmt 1 view .LVU97
 215:Drivers/STM32F3xx_HAL_Driver/Src/stm32f3xx_hal_gpio.c ****         GPIOx->OTYPER = temp;
 249              		.loc 1 215 29 is_stmt 0 view .LVU98
 250 00b2 4D68     		ldr	r5, [r1, #4]
 215:Drivers/STM32F3xx_HAL_Driver/Src/stm32f3xx_hal_gpio.c ****         GPIOx->OTYPER = temp;
 251              		.loc 1 215 56 view .LVU99
 252 00b4 C5F30014 		ubfx	r4, r5, #4, #1
 215:Drivers/STM32F3xx_HAL_Driver/Src/stm32f3xx_hal_gpio.c ****         GPIOx->OTYPER = temp;
 253              		.loc 1 215 63 view .LVU100
 254 00b8 9C40     		lsls	r4, r4, r3
 215:Drivers/STM32F3xx_HAL_Driver/Src/stm32f3xx_hal_gpio.c ****         GPIOx->OTYPER = temp;
 255              		.loc 1 215 14 view .LVU101
 256 00ba 3443     		orrs	r4, r4, r6
 257              	.LVL27:
 216:Drivers/STM32F3xx_HAL_Driver/Src/stm32f3xx_hal_gpio.c ****       }
 258              		.loc 1 216 9 is_stmt 1 view .LVU102
 216:Drivers/STM32F3xx_HAL_Driver/Src/stm32f3xx_hal_gpio.c ****       }
 259              		.loc 1 216 23 is_stmt 0 view .LVU103
 260 00bc 4460     		str	r4, [r0, #4]
 261              	.LVL28:
 262              	.L5:
 220:Drivers/STM32F3xx_HAL_Driver/Src/stm32f3xx_hal_gpio.c ****       temp &= ~(GPIO_PUPDR_PUPDR0 << (position * 2u));
 263              		.loc 1 220 7 is_stmt 1 view .LVU104
 220:Drivers/STM32F3xx_HAL_Driver/Src/stm32f3xx_hal_gpio.c ****       temp &= ~(GPIO_PUPDR_PUPDR0 << (position * 2u));
 264              		.loc 1 220 12 is_stmt 0 view .LVU105
 265 00be C768     		ldr	r7, [r0, #12]
 266              	.LVL29:
 221:Drivers/STM32F3xx_HAL_Driver/Src/stm32f3xx_hal_gpio.c ****       temp |= ((GPIO_Init->Pull) << (position * 2u));
 267              		.loc 1 221 7 is_stmt 1 view .LVU106
 221:Drivers/STM32F3xx_HAL_Driver/Src/stm32f3xx_hal_gpio.c ****       temp |= ((GPIO_Init->Pull) << (position * 2u));
 268              		.loc 1 221 48 is_stmt 0 view .LVU107
 269 00c0 5E00     		lsls	r6, r3, #1
 221:Drivers/STM32F3xx_HAL_Driver/Src/stm32f3xx_hal_gpio.c ****       temp |= ((GPIO_Init->Pull) << (position * 2u));
 270              		.loc 1 221 35 view .LVU108
 271 00c2 0325     		movs	r5, #3
 272 00c4 B540     		lsls	r5, r5, r6
 221:Drivers/STM32F3xx_HAL_Driver/Src/stm32f3xx_hal_gpio.c ****       temp |= ((GPIO_Init->Pull) << (position * 2u));
 273              		.loc 1 221 15 view .LVU109
 274 00c6 EC43     		mvns	r4, r5
 221:Drivers/STM32F3xx_HAL_Driver/Src/stm32f3xx_hal_gpio.c ****       temp |= ((GPIO_Init->Pull) << (position * 2u));
 275              		.loc 1 221 12 view .LVU110
 276 00c8 27EA0507 		bic	r7, r7, r5
 277              	.LVL30:
 222:Drivers/STM32F3xx_HAL_Driver/Src/stm32f3xx_hal_gpio.c ****       GPIOx->PUPDR = temp;
 278              		.loc 1 222 7 is_stmt 1 view .LVU111
 222:Drivers/STM32F3xx_HAL_Driver/Src/stm32f3xx_hal_gpio.c ****       GPIOx->PUPDR = temp;
 279              		.loc 1 222 26 is_stmt 0 view .LVU112
 280 00cc 8D68     		ldr	r5, [r1, #8]
 222:Drivers/STM32F3xx_HAL_Driver/Src/stm32f3xx_hal_gpio.c ****       GPIOx->PUPDR = temp;
 281              		.loc 1 222 34 view .LVU113
 282 00ce B540     		lsls	r5, r5, r6
 222:Drivers/STM32F3xx_HAL_Driver/Src/stm32f3xx_hal_gpio.c ****       GPIOx->PUPDR = temp;
 283              		.loc 1 222 12 view .LVU114
 284 00d0 3D43     		orrs	r5, r5, r7
 285              	.LVL31:
ARM GAS  /var/folders/jw/jcj5j9_530958b2rm5vp9wn00000gn/T//ccNrK2vt.s 			page 12


 223:Drivers/STM32F3xx_HAL_Driver/Src/stm32f3xx_hal_gpio.c **** 
 286              		.loc 1 223 7 is_stmt 1 view .LVU115
 223:Drivers/STM32F3xx_HAL_Driver/Src/stm32f3xx_hal_gpio.c **** 
 287              		.loc 1 223 20 is_stmt 0 view .LVU116
 288 00d2 C560     		str	r5, [r0, #12]
 226:Drivers/STM32F3xx_HAL_Driver/Src/stm32f3xx_hal_gpio.c ****       {
 289              		.loc 1 226 7 is_stmt 1 view .LVU117
 226:Drivers/STM32F3xx_HAL_Driver/Src/stm32f3xx_hal_gpio.c ****       {
 290              		.loc 1 226 20 is_stmt 0 view .LVU118
 291 00d4 4D68     		ldr	r5, [r1, #4]
 292              	.LVL32:
 226:Drivers/STM32F3xx_HAL_Driver/Src/stm32f3xx_hal_gpio.c ****       {
 293              		.loc 1 226 9 view .LVU119
 294 00d6 022D     		cmp	r5, #2
 295 00d8 01D0     		beq	.L6
 226:Drivers/STM32F3xx_HAL_Driver/Src/stm32f3xx_hal_gpio.c ****       {
 296              		.loc 1 226 47 discriminator 1 view .LVU120
 297 00da 122D     		cmp	r5, #18
 298 00dc 13D1     		bne	.L7
 299              	.L6:
 229:Drivers/STM32F3xx_HAL_Driver/Src/stm32f3xx_hal_gpio.c ****         assert_param(IS_GPIO_AF(GPIO_Init->Alternate));
 300              		.loc 1 229 9 is_stmt 1 view .LVU121
 230:Drivers/STM32F3xx_HAL_Driver/Src/stm32f3xx_hal_gpio.c **** 
 301              		.loc 1 230 9 view .LVU122
 233:Drivers/STM32F3xx_HAL_Driver/Src/stm32f3xx_hal_gpio.c ****         temp &= ~(0xFu << ((position & 0x07u) * 4u));
 302              		.loc 1 233 9 view .LVU123
 233:Drivers/STM32F3xx_HAL_Driver/Src/stm32f3xx_hal_gpio.c ****         temp &= ~(0xFu << ((position & 0x07u) * 4u));
 303              		.loc 1 233 36 is_stmt 0 view .LVU124
 304 00de DF08     		lsrs	r7, r3, #3
 233:Drivers/STM32F3xx_HAL_Driver/Src/stm32f3xx_hal_gpio.c ****         temp &= ~(0xFu << ((position & 0x07u) * 4u));
 305              		.loc 1 233 14 view .LVU125
 306 00e0 0837     		adds	r7, r7, #8
 307 00e2 50F827E0 		ldr	lr, [r0, r7, lsl #2]
 308              	.LVL33:
 234:Drivers/STM32F3xx_HAL_Driver/Src/stm32f3xx_hal_gpio.c ****         temp |= ((GPIO_Init->Alternate) << ((position & 0x07u) * 4u));
 309              		.loc 1 234 9 is_stmt 1 view .LVU126
 234:Drivers/STM32F3xx_HAL_Driver/Src/stm32f3xx_hal_gpio.c ****         temp |= ((GPIO_Init->Alternate) << ((position & 0x07u) * 4u));
 310              		.loc 1 234 38 is_stmt 0 view .LVU127
 311 00e6 03F00705 		and	r5, r3, #7
 234:Drivers/STM32F3xx_HAL_Driver/Src/stm32f3xx_hal_gpio.c ****         temp |= ((GPIO_Init->Alternate) << ((position & 0x07u) * 4u));
 312              		.loc 1 234 47 view .LVU128
 313 00ea 4FEA850C 		lsl	ip, r5, #2
 234:Drivers/STM32F3xx_HAL_Driver/Src/stm32f3xx_hal_gpio.c ****         temp |= ((GPIO_Init->Alternate) << ((position & 0x07u) * 4u));
 314              		.loc 1 234 24 view .LVU129
 315 00ee 0F25     		movs	r5, #15
 316 00f0 05FA0CF5 		lsl	r5, r5, ip
 234:Drivers/STM32F3xx_HAL_Driver/Src/stm32f3xx_hal_gpio.c ****         temp |= ((GPIO_Init->Alternate) << ((position & 0x07u) * 4u));
 317              		.loc 1 234 14 view .LVU130
 318 00f4 2EEA050E 		bic	lr, lr, r5
 319              	.LVL34:
 235:Drivers/STM32F3xx_HAL_Driver/Src/stm32f3xx_hal_gpio.c ****         GPIOx->AFR[position >> 3u] = temp;
 320              		.loc 1 235 9 is_stmt 1 view .LVU131
 235:Drivers/STM32F3xx_HAL_Driver/Src/stm32f3xx_hal_gpio.c ****         GPIOx->AFR[position >> 3u] = temp;
 321              		.loc 1 235 28 is_stmt 0 view .LVU132
 322 00f8 0D69     		ldr	r5, [r1, #16]
 235:Drivers/STM32F3xx_HAL_Driver/Src/stm32f3xx_hal_gpio.c ****         GPIOx->AFR[position >> 3u] = temp;
 323              		.loc 1 235 41 view .LVU133
ARM GAS  /var/folders/jw/jcj5j9_530958b2rm5vp9wn00000gn/T//ccNrK2vt.s 			page 13


 324 00fa 05FA0CF5 		lsl	r5, r5, ip
 235:Drivers/STM32F3xx_HAL_Driver/Src/stm32f3xx_hal_gpio.c ****         GPIOx->AFR[position >> 3u] = temp;
 325              		.loc 1 235 14 view .LVU134
 326 00fe 45EA0E05 		orr	r5, r5, lr
 327              	.LVL35:
 236:Drivers/STM32F3xx_HAL_Driver/Src/stm32f3xx_hal_gpio.c ****       }
 328              		.loc 1 236 9 is_stmt 1 view .LVU135
 236:Drivers/STM32F3xx_HAL_Driver/Src/stm32f3xx_hal_gpio.c ****       }
 329              		.loc 1 236 36 is_stmt 0 view .LVU136
 330 0102 40F82750 		str	r5, [r0, r7, lsl #2]
 331              	.LVL36:
 332              	.L7:
 240:Drivers/STM32F3xx_HAL_Driver/Src/stm32f3xx_hal_gpio.c ****       temp &= ~(GPIO_MODER_MODER0 << (position * 2u));
 333              		.loc 1 240 7 is_stmt 1 view .LVU137
 240:Drivers/STM32F3xx_HAL_Driver/Src/stm32f3xx_hal_gpio.c ****       temp &= ~(GPIO_MODER_MODER0 << (position * 2u));
 334              		.loc 1 240 12 is_stmt 0 view .LVU138
 335 0106 0568     		ldr	r5, [r0]
 336              	.LVL37:
 241:Drivers/STM32F3xx_HAL_Driver/Src/stm32f3xx_hal_gpio.c ****       temp |= ((GPIO_Init->Mode & GPIO_MODE) << (position * 2u));
 337              		.loc 1 241 7 is_stmt 1 view .LVU139
 241:Drivers/STM32F3xx_HAL_Driver/Src/stm32f3xx_hal_gpio.c ****       temp |= ((GPIO_Init->Mode & GPIO_MODE) << (position * 2u));
 338              		.loc 1 241 12 is_stmt 0 view .LVU140
 339 0108 2540     		ands	r5, r5, r4
 340              	.LVL38:
 242:Drivers/STM32F3xx_HAL_Driver/Src/stm32f3xx_hal_gpio.c ****       GPIOx->MODER = temp;
 341              		.loc 1 242 7 is_stmt 1 view .LVU141
 242:Drivers/STM32F3xx_HAL_Driver/Src/stm32f3xx_hal_gpio.c ****       GPIOx->MODER = temp;
 342              		.loc 1 242 26 is_stmt 0 view .LVU142
 343 010a 4C68     		ldr	r4, [r1, #4]
 242:Drivers/STM32F3xx_HAL_Driver/Src/stm32f3xx_hal_gpio.c ****       GPIOx->MODER = temp;
 344              		.loc 1 242 33 view .LVU143
 345 010c 04F00304 		and	r4, r4, #3
 242:Drivers/STM32F3xx_HAL_Driver/Src/stm32f3xx_hal_gpio.c ****       GPIOx->MODER = temp;
 346              		.loc 1 242 46 view .LVU144
 347 0110 B440     		lsls	r4, r4, r6
 242:Drivers/STM32F3xx_HAL_Driver/Src/stm32f3xx_hal_gpio.c ****       GPIOx->MODER = temp;
 348              		.loc 1 242 12 view .LVU145
 349 0112 2C43     		orrs	r4, r4, r5
 350              	.LVL39:
 243:Drivers/STM32F3xx_HAL_Driver/Src/stm32f3xx_hal_gpio.c **** 
 351              		.loc 1 243 7 is_stmt 1 view .LVU146
 243:Drivers/STM32F3xx_HAL_Driver/Src/stm32f3xx_hal_gpio.c **** 
 352              		.loc 1 243 20 is_stmt 0 view .LVU147
 353 0114 0460     		str	r4, [r0]
 247:Drivers/STM32F3xx_HAL_Driver/Src/stm32f3xx_hal_gpio.c ****       {
 354              		.loc 1 247 7 is_stmt 1 view .LVU148
 247:Drivers/STM32F3xx_HAL_Driver/Src/stm32f3xx_hal_gpio.c ****       {
 355              		.loc 1 247 20 is_stmt 0 view .LVU149
 356 0116 4C68     		ldr	r4, [r1, #4]
 357              	.LVL40:
 247:Drivers/STM32F3xx_HAL_Driver/Src/stm32f3xx_hal_gpio.c ****       {
 358              		.loc 1 247 9 view .LVU150
 359 0118 14F0805F 		tst	r4, #268435456
 360 011c AAD0     		beq	.L3
 250:Drivers/STM32F3xx_HAL_Driver/Src/stm32f3xx_hal_gpio.c **** 
 361              		.loc 1 250 9 is_stmt 1 view .LVU151
 362              	.LBB2:
ARM GAS  /var/folders/jw/jcj5j9_530958b2rm5vp9wn00000gn/T//ccNrK2vt.s 			page 14


 250:Drivers/STM32F3xx_HAL_Driver/Src/stm32f3xx_hal_gpio.c **** 
 363              		.loc 1 250 9 view .LVU152
 250:Drivers/STM32F3xx_HAL_Driver/Src/stm32f3xx_hal_gpio.c **** 
 364              		.loc 1 250 9 view .LVU153
 365 011e 1C4C     		ldr	r4, .L22+8
 366 0120 A569     		ldr	r5, [r4, #24]
 367 0122 45F00105 		orr	r5, r5, #1
 368 0126 A561     		str	r5, [r4, #24]
 369              	.LVL41:
 250:Drivers/STM32F3xx_HAL_Driver/Src/stm32f3xx_hal_gpio.c **** 
 370              		.loc 1 250 9 view .LVU154
 371 0128 A469     		ldr	r4, [r4, #24]
 372 012a 04F00104 		and	r4, r4, #1
 373 012e 0194     		str	r4, [sp, #4]
 250:Drivers/STM32F3xx_HAL_Driver/Src/stm32f3xx_hal_gpio.c **** 
 374              		.loc 1 250 9 view .LVU155
 375 0130 019C     		ldr	r4, [sp, #4]
 376              	.LBE2:
 250:Drivers/STM32F3xx_HAL_Driver/Src/stm32f3xx_hal_gpio.c **** 
 377              		.loc 1 250 9 view .LVU156
 252:Drivers/STM32F3xx_HAL_Driver/Src/stm32f3xx_hal_gpio.c ****         temp &= ~(0x0FuL << (4u * (position & 0x03u)));
 378              		.loc 1 252 9 view .LVU157
 252:Drivers/STM32F3xx_HAL_Driver/Src/stm32f3xx_hal_gpio.c ****         temp &= ~(0x0FuL << (4u * (position & 0x03u)));
 379              		.loc 1 252 40 is_stmt 0 view .LVU158
 380 0132 9D08     		lsrs	r5, r3, #2
 252:Drivers/STM32F3xx_HAL_Driver/Src/stm32f3xx_hal_gpio.c ****         temp &= ~(0x0FuL << (4u * (position & 0x03u)));
 381              		.loc 1 252 14 view .LVU159
 382 0134 AE1C     		adds	r6, r5, #2
 383 0136 144C     		ldr	r4, .L22
 384 0138 54F82670 		ldr	r7, [r4, r6, lsl #2]
 385              	.LVL42:
 253:Drivers/STM32F3xx_HAL_Driver/Src/stm32f3xx_hal_gpio.c ****         temp |= (GPIO_GET_INDEX(GPIOx) << (4u * (position & 0x03u)));
 386              		.loc 1 253 9 is_stmt 1 view .LVU160
 253:Drivers/STM32F3xx_HAL_Driver/Src/stm32f3xx_hal_gpio.c ****         temp |= (GPIO_GET_INDEX(GPIOx) << (4u * (position & 0x03u)));
 387              		.loc 1 253 45 is_stmt 0 view .LVU161
 388 013c 03F00304 		and	r4, r3, #3
 253:Drivers/STM32F3xx_HAL_Driver/Src/stm32f3xx_hal_gpio.c ****         temp |= (GPIO_GET_INDEX(GPIOx) << (4u * (position & 0x03u)));
 389              		.loc 1 253 33 view .LVU162
 390 0140 A600     		lsls	r6, r4, #2
 253:Drivers/STM32F3xx_HAL_Driver/Src/stm32f3xx_hal_gpio.c ****         temp |= (GPIO_GET_INDEX(GPIOx) << (4u * (position & 0x03u)));
 391              		.loc 1 253 26 view .LVU163
 392 0142 0F24     		movs	r4, #15
 393 0144 B440     		lsls	r4, r4, r6
 253:Drivers/STM32F3xx_HAL_Driver/Src/stm32f3xx_hal_gpio.c ****         temp |= (GPIO_GET_INDEX(GPIOx) << (4u * (position & 0x03u)));
 394              		.loc 1 253 14 view .LVU164
 395 0146 27EA0407 		bic	r7, r7, r4
 396              	.LVL43:
 254:Drivers/STM32F3xx_HAL_Driver/Src/stm32f3xx_hal_gpio.c ****         SYSCFG->EXTICR[position >> 2u] = temp;
 397              		.loc 1 254 9 is_stmt 1 view .LVU165
 254:Drivers/STM32F3xx_HAL_Driver/Src/stm32f3xx_hal_gpio.c ****         SYSCFG->EXTICR[position >> 2u] = temp;
 398              		.loc 1 254 18 is_stmt 0 view .LVU166
 399 014a B0F1904F 		cmp	r0, #1207959552
 400 014e 3FF45DAF 		beq	.L14
 254:Drivers/STM32F3xx_HAL_Driver/Src/stm32f3xx_hal_gpio.c ****         SYSCFG->EXTICR[position >> 2u] = temp;
 401              		.loc 1 254 18 discriminator 1 view .LVU167
 402 0152 104C     		ldr	r4, .L22+12
 403 0154 A042     		cmp	r0, r4
ARM GAS  /var/folders/jw/jcj5j9_530958b2rm5vp9wn00000gn/T//ccNrK2vt.s 			page 15


 404 0156 0ED0     		beq	.L15
 254:Drivers/STM32F3xx_HAL_Driver/Src/stm32f3xx_hal_gpio.c ****         SYSCFG->EXTICR[position >> 2u] = temp;
 405              		.loc 1 254 18 discriminator 3 view .LVU168
 406 0158 04F58064 		add	r4, r4, #1024
 407 015c A042     		cmp	r0, r4
 408 015e 0CD0     		beq	.L16
 254:Drivers/STM32F3xx_HAL_Driver/Src/stm32f3xx_hal_gpio.c ****         SYSCFG->EXTICR[position >> 2u] = temp;
 409              		.loc 1 254 18 discriminator 5 view .LVU169
 410 0160 04F58064 		add	r4, r4, #1024
 411 0164 A042     		cmp	r0, r4
 412 0166 0AD0     		beq	.L17
 254:Drivers/STM32F3xx_HAL_Driver/Src/stm32f3xx_hal_gpio.c ****         SYSCFG->EXTICR[position >> 2u] = temp;
 413              		.loc 1 254 18 discriminator 7 view .LVU170
 414 0168 04F58064 		add	r4, r4, #1024
 415 016c A042     		cmp	r0, r4
 416 016e 3FF44BAF 		beq	.L21
 254:Drivers/STM32F3xx_HAL_Driver/Src/stm32f3xx_hal_gpio.c ****         SYSCFG->EXTICR[position >> 2u] = temp;
 417              		.loc 1 254 18 view .LVU171
 418 0172 0524     		movs	r4, #5
 419 0174 4BE7     		b	.L8
 420              	.L15:
 421 0176 0124     		movs	r4, #1
 422 0178 49E7     		b	.L8
 423              	.L16:
 424 017a 0224     		movs	r4, #2
 425 017c 47E7     		b	.L8
 426              	.L17:
 427 017e 0324     		movs	r4, #3
 428 0180 45E7     		b	.L8
 429              	.LVL44:
 430              	.L20:
 294:Drivers/STM32F3xx_HAL_Driver/Src/stm32f3xx_hal_gpio.c ****   }
 295:Drivers/STM32F3xx_HAL_Driver/Src/stm32f3xx_hal_gpio.c **** }
 431              		.loc 1 295 1 view .LVU172
 432 0182 03B0     		add	sp, sp, #12
 433              	.LCFI2:
 434              		.cfi_def_cfa_offset 20
 435              		@ sp needed
 436 0184 F0BD     		pop	{r4, r5, r6, r7, pc}
 437              	.L23:
 438 0186 00BF     		.align	2
 439              	.L22:
 440 0188 00000140 		.word	1073807360
 441 018c 00040140 		.word	1073808384
 442 0190 00100240 		.word	1073876992
 443 0194 00040048 		.word	1207960576
 444              		.cfi_endproc
 445              	.LFE130:
 447              		.section	.text.HAL_GPIO_DeInit,"ax",%progbits
 448              		.align	1
 449              		.global	HAL_GPIO_DeInit
 450              		.syntax unified
 451              		.thumb
 452              		.thumb_func
 453              		.fpu fpv4-sp-d16
 455              	HAL_GPIO_DeInit:
 456              	.LVL45:
ARM GAS  /var/folders/jw/jcj5j9_530958b2rm5vp9wn00000gn/T//ccNrK2vt.s 			page 16


 457              	.LFB131:
 296:Drivers/STM32F3xx_HAL_Driver/Src/stm32f3xx_hal_gpio.c **** 
 297:Drivers/STM32F3xx_HAL_Driver/Src/stm32f3xx_hal_gpio.c **** /**
 298:Drivers/STM32F3xx_HAL_Driver/Src/stm32f3xx_hal_gpio.c ****   * @brief  De-initialize the GPIOx peripheral registers to their default reset values.
 299:Drivers/STM32F3xx_HAL_Driver/Src/stm32f3xx_hal_gpio.c ****   * @param  GPIOx where x can be (A..F) to select the GPIO peripheral for STM32F30X device or STM32
 300:Drivers/STM32F3xx_HAL_Driver/Src/stm32f3xx_hal_gpio.c ****   * @param  GPIO_Pin specifies the port bit to be written.
 301:Drivers/STM32F3xx_HAL_Driver/Src/stm32f3xx_hal_gpio.c ****   *         This parameter can be one of GPIO_PIN_x where x can be (0..15).
 302:Drivers/STM32F3xx_HAL_Driver/Src/stm32f3xx_hal_gpio.c ****   * @retval None
 303:Drivers/STM32F3xx_HAL_Driver/Src/stm32f3xx_hal_gpio.c ****   */
 304:Drivers/STM32F3xx_HAL_Driver/Src/stm32f3xx_hal_gpio.c **** void HAL_GPIO_DeInit(GPIO_TypeDef  *GPIOx, uint32_t GPIO_Pin)
 305:Drivers/STM32F3xx_HAL_Driver/Src/stm32f3xx_hal_gpio.c **** {
 458              		.loc 1 305 1 is_stmt 1 view -0
 459              		.cfi_startproc
 460              		@ args = 0, pretend = 0, frame = 0
 461              		@ frame_needed = 0, uses_anonymous_args = 0
 306:Drivers/STM32F3xx_HAL_Driver/Src/stm32f3xx_hal_gpio.c ****   uint32_t position = 0x00u;
 462              		.loc 1 306 3 view .LVU174
 307:Drivers/STM32F3xx_HAL_Driver/Src/stm32f3xx_hal_gpio.c ****   uint32_t iocurrent;
 463              		.loc 1 307 3 view .LVU175
 308:Drivers/STM32F3xx_HAL_Driver/Src/stm32f3xx_hal_gpio.c ****   uint32_t tmp;
 464              		.loc 1 308 3 view .LVU176
 309:Drivers/STM32F3xx_HAL_Driver/Src/stm32f3xx_hal_gpio.c **** 
 310:Drivers/STM32F3xx_HAL_Driver/Src/stm32f3xx_hal_gpio.c ****   /* Check the parameters */
 311:Drivers/STM32F3xx_HAL_Driver/Src/stm32f3xx_hal_gpio.c ****   assert_param(IS_GPIO_ALL_INSTANCE(GPIOx));
 465              		.loc 1 311 3 view .LVU177
 312:Drivers/STM32F3xx_HAL_Driver/Src/stm32f3xx_hal_gpio.c ****   assert_param(IS_GPIO_PIN(GPIO_Pin));
 466              		.loc 1 312 3 view .LVU178
 313:Drivers/STM32F3xx_HAL_Driver/Src/stm32f3xx_hal_gpio.c **** 
 314:Drivers/STM32F3xx_HAL_Driver/Src/stm32f3xx_hal_gpio.c ****   /* Configure the port pins */
 315:Drivers/STM32F3xx_HAL_Driver/Src/stm32f3xx_hal_gpio.c ****   while ((GPIO_Pin >> position) != 0x00u)
 467              		.loc 1 315 3 view .LVU179
 306:Drivers/STM32F3xx_HAL_Driver/Src/stm32f3xx_hal_gpio.c ****   uint32_t iocurrent;
 468              		.loc 1 306 12 is_stmt 0 view .LVU180
 469 0000 0023     		movs	r3, #0
 470              	.LVL46:
 471              		.loc 1 315 9 is_stmt 1 view .LVU181
 472 0002 31FA03F2 		lsrs	r2, r1, r3
 473 0006 79D0     		beq	.L38
 305:Drivers/STM32F3xx_HAL_Driver/Src/stm32f3xx_hal_gpio.c ****   uint32_t position = 0x00u;
 474              		.loc 1 305 1 is_stmt 0 view .LVU182
 475 0008 F0B5     		push	{r4, r5, r6, r7, lr}
 476              	.LCFI3:
 477              		.cfi_def_cfa_offset 20
 478              		.cfi_offset 4, -20
 479              		.cfi_offset 5, -16
 480              		.cfi_offset 6, -12
 481              		.cfi_offset 7, -8
 482              		.cfi_offset 14, -4
 483 000a 2EE0     		b	.L29
 484              	.LVL47:
 485              	.L41:
 316:Drivers/STM32F3xx_HAL_Driver/Src/stm32f3xx_hal_gpio.c ****   {
 317:Drivers/STM32F3xx_HAL_Driver/Src/stm32f3xx_hal_gpio.c ****     /* Get current io position */
 318:Drivers/STM32F3xx_HAL_Driver/Src/stm32f3xx_hal_gpio.c ****     iocurrent = (GPIO_Pin) & (1uL << position);
 319:Drivers/STM32F3xx_HAL_Driver/Src/stm32f3xx_hal_gpio.c **** 
 320:Drivers/STM32F3xx_HAL_Driver/Src/stm32f3xx_hal_gpio.c ****     if (iocurrent != 0x00u)
 321:Drivers/STM32F3xx_HAL_Driver/Src/stm32f3xx_hal_gpio.c ****     {
ARM GAS  /var/folders/jw/jcj5j9_530958b2rm5vp9wn00000gn/T//ccNrK2vt.s 			page 17


 322:Drivers/STM32F3xx_HAL_Driver/Src/stm32f3xx_hal_gpio.c ****       /*------------------------- EXTI Mode Configuration --------------------*/
 323:Drivers/STM32F3xx_HAL_Driver/Src/stm32f3xx_hal_gpio.c ****       /* Clear the External Interrupt or Event for the current IO */
 324:Drivers/STM32F3xx_HAL_Driver/Src/stm32f3xx_hal_gpio.c **** 
 325:Drivers/STM32F3xx_HAL_Driver/Src/stm32f3xx_hal_gpio.c ****       tmp = SYSCFG->EXTICR[position >> 2u];
 326:Drivers/STM32F3xx_HAL_Driver/Src/stm32f3xx_hal_gpio.c ****       tmp &= (0x0FuL << (4u * (position & 0x03u)));
 327:Drivers/STM32F3xx_HAL_Driver/Src/stm32f3xx_hal_gpio.c ****       if (tmp == (GPIO_GET_INDEX(GPIOx) << (4u * (position & 0x03u))))
 486              		.loc 1 327 19 view .LVU183
 487 000c 0426     		movs	r6, #4
 488 000e 00E0     		b	.L27
 489              	.L30:
 490 0010 0026     		movs	r6, #0
 491              	.L27:
 492              		.loc 1 327 41 discriminator 20 view .LVU184
 493 0012 06FA04F4 		lsl	r4, r6, r4
 494              		.loc 1 327 10 discriminator 20 view .LVU185
 495 0016 AC42     		cmp	r4, r5
 496 0018 54D0     		beq	.L39
 497              	.LVL48:
 498              	.L28:
 328:Drivers/STM32F3xx_HAL_Driver/Src/stm32f3xx_hal_gpio.c ****       {
 329:Drivers/STM32F3xx_HAL_Driver/Src/stm32f3xx_hal_gpio.c ****         /* Clear EXTI line configuration */
 330:Drivers/STM32F3xx_HAL_Driver/Src/stm32f3xx_hal_gpio.c ****         EXTI->IMR &= ~((uint32_t)iocurrent);
 331:Drivers/STM32F3xx_HAL_Driver/Src/stm32f3xx_hal_gpio.c ****         EXTI->EMR &= ~((uint32_t)iocurrent);
 332:Drivers/STM32F3xx_HAL_Driver/Src/stm32f3xx_hal_gpio.c ****         
 333:Drivers/STM32F3xx_HAL_Driver/Src/stm32f3xx_hal_gpio.c ****         /* Clear Rising Falling edge configuration */
 334:Drivers/STM32F3xx_HAL_Driver/Src/stm32f3xx_hal_gpio.c ****         EXTI->RTSR &= ~((uint32_t)iocurrent);
 335:Drivers/STM32F3xx_HAL_Driver/Src/stm32f3xx_hal_gpio.c ****         EXTI->FTSR &= ~((uint32_t)iocurrent);
 336:Drivers/STM32F3xx_HAL_Driver/Src/stm32f3xx_hal_gpio.c **** 
 337:Drivers/STM32F3xx_HAL_Driver/Src/stm32f3xx_hal_gpio.c ****         /* Configure the External Interrupt or event for the current IO */
 338:Drivers/STM32F3xx_HAL_Driver/Src/stm32f3xx_hal_gpio.c ****         tmp = 0x0FuL << (4u * (position & 0x03u));
 339:Drivers/STM32F3xx_HAL_Driver/Src/stm32f3xx_hal_gpio.c ****         SYSCFG->EXTICR[position >> 2u] &= ~tmp;
 340:Drivers/STM32F3xx_HAL_Driver/Src/stm32f3xx_hal_gpio.c ****       }
 341:Drivers/STM32F3xx_HAL_Driver/Src/stm32f3xx_hal_gpio.c **** 
 342:Drivers/STM32F3xx_HAL_Driver/Src/stm32f3xx_hal_gpio.c ****       /*------------------------- GPIO Mode Configuration --------------------*/
 343:Drivers/STM32F3xx_HAL_Driver/Src/stm32f3xx_hal_gpio.c ****       /* Configure IO Direction in Input Floating Mode */
 344:Drivers/STM32F3xx_HAL_Driver/Src/stm32f3xx_hal_gpio.c ****       GPIOx->MODER &= ~(GPIO_MODER_MODER0 << (position * 2u));
 499              		.loc 1 344 7 is_stmt 1 view .LVU186
 500              		.loc 1 344 20 is_stmt 0 view .LVU187
 501 001a 0568     		ldr	r5, [r0]
 502              		.loc 1 344 56 view .LVU188
 503 001c 5C00     		lsls	r4, r3, #1
 504              		.loc 1 344 43 view .LVU189
 505 001e 0326     		movs	r6, #3
 506 0020 06FA04F4 		lsl	r4, r6, r4
 507              		.loc 1 344 20 view .LVU190
 508 0024 25EA0405 		bic	r5, r5, r4
 509 0028 0560     		str	r5, [r0]
 345:Drivers/STM32F3xx_HAL_Driver/Src/stm32f3xx_hal_gpio.c **** 
 346:Drivers/STM32F3xx_HAL_Driver/Src/stm32f3xx_hal_gpio.c ****       /* Configure the default Alternate Function in current IO */
 347:Drivers/STM32F3xx_HAL_Driver/Src/stm32f3xx_hal_gpio.c ****       GPIOx->AFR[position >> 3u] &= ~(0xFu << ((uint32_t)(position & 0x07u) * 4u)) ;
 510              		.loc 1 347 7 is_stmt 1 view .LVU191
 511              		.loc 1 347 34 is_stmt 0 view .LVU192
 512 002a 23FA06F5 		lsr	r5, r3, r6
 513 002e 0835     		adds	r5, r5, #8
 514 0030 50F82560 		ldr	r6, [r0, r5, lsl #2]
 515              		.loc 1 347 48 view .LVU193
 516 0034 03F00707 		and	r7, r3, #7
ARM GAS  /var/folders/jw/jcj5j9_530958b2rm5vp9wn00000gn/T//ccNrK2vt.s 			page 18


 517              		.loc 1 347 77 view .LVU194
 518 0038 4FEA870C 		lsl	ip, r7, #2
 519              		.loc 1 347 44 view .LVU195
 520 003c 0F27     		movs	r7, #15
 521 003e 07FA0CF7 		lsl	r7, r7, ip
 522              		.loc 1 347 34 view .LVU196
 523 0042 26EA0706 		bic	r6, r6, r7
 524 0046 40F82560 		str	r6, [r0, r5, lsl #2]
 348:Drivers/STM32F3xx_HAL_Driver/Src/stm32f3xx_hal_gpio.c **** 
 349:Drivers/STM32F3xx_HAL_Driver/Src/stm32f3xx_hal_gpio.c ****       /* Deactivate the Pull-up and Pull-down resistor for the current IO */
 350:Drivers/STM32F3xx_HAL_Driver/Src/stm32f3xx_hal_gpio.c ****       GPIOx->PUPDR &= ~(GPIO_PUPDR_PUPDR0 << (position * 2u));
 525              		.loc 1 350 7 is_stmt 1 view .LVU197
 526              		.loc 1 350 20 is_stmt 0 view .LVU198
 527 004a C568     		ldr	r5, [r0, #12]
 528 004c 25EA0405 		bic	r5, r5, r4
 529 0050 C560     		str	r5, [r0, #12]
 351:Drivers/STM32F3xx_HAL_Driver/Src/stm32f3xx_hal_gpio.c **** 
 352:Drivers/STM32F3xx_HAL_Driver/Src/stm32f3xx_hal_gpio.c ****       /* Configure the default value IO Output Type */
 353:Drivers/STM32F3xx_HAL_Driver/Src/stm32f3xx_hal_gpio.c ****       GPIOx->OTYPER  &= ~(GPIO_OTYPER_OT_0 << position) ;
 530              		.loc 1 353 7 is_stmt 1 view .LVU199
 531              		.loc 1 353 22 is_stmt 0 view .LVU200
 532 0052 4568     		ldr	r5, [r0, #4]
 533 0054 25EA0202 		bic	r2, r5, r2
 534 0058 4260     		str	r2, [r0, #4]
 354:Drivers/STM32F3xx_HAL_Driver/Src/stm32f3xx_hal_gpio.c **** 
 355:Drivers/STM32F3xx_HAL_Driver/Src/stm32f3xx_hal_gpio.c ****       /* Configure the default value for IO Speed */
 356:Drivers/STM32F3xx_HAL_Driver/Src/stm32f3xx_hal_gpio.c ****       GPIOx->OSPEEDR &= ~(GPIO_OSPEEDER_OSPEEDR0 << (position * 2u));
 535              		.loc 1 356 7 is_stmt 1 view .LVU201
 536              		.loc 1 356 22 is_stmt 0 view .LVU202
 537 005a 8268     		ldr	r2, [r0, #8]
 538 005c 22EA0404 		bic	r4, r2, r4
 539 0060 8460     		str	r4, [r0, #8]
 540              	.L26:
 357:Drivers/STM32F3xx_HAL_Driver/Src/stm32f3xx_hal_gpio.c ****     }
 358:Drivers/STM32F3xx_HAL_Driver/Src/stm32f3xx_hal_gpio.c **** 
 359:Drivers/STM32F3xx_HAL_Driver/Src/stm32f3xx_hal_gpio.c ****     position++;
 541              		.loc 1 359 5 is_stmt 1 view .LVU203
 542              		.loc 1 359 13 is_stmt 0 view .LVU204
 543 0062 0133     		adds	r3, r3, #1
 544              	.LVL49:
 315:Drivers/STM32F3xx_HAL_Driver/Src/stm32f3xx_hal_gpio.c ****   {
 545              		.loc 1 315 9 is_stmt 1 view .LVU205
 546 0064 31FA03F2 		lsrs	r2, r1, r3
 547 0068 47D0     		beq	.L40
 548              	.LVL50:
 549              	.L29:
 318:Drivers/STM32F3xx_HAL_Driver/Src/stm32f3xx_hal_gpio.c **** 
 550              		.loc 1 318 5 view .LVU206
 318:Drivers/STM32F3xx_HAL_Driver/Src/stm32f3xx_hal_gpio.c **** 
 551              		.loc 1 318 35 is_stmt 0 view .LVU207
 552 006a 0122     		movs	r2, #1
 553 006c 9A40     		lsls	r2, r2, r3
 554              	.LVL51:
 320:Drivers/STM32F3xx_HAL_Driver/Src/stm32f3xx_hal_gpio.c ****     {
 555              		.loc 1 320 5 is_stmt 1 view .LVU208
 320:Drivers/STM32F3xx_HAL_Driver/Src/stm32f3xx_hal_gpio.c ****     {
 556              		.loc 1 320 8 is_stmt 0 view .LVU209
ARM GAS  /var/folders/jw/jcj5j9_530958b2rm5vp9wn00000gn/T//ccNrK2vt.s 			page 19


 557 006e 12EA010E 		ands	lr, r2, r1
 558              	.LVL52:
 320:Drivers/STM32F3xx_HAL_Driver/Src/stm32f3xx_hal_gpio.c ****     {
 559              		.loc 1 320 8 view .LVU210
 560 0072 F6D0     		beq	.L26
 325:Drivers/STM32F3xx_HAL_Driver/Src/stm32f3xx_hal_gpio.c ****       tmp &= (0x0FuL << (4u * (position & 0x03u)));
 561              		.loc 1 325 7 is_stmt 1 view .LVU211
 325:Drivers/STM32F3xx_HAL_Driver/Src/stm32f3xx_hal_gpio.c ****       tmp &= (0x0FuL << (4u * (position & 0x03u)));
 562              		.loc 1 325 37 is_stmt 0 view .LVU212
 563 0074 4FEA930C 		lsr	ip, r3, #2
 325:Drivers/STM32F3xx_HAL_Driver/Src/stm32f3xx_hal_gpio.c ****       tmp &= (0x0FuL << (4u * (position & 0x03u)));
 564              		.loc 1 325 11 view .LVU213
 565 0078 0CF10205 		add	r5, ip, #2
 566 007c 204C     		ldr	r4, .L42
 567 007e 54F82550 		ldr	r5, [r4, r5, lsl #2]
 568              	.LVL53:
 326:Drivers/STM32F3xx_HAL_Driver/Src/stm32f3xx_hal_gpio.c ****       if (tmp == (GPIO_GET_INDEX(GPIOx) << (4u * (position & 0x03u))))
 569              		.loc 1 326 7 is_stmt 1 view .LVU214
 326:Drivers/STM32F3xx_HAL_Driver/Src/stm32f3xx_hal_gpio.c ****       if (tmp == (GPIO_GET_INDEX(GPIOx) << (4u * (position & 0x03u))))
 570              		.loc 1 326 41 is_stmt 0 view .LVU215
 571 0082 03F00304 		and	r4, r3, #3
 326:Drivers/STM32F3xx_HAL_Driver/Src/stm32f3xx_hal_gpio.c ****       if (tmp == (GPIO_GET_INDEX(GPIOx) << (4u * (position & 0x03u))))
 572              		.loc 1 326 29 view .LVU216
 573 0086 A400     		lsls	r4, r4, #2
 326:Drivers/STM32F3xx_HAL_Driver/Src/stm32f3xx_hal_gpio.c ****       if (tmp == (GPIO_GET_INDEX(GPIOx) << (4u * (position & 0x03u))))
 574              		.loc 1 326 22 view .LVU217
 575 0088 0F26     		movs	r6, #15
 576 008a 06FA04F7 		lsl	r7, r6, r4
 326:Drivers/STM32F3xx_HAL_Driver/Src/stm32f3xx_hal_gpio.c ****       if (tmp == (GPIO_GET_INDEX(GPIOx) << (4u * (position & 0x03u))))
 577              		.loc 1 326 11 view .LVU218
 578 008e 3D40     		ands	r5, r5, r7
 579              	.LVL54:
 327:Drivers/STM32F3xx_HAL_Driver/Src/stm32f3xx_hal_gpio.c ****       {
 580              		.loc 1 327 7 is_stmt 1 view .LVU219
 327:Drivers/STM32F3xx_HAL_Driver/Src/stm32f3xx_hal_gpio.c ****       {
 581              		.loc 1 327 19 is_stmt 0 view .LVU220
 582 0090 B0F1904F 		cmp	r0, #1207959552
 583 0094 BCD0     		beq	.L30
 327:Drivers/STM32F3xx_HAL_Driver/Src/stm32f3xx_hal_gpio.c ****       {
 584              		.loc 1 327 19 discriminator 1 view .LVU221
 585 0096 1B4E     		ldr	r6, .L42+4
 586 0098 B042     		cmp	r0, r6
 587 009a 0DD0     		beq	.L31
 327:Drivers/STM32F3xx_HAL_Driver/Src/stm32f3xx_hal_gpio.c ****       {
 588              		.loc 1 327 19 discriminator 3 view .LVU222
 589 009c 06F58066 		add	r6, r6, #1024
 590 00a0 B042     		cmp	r0, r6
 591 00a2 0BD0     		beq	.L32
 327:Drivers/STM32F3xx_HAL_Driver/Src/stm32f3xx_hal_gpio.c ****       {
 592              		.loc 1 327 19 discriminator 5 view .LVU223
 593 00a4 06F58066 		add	r6, r6, #1024
 594 00a8 B042     		cmp	r0, r6
 595 00aa 09D0     		beq	.L33
 327:Drivers/STM32F3xx_HAL_Driver/Src/stm32f3xx_hal_gpio.c ****       {
 596              		.loc 1 327 19 discriminator 7 view .LVU224
 597 00ac 06F58066 		add	r6, r6, #1024
 598 00b0 B042     		cmp	r0, r6
ARM GAS  /var/folders/jw/jcj5j9_530958b2rm5vp9wn00000gn/T//ccNrK2vt.s 			page 20


 599 00b2 ABD0     		beq	.L41
 327:Drivers/STM32F3xx_HAL_Driver/Src/stm32f3xx_hal_gpio.c ****       {
 600              		.loc 1 327 19 view .LVU225
 601 00b4 0526     		movs	r6, #5
 602 00b6 ACE7     		b	.L27
 603              	.L31:
 604 00b8 0126     		movs	r6, #1
 605 00ba AAE7     		b	.L27
 606              	.L32:
 607 00bc 0226     		movs	r6, #2
 608 00be A8E7     		b	.L27
 609              	.L33:
 610 00c0 0326     		movs	r6, #3
 611 00c2 A6E7     		b	.L27
 612              	.L39:
 330:Drivers/STM32F3xx_HAL_Driver/Src/stm32f3xx_hal_gpio.c ****         EXTI->EMR &= ~((uint32_t)iocurrent);
 613              		.loc 1 330 9 is_stmt 1 view .LVU226
 330:Drivers/STM32F3xx_HAL_Driver/Src/stm32f3xx_hal_gpio.c ****         EXTI->EMR &= ~((uint32_t)iocurrent);
 614              		.loc 1 330 19 is_stmt 0 view .LVU227
 615 00c4 104C     		ldr	r4, .L42+8
 616 00c6 2568     		ldr	r5, [r4]
 617              	.LVL55:
 330:Drivers/STM32F3xx_HAL_Driver/Src/stm32f3xx_hal_gpio.c ****         EXTI->EMR &= ~((uint32_t)iocurrent);
 618              		.loc 1 330 19 view .LVU228
 619 00c8 25EA0E05 		bic	r5, r5, lr
 620 00cc 2560     		str	r5, [r4]
 331:Drivers/STM32F3xx_HAL_Driver/Src/stm32f3xx_hal_gpio.c ****         
 621              		.loc 1 331 9 is_stmt 1 view .LVU229
 331:Drivers/STM32F3xx_HAL_Driver/Src/stm32f3xx_hal_gpio.c ****         
 622              		.loc 1 331 19 is_stmt 0 view .LVU230
 623 00ce 6568     		ldr	r5, [r4, #4]
 624 00d0 25EA0E05 		bic	r5, r5, lr
 625 00d4 6560     		str	r5, [r4, #4]
 334:Drivers/STM32F3xx_HAL_Driver/Src/stm32f3xx_hal_gpio.c ****         EXTI->FTSR &= ~((uint32_t)iocurrent);
 626              		.loc 1 334 9 is_stmt 1 view .LVU231
 334:Drivers/STM32F3xx_HAL_Driver/Src/stm32f3xx_hal_gpio.c ****         EXTI->FTSR &= ~((uint32_t)iocurrent);
 627              		.loc 1 334 20 is_stmt 0 view .LVU232
 628 00d6 A568     		ldr	r5, [r4, #8]
 629 00d8 25EA0E05 		bic	r5, r5, lr
 630 00dc A560     		str	r5, [r4, #8]
 335:Drivers/STM32F3xx_HAL_Driver/Src/stm32f3xx_hal_gpio.c **** 
 631              		.loc 1 335 9 is_stmt 1 view .LVU233
 335:Drivers/STM32F3xx_HAL_Driver/Src/stm32f3xx_hal_gpio.c **** 
 632              		.loc 1 335 20 is_stmt 0 view .LVU234
 633 00de E568     		ldr	r5, [r4, #12]
 634 00e0 25EA0E05 		bic	r5, r5, lr
 635 00e4 E560     		str	r5, [r4, #12]
 338:Drivers/STM32F3xx_HAL_Driver/Src/stm32f3xx_hal_gpio.c ****         SYSCFG->EXTICR[position >> 2u] &= ~tmp;
 636              		.loc 1 338 9 is_stmt 1 view .LVU235
 637              	.LVL56:
 339:Drivers/STM32F3xx_HAL_Driver/Src/stm32f3xx_hal_gpio.c ****       }
 638              		.loc 1 339 9 view .LVU236
 339:Drivers/STM32F3xx_HAL_Driver/Src/stm32f3xx_hal_gpio.c ****       }
 639              		.loc 1 339 40 is_stmt 0 view .LVU237
 640 00e6 064D     		ldr	r5, .L42
 641 00e8 0CF10204 		add	r4, ip, #2
 642 00ec 55F82460 		ldr	r6, [r5, r4, lsl #2]
ARM GAS  /var/folders/jw/jcj5j9_530958b2rm5vp9wn00000gn/T//ccNrK2vt.s 			page 21


 643 00f0 26EA0706 		bic	r6, r6, r7
 644 00f4 45F82460 		str	r6, [r5, r4, lsl #2]
 645 00f8 8FE7     		b	.L28
 646              	.LVL57:
 647              	.L40:
 360:Drivers/STM32F3xx_HAL_Driver/Src/stm32f3xx_hal_gpio.c ****   }
 361:Drivers/STM32F3xx_HAL_Driver/Src/stm32f3xx_hal_gpio.c **** }
 648              		.loc 1 361 1 view .LVU238
 649 00fa F0BD     		pop	{r4, r5, r6, r7, pc}
 650              	.LVL58:
 651              	.L38:
 652              	.LCFI4:
 653              		.cfi_def_cfa_offset 0
 654              		.cfi_restore 4
 655              		.cfi_restore 5
 656              		.cfi_restore 6
 657              		.cfi_restore 7
 658              		.cfi_restore 14
 659              		.loc 1 361 1 view .LVU239
 660 00fc 7047     		bx	lr
 661              	.L43:
 662 00fe 00BF     		.align	2
 663              	.L42:
 664 0100 00000140 		.word	1073807360
 665 0104 00040048 		.word	1207960576
 666 0108 00040140 		.word	1073808384
 667              		.cfi_endproc
 668              	.LFE131:
 670              		.section	.text.HAL_GPIO_ReadPin,"ax",%progbits
 671              		.align	1
 672              		.global	HAL_GPIO_ReadPin
 673              		.syntax unified
 674              		.thumb
 675              		.thumb_func
 676              		.fpu fpv4-sp-d16
 678              	HAL_GPIO_ReadPin:
 679              	.LVL59:
 680              	.LFB132:
 362:Drivers/STM32F3xx_HAL_Driver/Src/stm32f3xx_hal_gpio.c **** 
 363:Drivers/STM32F3xx_HAL_Driver/Src/stm32f3xx_hal_gpio.c **** /**
 364:Drivers/STM32F3xx_HAL_Driver/Src/stm32f3xx_hal_gpio.c ****   * @}
 365:Drivers/STM32F3xx_HAL_Driver/Src/stm32f3xx_hal_gpio.c ****   */
 366:Drivers/STM32F3xx_HAL_Driver/Src/stm32f3xx_hal_gpio.c **** 
 367:Drivers/STM32F3xx_HAL_Driver/Src/stm32f3xx_hal_gpio.c **** /** @defgroup GPIO_Exported_Functions_Group2 IO operation functions 
 368:Drivers/STM32F3xx_HAL_Driver/Src/stm32f3xx_hal_gpio.c ****  *  @brief GPIO Read, Write, Toggle, Lock and EXTI management functions.
 369:Drivers/STM32F3xx_HAL_Driver/Src/stm32f3xx_hal_gpio.c ****  *
 370:Drivers/STM32F3xx_HAL_Driver/Src/stm32f3xx_hal_gpio.c **** @verbatim
 371:Drivers/STM32F3xx_HAL_Driver/Src/stm32f3xx_hal_gpio.c ****  ===============================================================================
 372:Drivers/STM32F3xx_HAL_Driver/Src/stm32f3xx_hal_gpio.c ****                        ##### IO operation functions #####
 373:Drivers/STM32F3xx_HAL_Driver/Src/stm32f3xx_hal_gpio.c ****  ===============================================================================
 374:Drivers/STM32F3xx_HAL_Driver/Src/stm32f3xx_hal_gpio.c **** 
 375:Drivers/STM32F3xx_HAL_Driver/Src/stm32f3xx_hal_gpio.c **** @endverbatim
 376:Drivers/STM32F3xx_HAL_Driver/Src/stm32f3xx_hal_gpio.c ****   * @{
 377:Drivers/STM32F3xx_HAL_Driver/Src/stm32f3xx_hal_gpio.c ****   */
 378:Drivers/STM32F3xx_HAL_Driver/Src/stm32f3xx_hal_gpio.c **** 
 379:Drivers/STM32F3xx_HAL_Driver/Src/stm32f3xx_hal_gpio.c **** /**
 380:Drivers/STM32F3xx_HAL_Driver/Src/stm32f3xx_hal_gpio.c ****   * @brief  Read the specified input port pin.
ARM GAS  /var/folders/jw/jcj5j9_530958b2rm5vp9wn00000gn/T//ccNrK2vt.s 			page 22


 381:Drivers/STM32F3xx_HAL_Driver/Src/stm32f3xx_hal_gpio.c ****   * @param  GPIOx where x can be (A..F) to select the GPIO peripheral for STM32F3 family
 382:Drivers/STM32F3xx_HAL_Driver/Src/stm32f3xx_hal_gpio.c ****   * @param  GPIO_Pin specifies the port bit to read.
 383:Drivers/STM32F3xx_HAL_Driver/Src/stm32f3xx_hal_gpio.c ****   *         This parameter can be GPIO_PIN_x where x can be (0..15).
 384:Drivers/STM32F3xx_HAL_Driver/Src/stm32f3xx_hal_gpio.c ****   * @retval The input port pin value.
 385:Drivers/STM32F3xx_HAL_Driver/Src/stm32f3xx_hal_gpio.c ****   */
 386:Drivers/STM32F3xx_HAL_Driver/Src/stm32f3xx_hal_gpio.c **** GPIO_PinState HAL_GPIO_ReadPin(GPIO_TypeDef* GPIOx, uint16_t GPIO_Pin)
 387:Drivers/STM32F3xx_HAL_Driver/Src/stm32f3xx_hal_gpio.c **** {
 681              		.loc 1 387 1 is_stmt 1 view -0
 682              		.cfi_startproc
 683              		@ args = 0, pretend = 0, frame = 0
 684              		@ frame_needed = 0, uses_anonymous_args = 0
 685              		@ link register save eliminated.
 388:Drivers/STM32F3xx_HAL_Driver/Src/stm32f3xx_hal_gpio.c ****   GPIO_PinState bitstatus;
 686              		.loc 1 388 3 view .LVU241
 389:Drivers/STM32F3xx_HAL_Driver/Src/stm32f3xx_hal_gpio.c **** 
 390:Drivers/STM32F3xx_HAL_Driver/Src/stm32f3xx_hal_gpio.c ****   /* Check the parameters */
 391:Drivers/STM32F3xx_HAL_Driver/Src/stm32f3xx_hal_gpio.c ****   assert_param(IS_GPIO_PIN(GPIO_Pin));
 687              		.loc 1 391 3 view .LVU242
 392:Drivers/STM32F3xx_HAL_Driver/Src/stm32f3xx_hal_gpio.c **** 
 393:Drivers/STM32F3xx_HAL_Driver/Src/stm32f3xx_hal_gpio.c ****   if((GPIOx->IDR & GPIO_Pin) != (uint32_t)GPIO_PIN_RESET)
 688              		.loc 1 393 3 view .LVU243
 689              		.loc 1 393 12 is_stmt 0 view .LVU244
 690 0000 0369     		ldr	r3, [r0, #16]
 691              		.loc 1 393 5 view .LVU245
 692 0002 1942     		tst	r1, r3
 693 0004 01D0     		beq	.L46
 394:Drivers/STM32F3xx_HAL_Driver/Src/stm32f3xx_hal_gpio.c ****   {
 395:Drivers/STM32F3xx_HAL_Driver/Src/stm32f3xx_hal_gpio.c ****     bitstatus = GPIO_PIN_SET;
 694              		.loc 1 395 15 view .LVU246
 695 0006 0120     		movs	r0, #1
 696              	.LVL60:
 697              		.loc 1 395 15 view .LVU247
 698 0008 7047     		bx	lr
 699              	.LVL61:
 700              	.L46:
 396:Drivers/STM32F3xx_HAL_Driver/Src/stm32f3xx_hal_gpio.c ****   }
 397:Drivers/STM32F3xx_HAL_Driver/Src/stm32f3xx_hal_gpio.c ****   else
 398:Drivers/STM32F3xx_HAL_Driver/Src/stm32f3xx_hal_gpio.c ****   {
 399:Drivers/STM32F3xx_HAL_Driver/Src/stm32f3xx_hal_gpio.c ****     bitstatus = GPIO_PIN_RESET;
 701              		.loc 1 399 15 view .LVU248
 702 000a 0020     		movs	r0, #0
 703              	.LVL62:
 400:Drivers/STM32F3xx_HAL_Driver/Src/stm32f3xx_hal_gpio.c ****   }
 401:Drivers/STM32F3xx_HAL_Driver/Src/stm32f3xx_hal_gpio.c ****   return bitstatus;
 704              		.loc 1 401 3 is_stmt 1 view .LVU249
 402:Drivers/STM32F3xx_HAL_Driver/Src/stm32f3xx_hal_gpio.c **** }
 705              		.loc 1 402 1 is_stmt 0 view .LVU250
 706 000c 7047     		bx	lr
 707              		.cfi_endproc
 708              	.LFE132:
 710              		.section	.text.HAL_GPIO_WritePin,"ax",%progbits
 711              		.align	1
 712              		.global	HAL_GPIO_WritePin
 713              		.syntax unified
 714              		.thumb
 715              		.thumb_func
 716              		.fpu fpv4-sp-d16
ARM GAS  /var/folders/jw/jcj5j9_530958b2rm5vp9wn00000gn/T//ccNrK2vt.s 			page 23


 718              	HAL_GPIO_WritePin:
 719              	.LVL63:
 720              	.LFB133:
 403:Drivers/STM32F3xx_HAL_Driver/Src/stm32f3xx_hal_gpio.c **** 
 404:Drivers/STM32F3xx_HAL_Driver/Src/stm32f3xx_hal_gpio.c **** /**
 405:Drivers/STM32F3xx_HAL_Driver/Src/stm32f3xx_hal_gpio.c ****   * @brief  Set or clear the selected data port bit.
 406:Drivers/STM32F3xx_HAL_Driver/Src/stm32f3xx_hal_gpio.c ****   *
 407:Drivers/STM32F3xx_HAL_Driver/Src/stm32f3xx_hal_gpio.c ****   * @note   This function uses GPIOx_BSRR and GPIOx_BRR registers to allow atomic read/modify
 408:Drivers/STM32F3xx_HAL_Driver/Src/stm32f3xx_hal_gpio.c ****   *         accesses. In this way, there is no risk of an IRQ occurring between
 409:Drivers/STM32F3xx_HAL_Driver/Src/stm32f3xx_hal_gpio.c ****   *         the read and the modify access.
 410:Drivers/STM32F3xx_HAL_Driver/Src/stm32f3xx_hal_gpio.c ****   *
 411:Drivers/STM32F3xx_HAL_Driver/Src/stm32f3xx_hal_gpio.c ****   * @param  GPIOx where x can be (A..F) to select the GPIO peripheral for STM32F3 family
 412:Drivers/STM32F3xx_HAL_Driver/Src/stm32f3xx_hal_gpio.c ****   * @param  GPIO_Pin specifies the port bit to be written.
 413:Drivers/STM32F3xx_HAL_Driver/Src/stm32f3xx_hal_gpio.c ****   *         This parameter can be one of GPIO_PIN_x where x can be (0..15).
 414:Drivers/STM32F3xx_HAL_Driver/Src/stm32f3xx_hal_gpio.c ****   * @param  PinState specifies the value to be written to the selected bit.
 415:Drivers/STM32F3xx_HAL_Driver/Src/stm32f3xx_hal_gpio.c ****   *         This parameter can be one of the GPIO_PinState enum values:
 416:Drivers/STM32F3xx_HAL_Driver/Src/stm32f3xx_hal_gpio.c ****   *            @arg GPIO_PIN_RESET: to clear the port pin
 417:Drivers/STM32F3xx_HAL_Driver/Src/stm32f3xx_hal_gpio.c ****   *            @arg GPIO_PIN_SET: to set the port pin
 418:Drivers/STM32F3xx_HAL_Driver/Src/stm32f3xx_hal_gpio.c ****   * @retval None
 419:Drivers/STM32F3xx_HAL_Driver/Src/stm32f3xx_hal_gpio.c ****   */
 420:Drivers/STM32F3xx_HAL_Driver/Src/stm32f3xx_hal_gpio.c **** void HAL_GPIO_WritePin(GPIO_TypeDef* GPIOx, uint16_t GPIO_Pin, GPIO_PinState PinState)
 421:Drivers/STM32F3xx_HAL_Driver/Src/stm32f3xx_hal_gpio.c **** {
 721              		.loc 1 421 1 is_stmt 1 view -0
 722              		.cfi_startproc
 723              		@ args = 0, pretend = 0, frame = 0
 724              		@ frame_needed = 0, uses_anonymous_args = 0
 725              		@ link register save eliminated.
 422:Drivers/STM32F3xx_HAL_Driver/Src/stm32f3xx_hal_gpio.c ****   /* Check the parameters */
 423:Drivers/STM32F3xx_HAL_Driver/Src/stm32f3xx_hal_gpio.c ****   assert_param(IS_GPIO_PIN(GPIO_Pin));
 726              		.loc 1 423 3 view .LVU252
 424:Drivers/STM32F3xx_HAL_Driver/Src/stm32f3xx_hal_gpio.c ****   assert_param(IS_GPIO_PIN_ACTION(PinState));
 727              		.loc 1 424 3 view .LVU253
 425:Drivers/STM32F3xx_HAL_Driver/Src/stm32f3xx_hal_gpio.c **** 
 426:Drivers/STM32F3xx_HAL_Driver/Src/stm32f3xx_hal_gpio.c ****   if(PinState != GPIO_PIN_RESET)
 728              		.loc 1 426 3 view .LVU254
 729              		.loc 1 426 5 is_stmt 0 view .LVU255
 730 0000 0AB1     		cbz	r2, .L48
 427:Drivers/STM32F3xx_HAL_Driver/Src/stm32f3xx_hal_gpio.c ****   {
 428:Drivers/STM32F3xx_HAL_Driver/Src/stm32f3xx_hal_gpio.c ****     GPIOx->BSRR = (uint32_t)GPIO_Pin;
 731              		.loc 1 428 5 is_stmt 1 view .LVU256
 732              		.loc 1 428 17 is_stmt 0 view .LVU257
 733 0002 8161     		str	r1, [r0, #24]
 734 0004 7047     		bx	lr
 735              	.L48:
 429:Drivers/STM32F3xx_HAL_Driver/Src/stm32f3xx_hal_gpio.c ****   }
 430:Drivers/STM32F3xx_HAL_Driver/Src/stm32f3xx_hal_gpio.c ****   else
 431:Drivers/STM32F3xx_HAL_Driver/Src/stm32f3xx_hal_gpio.c ****   {
 432:Drivers/STM32F3xx_HAL_Driver/Src/stm32f3xx_hal_gpio.c ****     GPIOx->BRR = (uint32_t)GPIO_Pin;
 736              		.loc 1 432 5 is_stmt 1 view .LVU258
 737              		.loc 1 432 16 is_stmt 0 view .LVU259
 738 0006 8162     		str	r1, [r0, #40]
 433:Drivers/STM32F3xx_HAL_Driver/Src/stm32f3xx_hal_gpio.c ****   }
 434:Drivers/STM32F3xx_HAL_Driver/Src/stm32f3xx_hal_gpio.c **** }
 739              		.loc 1 434 1 view .LVU260
 740 0008 7047     		bx	lr
 741              		.cfi_endproc
 742              	.LFE133:
ARM GAS  /var/folders/jw/jcj5j9_530958b2rm5vp9wn00000gn/T//ccNrK2vt.s 			page 24


 744              		.section	.text.HAL_GPIO_TogglePin,"ax",%progbits
 745              		.align	1
 746              		.global	HAL_GPIO_TogglePin
 747              		.syntax unified
 748              		.thumb
 749              		.thumb_func
 750              		.fpu fpv4-sp-d16
 752              	HAL_GPIO_TogglePin:
 753              	.LVL64:
 754              	.LFB134:
 435:Drivers/STM32F3xx_HAL_Driver/Src/stm32f3xx_hal_gpio.c **** 
 436:Drivers/STM32F3xx_HAL_Driver/Src/stm32f3xx_hal_gpio.c **** /**
 437:Drivers/STM32F3xx_HAL_Driver/Src/stm32f3xx_hal_gpio.c ****   * @brief  Toggle the specified GPIO pin.
 438:Drivers/STM32F3xx_HAL_Driver/Src/stm32f3xx_hal_gpio.c ****   * @param  GPIOx where x can be (A..F) to select the GPIO peripheral for STM32F3 family
 439:Drivers/STM32F3xx_HAL_Driver/Src/stm32f3xx_hal_gpio.c ****   * @param  GPIO_Pin specifies the pin to be toggled.
 440:Drivers/STM32F3xx_HAL_Driver/Src/stm32f3xx_hal_gpio.c ****   * @retval None
 441:Drivers/STM32F3xx_HAL_Driver/Src/stm32f3xx_hal_gpio.c ****   */
 442:Drivers/STM32F3xx_HAL_Driver/Src/stm32f3xx_hal_gpio.c **** void HAL_GPIO_TogglePin(GPIO_TypeDef* GPIOx, uint16_t GPIO_Pin)
 443:Drivers/STM32F3xx_HAL_Driver/Src/stm32f3xx_hal_gpio.c **** {
 755              		.loc 1 443 1 is_stmt 1 view -0
 756              		.cfi_startproc
 757              		@ args = 0, pretend = 0, frame = 0
 758              		@ frame_needed = 0, uses_anonymous_args = 0
 759              		@ link register save eliminated.
 444:Drivers/STM32F3xx_HAL_Driver/Src/stm32f3xx_hal_gpio.c ****   uint32_t odr;
 760              		.loc 1 444 3 view .LVU262
 445:Drivers/STM32F3xx_HAL_Driver/Src/stm32f3xx_hal_gpio.c **** 
 446:Drivers/STM32F3xx_HAL_Driver/Src/stm32f3xx_hal_gpio.c ****   /* Check the parameters */
 447:Drivers/STM32F3xx_HAL_Driver/Src/stm32f3xx_hal_gpio.c ****   assert_param(IS_GPIO_PIN(GPIO_Pin));
 761              		.loc 1 447 3 view .LVU263
 448:Drivers/STM32F3xx_HAL_Driver/Src/stm32f3xx_hal_gpio.c **** 
 449:Drivers/STM32F3xx_HAL_Driver/Src/stm32f3xx_hal_gpio.c ****   /* get current Ouput Data Register value */
 450:Drivers/STM32F3xx_HAL_Driver/Src/stm32f3xx_hal_gpio.c ****   odr = GPIOx->ODR;
 762              		.loc 1 450 3 view .LVU264
 763              		.loc 1 450 7 is_stmt 0 view .LVU265
 764 0000 4369     		ldr	r3, [r0, #20]
 765              	.LVL65:
 451:Drivers/STM32F3xx_HAL_Driver/Src/stm32f3xx_hal_gpio.c **** 
 452:Drivers/STM32F3xx_HAL_Driver/Src/stm32f3xx_hal_gpio.c ****   /* Set selected pins that were at low level, and reset ones that were high */
 453:Drivers/STM32F3xx_HAL_Driver/Src/stm32f3xx_hal_gpio.c ****   GPIOx->BSRR = ((odr & GPIO_Pin) << GPIO_NUMBER) | (~odr & GPIO_Pin);
 766              		.loc 1 453 3 is_stmt 1 view .LVU266
 767              		.loc 1 453 23 is_stmt 0 view .LVU267
 768 0002 01EA0302 		and	r2, r1, r3
 769              		.loc 1 453 59 view .LVU268
 770 0006 21EA0301 		bic	r1, r1, r3
 771              	.LVL66:
 772              		.loc 1 453 51 view .LVU269
 773 000a 41EA0241 		orr	r1, r1, r2, lsl #16
 774              		.loc 1 453 15 view .LVU270
 775 000e 8161     		str	r1, [r0, #24]
 454:Drivers/STM32F3xx_HAL_Driver/Src/stm32f3xx_hal_gpio.c **** }
 776              		.loc 1 454 1 view .LVU271
 777 0010 7047     		bx	lr
 778              		.cfi_endproc
 779              	.LFE134:
 781              		.section	.text.HAL_GPIO_LockPin,"ax",%progbits
 782              		.align	1
ARM GAS  /var/folders/jw/jcj5j9_530958b2rm5vp9wn00000gn/T//ccNrK2vt.s 			page 25


 783              		.global	HAL_GPIO_LockPin
 784              		.syntax unified
 785              		.thumb
 786              		.thumb_func
 787              		.fpu fpv4-sp-d16
 789              	HAL_GPIO_LockPin:
 790              	.LVL67:
 791              	.LFB135:
 455:Drivers/STM32F3xx_HAL_Driver/Src/stm32f3xx_hal_gpio.c **** 
 456:Drivers/STM32F3xx_HAL_Driver/Src/stm32f3xx_hal_gpio.c **** /**
 457:Drivers/STM32F3xx_HAL_Driver/Src/stm32f3xx_hal_gpio.c **** * @brief  Lock GPIO Pins configuration registers.
 458:Drivers/STM32F3xx_HAL_Driver/Src/stm32f3xx_hal_gpio.c ****   * @note   The locked registers are GPIOx_MODER, GPIOx_OTYPER, GPIOx_OSPEEDR,
 459:Drivers/STM32F3xx_HAL_Driver/Src/stm32f3xx_hal_gpio.c ****   *         GPIOx_PUPDR, GPIOx_AFRL and GPIOx_AFRH.
 460:Drivers/STM32F3xx_HAL_Driver/Src/stm32f3xx_hal_gpio.c ****   * @note   The configuration of the locked GPIO pins can no longer be modified
 461:Drivers/STM32F3xx_HAL_Driver/Src/stm32f3xx_hal_gpio.c ****   *         until the next reset.
 462:Drivers/STM32F3xx_HAL_Driver/Src/stm32f3xx_hal_gpio.c ****   * @param  GPIOx where x can be (A..F) to select the GPIO peripheral for STM32F3 family
 463:Drivers/STM32F3xx_HAL_Driver/Src/stm32f3xx_hal_gpio.c ****   * @param  GPIO_Pin specifies the port bits to be locked.
 464:Drivers/STM32F3xx_HAL_Driver/Src/stm32f3xx_hal_gpio.c ****   *         This parameter can be any combination of GPIO_Pin_x where x can be (0..15).
 465:Drivers/STM32F3xx_HAL_Driver/Src/stm32f3xx_hal_gpio.c ****   * @retval None
 466:Drivers/STM32F3xx_HAL_Driver/Src/stm32f3xx_hal_gpio.c ****   */
 467:Drivers/STM32F3xx_HAL_Driver/Src/stm32f3xx_hal_gpio.c **** HAL_StatusTypeDef HAL_GPIO_LockPin(GPIO_TypeDef* GPIOx, uint16_t GPIO_Pin)
 468:Drivers/STM32F3xx_HAL_Driver/Src/stm32f3xx_hal_gpio.c **** {
 792              		.loc 1 468 1 is_stmt 1 view -0
 793              		.cfi_startproc
 794              		@ args = 0, pretend = 0, frame = 8
 795              		@ frame_needed = 0, uses_anonymous_args = 0
 796              		@ link register save eliminated.
 797              		.loc 1 468 1 is_stmt 0 view .LVU273
 798 0000 82B0     		sub	sp, sp, #8
 799              	.LCFI5:
 800              		.cfi_def_cfa_offset 8
 469:Drivers/STM32F3xx_HAL_Driver/Src/stm32f3xx_hal_gpio.c ****   __IO uint32_t tmp = GPIO_LCKR_LCKK;
 801              		.loc 1 469 3 is_stmt 1 view .LVU274
 802              		.loc 1 469 17 is_stmt 0 view .LVU275
 803 0002 4FF48033 		mov	r3, #65536
 804 0006 0193     		str	r3, [sp, #4]
 470:Drivers/STM32F3xx_HAL_Driver/Src/stm32f3xx_hal_gpio.c **** 
 471:Drivers/STM32F3xx_HAL_Driver/Src/stm32f3xx_hal_gpio.c ****   /* Check the parameters */
 472:Drivers/STM32F3xx_HAL_Driver/Src/stm32f3xx_hal_gpio.c ****   assert_param(IS_GPIO_LOCK_INSTANCE(GPIOx));
 805              		.loc 1 472 3 is_stmt 1 view .LVU276
 473:Drivers/STM32F3xx_HAL_Driver/Src/stm32f3xx_hal_gpio.c ****   assert_param(IS_GPIO_PIN(GPIO_Pin));
 806              		.loc 1 473 3 view .LVU277
 474:Drivers/STM32F3xx_HAL_Driver/Src/stm32f3xx_hal_gpio.c **** 
 475:Drivers/STM32F3xx_HAL_Driver/Src/stm32f3xx_hal_gpio.c ****   /* Apply lock key write sequence */
 476:Drivers/STM32F3xx_HAL_Driver/Src/stm32f3xx_hal_gpio.c ****   tmp |= GPIO_Pin;
 807              		.loc 1 476 3 view .LVU278
 808              		.loc 1 476 7 is_stmt 0 view .LVU279
 809 0008 019B     		ldr	r3, [sp, #4]
 810 000a 0B43     		orrs	r3, r3, r1
 811 000c 0193     		str	r3, [sp, #4]
 477:Drivers/STM32F3xx_HAL_Driver/Src/stm32f3xx_hal_gpio.c ****   /* Set LCKx bit(s): LCKK='1' + LCK[15U-0] */
 478:Drivers/STM32F3xx_HAL_Driver/Src/stm32f3xx_hal_gpio.c ****   GPIOx->LCKR = tmp;
 812              		.loc 1 478 3 is_stmt 1 view .LVU280
 813              		.loc 1 478 15 is_stmt 0 view .LVU281
 814 000e 019B     		ldr	r3, [sp, #4]
 815 0010 C361     		str	r3, [r0, #28]
 479:Drivers/STM32F3xx_HAL_Driver/Src/stm32f3xx_hal_gpio.c ****   /* Reset LCKx bit(s): LCKK='0' + LCK[15U-0] */
ARM GAS  /var/folders/jw/jcj5j9_530958b2rm5vp9wn00000gn/T//ccNrK2vt.s 			page 26


 480:Drivers/STM32F3xx_HAL_Driver/Src/stm32f3xx_hal_gpio.c ****   GPIOx->LCKR = GPIO_Pin;
 816              		.loc 1 480 3 is_stmt 1 view .LVU282
 817              		.loc 1 480 15 is_stmt 0 view .LVU283
 818 0012 C161     		str	r1, [r0, #28]
 481:Drivers/STM32F3xx_HAL_Driver/Src/stm32f3xx_hal_gpio.c ****   /* Set LCKx bit(s): LCKK='1' + LCK[15U-0] */
 482:Drivers/STM32F3xx_HAL_Driver/Src/stm32f3xx_hal_gpio.c ****   GPIOx->LCKR = tmp;
 819              		.loc 1 482 3 is_stmt 1 view .LVU284
 820              		.loc 1 482 15 is_stmt 0 view .LVU285
 821 0014 019B     		ldr	r3, [sp, #4]
 822 0016 C361     		str	r3, [r0, #28]
 483:Drivers/STM32F3xx_HAL_Driver/Src/stm32f3xx_hal_gpio.c ****   /* Read LCKK register. This read is mandatory to complete key lock sequence */
 484:Drivers/STM32F3xx_HAL_Driver/Src/stm32f3xx_hal_gpio.c ****   tmp = GPIOx->LCKR;
 823              		.loc 1 484 3 is_stmt 1 view .LVU286
 824              		.loc 1 484 14 is_stmt 0 view .LVU287
 825 0018 C369     		ldr	r3, [r0, #28]
 826              		.loc 1 484 7 view .LVU288
 827 001a 0193     		str	r3, [sp, #4]
 485:Drivers/STM32F3xx_HAL_Driver/Src/stm32f3xx_hal_gpio.c **** 
 486:Drivers/STM32F3xx_HAL_Driver/Src/stm32f3xx_hal_gpio.c ****   /* read again in order to confirm lock is active */
 487:Drivers/STM32F3xx_HAL_Driver/Src/stm32f3xx_hal_gpio.c ****  if((GPIOx->LCKR & GPIO_LCKR_LCKK) != 0x00u)
 828              		.loc 1 487 2 is_stmt 1 view .LVU289
 829              		.loc 1 487 11 is_stmt 0 view .LVU290
 830 001c C369     		ldr	r3, [r0, #28]
 831              		.loc 1 487 4 view .LVU291
 832 001e 13F4803F 		tst	r3, #65536
 833 0022 02D0     		beq	.L53
 488:Drivers/STM32F3xx_HAL_Driver/Src/stm32f3xx_hal_gpio.c ****   {
 489:Drivers/STM32F3xx_HAL_Driver/Src/stm32f3xx_hal_gpio.c ****     return HAL_OK;
 834              		.loc 1 489 12 view .LVU292
 835 0024 0020     		movs	r0, #0
 836              	.LVL68:
 837              	.L52:
 490:Drivers/STM32F3xx_HAL_Driver/Src/stm32f3xx_hal_gpio.c ****   }
 491:Drivers/STM32F3xx_HAL_Driver/Src/stm32f3xx_hal_gpio.c ****   else
 492:Drivers/STM32F3xx_HAL_Driver/Src/stm32f3xx_hal_gpio.c ****   {
 493:Drivers/STM32F3xx_HAL_Driver/Src/stm32f3xx_hal_gpio.c ****     return HAL_ERROR;
 494:Drivers/STM32F3xx_HAL_Driver/Src/stm32f3xx_hal_gpio.c ****   }
 495:Drivers/STM32F3xx_HAL_Driver/Src/stm32f3xx_hal_gpio.c **** }
 838              		.loc 1 495 1 view .LVU293
 839 0026 02B0     		add	sp, sp, #8
 840              	.LCFI6:
 841              		.cfi_remember_state
 842              		.cfi_def_cfa_offset 0
 843              		@ sp needed
 844 0028 7047     		bx	lr
 845              	.LVL69:
 846              	.L53:
 847              	.LCFI7:
 848              		.cfi_restore_state
 493:Drivers/STM32F3xx_HAL_Driver/Src/stm32f3xx_hal_gpio.c ****   }
 849              		.loc 1 493 12 view .LVU294
 850 002a 0120     		movs	r0, #1
 851              	.LVL70:
 493:Drivers/STM32F3xx_HAL_Driver/Src/stm32f3xx_hal_gpio.c ****   }
 852              		.loc 1 493 12 view .LVU295
 853 002c FBE7     		b	.L52
 854              		.cfi_endproc
ARM GAS  /var/folders/jw/jcj5j9_530958b2rm5vp9wn00000gn/T//ccNrK2vt.s 			page 27


 855              	.LFE135:
 857              		.section	.text.HAL_GPIO_EXTI_Callback,"ax",%progbits
 858              		.align	1
 859              		.weak	HAL_GPIO_EXTI_Callback
 860              		.syntax unified
 861              		.thumb
 862              		.thumb_func
 863              		.fpu fpv4-sp-d16
 865              	HAL_GPIO_EXTI_Callback:
 866              	.LVL71:
 867              	.LFB137:
 496:Drivers/STM32F3xx_HAL_Driver/Src/stm32f3xx_hal_gpio.c **** 
 497:Drivers/STM32F3xx_HAL_Driver/Src/stm32f3xx_hal_gpio.c **** /**
 498:Drivers/STM32F3xx_HAL_Driver/Src/stm32f3xx_hal_gpio.c ****   * @brief  Handle EXTI interrupt request.
 499:Drivers/STM32F3xx_HAL_Driver/Src/stm32f3xx_hal_gpio.c ****   * @param  GPIO_Pin Specifies the port pin connected to corresponding EXTI line.
 500:Drivers/STM32F3xx_HAL_Driver/Src/stm32f3xx_hal_gpio.c ****   * @retval None
 501:Drivers/STM32F3xx_HAL_Driver/Src/stm32f3xx_hal_gpio.c ****   */
 502:Drivers/STM32F3xx_HAL_Driver/Src/stm32f3xx_hal_gpio.c **** void HAL_GPIO_EXTI_IRQHandler(uint16_t GPIO_Pin)
 503:Drivers/STM32F3xx_HAL_Driver/Src/stm32f3xx_hal_gpio.c **** {
 504:Drivers/STM32F3xx_HAL_Driver/Src/stm32f3xx_hal_gpio.c ****   /* EXTI line interrupt detected */
 505:Drivers/STM32F3xx_HAL_Driver/Src/stm32f3xx_hal_gpio.c ****   if(__HAL_GPIO_EXTI_GET_IT(GPIO_Pin) != 0x00u)
 506:Drivers/STM32F3xx_HAL_Driver/Src/stm32f3xx_hal_gpio.c ****   {
 507:Drivers/STM32F3xx_HAL_Driver/Src/stm32f3xx_hal_gpio.c ****     __HAL_GPIO_EXTI_CLEAR_IT(GPIO_Pin);
 508:Drivers/STM32F3xx_HAL_Driver/Src/stm32f3xx_hal_gpio.c ****     HAL_GPIO_EXTI_Callback(GPIO_Pin);
 509:Drivers/STM32F3xx_HAL_Driver/Src/stm32f3xx_hal_gpio.c ****   }
 510:Drivers/STM32F3xx_HAL_Driver/Src/stm32f3xx_hal_gpio.c **** }
 511:Drivers/STM32F3xx_HAL_Driver/Src/stm32f3xx_hal_gpio.c **** 
 512:Drivers/STM32F3xx_HAL_Driver/Src/stm32f3xx_hal_gpio.c **** /**
 513:Drivers/STM32F3xx_HAL_Driver/Src/stm32f3xx_hal_gpio.c ****   * @brief  EXTI line detection callback.
 514:Drivers/STM32F3xx_HAL_Driver/Src/stm32f3xx_hal_gpio.c ****   * @param  GPIO_Pin Specifies the port pin connected to corresponding EXTI line.
 515:Drivers/STM32F3xx_HAL_Driver/Src/stm32f3xx_hal_gpio.c ****   * @retval None
 516:Drivers/STM32F3xx_HAL_Driver/Src/stm32f3xx_hal_gpio.c ****   */
 517:Drivers/STM32F3xx_HAL_Driver/Src/stm32f3xx_hal_gpio.c **** __weak void HAL_GPIO_EXTI_Callback(uint16_t GPIO_Pin)
 518:Drivers/STM32F3xx_HAL_Driver/Src/stm32f3xx_hal_gpio.c **** {
 868              		.loc 1 518 1 is_stmt 1 view -0
 869              		.cfi_startproc
 870              		@ args = 0, pretend = 0, frame = 0
 871              		@ frame_needed = 0, uses_anonymous_args = 0
 872              		@ link register save eliminated.
 519:Drivers/STM32F3xx_HAL_Driver/Src/stm32f3xx_hal_gpio.c ****   /* Prevent unused argument(s) compilation warning */
 520:Drivers/STM32F3xx_HAL_Driver/Src/stm32f3xx_hal_gpio.c ****   UNUSED(GPIO_Pin);
 873              		.loc 1 520 3 view .LVU297
 521:Drivers/STM32F3xx_HAL_Driver/Src/stm32f3xx_hal_gpio.c **** 
 522:Drivers/STM32F3xx_HAL_Driver/Src/stm32f3xx_hal_gpio.c ****   /* NOTE: This function should not be modified, when the callback is needed,
 523:Drivers/STM32F3xx_HAL_Driver/Src/stm32f3xx_hal_gpio.c ****            the HAL_GPIO_EXTI_Callback could be implemented in the user file
 524:Drivers/STM32F3xx_HAL_Driver/Src/stm32f3xx_hal_gpio.c ****    */
 525:Drivers/STM32F3xx_HAL_Driver/Src/stm32f3xx_hal_gpio.c **** }
 874              		.loc 1 525 1 is_stmt 0 view .LVU298
 875 0000 7047     		bx	lr
 876              		.cfi_endproc
 877              	.LFE137:
 879              		.section	.text.HAL_GPIO_EXTI_IRQHandler,"ax",%progbits
 880              		.align	1
 881              		.global	HAL_GPIO_EXTI_IRQHandler
 882              		.syntax unified
 883              		.thumb
 884              		.thumb_func
ARM GAS  /var/folders/jw/jcj5j9_530958b2rm5vp9wn00000gn/T//ccNrK2vt.s 			page 28


 885              		.fpu fpv4-sp-d16
 887              	HAL_GPIO_EXTI_IRQHandler:
 888              	.LVL72:
 889              	.LFB136:
 503:Drivers/STM32F3xx_HAL_Driver/Src/stm32f3xx_hal_gpio.c ****   /* EXTI line interrupt detected */
 890              		.loc 1 503 1 is_stmt 1 view -0
 891              		.cfi_startproc
 892              		@ args = 0, pretend = 0, frame = 0
 893              		@ frame_needed = 0, uses_anonymous_args = 0
 503:Drivers/STM32F3xx_HAL_Driver/Src/stm32f3xx_hal_gpio.c ****   /* EXTI line interrupt detected */
 894              		.loc 1 503 1 is_stmt 0 view .LVU300
 895 0000 08B5     		push	{r3, lr}
 896              	.LCFI8:
 897              		.cfi_def_cfa_offset 8
 898              		.cfi_offset 3, -8
 899              		.cfi_offset 14, -4
 505:Drivers/STM32F3xx_HAL_Driver/Src/stm32f3xx_hal_gpio.c ****   {
 900              		.loc 1 505 3 is_stmt 1 view .LVU301
 505:Drivers/STM32F3xx_HAL_Driver/Src/stm32f3xx_hal_gpio.c ****   {
 901              		.loc 1 505 6 is_stmt 0 view .LVU302
 902 0002 054B     		ldr	r3, .L60
 903 0004 5B69     		ldr	r3, [r3, #20]
 505:Drivers/STM32F3xx_HAL_Driver/Src/stm32f3xx_hal_gpio.c ****   {
 904              		.loc 1 505 5 view .LVU303
 905 0006 0342     		tst	r3, r0
 906 0008 00D1     		bne	.L59
 907              	.LVL73:
 908              	.L56:
 510:Drivers/STM32F3xx_HAL_Driver/Src/stm32f3xx_hal_gpio.c **** 
 909              		.loc 1 510 1 view .LVU304
 910 000a 08BD     		pop	{r3, pc}
 911              	.LVL74:
 912              	.L59:
 507:Drivers/STM32F3xx_HAL_Driver/Src/stm32f3xx_hal_gpio.c ****     HAL_GPIO_EXTI_Callback(GPIO_Pin);
 913              		.loc 1 507 5 is_stmt 1 view .LVU305
 914 000c 024B     		ldr	r3, .L60
 915 000e 5861     		str	r0, [r3, #20]
 508:Drivers/STM32F3xx_HAL_Driver/Src/stm32f3xx_hal_gpio.c ****   }
 916              		.loc 1 508 5 view .LVU306
 917 0010 FFF7FEFF 		bl	HAL_GPIO_EXTI_Callback
 918              	.LVL75:
 510:Drivers/STM32F3xx_HAL_Driver/Src/stm32f3xx_hal_gpio.c **** 
 919              		.loc 1 510 1 is_stmt 0 view .LVU307
 920 0014 F9E7     		b	.L56
 921              	.L61:
 922 0016 00BF     		.align	2
 923              	.L60:
 924 0018 00040140 		.word	1073808384
 925              		.cfi_endproc
 926              	.LFE136:
 928              		.text
 929              	.Letext0:
 930              		.file 2 "/Users/javier/Library/xPacks/@xpack-dev-tools/arm-none-eabi-gcc/9.3.1-1.4.1/.content/arm-
 931              		.file 3 "/Users/javier/Library/xPacks/@xpack-dev-tools/arm-none-eabi-gcc/9.3.1-1.4.1/.content/arm-
 932              		.file 4 "Drivers/CMSIS/Include/core_cm4.h"
 933              		.file 5 "Drivers/CMSIS/Device/ST/STM32F3xx/Include/system_stm32f3xx.h"
 934              		.file 6 "Drivers/CMSIS/Device/ST/STM32F3xx/Include/stm32f373xc.h"
ARM GAS  /var/folders/jw/jcj5j9_530958b2rm5vp9wn00000gn/T//ccNrK2vt.s 			page 29


 935              		.file 7 "Drivers/STM32F3xx_HAL_Driver/Inc/stm32f3xx_hal_def.h"
 936              		.file 8 "Drivers/STM32F3xx_HAL_Driver/Inc/stm32f3xx_hal_gpio.h"
 937              		.file 9 "Drivers/STM32F3xx_HAL_Driver/Inc/stm32f3xx_hal.h"
ARM GAS  /var/folders/jw/jcj5j9_530958b2rm5vp9wn00000gn/T//ccNrK2vt.s 			page 30

