ARM GAS  /var/folders/jw/jcj5j9_530958b2rm5vp9wn00000gn/T//cceMbtLF.s 			page 1


   1              		.cpu cortex-m4
   2              		.eabi_attribute 27, 1
   3              		.eabi_attribute 28, 1
   4              		.eabi_attribute 20, 1
   5              		.eabi_attribute 21, 1
   6              		.eabi_attribute 23, 3
   7              		.eabi_attribute 24, 1
   8              		.eabi_attribute 25, 1
   9              		.eabi_attribute 26, 1
  10              		.eabi_attribute 30, 1
  11              		.eabi_attribute 34, 1
  12              		.eabi_attribute 18, 4
  13              		.file	"stm32f3xx_hal_rcc.c"
  14              		.text
  15              	.Ltext0:
  16              		.cfi_sections	.debug_frame
  17              		.section	.text.HAL_RCC_DeInit,"ax",%progbits
  18              		.align	1
  19              		.global	HAL_RCC_DeInit
  20              		.arch armv7e-m
  21              		.syntax unified
  22              		.thumb
  23              		.thumb_func
  24              		.fpu fpv4-sp-d16
  26              	HAL_RCC_DeInit:
  27              	.LFB130:
  28              		.file 1 "Drivers/STM32F3xx_HAL_Driver/Src/stm32f3xx_hal_rcc.c"
   1:Drivers/STM32F3xx_HAL_Driver/Src/stm32f3xx_hal_rcc.c **** /**
   2:Drivers/STM32F3xx_HAL_Driver/Src/stm32f3xx_hal_rcc.c ****   ******************************************************************************
   3:Drivers/STM32F3xx_HAL_Driver/Src/stm32f3xx_hal_rcc.c ****   * @file    stm32f3xx_hal_rcc.c
   4:Drivers/STM32F3xx_HAL_Driver/Src/stm32f3xx_hal_rcc.c ****   * @author  MCD Application Team
   5:Drivers/STM32F3xx_HAL_Driver/Src/stm32f3xx_hal_rcc.c ****   * @brief   RCC HAL module driver.
   6:Drivers/STM32F3xx_HAL_Driver/Src/stm32f3xx_hal_rcc.c ****   *          This file provides firmware functions to manage the following 
   7:Drivers/STM32F3xx_HAL_Driver/Src/stm32f3xx_hal_rcc.c ****   *          functionalities of the Reset and Clock Control (RCC) peripheral:
   8:Drivers/STM32F3xx_HAL_Driver/Src/stm32f3xx_hal_rcc.c ****   *           + Initialization and de-initialization functions
   9:Drivers/STM32F3xx_HAL_Driver/Src/stm32f3xx_hal_rcc.c ****   *           + Peripheral Control functions
  10:Drivers/STM32F3xx_HAL_Driver/Src/stm32f3xx_hal_rcc.c ****   *       
  11:Drivers/STM32F3xx_HAL_Driver/Src/stm32f3xx_hal_rcc.c ****   @verbatim                
  12:Drivers/STM32F3xx_HAL_Driver/Src/stm32f3xx_hal_rcc.c ****   ==============================================================================
  13:Drivers/STM32F3xx_HAL_Driver/Src/stm32f3xx_hal_rcc.c ****                       ##### RCC specific features #####
  14:Drivers/STM32F3xx_HAL_Driver/Src/stm32f3xx_hal_rcc.c ****   ==============================================================================
  15:Drivers/STM32F3xx_HAL_Driver/Src/stm32f3xx_hal_rcc.c ****     [..]  
  16:Drivers/STM32F3xx_HAL_Driver/Src/stm32f3xx_hal_rcc.c ****       After reset the device is running from Internal High Speed oscillator
  17:Drivers/STM32F3xx_HAL_Driver/Src/stm32f3xx_hal_rcc.c ****       (HSI 8MHz) with Flash 0 wait state, Flash prefetch buffer is enabled, 
  18:Drivers/STM32F3xx_HAL_Driver/Src/stm32f3xx_hal_rcc.c ****       and all peripherals are off except internal SRAM, Flash and JTAG.
  19:Drivers/STM32F3xx_HAL_Driver/Src/stm32f3xx_hal_rcc.c ****       (+) There is no prescaler on High speed (AHB) and Low speed (APB) buses;
  20:Drivers/STM32F3xx_HAL_Driver/Src/stm32f3xx_hal_rcc.c ****           all peripherals mapped on these buses are running at HSI speed.
  21:Drivers/STM32F3xx_HAL_Driver/Src/stm32f3xx_hal_rcc.c ****       (+) The clock for all peripherals is switched off, except the SRAM and FLASH.
  22:Drivers/STM32F3xx_HAL_Driver/Src/stm32f3xx_hal_rcc.c ****       (+) All GPIOs are in input floating state, except the JTAG pins which
  23:Drivers/STM32F3xx_HAL_Driver/Src/stm32f3xx_hal_rcc.c ****           are assigned to be used for debug purpose.
  24:Drivers/STM32F3xx_HAL_Driver/Src/stm32f3xx_hal_rcc.c ****     [..] Once the device started from reset, the user application has to:
  25:Drivers/STM32F3xx_HAL_Driver/Src/stm32f3xx_hal_rcc.c ****       (+) Configure the clock source to be used to drive the System clock
  26:Drivers/STM32F3xx_HAL_Driver/Src/stm32f3xx_hal_rcc.c ****           (if the application needs higher frequency/performance)
  27:Drivers/STM32F3xx_HAL_Driver/Src/stm32f3xx_hal_rcc.c ****       (+) Configure the System clock frequency and Flash settings  
  28:Drivers/STM32F3xx_HAL_Driver/Src/stm32f3xx_hal_rcc.c ****       (+) Configure the AHB and APB buses prescalers
  29:Drivers/STM32F3xx_HAL_Driver/Src/stm32f3xx_hal_rcc.c ****       (+) Enable the clock for the peripheral(s) to be used
  30:Drivers/STM32F3xx_HAL_Driver/Src/stm32f3xx_hal_rcc.c ****       (+) Configure the clock source(s) for peripherals whose clocks are not
ARM GAS  /var/folders/jw/jcj5j9_530958b2rm5vp9wn00000gn/T//cceMbtLF.s 			page 2


  31:Drivers/STM32F3xx_HAL_Driver/Src/stm32f3xx_hal_rcc.c ****           derived from the System clock (RTC, ADC, I2C, I2S, TIM, USB FS)
  32:Drivers/STM32F3xx_HAL_Driver/Src/stm32f3xx_hal_rcc.c **** 
  33:Drivers/STM32F3xx_HAL_Driver/Src/stm32f3xx_hal_rcc.c ****                       ##### RCC Limitations #####
  34:Drivers/STM32F3xx_HAL_Driver/Src/stm32f3xx_hal_rcc.c ****   ==============================================================================
  35:Drivers/STM32F3xx_HAL_Driver/Src/stm32f3xx_hal_rcc.c ****     [..]  
  36:Drivers/STM32F3xx_HAL_Driver/Src/stm32f3xx_hal_rcc.c ****       A delay between an RCC peripheral clock enable and the effective peripheral 
  37:Drivers/STM32F3xx_HAL_Driver/Src/stm32f3xx_hal_rcc.c ****       enabling should be taken into account in order to manage the peripheral read/write 
  38:Drivers/STM32F3xx_HAL_Driver/Src/stm32f3xx_hal_rcc.c ****       from/to registers.
  39:Drivers/STM32F3xx_HAL_Driver/Src/stm32f3xx_hal_rcc.c ****       (+) This delay depends on the peripheral mapping.
  40:Drivers/STM32F3xx_HAL_Driver/Src/stm32f3xx_hal_rcc.c ****         (++) AHB & APB peripherals, 1 dummy read is necessary
  41:Drivers/STM32F3xx_HAL_Driver/Src/stm32f3xx_hal_rcc.c **** 
  42:Drivers/STM32F3xx_HAL_Driver/Src/stm32f3xx_hal_rcc.c ****     [..]  
  43:Drivers/STM32F3xx_HAL_Driver/Src/stm32f3xx_hal_rcc.c ****       Workarounds:
  44:Drivers/STM32F3xx_HAL_Driver/Src/stm32f3xx_hal_rcc.c ****       (#) For AHB & APB peripherals, a dummy read to the peripheral register has been
  45:Drivers/STM32F3xx_HAL_Driver/Src/stm32f3xx_hal_rcc.c ****           inserted in each __HAL_RCC_PPP_CLK_ENABLE() macro.
  46:Drivers/STM32F3xx_HAL_Driver/Src/stm32f3xx_hal_rcc.c **** 
  47:Drivers/STM32F3xx_HAL_Driver/Src/stm32f3xx_hal_rcc.c ****   @endverbatim
  48:Drivers/STM32F3xx_HAL_Driver/Src/stm32f3xx_hal_rcc.c ****   ******************************************************************************
  49:Drivers/STM32F3xx_HAL_Driver/Src/stm32f3xx_hal_rcc.c ****   * @attention
  50:Drivers/STM32F3xx_HAL_Driver/Src/stm32f3xx_hal_rcc.c ****   *
  51:Drivers/STM32F3xx_HAL_Driver/Src/stm32f3xx_hal_rcc.c ****   * <h2><center>&copy; Copyright (c) 2016 STMicroelectronics.
  52:Drivers/STM32F3xx_HAL_Driver/Src/stm32f3xx_hal_rcc.c ****   * All rights reserved.</center></h2>
  53:Drivers/STM32F3xx_HAL_Driver/Src/stm32f3xx_hal_rcc.c ****   *
  54:Drivers/STM32F3xx_HAL_Driver/Src/stm32f3xx_hal_rcc.c ****   * This software component is licensed by ST under BSD 3-Clause license,
  55:Drivers/STM32F3xx_HAL_Driver/Src/stm32f3xx_hal_rcc.c ****   * the "License"; You may not use this file except in compliance with the
  56:Drivers/STM32F3xx_HAL_Driver/Src/stm32f3xx_hal_rcc.c ****   * License. You may obtain a copy of the License at:
  57:Drivers/STM32F3xx_HAL_Driver/Src/stm32f3xx_hal_rcc.c ****   *                        opensource.org/licenses/BSD-3-Clause
  58:Drivers/STM32F3xx_HAL_Driver/Src/stm32f3xx_hal_rcc.c ****   *
  59:Drivers/STM32F3xx_HAL_Driver/Src/stm32f3xx_hal_rcc.c ****   ******************************************************************************
  60:Drivers/STM32F3xx_HAL_Driver/Src/stm32f3xx_hal_rcc.c ****   */
  61:Drivers/STM32F3xx_HAL_Driver/Src/stm32f3xx_hal_rcc.c **** 
  62:Drivers/STM32F3xx_HAL_Driver/Src/stm32f3xx_hal_rcc.c **** /* Includes ------------------------------------------------------------------*/
  63:Drivers/STM32F3xx_HAL_Driver/Src/stm32f3xx_hal_rcc.c **** #include "stm32f3xx_hal.h"
  64:Drivers/STM32F3xx_HAL_Driver/Src/stm32f3xx_hal_rcc.c **** 
  65:Drivers/STM32F3xx_HAL_Driver/Src/stm32f3xx_hal_rcc.c **** /** @addtogroup STM32F3xx_HAL_Driver
  66:Drivers/STM32F3xx_HAL_Driver/Src/stm32f3xx_hal_rcc.c ****   * @{
  67:Drivers/STM32F3xx_HAL_Driver/Src/stm32f3xx_hal_rcc.c ****   */
  68:Drivers/STM32F3xx_HAL_Driver/Src/stm32f3xx_hal_rcc.c **** 
  69:Drivers/STM32F3xx_HAL_Driver/Src/stm32f3xx_hal_rcc.c **** /** @defgroup RCC RCC
  70:Drivers/STM32F3xx_HAL_Driver/Src/stm32f3xx_hal_rcc.c **** * @brief RCC HAL module driver
  71:Drivers/STM32F3xx_HAL_Driver/Src/stm32f3xx_hal_rcc.c ****   * @{
  72:Drivers/STM32F3xx_HAL_Driver/Src/stm32f3xx_hal_rcc.c ****   */
  73:Drivers/STM32F3xx_HAL_Driver/Src/stm32f3xx_hal_rcc.c **** 
  74:Drivers/STM32F3xx_HAL_Driver/Src/stm32f3xx_hal_rcc.c **** #ifdef HAL_RCC_MODULE_ENABLED
  75:Drivers/STM32F3xx_HAL_Driver/Src/stm32f3xx_hal_rcc.c **** 
  76:Drivers/STM32F3xx_HAL_Driver/Src/stm32f3xx_hal_rcc.c **** /* Private typedef -----------------------------------------------------------*/
  77:Drivers/STM32F3xx_HAL_Driver/Src/stm32f3xx_hal_rcc.c **** /* Private define ------------------------------------------------------------*/
  78:Drivers/STM32F3xx_HAL_Driver/Src/stm32f3xx_hal_rcc.c **** /** @defgroup RCC_Private_Constants RCC Private Constants
  79:Drivers/STM32F3xx_HAL_Driver/Src/stm32f3xx_hal_rcc.c ****  * @{
  80:Drivers/STM32F3xx_HAL_Driver/Src/stm32f3xx_hal_rcc.c ****  */
  81:Drivers/STM32F3xx_HAL_Driver/Src/stm32f3xx_hal_rcc.c **** /* Bits position in  in the CFGR register */
  82:Drivers/STM32F3xx_HAL_Driver/Src/stm32f3xx_hal_rcc.c **** #define RCC_CFGR_HPRE_BITNUMBER           POSITION_VAL(RCC_CFGR_HPRE)
  83:Drivers/STM32F3xx_HAL_Driver/Src/stm32f3xx_hal_rcc.c **** #define RCC_CFGR_PPRE1_BITNUMBER          POSITION_VAL(RCC_CFGR_PPRE1)
  84:Drivers/STM32F3xx_HAL_Driver/Src/stm32f3xx_hal_rcc.c **** #define RCC_CFGR_PPRE2_BITNUMBER          POSITION_VAL(RCC_CFGR_PPRE2)
  85:Drivers/STM32F3xx_HAL_Driver/Src/stm32f3xx_hal_rcc.c **** /**
  86:Drivers/STM32F3xx_HAL_Driver/Src/stm32f3xx_hal_rcc.c ****   * @}
  87:Drivers/STM32F3xx_HAL_Driver/Src/stm32f3xx_hal_rcc.c ****   */
ARM GAS  /var/folders/jw/jcj5j9_530958b2rm5vp9wn00000gn/T//cceMbtLF.s 			page 3


  88:Drivers/STM32F3xx_HAL_Driver/Src/stm32f3xx_hal_rcc.c **** /* Private macro -------------------------------------------------------------*/
  89:Drivers/STM32F3xx_HAL_Driver/Src/stm32f3xx_hal_rcc.c **** /** @defgroup RCC_Private_Macros RCC Private Macros
  90:Drivers/STM32F3xx_HAL_Driver/Src/stm32f3xx_hal_rcc.c ****   * @{
  91:Drivers/STM32F3xx_HAL_Driver/Src/stm32f3xx_hal_rcc.c ****   */
  92:Drivers/STM32F3xx_HAL_Driver/Src/stm32f3xx_hal_rcc.c **** 
  93:Drivers/STM32F3xx_HAL_Driver/Src/stm32f3xx_hal_rcc.c **** #define MCO1_CLK_ENABLE()     __HAL_RCC_GPIOA_CLK_ENABLE()
  94:Drivers/STM32F3xx_HAL_Driver/Src/stm32f3xx_hal_rcc.c **** #define MCO1_GPIO_PORT        GPIOA
  95:Drivers/STM32F3xx_HAL_Driver/Src/stm32f3xx_hal_rcc.c **** #define MCO1_PIN              GPIO_PIN_8
  96:Drivers/STM32F3xx_HAL_Driver/Src/stm32f3xx_hal_rcc.c **** 
  97:Drivers/STM32F3xx_HAL_Driver/Src/stm32f3xx_hal_rcc.c **** /**
  98:Drivers/STM32F3xx_HAL_Driver/Src/stm32f3xx_hal_rcc.c ****   * @}
  99:Drivers/STM32F3xx_HAL_Driver/Src/stm32f3xx_hal_rcc.c ****   */
 100:Drivers/STM32F3xx_HAL_Driver/Src/stm32f3xx_hal_rcc.c **** 
 101:Drivers/STM32F3xx_HAL_Driver/Src/stm32f3xx_hal_rcc.c **** /* Private variables ---------------------------------------------------------*/
 102:Drivers/STM32F3xx_HAL_Driver/Src/stm32f3xx_hal_rcc.c **** /** @defgroup RCC_Private_Variables RCC Private Variables
 103:Drivers/STM32F3xx_HAL_Driver/Src/stm32f3xx_hal_rcc.c ****   * @{
 104:Drivers/STM32F3xx_HAL_Driver/Src/stm32f3xx_hal_rcc.c ****   */
 105:Drivers/STM32F3xx_HAL_Driver/Src/stm32f3xx_hal_rcc.c **** const uint8_t aPLLMULFactorTable[16] = { 2U,  3U,  4U,  5U,  6U,  7U,  8U,  9U,
 106:Drivers/STM32F3xx_HAL_Driver/Src/stm32f3xx_hal_rcc.c ****                                        10U, 11U, 12U, 13U, 14U, 15U, 16U, 16U};
 107:Drivers/STM32F3xx_HAL_Driver/Src/stm32f3xx_hal_rcc.c **** const uint8_t aPredivFactorTable[16] = { 1U, 2U,  3U,  4U,  5U,  6U,  7U,  8U,
 108:Drivers/STM32F3xx_HAL_Driver/Src/stm32f3xx_hal_rcc.c ****                                          9U,10U, 11U, 12U, 13U, 14U, 15U, 16U};
 109:Drivers/STM32F3xx_HAL_Driver/Src/stm32f3xx_hal_rcc.c **** /**
 110:Drivers/STM32F3xx_HAL_Driver/Src/stm32f3xx_hal_rcc.c ****   * @}
 111:Drivers/STM32F3xx_HAL_Driver/Src/stm32f3xx_hal_rcc.c ****   */
 112:Drivers/STM32F3xx_HAL_Driver/Src/stm32f3xx_hal_rcc.c **** 
 113:Drivers/STM32F3xx_HAL_Driver/Src/stm32f3xx_hal_rcc.c **** /* Private function prototypes -----------------------------------------------*/
 114:Drivers/STM32F3xx_HAL_Driver/Src/stm32f3xx_hal_rcc.c **** /* Exported functions ---------------------------------------------------------*/
 115:Drivers/STM32F3xx_HAL_Driver/Src/stm32f3xx_hal_rcc.c **** 
 116:Drivers/STM32F3xx_HAL_Driver/Src/stm32f3xx_hal_rcc.c **** /** @defgroup RCC_Exported_Functions RCC Exported Functions
 117:Drivers/STM32F3xx_HAL_Driver/Src/stm32f3xx_hal_rcc.c ****   * @{
 118:Drivers/STM32F3xx_HAL_Driver/Src/stm32f3xx_hal_rcc.c ****   */
 119:Drivers/STM32F3xx_HAL_Driver/Src/stm32f3xx_hal_rcc.c **** 
 120:Drivers/STM32F3xx_HAL_Driver/Src/stm32f3xx_hal_rcc.c **** /** @defgroup RCC_Exported_Functions_Group1 Initialization and de-initialization functions 
 121:Drivers/STM32F3xx_HAL_Driver/Src/stm32f3xx_hal_rcc.c ****   *  @brief    Initialization and Configuration functions 
 122:Drivers/STM32F3xx_HAL_Driver/Src/stm32f3xx_hal_rcc.c ****   *
 123:Drivers/STM32F3xx_HAL_Driver/Src/stm32f3xx_hal_rcc.c ****   @verbatim    
 124:Drivers/STM32F3xx_HAL_Driver/Src/stm32f3xx_hal_rcc.c ****   ===============================================================================
 125:Drivers/STM32F3xx_HAL_Driver/Src/stm32f3xx_hal_rcc.c ****            ##### Initialization and de-initialization functions #####
 126:Drivers/STM32F3xx_HAL_Driver/Src/stm32f3xx_hal_rcc.c ****   ===============================================================================
 127:Drivers/STM32F3xx_HAL_Driver/Src/stm32f3xx_hal_rcc.c ****     [..]
 128:Drivers/STM32F3xx_HAL_Driver/Src/stm32f3xx_hal_rcc.c ****       This section provides functions allowing to configure the internal/external oscillators
 129:Drivers/STM32F3xx_HAL_Driver/Src/stm32f3xx_hal_rcc.c ****       (HSE, HSI, LSE, LSI, PLL, CSS and MCO) and the System buses clocks (SYSCLK, AHB, APB1
 130:Drivers/STM32F3xx_HAL_Driver/Src/stm32f3xx_hal_rcc.c ****       and APB2).
 131:Drivers/STM32F3xx_HAL_Driver/Src/stm32f3xx_hal_rcc.c **** 
 132:Drivers/STM32F3xx_HAL_Driver/Src/stm32f3xx_hal_rcc.c ****     [..] Internal/external clock and PLL configuration
 133:Drivers/STM32F3xx_HAL_Driver/Src/stm32f3xx_hal_rcc.c ****       (#) HSI (high-speed internal), 8 MHz factory-trimmed RC used directly or through
 134:Drivers/STM32F3xx_HAL_Driver/Src/stm32f3xx_hal_rcc.c ****           the PLL as System clock source.
 135:Drivers/STM32F3xx_HAL_Driver/Src/stm32f3xx_hal_rcc.c ****           The HSI clock can be used also to clock the USART and I2C peripherals.
 136:Drivers/STM32F3xx_HAL_Driver/Src/stm32f3xx_hal_rcc.c **** 
 137:Drivers/STM32F3xx_HAL_Driver/Src/stm32f3xx_hal_rcc.c ****       (#) LSI (low-speed internal), ~40 KHz low consumption RC used as IWDG and/or RTC
 138:Drivers/STM32F3xx_HAL_Driver/Src/stm32f3xx_hal_rcc.c ****           clock source.
 139:Drivers/STM32F3xx_HAL_Driver/Src/stm32f3xx_hal_rcc.c **** 
 140:Drivers/STM32F3xx_HAL_Driver/Src/stm32f3xx_hal_rcc.c ****       (#) HSE (high-speed external), 4 to 32 MHz crystal oscillator used directly or
 141:Drivers/STM32F3xx_HAL_Driver/Src/stm32f3xx_hal_rcc.c ****           through the PLL as System clock source. Can be used also as RTC clock source.
 142:Drivers/STM32F3xx_HAL_Driver/Src/stm32f3xx_hal_rcc.c **** 
 143:Drivers/STM32F3xx_HAL_Driver/Src/stm32f3xx_hal_rcc.c ****       (#) LSE (low-speed external), 32 KHz oscillator used as RTC clock source.   
 144:Drivers/STM32F3xx_HAL_Driver/Src/stm32f3xx_hal_rcc.c **** 
ARM GAS  /var/folders/jw/jcj5j9_530958b2rm5vp9wn00000gn/T//cceMbtLF.s 			page 4


 145:Drivers/STM32F3xx_HAL_Driver/Src/stm32f3xx_hal_rcc.c ****       (#) PLL (clocked by HSI or HSE), featuring different output clocks:
 146:Drivers/STM32F3xx_HAL_Driver/Src/stm32f3xx_hal_rcc.c ****         (++) The first output is used to generate the high speed system clock (up to 72 MHz)
 147:Drivers/STM32F3xx_HAL_Driver/Src/stm32f3xx_hal_rcc.c ****         (++) The second output is used to generate the clock for the USB FS (48 MHz)
 148:Drivers/STM32F3xx_HAL_Driver/Src/stm32f3xx_hal_rcc.c ****         (++) The third output may be used to generate the clock for the ADC peripherals (up to 72 M
 149:Drivers/STM32F3xx_HAL_Driver/Src/stm32f3xx_hal_rcc.c ****         (++) The fourth output may be used to generate the clock for the TIM peripherals (144 MHz)
 150:Drivers/STM32F3xx_HAL_Driver/Src/stm32f3xx_hal_rcc.c **** 
 151:Drivers/STM32F3xx_HAL_Driver/Src/stm32f3xx_hal_rcc.c ****       (#) CSS (Clock security system), once enable using the macro __HAL_RCC_CSS_ENABLE()
 152:Drivers/STM32F3xx_HAL_Driver/Src/stm32f3xx_hal_rcc.c ****           and if a HSE clock failure occurs(HSE used directly or through PLL as System 
 153:Drivers/STM32F3xx_HAL_Driver/Src/stm32f3xx_hal_rcc.c ****           clock source), the System clocks automatically switched to HSI and an interrupt
 154:Drivers/STM32F3xx_HAL_Driver/Src/stm32f3xx_hal_rcc.c ****           is generated if enabled. The interrupt is linked to the Cortex-M4 NMI 
 155:Drivers/STM32F3xx_HAL_Driver/Src/stm32f3xx_hal_rcc.c ****           (Non-Maskable Interrupt) exception vector.   
 156:Drivers/STM32F3xx_HAL_Driver/Src/stm32f3xx_hal_rcc.c **** 
 157:Drivers/STM32F3xx_HAL_Driver/Src/stm32f3xx_hal_rcc.c ****       (#) MCO (microcontroller clock output), used to output SYSCLK, HSI, HSE, LSI, LSE or PLL
 158:Drivers/STM32F3xx_HAL_Driver/Src/stm32f3xx_hal_rcc.c ****           clock (divided by 2) output on pin (such as PA8 pin).
 159:Drivers/STM32F3xx_HAL_Driver/Src/stm32f3xx_hal_rcc.c **** 
 160:Drivers/STM32F3xx_HAL_Driver/Src/stm32f3xx_hal_rcc.c ****     [..] System, AHB and APB buses clocks configuration
 161:Drivers/STM32F3xx_HAL_Driver/Src/stm32f3xx_hal_rcc.c ****       (#) Several clock sources can be used to drive the System clock (SYSCLK): HSI,
 162:Drivers/STM32F3xx_HAL_Driver/Src/stm32f3xx_hal_rcc.c ****           HSE and PLL.
 163:Drivers/STM32F3xx_HAL_Driver/Src/stm32f3xx_hal_rcc.c ****           The AHB clock (HCLK) is derived from System clock through configurable
 164:Drivers/STM32F3xx_HAL_Driver/Src/stm32f3xx_hal_rcc.c ****           prescaler and used to clock the CPU, memory and peripherals mapped
 165:Drivers/STM32F3xx_HAL_Driver/Src/stm32f3xx_hal_rcc.c ****           on AHB bus (DMA, GPIO...). APB1 (PCLK1) and APB2 (PCLK2) clocks are derived
 166:Drivers/STM32F3xx_HAL_Driver/Src/stm32f3xx_hal_rcc.c ****           from AHB clock through configurable prescalers and used to clock
 167:Drivers/STM32F3xx_HAL_Driver/Src/stm32f3xx_hal_rcc.c ****           the peripherals mapped on these buses. You can use
 168:Drivers/STM32F3xx_HAL_Driver/Src/stm32f3xx_hal_rcc.c ****           "@ref HAL_RCC_GetSysClockFreq()" function to retrieve the frequencies of these clocks.
 169:Drivers/STM32F3xx_HAL_Driver/Src/stm32f3xx_hal_rcc.c **** 
 170:Drivers/STM32F3xx_HAL_Driver/Src/stm32f3xx_hal_rcc.c ****       (#) All the peripheral clocks are derived from the System clock (SYSCLK) except:
 171:Drivers/STM32F3xx_HAL_Driver/Src/stm32f3xx_hal_rcc.c ****         (++) The FLASH program/erase clock  which is always HSI 8MHz clock.
 172:Drivers/STM32F3xx_HAL_Driver/Src/stm32f3xx_hal_rcc.c ****         (++) The USB 48 MHz clock which is derived from the PLL VCO clock.
 173:Drivers/STM32F3xx_HAL_Driver/Src/stm32f3xx_hal_rcc.c ****         (++) The USART clock which can be derived as well from HSI 8MHz, LSI or LSE.
 174:Drivers/STM32F3xx_HAL_Driver/Src/stm32f3xx_hal_rcc.c ****         (++) The I2C clock which can be derived as well from HSI 8MHz clock.
 175:Drivers/STM32F3xx_HAL_Driver/Src/stm32f3xx_hal_rcc.c ****         (++) The ADC clock which is derived from PLL output.
 176:Drivers/STM32F3xx_HAL_Driver/Src/stm32f3xx_hal_rcc.c ****         (++) The RTC clock which is derived from the LSE, LSI or 1 MHz HSE_RTC
 177:Drivers/STM32F3xx_HAL_Driver/Src/stm32f3xx_hal_rcc.c ****              (HSE divided by a programmable prescaler). The System clock (SYSCLK)
 178:Drivers/STM32F3xx_HAL_Driver/Src/stm32f3xx_hal_rcc.c ****              frequency must be higher or equal to the RTC clock frequency.
 179:Drivers/STM32F3xx_HAL_Driver/Src/stm32f3xx_hal_rcc.c ****         (++) IWDG clock which is always the LSI clock.
 180:Drivers/STM32F3xx_HAL_Driver/Src/stm32f3xx_hal_rcc.c **** 
 181:Drivers/STM32F3xx_HAL_Driver/Src/stm32f3xx_hal_rcc.c ****          (#) For the STM32F3xx devices, the maximum frequency of the SYSCLK, HCLK, PCLK1 and PCLK2 
 182:Drivers/STM32F3xx_HAL_Driver/Src/stm32f3xx_hal_rcc.c ****              Depending on the SYSCLK frequency, the flash latency should be adapted accordingly.
 183:Drivers/STM32F3xx_HAL_Driver/Src/stm32f3xx_hal_rcc.c **** 
 184:Drivers/STM32F3xx_HAL_Driver/Src/stm32f3xx_hal_rcc.c ****          (#) After reset, the System clock source is the HSI (8 MHz) with 0 WS and
 185:Drivers/STM32F3xx_HAL_Driver/Src/stm32f3xx_hal_rcc.c ****              prefetch is disabled.
 186:Drivers/STM32F3xx_HAL_Driver/Src/stm32f3xx_hal_rcc.c ****   @endverbatim
 187:Drivers/STM32F3xx_HAL_Driver/Src/stm32f3xx_hal_rcc.c ****   * @{
 188:Drivers/STM32F3xx_HAL_Driver/Src/stm32f3xx_hal_rcc.c ****   */
 189:Drivers/STM32F3xx_HAL_Driver/Src/stm32f3xx_hal_rcc.c ****   
 190:Drivers/STM32F3xx_HAL_Driver/Src/stm32f3xx_hal_rcc.c **** /*
 191:Drivers/STM32F3xx_HAL_Driver/Src/stm32f3xx_hal_rcc.c ****   Additional consideration on the SYSCLK based on Latency settings:
 192:Drivers/STM32F3xx_HAL_Driver/Src/stm32f3xx_hal_rcc.c ****         +-----------------------------------------------+
 193:Drivers/STM32F3xx_HAL_Driver/Src/stm32f3xx_hal_rcc.c ****         | Latency       | SYSCLK clock frequency (MHz)  |
 194:Drivers/STM32F3xx_HAL_Driver/Src/stm32f3xx_hal_rcc.c ****         |---------------|-------------------------------|
 195:Drivers/STM32F3xx_HAL_Driver/Src/stm32f3xx_hal_rcc.c ****         |0WS(1CPU cycle)|       0 < SYSCLK <= 24        |
 196:Drivers/STM32F3xx_HAL_Driver/Src/stm32f3xx_hal_rcc.c ****         |---------------|-------------------------------|
 197:Drivers/STM32F3xx_HAL_Driver/Src/stm32f3xx_hal_rcc.c ****         |1WS(2CPU cycle)|      24 < SYSCLK <= 48        |
 198:Drivers/STM32F3xx_HAL_Driver/Src/stm32f3xx_hal_rcc.c ****         |---------------|-------------------------------|
 199:Drivers/STM32F3xx_HAL_Driver/Src/stm32f3xx_hal_rcc.c ****         |2WS(3CPU cycle)|      48 < SYSCLK <= 72        |
 200:Drivers/STM32F3xx_HAL_Driver/Src/stm32f3xx_hal_rcc.c ****         +-----------------------------------------------+
 201:Drivers/STM32F3xx_HAL_Driver/Src/stm32f3xx_hal_rcc.c ****   */
ARM GAS  /var/folders/jw/jcj5j9_530958b2rm5vp9wn00000gn/T//cceMbtLF.s 			page 5


 202:Drivers/STM32F3xx_HAL_Driver/Src/stm32f3xx_hal_rcc.c **** 
 203:Drivers/STM32F3xx_HAL_Driver/Src/stm32f3xx_hal_rcc.c **** /**
 204:Drivers/STM32F3xx_HAL_Driver/Src/stm32f3xx_hal_rcc.c ****   * @brief  Resets the RCC clock configuration to the default reset state.
 205:Drivers/STM32F3xx_HAL_Driver/Src/stm32f3xx_hal_rcc.c ****   * @note   The default reset state of the clock configuration is given below:
 206:Drivers/STM32F3xx_HAL_Driver/Src/stm32f3xx_hal_rcc.c ****   *            - HSI ON and used as system clock source
 207:Drivers/STM32F3xx_HAL_Driver/Src/stm32f3xx_hal_rcc.c ****   *            - HSE and PLL OFF
 208:Drivers/STM32F3xx_HAL_Driver/Src/stm32f3xx_hal_rcc.c ****   *            - AHB, APB1 and APB2 prescaler set to 1.
 209:Drivers/STM32F3xx_HAL_Driver/Src/stm32f3xx_hal_rcc.c ****   *            - CSS and MCO1 OFF
 210:Drivers/STM32F3xx_HAL_Driver/Src/stm32f3xx_hal_rcc.c ****   *            - All interrupts disabled
 211:Drivers/STM32F3xx_HAL_Driver/Src/stm32f3xx_hal_rcc.c ****   * @note   This function does not modify the configuration of the
 212:Drivers/STM32F3xx_HAL_Driver/Src/stm32f3xx_hal_rcc.c ****   *            - Peripheral clocks
 213:Drivers/STM32F3xx_HAL_Driver/Src/stm32f3xx_hal_rcc.c ****   *            - LSI, LSE and RTC clocks
 214:Drivers/STM32F3xx_HAL_Driver/Src/stm32f3xx_hal_rcc.c ****   * @retval HAL status
 215:Drivers/STM32F3xx_HAL_Driver/Src/stm32f3xx_hal_rcc.c ****   */
 216:Drivers/STM32F3xx_HAL_Driver/Src/stm32f3xx_hal_rcc.c **** HAL_StatusTypeDef HAL_RCC_DeInit(void)
 217:Drivers/STM32F3xx_HAL_Driver/Src/stm32f3xx_hal_rcc.c **** {
  29              		.loc 1 217 1 view -0
  30              		.cfi_startproc
  31              		@ args = 0, pretend = 0, frame = 0
  32              		@ frame_needed = 0, uses_anonymous_args = 0
  33 0000 38B5     		push	{r3, r4, r5, lr}
  34              	.LCFI0:
  35              		.cfi_def_cfa_offset 16
  36              		.cfi_offset 3, -16
  37              		.cfi_offset 4, -12
  38              		.cfi_offset 5, -8
  39              		.cfi_offset 14, -4
 218:Drivers/STM32F3xx_HAL_Driver/Src/stm32f3xx_hal_rcc.c ****   uint32_t tickstart = 0;
  40              		.loc 1 218 3 view .LVU1
  41              	.LVL0:
 219:Drivers/STM32F3xx_HAL_Driver/Src/stm32f3xx_hal_rcc.c **** 
 220:Drivers/STM32F3xx_HAL_Driver/Src/stm32f3xx_hal_rcc.c ****   /* Set HSION bit */
 221:Drivers/STM32F3xx_HAL_Driver/Src/stm32f3xx_hal_rcc.c ****   SET_BIT(RCC->CR, RCC_CR_HSION);
  42              		.loc 1 221 3 view .LVU2
  43 0002 364A     		ldr	r2, .L18
  44 0004 1368     		ldr	r3, [r2]
  45 0006 43F00103 		orr	r3, r3, #1
  46 000a 1360     		str	r3, [r2]
 222:Drivers/STM32F3xx_HAL_Driver/Src/stm32f3xx_hal_rcc.c **** 
 223:Drivers/STM32F3xx_HAL_Driver/Src/stm32f3xx_hal_rcc.c ****   /* Insure HSIRDY bit is set before writing default HSITRIM value */
 224:Drivers/STM32F3xx_HAL_Driver/Src/stm32f3xx_hal_rcc.c ****   /* Get start tick */
 225:Drivers/STM32F3xx_HAL_Driver/Src/stm32f3xx_hal_rcc.c ****   tickstart = HAL_GetTick();
  47              		.loc 1 225 3 view .LVU3
  48              		.loc 1 225 15 is_stmt 0 view .LVU4
  49 000c FFF7FEFF 		bl	HAL_GetTick
  50              	.LVL1:
  51 0010 0446     		mov	r4, r0
  52              	.LVL2:
 226:Drivers/STM32F3xx_HAL_Driver/Src/stm32f3xx_hal_rcc.c **** 
 227:Drivers/STM32F3xx_HAL_Driver/Src/stm32f3xx_hal_rcc.c ****   /* Wait till HSI is ready */
 228:Drivers/STM32F3xx_HAL_Driver/Src/stm32f3xx_hal_rcc.c ****   while(READ_BIT(RCC->CR, RCC_CR_HSIRDY) == RESET)
  53              		.loc 1 228 3 is_stmt 1 view .LVU5
  54              	.L2:
  55              		.loc 1 228 8 view .LVU6
  56              		.loc 1 228 9 is_stmt 0 view .LVU7
  57 0012 324B     		ldr	r3, .L18
  58 0014 1B68     		ldr	r3, [r3]
ARM GAS  /var/folders/jw/jcj5j9_530958b2rm5vp9wn00000gn/T//cceMbtLF.s 			page 6


  59              		.loc 1 228 8 view .LVU8
  60 0016 13F0020F 		tst	r3, #2
  61 001a 07D1     		bne	.L14
 229:Drivers/STM32F3xx_HAL_Driver/Src/stm32f3xx_hal_rcc.c ****   {
 230:Drivers/STM32F3xx_HAL_Driver/Src/stm32f3xx_hal_rcc.c ****     if((HAL_GetTick() - tickstart) > HSI_TIMEOUT_VALUE)
  62              		.loc 1 230 5 is_stmt 1 view .LVU9
  63              		.loc 1 230 9 is_stmt 0 view .LVU10
  64 001c FFF7FEFF 		bl	HAL_GetTick
  65              	.LVL3:
  66              		.loc 1 230 23 view .LVU11
  67 0020 001B     		subs	r0, r0, r4
  68              		.loc 1 230 7 view .LVU12
  69 0022 0228     		cmp	r0, #2
  70 0024 F5D9     		bls	.L2
 231:Drivers/STM32F3xx_HAL_Driver/Src/stm32f3xx_hal_rcc.c ****     {
 232:Drivers/STM32F3xx_HAL_Driver/Src/stm32f3xx_hal_rcc.c ****       return HAL_TIMEOUT;
  71              		.loc 1 232 14 view .LVU13
  72 0026 0324     		movs	r4, #3
  73              	.LVL4:
  74              	.L3:
 233:Drivers/STM32F3xx_HAL_Driver/Src/stm32f3xx_hal_rcc.c ****     }
 234:Drivers/STM32F3xx_HAL_Driver/Src/stm32f3xx_hal_rcc.c ****   }
 235:Drivers/STM32F3xx_HAL_Driver/Src/stm32f3xx_hal_rcc.c **** 
 236:Drivers/STM32F3xx_HAL_Driver/Src/stm32f3xx_hal_rcc.c ****   /* Set HSITRIM default value */
 237:Drivers/STM32F3xx_HAL_Driver/Src/stm32f3xx_hal_rcc.c ****   MODIFY_REG(RCC->CR, RCC_CR_HSITRIM, RCC_CR_HSITRIM_4);
 238:Drivers/STM32F3xx_HAL_Driver/Src/stm32f3xx_hal_rcc.c **** 
 239:Drivers/STM32F3xx_HAL_Driver/Src/stm32f3xx_hal_rcc.c ****   /* Reset SW[1:0], HPRE[3:0], PPRE1[2:0], PPRE2[2:0] and MCOSEL[2:0] bits */
 240:Drivers/STM32F3xx_HAL_Driver/Src/stm32f3xx_hal_rcc.c ****   CLEAR_BIT(RCC->CFGR, RCC_CFGR_SW | RCC_CFGR_HPRE | RCC_CFGR_PPRE1 | RCC_CFGR_PPRE2 | RCC_CFGR_MCO
 241:Drivers/STM32F3xx_HAL_Driver/Src/stm32f3xx_hal_rcc.c **** 
 242:Drivers/STM32F3xx_HAL_Driver/Src/stm32f3xx_hal_rcc.c ****   /* Insure HSI selected as system clock source */
 243:Drivers/STM32F3xx_HAL_Driver/Src/stm32f3xx_hal_rcc.c ****   /* Get start tick */
 244:Drivers/STM32F3xx_HAL_Driver/Src/stm32f3xx_hal_rcc.c ****   tickstart = HAL_GetTick();
 245:Drivers/STM32F3xx_HAL_Driver/Src/stm32f3xx_hal_rcc.c **** 
 246:Drivers/STM32F3xx_HAL_Driver/Src/stm32f3xx_hal_rcc.c ****   /* Wait till system clock source is ready */
 247:Drivers/STM32F3xx_HAL_Driver/Src/stm32f3xx_hal_rcc.c ****   while(READ_BIT(RCC->CFGR, RCC_CFGR_SWS) != RCC_CFGR_SWS_HSI)
 248:Drivers/STM32F3xx_HAL_Driver/Src/stm32f3xx_hal_rcc.c ****   {
 249:Drivers/STM32F3xx_HAL_Driver/Src/stm32f3xx_hal_rcc.c ****     if((HAL_GetTick() - tickstart) > CLOCKSWITCH_TIMEOUT_VALUE)
 250:Drivers/STM32F3xx_HAL_Driver/Src/stm32f3xx_hal_rcc.c ****     {
 251:Drivers/STM32F3xx_HAL_Driver/Src/stm32f3xx_hal_rcc.c ****       return HAL_TIMEOUT;
 252:Drivers/STM32F3xx_HAL_Driver/Src/stm32f3xx_hal_rcc.c ****     }
 253:Drivers/STM32F3xx_HAL_Driver/Src/stm32f3xx_hal_rcc.c ****   }
 254:Drivers/STM32F3xx_HAL_Driver/Src/stm32f3xx_hal_rcc.c **** 
 255:Drivers/STM32F3xx_HAL_Driver/Src/stm32f3xx_hal_rcc.c ****   /* Update the SystemCoreClock global variable for HSI as system clock source */
 256:Drivers/STM32F3xx_HAL_Driver/Src/stm32f3xx_hal_rcc.c ****   SystemCoreClock = HSI_VALUE;
 257:Drivers/STM32F3xx_HAL_Driver/Src/stm32f3xx_hal_rcc.c **** 
 258:Drivers/STM32F3xx_HAL_Driver/Src/stm32f3xx_hal_rcc.c ****   /* Configure the source of time base considering new system clock settings  */
 259:Drivers/STM32F3xx_HAL_Driver/Src/stm32f3xx_hal_rcc.c ****   if(HAL_InitTick(uwTickPrio) != HAL_OK)
 260:Drivers/STM32F3xx_HAL_Driver/Src/stm32f3xx_hal_rcc.c ****   {
 261:Drivers/STM32F3xx_HAL_Driver/Src/stm32f3xx_hal_rcc.c ****     return HAL_ERROR;
 262:Drivers/STM32F3xx_HAL_Driver/Src/stm32f3xx_hal_rcc.c ****   }
 263:Drivers/STM32F3xx_HAL_Driver/Src/stm32f3xx_hal_rcc.c **** 
 264:Drivers/STM32F3xx_HAL_Driver/Src/stm32f3xx_hal_rcc.c ****   /* Reset HSEON, CSSON, PLLON bits */
 265:Drivers/STM32F3xx_HAL_Driver/Src/stm32f3xx_hal_rcc.c ****   CLEAR_BIT(RCC->CR, RCC_CR_PLLON | RCC_CR_CSSON | RCC_CR_HSEON);
 266:Drivers/STM32F3xx_HAL_Driver/Src/stm32f3xx_hal_rcc.c **** 
 267:Drivers/STM32F3xx_HAL_Driver/Src/stm32f3xx_hal_rcc.c ****   /* Reset HSEBYP bit */
 268:Drivers/STM32F3xx_HAL_Driver/Src/stm32f3xx_hal_rcc.c ****   CLEAR_BIT(RCC->CR, RCC_CR_HSEBYP);
 269:Drivers/STM32F3xx_HAL_Driver/Src/stm32f3xx_hal_rcc.c **** 
ARM GAS  /var/folders/jw/jcj5j9_530958b2rm5vp9wn00000gn/T//cceMbtLF.s 			page 7


 270:Drivers/STM32F3xx_HAL_Driver/Src/stm32f3xx_hal_rcc.c ****   /* Insure PLLRDY is reset */
 271:Drivers/STM32F3xx_HAL_Driver/Src/stm32f3xx_hal_rcc.c ****   /* Get start tick */
 272:Drivers/STM32F3xx_HAL_Driver/Src/stm32f3xx_hal_rcc.c ****   tickstart = HAL_GetTick();
 273:Drivers/STM32F3xx_HAL_Driver/Src/stm32f3xx_hal_rcc.c ****   while(READ_BIT(RCC->CR, RCC_CR_PLLRDY) != 0U)
 274:Drivers/STM32F3xx_HAL_Driver/Src/stm32f3xx_hal_rcc.c ****   {
 275:Drivers/STM32F3xx_HAL_Driver/Src/stm32f3xx_hal_rcc.c ****     if((HAL_GetTick() - tickstart) > PLL_TIMEOUT_VALUE)
 276:Drivers/STM32F3xx_HAL_Driver/Src/stm32f3xx_hal_rcc.c ****     {
 277:Drivers/STM32F3xx_HAL_Driver/Src/stm32f3xx_hal_rcc.c ****       return HAL_TIMEOUT;
 278:Drivers/STM32F3xx_HAL_Driver/Src/stm32f3xx_hal_rcc.c ****     }
 279:Drivers/STM32F3xx_HAL_Driver/Src/stm32f3xx_hal_rcc.c ****   }
 280:Drivers/STM32F3xx_HAL_Driver/Src/stm32f3xx_hal_rcc.c **** 
 281:Drivers/STM32F3xx_HAL_Driver/Src/stm32f3xx_hal_rcc.c ****   /* Reset CFGR register */
 282:Drivers/STM32F3xx_HAL_Driver/Src/stm32f3xx_hal_rcc.c ****   CLEAR_REG(RCC->CFGR);
 283:Drivers/STM32F3xx_HAL_Driver/Src/stm32f3xx_hal_rcc.c **** 
 284:Drivers/STM32F3xx_HAL_Driver/Src/stm32f3xx_hal_rcc.c ****   /* Reset CFGR2 register */
 285:Drivers/STM32F3xx_HAL_Driver/Src/stm32f3xx_hal_rcc.c ****   CLEAR_REG(RCC->CFGR2);
 286:Drivers/STM32F3xx_HAL_Driver/Src/stm32f3xx_hal_rcc.c **** 
 287:Drivers/STM32F3xx_HAL_Driver/Src/stm32f3xx_hal_rcc.c ****   /* Reset CFGR3 register */
 288:Drivers/STM32F3xx_HAL_Driver/Src/stm32f3xx_hal_rcc.c ****   CLEAR_REG(RCC->CFGR3);
 289:Drivers/STM32F3xx_HAL_Driver/Src/stm32f3xx_hal_rcc.c **** 
 290:Drivers/STM32F3xx_HAL_Driver/Src/stm32f3xx_hal_rcc.c ****   /* Clear all interrupt flags */
 291:Drivers/STM32F3xx_HAL_Driver/Src/stm32f3xx_hal_rcc.c ****   SET_BIT(RCC->CIR, RCC_CIR_LSIRDYC | RCC_CIR_LSERDYC | RCC_CIR_HSIRDYC | RCC_CIR_HSERDYC | RCC_CIR
 292:Drivers/STM32F3xx_HAL_Driver/Src/stm32f3xx_hal_rcc.c **** 
 293:Drivers/STM32F3xx_HAL_Driver/Src/stm32f3xx_hal_rcc.c ****   /* Disable all interrupts */
 294:Drivers/STM32F3xx_HAL_Driver/Src/stm32f3xx_hal_rcc.c ****   CLEAR_REG(RCC->CIR);
 295:Drivers/STM32F3xx_HAL_Driver/Src/stm32f3xx_hal_rcc.c **** 
 296:Drivers/STM32F3xx_HAL_Driver/Src/stm32f3xx_hal_rcc.c ****   /* Reset all CSR flags */
 297:Drivers/STM32F3xx_HAL_Driver/Src/stm32f3xx_hal_rcc.c ****   __HAL_RCC_CLEAR_RESET_FLAGS();
 298:Drivers/STM32F3xx_HAL_Driver/Src/stm32f3xx_hal_rcc.c **** 
 299:Drivers/STM32F3xx_HAL_Driver/Src/stm32f3xx_hal_rcc.c ****   return HAL_OK;
 300:Drivers/STM32F3xx_HAL_Driver/Src/stm32f3xx_hal_rcc.c **** }
  75              		.loc 1 300 1 view .LVU14
  76 0028 2046     		mov	r0, r4
  77 002a 38BD     		pop	{r3, r4, r5, pc}
  78              	.LVL5:
  79              	.L14:
 237:Drivers/STM32F3xx_HAL_Driver/Src/stm32f3xx_hal_rcc.c **** 
  80              		.loc 1 237 3 is_stmt 1 view .LVU15
  81 002c 2B4A     		ldr	r2, .L18
  82 002e 1368     		ldr	r3, [r2]
  83 0030 23F0F803 		bic	r3, r3, #248
  84 0034 43F08003 		orr	r3, r3, #128
  85 0038 1360     		str	r3, [r2]
 240:Drivers/STM32F3xx_HAL_Driver/Src/stm32f3xx_hal_rcc.c **** 
  86              		.loc 1 240 3 view .LVU16
  87 003a 5168     		ldr	r1, [r2, #4]
  88 003c 284B     		ldr	r3, .L18+4
  89 003e 0B40     		ands	r3, r3, r1
  90 0040 5360     		str	r3, [r2, #4]
 244:Drivers/STM32F3xx_HAL_Driver/Src/stm32f3xx_hal_rcc.c **** 
  91              		.loc 1 244 3 view .LVU17
 244:Drivers/STM32F3xx_HAL_Driver/Src/stm32f3xx_hal_rcc.c **** 
  92              		.loc 1 244 15 is_stmt 0 view .LVU18
  93 0042 FFF7FEFF 		bl	HAL_GetTick
  94              	.LVL6:
  95 0046 0446     		mov	r4, r0
  96              	.LVL7:
ARM GAS  /var/folders/jw/jcj5j9_530958b2rm5vp9wn00000gn/T//cceMbtLF.s 			page 8


 247:Drivers/STM32F3xx_HAL_Driver/Src/stm32f3xx_hal_rcc.c ****   {
  97              		.loc 1 247 3 is_stmt 1 view .LVU19
  98              	.L5:
 247:Drivers/STM32F3xx_HAL_Driver/Src/stm32f3xx_hal_rcc.c ****   {
  99              		.loc 1 247 8 view .LVU20
 247:Drivers/STM32F3xx_HAL_Driver/Src/stm32f3xx_hal_rcc.c ****   {
 100              		.loc 1 247 9 is_stmt 0 view .LVU21
 101 0048 244B     		ldr	r3, .L18
 102 004a 5B68     		ldr	r3, [r3, #4]
 247:Drivers/STM32F3xx_HAL_Driver/Src/stm32f3xx_hal_rcc.c ****   {
 103              		.loc 1 247 8 view .LVU22
 104 004c 13F00C0F 		tst	r3, #12
 105 0050 08D0     		beq	.L15
 249:Drivers/STM32F3xx_HAL_Driver/Src/stm32f3xx_hal_rcc.c ****     {
 106              		.loc 1 249 5 is_stmt 1 view .LVU23
 249:Drivers/STM32F3xx_HAL_Driver/Src/stm32f3xx_hal_rcc.c ****     {
 107              		.loc 1 249 9 is_stmt 0 view .LVU24
 108 0052 FFF7FEFF 		bl	HAL_GetTick
 109              	.LVL8:
 249:Drivers/STM32F3xx_HAL_Driver/Src/stm32f3xx_hal_rcc.c ****     {
 110              		.loc 1 249 23 view .LVU25
 111 0056 001B     		subs	r0, r0, r4
 249:Drivers/STM32F3xx_HAL_Driver/Src/stm32f3xx_hal_rcc.c ****     {
 112              		.loc 1 249 7 view .LVU26
 113 0058 41F28833 		movw	r3, #5000
 114 005c 9842     		cmp	r0, r3
 115 005e F3D9     		bls	.L5
 251:Drivers/STM32F3xx_HAL_Driver/Src/stm32f3xx_hal_rcc.c ****     }
 116              		.loc 1 251 14 view .LVU27
 117 0060 0324     		movs	r4, #3
 118              	.LVL9:
 251:Drivers/STM32F3xx_HAL_Driver/Src/stm32f3xx_hal_rcc.c ****     }
 119              		.loc 1 251 14 view .LVU28
 120 0062 E1E7     		b	.L3
 121              	.LVL10:
 122              	.L15:
 256:Drivers/STM32F3xx_HAL_Driver/Src/stm32f3xx_hal_rcc.c **** 
 123              		.loc 1 256 3 is_stmt 1 view .LVU29
 256:Drivers/STM32F3xx_HAL_Driver/Src/stm32f3xx_hal_rcc.c **** 
 124              		.loc 1 256 19 is_stmt 0 view .LVU30
 125 0064 1F4B     		ldr	r3, .L18+8
 126 0066 204A     		ldr	r2, .L18+12
 127 0068 1A60     		str	r2, [r3]
 259:Drivers/STM32F3xx_HAL_Driver/Src/stm32f3xx_hal_rcc.c ****   {
 128              		.loc 1 259 3 is_stmt 1 view .LVU31
 259:Drivers/STM32F3xx_HAL_Driver/Src/stm32f3xx_hal_rcc.c ****   {
 129              		.loc 1 259 6 is_stmt 0 view .LVU32
 130 006a 204B     		ldr	r3, .L18+16
 131 006c 1868     		ldr	r0, [r3]
 132 006e FFF7FEFF 		bl	HAL_InitTick
 133              	.LVL11:
 259:Drivers/STM32F3xx_HAL_Driver/Src/stm32f3xx_hal_rcc.c ****   {
 134              		.loc 1 259 5 view .LVU33
 135 0072 0446     		mov	r4, r0
 136              	.LVL12:
 259:Drivers/STM32F3xx_HAL_Driver/Src/stm32f3xx_hal_rcc.c ****   {
 137              		.loc 1 259 5 view .LVU34
ARM GAS  /var/folders/jw/jcj5j9_530958b2rm5vp9wn00000gn/T//cceMbtLF.s 			page 9


 138 0074 08B1     		cbz	r0, .L16
 261:Drivers/STM32F3xx_HAL_Driver/Src/stm32f3xx_hal_rcc.c ****   }
 139              		.loc 1 261 12 view .LVU35
 140 0076 0124     		movs	r4, #1
 141 0078 D6E7     		b	.L3
 142              	.L16:
 265:Drivers/STM32F3xx_HAL_Driver/Src/stm32f3xx_hal_rcc.c **** 
 143              		.loc 1 265 3 is_stmt 1 view .LVU36
 144 007a 184A     		ldr	r2, .L18
 145 007c 1368     		ldr	r3, [r2]
 146 007e 23F08473 		bic	r3, r3, #17301504
 147 0082 23F48033 		bic	r3, r3, #65536
 148 0086 1360     		str	r3, [r2]
 268:Drivers/STM32F3xx_HAL_Driver/Src/stm32f3xx_hal_rcc.c **** 
 149              		.loc 1 268 3 view .LVU37
 150 0088 1368     		ldr	r3, [r2]
 151 008a 23F48023 		bic	r3, r3, #262144
 152 008e 1360     		str	r3, [r2]
 272:Drivers/STM32F3xx_HAL_Driver/Src/stm32f3xx_hal_rcc.c ****   while(READ_BIT(RCC->CR, RCC_CR_PLLRDY) != 0U)
 153              		.loc 1 272 3 view .LVU38
 272:Drivers/STM32F3xx_HAL_Driver/Src/stm32f3xx_hal_rcc.c ****   while(READ_BIT(RCC->CR, RCC_CR_PLLRDY) != 0U)
 154              		.loc 1 272 15 is_stmt 0 view .LVU39
 155 0090 FFF7FEFF 		bl	HAL_GetTick
 156              	.LVL13:
 157 0094 0546     		mov	r5, r0
 158              	.LVL14:
 273:Drivers/STM32F3xx_HAL_Driver/Src/stm32f3xx_hal_rcc.c ****   {
 159              		.loc 1 273 3 is_stmt 1 view .LVU40
 160              	.L7:
 273:Drivers/STM32F3xx_HAL_Driver/Src/stm32f3xx_hal_rcc.c ****   {
 161              		.loc 1 273 8 view .LVU41
 273:Drivers/STM32F3xx_HAL_Driver/Src/stm32f3xx_hal_rcc.c ****   {
 162              		.loc 1 273 9 is_stmt 0 view .LVU42
 163 0096 114B     		ldr	r3, .L18
 164 0098 1B68     		ldr	r3, [r3]
 273:Drivers/STM32F3xx_HAL_Driver/Src/stm32f3xx_hal_rcc.c ****   {
 165              		.loc 1 273 8 view .LVU43
 166 009a 13F0007F 		tst	r3, #33554432
 167 009e 06D0     		beq	.L17
 275:Drivers/STM32F3xx_HAL_Driver/Src/stm32f3xx_hal_rcc.c ****     {
 168              		.loc 1 275 5 is_stmt 1 view .LVU44
 275:Drivers/STM32F3xx_HAL_Driver/Src/stm32f3xx_hal_rcc.c ****     {
 169              		.loc 1 275 9 is_stmt 0 view .LVU45
 170 00a0 FFF7FEFF 		bl	HAL_GetTick
 171              	.LVL15:
 275:Drivers/STM32F3xx_HAL_Driver/Src/stm32f3xx_hal_rcc.c ****     {
 172              		.loc 1 275 23 view .LVU46
 173 00a4 401B     		subs	r0, r0, r5
 275:Drivers/STM32F3xx_HAL_Driver/Src/stm32f3xx_hal_rcc.c ****     {
 174              		.loc 1 275 7 view .LVU47
 175 00a6 0228     		cmp	r0, #2
 176 00a8 F5D9     		bls	.L7
 277:Drivers/STM32F3xx_HAL_Driver/Src/stm32f3xx_hal_rcc.c ****     }
 177              		.loc 1 277 14 view .LVU48
 178 00aa 0324     		movs	r4, #3
 179 00ac BCE7     		b	.L3
 180              	.L17:
ARM GAS  /var/folders/jw/jcj5j9_530958b2rm5vp9wn00000gn/T//cceMbtLF.s 			page 10


 282:Drivers/STM32F3xx_HAL_Driver/Src/stm32f3xx_hal_rcc.c **** 
 181              		.loc 1 282 3 is_stmt 1 view .LVU49
 182 00ae 0B4B     		ldr	r3, .L18
 183 00b0 0022     		movs	r2, #0
 184 00b2 5A60     		str	r2, [r3, #4]
 285:Drivers/STM32F3xx_HAL_Driver/Src/stm32f3xx_hal_rcc.c **** 
 185              		.loc 1 285 3 view .LVU50
 186 00b4 DA62     		str	r2, [r3, #44]
 288:Drivers/STM32F3xx_HAL_Driver/Src/stm32f3xx_hal_rcc.c **** 
 187              		.loc 1 288 3 view .LVU51
 188 00b6 1A63     		str	r2, [r3, #48]
 291:Drivers/STM32F3xx_HAL_Driver/Src/stm32f3xx_hal_rcc.c **** 
 189              		.loc 1 291 3 view .LVU52
 190 00b8 9968     		ldr	r1, [r3, #8]
 191 00ba 41F41F01 		orr	r1, r1, #10420224
 192 00be 9960     		str	r1, [r3, #8]
 294:Drivers/STM32F3xx_HAL_Driver/Src/stm32f3xx_hal_rcc.c **** 
 193              		.loc 1 294 3 view .LVU53
 194 00c0 9A60     		str	r2, [r3, #8]
 297:Drivers/STM32F3xx_HAL_Driver/Src/stm32f3xx_hal_rcc.c **** 
 195              		.loc 1 297 3 view .LVU54
 196              	.LVL16:
 197              	.LBB168:
 198              	.LBI168:
 199              		.file 2 "Drivers/CMSIS/Include/cmsis_gcc.h"
   1:Drivers/CMSIS/Include/cmsis_gcc.h **** /**************************************************************************//**
   2:Drivers/CMSIS/Include/cmsis_gcc.h ****  * @file     cmsis_gcc.h
   3:Drivers/CMSIS/Include/cmsis_gcc.h ****  * @brief    CMSIS compiler GCC header file
   4:Drivers/CMSIS/Include/cmsis_gcc.h ****  * @version  V5.0.4
   5:Drivers/CMSIS/Include/cmsis_gcc.h ****  * @date     09. April 2018
   6:Drivers/CMSIS/Include/cmsis_gcc.h ****  ******************************************************************************/
   7:Drivers/CMSIS/Include/cmsis_gcc.h **** /*
   8:Drivers/CMSIS/Include/cmsis_gcc.h ****  * Copyright (c) 2009-2018 Arm Limited. All rights reserved.
   9:Drivers/CMSIS/Include/cmsis_gcc.h ****  *
  10:Drivers/CMSIS/Include/cmsis_gcc.h ****  * SPDX-License-Identifier: Apache-2.0
  11:Drivers/CMSIS/Include/cmsis_gcc.h ****  *
  12:Drivers/CMSIS/Include/cmsis_gcc.h ****  * Licensed under the Apache License, Version 2.0 (the License); you may
  13:Drivers/CMSIS/Include/cmsis_gcc.h ****  * not use this file except in compliance with the License.
  14:Drivers/CMSIS/Include/cmsis_gcc.h ****  * You may obtain a copy of the License at
  15:Drivers/CMSIS/Include/cmsis_gcc.h ****  *
  16:Drivers/CMSIS/Include/cmsis_gcc.h ****  * www.apache.org/licenses/LICENSE-2.0
  17:Drivers/CMSIS/Include/cmsis_gcc.h ****  *
  18:Drivers/CMSIS/Include/cmsis_gcc.h ****  * Unless required by applicable law or agreed to in writing, software
  19:Drivers/CMSIS/Include/cmsis_gcc.h ****  * distributed under the License is distributed on an AS IS BASIS, WITHOUT
  20:Drivers/CMSIS/Include/cmsis_gcc.h ****  * WARRANTIES OR CONDITIONS OF ANY KIND, either express or implied.
  21:Drivers/CMSIS/Include/cmsis_gcc.h ****  * See the License for the specific language governing permissions and
  22:Drivers/CMSIS/Include/cmsis_gcc.h ****  * limitations under the License.
  23:Drivers/CMSIS/Include/cmsis_gcc.h ****  */
  24:Drivers/CMSIS/Include/cmsis_gcc.h **** 
  25:Drivers/CMSIS/Include/cmsis_gcc.h **** #ifndef __CMSIS_GCC_H
  26:Drivers/CMSIS/Include/cmsis_gcc.h **** #define __CMSIS_GCC_H
  27:Drivers/CMSIS/Include/cmsis_gcc.h **** 
  28:Drivers/CMSIS/Include/cmsis_gcc.h **** /* ignore some GCC warnings */
  29:Drivers/CMSIS/Include/cmsis_gcc.h **** #pragma GCC diagnostic push
  30:Drivers/CMSIS/Include/cmsis_gcc.h **** #pragma GCC diagnostic ignored "-Wsign-conversion"
  31:Drivers/CMSIS/Include/cmsis_gcc.h **** #pragma GCC diagnostic ignored "-Wconversion"
  32:Drivers/CMSIS/Include/cmsis_gcc.h **** #pragma GCC diagnostic ignored "-Wunused-parameter"
ARM GAS  /var/folders/jw/jcj5j9_530958b2rm5vp9wn00000gn/T//cceMbtLF.s 			page 11


  33:Drivers/CMSIS/Include/cmsis_gcc.h **** 
  34:Drivers/CMSIS/Include/cmsis_gcc.h **** /* Fallback for __has_builtin */
  35:Drivers/CMSIS/Include/cmsis_gcc.h **** #ifndef __has_builtin
  36:Drivers/CMSIS/Include/cmsis_gcc.h ****   #define __has_builtin(x) (0)
  37:Drivers/CMSIS/Include/cmsis_gcc.h **** #endif
  38:Drivers/CMSIS/Include/cmsis_gcc.h **** 
  39:Drivers/CMSIS/Include/cmsis_gcc.h **** /* CMSIS compiler specific defines */
  40:Drivers/CMSIS/Include/cmsis_gcc.h **** #ifndef   __ASM
  41:Drivers/CMSIS/Include/cmsis_gcc.h ****   #define __ASM                                  __asm
  42:Drivers/CMSIS/Include/cmsis_gcc.h **** #endif
  43:Drivers/CMSIS/Include/cmsis_gcc.h **** #ifndef   __INLINE
  44:Drivers/CMSIS/Include/cmsis_gcc.h ****   #define __INLINE                               inline
  45:Drivers/CMSIS/Include/cmsis_gcc.h **** #endif
  46:Drivers/CMSIS/Include/cmsis_gcc.h **** #ifndef   __STATIC_INLINE
  47:Drivers/CMSIS/Include/cmsis_gcc.h ****   #define __STATIC_INLINE                        static inline
  48:Drivers/CMSIS/Include/cmsis_gcc.h **** #endif
  49:Drivers/CMSIS/Include/cmsis_gcc.h **** #ifndef   __STATIC_FORCEINLINE                 
  50:Drivers/CMSIS/Include/cmsis_gcc.h ****   #define __STATIC_FORCEINLINE                   __attribute__((always_inline)) static inline
  51:Drivers/CMSIS/Include/cmsis_gcc.h **** #endif                                           
  52:Drivers/CMSIS/Include/cmsis_gcc.h **** #ifndef   __NO_RETURN
  53:Drivers/CMSIS/Include/cmsis_gcc.h ****   #define __NO_RETURN                            __attribute__((__noreturn__))
  54:Drivers/CMSIS/Include/cmsis_gcc.h **** #endif
  55:Drivers/CMSIS/Include/cmsis_gcc.h **** #ifndef   __USED
  56:Drivers/CMSIS/Include/cmsis_gcc.h ****   #define __USED                                 __attribute__((used))
  57:Drivers/CMSIS/Include/cmsis_gcc.h **** #endif
  58:Drivers/CMSIS/Include/cmsis_gcc.h **** #ifndef   __WEAK
  59:Drivers/CMSIS/Include/cmsis_gcc.h ****   #define __WEAK                                 __attribute__((weak))
  60:Drivers/CMSIS/Include/cmsis_gcc.h **** #endif
  61:Drivers/CMSIS/Include/cmsis_gcc.h **** #ifndef   __PACKED
  62:Drivers/CMSIS/Include/cmsis_gcc.h ****   #define __PACKED                               __attribute__((packed, aligned(1)))
  63:Drivers/CMSIS/Include/cmsis_gcc.h **** #endif
  64:Drivers/CMSIS/Include/cmsis_gcc.h **** #ifndef   __PACKED_STRUCT
  65:Drivers/CMSIS/Include/cmsis_gcc.h ****   #define __PACKED_STRUCT                        struct __attribute__((packed, aligned(1)))
  66:Drivers/CMSIS/Include/cmsis_gcc.h **** #endif
  67:Drivers/CMSIS/Include/cmsis_gcc.h **** #ifndef   __PACKED_UNION
  68:Drivers/CMSIS/Include/cmsis_gcc.h ****   #define __PACKED_UNION                         union __attribute__((packed, aligned(1)))
  69:Drivers/CMSIS/Include/cmsis_gcc.h **** #endif
  70:Drivers/CMSIS/Include/cmsis_gcc.h **** #ifndef   __UNALIGNED_UINT32        /* deprecated */
  71:Drivers/CMSIS/Include/cmsis_gcc.h ****   #pragma GCC diagnostic push
  72:Drivers/CMSIS/Include/cmsis_gcc.h ****   #pragma GCC diagnostic ignored "-Wpacked"
  73:Drivers/CMSIS/Include/cmsis_gcc.h ****   #pragma GCC diagnostic ignored "-Wattributes"
  74:Drivers/CMSIS/Include/cmsis_gcc.h ****   struct __attribute__((packed)) T_UINT32 { uint32_t v; };
  75:Drivers/CMSIS/Include/cmsis_gcc.h ****   #pragma GCC diagnostic pop
  76:Drivers/CMSIS/Include/cmsis_gcc.h ****   #define __UNALIGNED_UINT32(x)                  (((struct T_UINT32 *)(x))->v)
  77:Drivers/CMSIS/Include/cmsis_gcc.h **** #endif
  78:Drivers/CMSIS/Include/cmsis_gcc.h **** #ifndef   __UNALIGNED_UINT16_WRITE
  79:Drivers/CMSIS/Include/cmsis_gcc.h ****   #pragma GCC diagnostic push
  80:Drivers/CMSIS/Include/cmsis_gcc.h ****   #pragma GCC diagnostic ignored "-Wpacked"
  81:Drivers/CMSIS/Include/cmsis_gcc.h ****   #pragma GCC diagnostic ignored "-Wattributes"
  82:Drivers/CMSIS/Include/cmsis_gcc.h ****   __PACKED_STRUCT T_UINT16_WRITE { uint16_t v; };
  83:Drivers/CMSIS/Include/cmsis_gcc.h ****   #pragma GCC diagnostic pop
  84:Drivers/CMSIS/Include/cmsis_gcc.h ****   #define __UNALIGNED_UINT16_WRITE(addr, val)    (void)((((struct T_UINT16_WRITE *)(void *)(addr))-
  85:Drivers/CMSIS/Include/cmsis_gcc.h **** #endif
  86:Drivers/CMSIS/Include/cmsis_gcc.h **** #ifndef   __UNALIGNED_UINT16_READ
  87:Drivers/CMSIS/Include/cmsis_gcc.h ****   #pragma GCC diagnostic push
  88:Drivers/CMSIS/Include/cmsis_gcc.h ****   #pragma GCC diagnostic ignored "-Wpacked"
  89:Drivers/CMSIS/Include/cmsis_gcc.h ****   #pragma GCC diagnostic ignored "-Wattributes"
ARM GAS  /var/folders/jw/jcj5j9_530958b2rm5vp9wn00000gn/T//cceMbtLF.s 			page 12


  90:Drivers/CMSIS/Include/cmsis_gcc.h ****   __PACKED_STRUCT T_UINT16_READ { uint16_t v; };
  91:Drivers/CMSIS/Include/cmsis_gcc.h ****   #pragma GCC diagnostic pop
  92:Drivers/CMSIS/Include/cmsis_gcc.h ****   #define __UNALIGNED_UINT16_READ(addr)          (((const struct T_UINT16_READ *)(const void *)(add
  93:Drivers/CMSIS/Include/cmsis_gcc.h **** #endif
  94:Drivers/CMSIS/Include/cmsis_gcc.h **** #ifndef   __UNALIGNED_UINT32_WRITE
  95:Drivers/CMSIS/Include/cmsis_gcc.h ****   #pragma GCC diagnostic push
  96:Drivers/CMSIS/Include/cmsis_gcc.h ****   #pragma GCC diagnostic ignored "-Wpacked"
  97:Drivers/CMSIS/Include/cmsis_gcc.h ****   #pragma GCC diagnostic ignored "-Wattributes"
  98:Drivers/CMSIS/Include/cmsis_gcc.h ****   __PACKED_STRUCT T_UINT32_WRITE { uint32_t v; };
  99:Drivers/CMSIS/Include/cmsis_gcc.h ****   #pragma GCC diagnostic pop
 100:Drivers/CMSIS/Include/cmsis_gcc.h ****   #define __UNALIGNED_UINT32_WRITE(addr, val)    (void)((((struct T_UINT32_WRITE *)(void *)(addr))-
 101:Drivers/CMSIS/Include/cmsis_gcc.h **** #endif
 102:Drivers/CMSIS/Include/cmsis_gcc.h **** #ifndef   __UNALIGNED_UINT32_READ
 103:Drivers/CMSIS/Include/cmsis_gcc.h ****   #pragma GCC diagnostic push
 104:Drivers/CMSIS/Include/cmsis_gcc.h ****   #pragma GCC diagnostic ignored "-Wpacked"
 105:Drivers/CMSIS/Include/cmsis_gcc.h ****   #pragma GCC diagnostic ignored "-Wattributes"
 106:Drivers/CMSIS/Include/cmsis_gcc.h ****   __PACKED_STRUCT T_UINT32_READ { uint32_t v; };
 107:Drivers/CMSIS/Include/cmsis_gcc.h ****   #pragma GCC diagnostic pop
 108:Drivers/CMSIS/Include/cmsis_gcc.h ****   #define __UNALIGNED_UINT32_READ(addr)          (((const struct T_UINT32_READ *)(const void *)(add
 109:Drivers/CMSIS/Include/cmsis_gcc.h **** #endif
 110:Drivers/CMSIS/Include/cmsis_gcc.h **** #ifndef   __ALIGNED
 111:Drivers/CMSIS/Include/cmsis_gcc.h ****   #define __ALIGNED(x)                           __attribute__((aligned(x)))
 112:Drivers/CMSIS/Include/cmsis_gcc.h **** #endif
 113:Drivers/CMSIS/Include/cmsis_gcc.h **** #ifndef   __RESTRICT
 114:Drivers/CMSIS/Include/cmsis_gcc.h ****   #define __RESTRICT                             __restrict
 115:Drivers/CMSIS/Include/cmsis_gcc.h **** #endif
 116:Drivers/CMSIS/Include/cmsis_gcc.h **** 
 117:Drivers/CMSIS/Include/cmsis_gcc.h **** 
 118:Drivers/CMSIS/Include/cmsis_gcc.h **** /* ###########################  Core Function Access  ########################### */
 119:Drivers/CMSIS/Include/cmsis_gcc.h **** /** \ingroup  CMSIS_Core_FunctionInterface
 120:Drivers/CMSIS/Include/cmsis_gcc.h ****     \defgroup CMSIS_Core_RegAccFunctions CMSIS Core Register Access Functions
 121:Drivers/CMSIS/Include/cmsis_gcc.h ****   @{
 122:Drivers/CMSIS/Include/cmsis_gcc.h ****  */
 123:Drivers/CMSIS/Include/cmsis_gcc.h **** 
 124:Drivers/CMSIS/Include/cmsis_gcc.h **** /**
 125:Drivers/CMSIS/Include/cmsis_gcc.h ****   \brief   Enable IRQ Interrupts
 126:Drivers/CMSIS/Include/cmsis_gcc.h ****   \details Enables IRQ interrupts by clearing the I-bit in the CPSR.
 127:Drivers/CMSIS/Include/cmsis_gcc.h ****            Can only be executed in Privileged modes.
 128:Drivers/CMSIS/Include/cmsis_gcc.h ****  */
 129:Drivers/CMSIS/Include/cmsis_gcc.h **** __STATIC_FORCEINLINE void __enable_irq(void)
 130:Drivers/CMSIS/Include/cmsis_gcc.h **** {
 131:Drivers/CMSIS/Include/cmsis_gcc.h ****   __ASM volatile ("cpsie i" : : : "memory");
 132:Drivers/CMSIS/Include/cmsis_gcc.h **** }
 133:Drivers/CMSIS/Include/cmsis_gcc.h **** 
 134:Drivers/CMSIS/Include/cmsis_gcc.h **** 
 135:Drivers/CMSIS/Include/cmsis_gcc.h **** /**
 136:Drivers/CMSIS/Include/cmsis_gcc.h ****   \brief   Disable IRQ Interrupts
 137:Drivers/CMSIS/Include/cmsis_gcc.h ****   \details Disables IRQ interrupts by setting the I-bit in the CPSR.
 138:Drivers/CMSIS/Include/cmsis_gcc.h ****            Can only be executed in Privileged modes.
 139:Drivers/CMSIS/Include/cmsis_gcc.h ****  */
 140:Drivers/CMSIS/Include/cmsis_gcc.h **** __STATIC_FORCEINLINE void __disable_irq(void)
 141:Drivers/CMSIS/Include/cmsis_gcc.h **** {
 142:Drivers/CMSIS/Include/cmsis_gcc.h ****   __ASM volatile ("cpsid i" : : : "memory");
 143:Drivers/CMSIS/Include/cmsis_gcc.h **** }
 144:Drivers/CMSIS/Include/cmsis_gcc.h **** 
 145:Drivers/CMSIS/Include/cmsis_gcc.h **** 
 146:Drivers/CMSIS/Include/cmsis_gcc.h **** /**
ARM GAS  /var/folders/jw/jcj5j9_530958b2rm5vp9wn00000gn/T//cceMbtLF.s 			page 13


 147:Drivers/CMSIS/Include/cmsis_gcc.h ****   \brief   Get Control Register
 148:Drivers/CMSIS/Include/cmsis_gcc.h ****   \details Returns the content of the Control Register.
 149:Drivers/CMSIS/Include/cmsis_gcc.h ****   \return               Control Register value
 150:Drivers/CMSIS/Include/cmsis_gcc.h ****  */
 151:Drivers/CMSIS/Include/cmsis_gcc.h **** __STATIC_FORCEINLINE uint32_t __get_CONTROL(void)
 152:Drivers/CMSIS/Include/cmsis_gcc.h **** {
 153:Drivers/CMSIS/Include/cmsis_gcc.h ****   uint32_t result;
 154:Drivers/CMSIS/Include/cmsis_gcc.h **** 
 155:Drivers/CMSIS/Include/cmsis_gcc.h ****   __ASM volatile ("MRS %0, control" : "=r" (result) );
 156:Drivers/CMSIS/Include/cmsis_gcc.h ****   return(result);
 157:Drivers/CMSIS/Include/cmsis_gcc.h **** }
 158:Drivers/CMSIS/Include/cmsis_gcc.h **** 
 159:Drivers/CMSIS/Include/cmsis_gcc.h **** 
 160:Drivers/CMSIS/Include/cmsis_gcc.h **** #if (defined (__ARM_FEATURE_CMSE ) && (__ARM_FEATURE_CMSE == 3))
 161:Drivers/CMSIS/Include/cmsis_gcc.h **** /**
 162:Drivers/CMSIS/Include/cmsis_gcc.h ****   \brief   Get Control Register (non-secure)
 163:Drivers/CMSIS/Include/cmsis_gcc.h ****   \details Returns the content of the non-secure Control Register when in secure mode.
 164:Drivers/CMSIS/Include/cmsis_gcc.h ****   \return               non-secure Control Register value
 165:Drivers/CMSIS/Include/cmsis_gcc.h ****  */
 166:Drivers/CMSIS/Include/cmsis_gcc.h **** __STATIC_FORCEINLINE uint32_t __TZ_get_CONTROL_NS(void)
 167:Drivers/CMSIS/Include/cmsis_gcc.h **** {
 168:Drivers/CMSIS/Include/cmsis_gcc.h ****   uint32_t result;
 169:Drivers/CMSIS/Include/cmsis_gcc.h **** 
 170:Drivers/CMSIS/Include/cmsis_gcc.h ****   __ASM volatile ("MRS %0, control_ns" : "=r" (result) );
 171:Drivers/CMSIS/Include/cmsis_gcc.h ****   return(result);
 172:Drivers/CMSIS/Include/cmsis_gcc.h **** }
 173:Drivers/CMSIS/Include/cmsis_gcc.h **** #endif
 174:Drivers/CMSIS/Include/cmsis_gcc.h **** 
 175:Drivers/CMSIS/Include/cmsis_gcc.h **** 
 176:Drivers/CMSIS/Include/cmsis_gcc.h **** /**
 177:Drivers/CMSIS/Include/cmsis_gcc.h ****   \brief   Set Control Register
 178:Drivers/CMSIS/Include/cmsis_gcc.h ****   \details Writes the given value to the Control Register.
 179:Drivers/CMSIS/Include/cmsis_gcc.h ****   \param [in]    control  Control Register value to set
 180:Drivers/CMSIS/Include/cmsis_gcc.h ****  */
 181:Drivers/CMSIS/Include/cmsis_gcc.h **** __STATIC_FORCEINLINE void __set_CONTROL(uint32_t control)
 182:Drivers/CMSIS/Include/cmsis_gcc.h **** {
 183:Drivers/CMSIS/Include/cmsis_gcc.h ****   __ASM volatile ("MSR control, %0" : : "r" (control) : "memory");
 184:Drivers/CMSIS/Include/cmsis_gcc.h **** }
 185:Drivers/CMSIS/Include/cmsis_gcc.h **** 
 186:Drivers/CMSIS/Include/cmsis_gcc.h **** 
 187:Drivers/CMSIS/Include/cmsis_gcc.h **** #if (defined (__ARM_FEATURE_CMSE ) && (__ARM_FEATURE_CMSE == 3))
 188:Drivers/CMSIS/Include/cmsis_gcc.h **** /**
 189:Drivers/CMSIS/Include/cmsis_gcc.h ****   \brief   Set Control Register (non-secure)
 190:Drivers/CMSIS/Include/cmsis_gcc.h ****   \details Writes the given value to the non-secure Control Register when in secure state.
 191:Drivers/CMSIS/Include/cmsis_gcc.h ****   \param [in]    control  Control Register value to set
 192:Drivers/CMSIS/Include/cmsis_gcc.h ****  */
 193:Drivers/CMSIS/Include/cmsis_gcc.h **** __STATIC_FORCEINLINE void __TZ_set_CONTROL_NS(uint32_t control)
 194:Drivers/CMSIS/Include/cmsis_gcc.h **** {
 195:Drivers/CMSIS/Include/cmsis_gcc.h ****   __ASM volatile ("MSR control_ns, %0" : : "r" (control) : "memory");
 196:Drivers/CMSIS/Include/cmsis_gcc.h **** }
 197:Drivers/CMSIS/Include/cmsis_gcc.h **** #endif
 198:Drivers/CMSIS/Include/cmsis_gcc.h **** 
 199:Drivers/CMSIS/Include/cmsis_gcc.h **** 
 200:Drivers/CMSIS/Include/cmsis_gcc.h **** /**
 201:Drivers/CMSIS/Include/cmsis_gcc.h ****   \brief   Get IPSR Register
 202:Drivers/CMSIS/Include/cmsis_gcc.h ****   \details Returns the content of the IPSR Register.
 203:Drivers/CMSIS/Include/cmsis_gcc.h ****   \return               IPSR Register value
ARM GAS  /var/folders/jw/jcj5j9_530958b2rm5vp9wn00000gn/T//cceMbtLF.s 			page 14


 204:Drivers/CMSIS/Include/cmsis_gcc.h ****  */
 205:Drivers/CMSIS/Include/cmsis_gcc.h **** __STATIC_FORCEINLINE uint32_t __get_IPSR(void)
 206:Drivers/CMSIS/Include/cmsis_gcc.h **** {
 207:Drivers/CMSIS/Include/cmsis_gcc.h ****   uint32_t result;
 208:Drivers/CMSIS/Include/cmsis_gcc.h **** 
 209:Drivers/CMSIS/Include/cmsis_gcc.h ****   __ASM volatile ("MRS %0, ipsr" : "=r" (result) );
 210:Drivers/CMSIS/Include/cmsis_gcc.h ****   return(result);
 211:Drivers/CMSIS/Include/cmsis_gcc.h **** }
 212:Drivers/CMSIS/Include/cmsis_gcc.h **** 
 213:Drivers/CMSIS/Include/cmsis_gcc.h **** 
 214:Drivers/CMSIS/Include/cmsis_gcc.h **** /**
 215:Drivers/CMSIS/Include/cmsis_gcc.h ****   \brief   Get APSR Register
 216:Drivers/CMSIS/Include/cmsis_gcc.h ****   \details Returns the content of the APSR Register.
 217:Drivers/CMSIS/Include/cmsis_gcc.h ****   \return               APSR Register value
 218:Drivers/CMSIS/Include/cmsis_gcc.h ****  */
 219:Drivers/CMSIS/Include/cmsis_gcc.h **** __STATIC_FORCEINLINE uint32_t __get_APSR(void)
 220:Drivers/CMSIS/Include/cmsis_gcc.h **** {
 221:Drivers/CMSIS/Include/cmsis_gcc.h ****   uint32_t result;
 222:Drivers/CMSIS/Include/cmsis_gcc.h **** 
 223:Drivers/CMSIS/Include/cmsis_gcc.h ****   __ASM volatile ("MRS %0, apsr" : "=r" (result) );
 224:Drivers/CMSIS/Include/cmsis_gcc.h ****   return(result);
 225:Drivers/CMSIS/Include/cmsis_gcc.h **** }
 226:Drivers/CMSIS/Include/cmsis_gcc.h **** 
 227:Drivers/CMSIS/Include/cmsis_gcc.h **** 
 228:Drivers/CMSIS/Include/cmsis_gcc.h **** /**
 229:Drivers/CMSIS/Include/cmsis_gcc.h ****   \brief   Get xPSR Register
 230:Drivers/CMSIS/Include/cmsis_gcc.h ****   \details Returns the content of the xPSR Register.
 231:Drivers/CMSIS/Include/cmsis_gcc.h ****   \return               xPSR Register value
 232:Drivers/CMSIS/Include/cmsis_gcc.h ****  */
 233:Drivers/CMSIS/Include/cmsis_gcc.h **** __STATIC_FORCEINLINE uint32_t __get_xPSR(void)
 234:Drivers/CMSIS/Include/cmsis_gcc.h **** {
 235:Drivers/CMSIS/Include/cmsis_gcc.h ****   uint32_t result;
 236:Drivers/CMSIS/Include/cmsis_gcc.h **** 
 237:Drivers/CMSIS/Include/cmsis_gcc.h ****   __ASM volatile ("MRS %0, xpsr" : "=r" (result) );
 238:Drivers/CMSIS/Include/cmsis_gcc.h ****   return(result);
 239:Drivers/CMSIS/Include/cmsis_gcc.h **** }
 240:Drivers/CMSIS/Include/cmsis_gcc.h **** 
 241:Drivers/CMSIS/Include/cmsis_gcc.h **** 
 242:Drivers/CMSIS/Include/cmsis_gcc.h **** /**
 243:Drivers/CMSIS/Include/cmsis_gcc.h ****   \brief   Get Process Stack Pointer
 244:Drivers/CMSIS/Include/cmsis_gcc.h ****   \details Returns the current value of the Process Stack Pointer (PSP).
 245:Drivers/CMSIS/Include/cmsis_gcc.h ****   \return               PSP Register value
 246:Drivers/CMSIS/Include/cmsis_gcc.h ****  */
 247:Drivers/CMSIS/Include/cmsis_gcc.h **** __STATIC_FORCEINLINE uint32_t __get_PSP(void)
 248:Drivers/CMSIS/Include/cmsis_gcc.h **** {
 249:Drivers/CMSIS/Include/cmsis_gcc.h ****   uint32_t result;
 250:Drivers/CMSIS/Include/cmsis_gcc.h **** 
 251:Drivers/CMSIS/Include/cmsis_gcc.h ****   __ASM volatile ("MRS %0, psp"  : "=r" (result) );
 252:Drivers/CMSIS/Include/cmsis_gcc.h ****   return(result);
 253:Drivers/CMSIS/Include/cmsis_gcc.h **** }
 254:Drivers/CMSIS/Include/cmsis_gcc.h **** 
 255:Drivers/CMSIS/Include/cmsis_gcc.h **** 
 256:Drivers/CMSIS/Include/cmsis_gcc.h **** #if (defined (__ARM_FEATURE_CMSE ) && (__ARM_FEATURE_CMSE == 3))
 257:Drivers/CMSIS/Include/cmsis_gcc.h **** /**
 258:Drivers/CMSIS/Include/cmsis_gcc.h ****   \brief   Get Process Stack Pointer (non-secure)
 259:Drivers/CMSIS/Include/cmsis_gcc.h ****   \details Returns the current value of the non-secure Process Stack Pointer (PSP) when in secure s
 260:Drivers/CMSIS/Include/cmsis_gcc.h ****   \return               PSP Register value
ARM GAS  /var/folders/jw/jcj5j9_530958b2rm5vp9wn00000gn/T//cceMbtLF.s 			page 15


 261:Drivers/CMSIS/Include/cmsis_gcc.h ****  */
 262:Drivers/CMSIS/Include/cmsis_gcc.h **** __STATIC_FORCEINLINE uint32_t __TZ_get_PSP_NS(void)
 263:Drivers/CMSIS/Include/cmsis_gcc.h **** {
 264:Drivers/CMSIS/Include/cmsis_gcc.h ****   uint32_t result;
 265:Drivers/CMSIS/Include/cmsis_gcc.h **** 
 266:Drivers/CMSIS/Include/cmsis_gcc.h ****   __ASM volatile ("MRS %0, psp_ns"  : "=r" (result) );
 267:Drivers/CMSIS/Include/cmsis_gcc.h ****   return(result);
 268:Drivers/CMSIS/Include/cmsis_gcc.h **** }
 269:Drivers/CMSIS/Include/cmsis_gcc.h **** #endif
 270:Drivers/CMSIS/Include/cmsis_gcc.h **** 
 271:Drivers/CMSIS/Include/cmsis_gcc.h **** 
 272:Drivers/CMSIS/Include/cmsis_gcc.h **** /**
 273:Drivers/CMSIS/Include/cmsis_gcc.h ****   \brief   Set Process Stack Pointer
 274:Drivers/CMSIS/Include/cmsis_gcc.h ****   \details Assigns the given value to the Process Stack Pointer (PSP).
 275:Drivers/CMSIS/Include/cmsis_gcc.h ****   \param [in]    topOfProcStack  Process Stack Pointer value to set
 276:Drivers/CMSIS/Include/cmsis_gcc.h ****  */
 277:Drivers/CMSIS/Include/cmsis_gcc.h **** __STATIC_FORCEINLINE void __set_PSP(uint32_t topOfProcStack)
 278:Drivers/CMSIS/Include/cmsis_gcc.h **** {
 279:Drivers/CMSIS/Include/cmsis_gcc.h ****   __ASM volatile ("MSR psp, %0" : : "r" (topOfProcStack) : );
 280:Drivers/CMSIS/Include/cmsis_gcc.h **** }
 281:Drivers/CMSIS/Include/cmsis_gcc.h **** 
 282:Drivers/CMSIS/Include/cmsis_gcc.h **** 
 283:Drivers/CMSIS/Include/cmsis_gcc.h **** #if (defined (__ARM_FEATURE_CMSE ) && (__ARM_FEATURE_CMSE == 3))
 284:Drivers/CMSIS/Include/cmsis_gcc.h **** /**
 285:Drivers/CMSIS/Include/cmsis_gcc.h ****   \brief   Set Process Stack Pointer (non-secure)
 286:Drivers/CMSIS/Include/cmsis_gcc.h ****   \details Assigns the given value to the non-secure Process Stack Pointer (PSP) when in secure sta
 287:Drivers/CMSIS/Include/cmsis_gcc.h ****   \param [in]    topOfProcStack  Process Stack Pointer value to set
 288:Drivers/CMSIS/Include/cmsis_gcc.h ****  */
 289:Drivers/CMSIS/Include/cmsis_gcc.h **** __STATIC_FORCEINLINE void __TZ_set_PSP_NS(uint32_t topOfProcStack)
 290:Drivers/CMSIS/Include/cmsis_gcc.h **** {
 291:Drivers/CMSIS/Include/cmsis_gcc.h ****   __ASM volatile ("MSR psp_ns, %0" : : "r" (topOfProcStack) : );
 292:Drivers/CMSIS/Include/cmsis_gcc.h **** }
 293:Drivers/CMSIS/Include/cmsis_gcc.h **** #endif
 294:Drivers/CMSIS/Include/cmsis_gcc.h **** 
 295:Drivers/CMSIS/Include/cmsis_gcc.h **** 
 296:Drivers/CMSIS/Include/cmsis_gcc.h **** /**
 297:Drivers/CMSIS/Include/cmsis_gcc.h ****   \brief   Get Main Stack Pointer
 298:Drivers/CMSIS/Include/cmsis_gcc.h ****   \details Returns the current value of the Main Stack Pointer (MSP).
 299:Drivers/CMSIS/Include/cmsis_gcc.h ****   \return               MSP Register value
 300:Drivers/CMSIS/Include/cmsis_gcc.h ****  */
 301:Drivers/CMSIS/Include/cmsis_gcc.h **** __STATIC_FORCEINLINE uint32_t __get_MSP(void)
 302:Drivers/CMSIS/Include/cmsis_gcc.h **** {
 303:Drivers/CMSIS/Include/cmsis_gcc.h ****   uint32_t result;
 304:Drivers/CMSIS/Include/cmsis_gcc.h **** 
 305:Drivers/CMSIS/Include/cmsis_gcc.h ****   __ASM volatile ("MRS %0, msp" : "=r" (result) );
 306:Drivers/CMSIS/Include/cmsis_gcc.h ****   return(result);
 307:Drivers/CMSIS/Include/cmsis_gcc.h **** }
 308:Drivers/CMSIS/Include/cmsis_gcc.h **** 
 309:Drivers/CMSIS/Include/cmsis_gcc.h **** 
 310:Drivers/CMSIS/Include/cmsis_gcc.h **** #if (defined (__ARM_FEATURE_CMSE ) && (__ARM_FEATURE_CMSE == 3))
 311:Drivers/CMSIS/Include/cmsis_gcc.h **** /**
 312:Drivers/CMSIS/Include/cmsis_gcc.h ****   \brief   Get Main Stack Pointer (non-secure)
 313:Drivers/CMSIS/Include/cmsis_gcc.h ****   \details Returns the current value of the non-secure Main Stack Pointer (MSP) when in secure stat
 314:Drivers/CMSIS/Include/cmsis_gcc.h ****   \return               MSP Register value
 315:Drivers/CMSIS/Include/cmsis_gcc.h ****  */
 316:Drivers/CMSIS/Include/cmsis_gcc.h **** __STATIC_FORCEINLINE uint32_t __TZ_get_MSP_NS(void)
 317:Drivers/CMSIS/Include/cmsis_gcc.h **** {
ARM GAS  /var/folders/jw/jcj5j9_530958b2rm5vp9wn00000gn/T//cceMbtLF.s 			page 16


 318:Drivers/CMSIS/Include/cmsis_gcc.h ****   uint32_t result;
 319:Drivers/CMSIS/Include/cmsis_gcc.h **** 
 320:Drivers/CMSIS/Include/cmsis_gcc.h ****   __ASM volatile ("MRS %0, msp_ns" : "=r" (result) );
 321:Drivers/CMSIS/Include/cmsis_gcc.h ****   return(result);
 322:Drivers/CMSIS/Include/cmsis_gcc.h **** }
 323:Drivers/CMSIS/Include/cmsis_gcc.h **** #endif
 324:Drivers/CMSIS/Include/cmsis_gcc.h **** 
 325:Drivers/CMSIS/Include/cmsis_gcc.h **** 
 326:Drivers/CMSIS/Include/cmsis_gcc.h **** /**
 327:Drivers/CMSIS/Include/cmsis_gcc.h ****   \brief   Set Main Stack Pointer
 328:Drivers/CMSIS/Include/cmsis_gcc.h ****   \details Assigns the given value to the Main Stack Pointer (MSP).
 329:Drivers/CMSIS/Include/cmsis_gcc.h ****   \param [in]    topOfMainStack  Main Stack Pointer value to set
 330:Drivers/CMSIS/Include/cmsis_gcc.h ****  */
 331:Drivers/CMSIS/Include/cmsis_gcc.h **** __STATIC_FORCEINLINE void __set_MSP(uint32_t topOfMainStack)
 332:Drivers/CMSIS/Include/cmsis_gcc.h **** {
 333:Drivers/CMSIS/Include/cmsis_gcc.h ****   __ASM volatile ("MSR msp, %0" : : "r" (topOfMainStack) : );
 334:Drivers/CMSIS/Include/cmsis_gcc.h **** }
 335:Drivers/CMSIS/Include/cmsis_gcc.h **** 
 336:Drivers/CMSIS/Include/cmsis_gcc.h **** 
 337:Drivers/CMSIS/Include/cmsis_gcc.h **** #if (defined (__ARM_FEATURE_CMSE ) && (__ARM_FEATURE_CMSE == 3))
 338:Drivers/CMSIS/Include/cmsis_gcc.h **** /**
 339:Drivers/CMSIS/Include/cmsis_gcc.h ****   \brief   Set Main Stack Pointer (non-secure)
 340:Drivers/CMSIS/Include/cmsis_gcc.h ****   \details Assigns the given value to the non-secure Main Stack Pointer (MSP) when in secure state.
 341:Drivers/CMSIS/Include/cmsis_gcc.h ****   \param [in]    topOfMainStack  Main Stack Pointer value to set
 342:Drivers/CMSIS/Include/cmsis_gcc.h ****  */
 343:Drivers/CMSIS/Include/cmsis_gcc.h **** __STATIC_FORCEINLINE void __TZ_set_MSP_NS(uint32_t topOfMainStack)
 344:Drivers/CMSIS/Include/cmsis_gcc.h **** {
 345:Drivers/CMSIS/Include/cmsis_gcc.h ****   __ASM volatile ("MSR msp_ns, %0" : : "r" (topOfMainStack) : );
 346:Drivers/CMSIS/Include/cmsis_gcc.h **** }
 347:Drivers/CMSIS/Include/cmsis_gcc.h **** #endif
 348:Drivers/CMSIS/Include/cmsis_gcc.h **** 
 349:Drivers/CMSIS/Include/cmsis_gcc.h **** 
 350:Drivers/CMSIS/Include/cmsis_gcc.h **** #if (defined (__ARM_FEATURE_CMSE ) && (__ARM_FEATURE_CMSE == 3))
 351:Drivers/CMSIS/Include/cmsis_gcc.h **** /**
 352:Drivers/CMSIS/Include/cmsis_gcc.h ****   \brief   Get Stack Pointer (non-secure)
 353:Drivers/CMSIS/Include/cmsis_gcc.h ****   \details Returns the current value of the non-secure Stack Pointer (SP) when in secure state.
 354:Drivers/CMSIS/Include/cmsis_gcc.h ****   \return               SP Register value
 355:Drivers/CMSIS/Include/cmsis_gcc.h ****  */
 356:Drivers/CMSIS/Include/cmsis_gcc.h **** __STATIC_FORCEINLINE uint32_t __TZ_get_SP_NS(void)
 357:Drivers/CMSIS/Include/cmsis_gcc.h **** {
 358:Drivers/CMSIS/Include/cmsis_gcc.h ****   uint32_t result;
 359:Drivers/CMSIS/Include/cmsis_gcc.h **** 
 360:Drivers/CMSIS/Include/cmsis_gcc.h ****   __ASM volatile ("MRS %0, sp_ns" : "=r" (result) );
 361:Drivers/CMSIS/Include/cmsis_gcc.h ****   return(result);
 362:Drivers/CMSIS/Include/cmsis_gcc.h **** }
 363:Drivers/CMSIS/Include/cmsis_gcc.h **** 
 364:Drivers/CMSIS/Include/cmsis_gcc.h **** 
 365:Drivers/CMSIS/Include/cmsis_gcc.h **** /**
 366:Drivers/CMSIS/Include/cmsis_gcc.h ****   \brief   Set Stack Pointer (non-secure)
 367:Drivers/CMSIS/Include/cmsis_gcc.h ****   \details Assigns the given value to the non-secure Stack Pointer (SP) when in secure state.
 368:Drivers/CMSIS/Include/cmsis_gcc.h ****   \param [in]    topOfStack  Stack Pointer value to set
 369:Drivers/CMSIS/Include/cmsis_gcc.h ****  */
 370:Drivers/CMSIS/Include/cmsis_gcc.h **** __STATIC_FORCEINLINE void __TZ_set_SP_NS(uint32_t topOfStack)
 371:Drivers/CMSIS/Include/cmsis_gcc.h **** {
 372:Drivers/CMSIS/Include/cmsis_gcc.h ****   __ASM volatile ("MSR sp_ns, %0" : : "r" (topOfStack) : );
 373:Drivers/CMSIS/Include/cmsis_gcc.h **** }
 374:Drivers/CMSIS/Include/cmsis_gcc.h **** #endif
ARM GAS  /var/folders/jw/jcj5j9_530958b2rm5vp9wn00000gn/T//cceMbtLF.s 			page 17


 375:Drivers/CMSIS/Include/cmsis_gcc.h **** 
 376:Drivers/CMSIS/Include/cmsis_gcc.h **** 
 377:Drivers/CMSIS/Include/cmsis_gcc.h **** /**
 378:Drivers/CMSIS/Include/cmsis_gcc.h ****   \brief   Get Priority Mask
 379:Drivers/CMSIS/Include/cmsis_gcc.h ****   \details Returns the current state of the priority mask bit from the Priority Mask Register.
 380:Drivers/CMSIS/Include/cmsis_gcc.h ****   \return               Priority Mask value
 381:Drivers/CMSIS/Include/cmsis_gcc.h ****  */
 382:Drivers/CMSIS/Include/cmsis_gcc.h **** __STATIC_FORCEINLINE uint32_t __get_PRIMASK(void)
 383:Drivers/CMSIS/Include/cmsis_gcc.h **** {
 384:Drivers/CMSIS/Include/cmsis_gcc.h ****   uint32_t result;
 385:Drivers/CMSIS/Include/cmsis_gcc.h **** 
 386:Drivers/CMSIS/Include/cmsis_gcc.h ****   __ASM volatile ("MRS %0, primask" : "=r" (result) :: "memory");
 387:Drivers/CMSIS/Include/cmsis_gcc.h ****   return(result);
 388:Drivers/CMSIS/Include/cmsis_gcc.h **** }
 389:Drivers/CMSIS/Include/cmsis_gcc.h **** 
 390:Drivers/CMSIS/Include/cmsis_gcc.h **** 
 391:Drivers/CMSIS/Include/cmsis_gcc.h **** #if (defined (__ARM_FEATURE_CMSE ) && (__ARM_FEATURE_CMSE == 3))
 392:Drivers/CMSIS/Include/cmsis_gcc.h **** /**
 393:Drivers/CMSIS/Include/cmsis_gcc.h ****   \brief   Get Priority Mask (non-secure)
 394:Drivers/CMSIS/Include/cmsis_gcc.h ****   \details Returns the current state of the non-secure priority mask bit from the Priority Mask Reg
 395:Drivers/CMSIS/Include/cmsis_gcc.h ****   \return               Priority Mask value
 396:Drivers/CMSIS/Include/cmsis_gcc.h ****  */
 397:Drivers/CMSIS/Include/cmsis_gcc.h **** __STATIC_FORCEINLINE uint32_t __TZ_get_PRIMASK_NS(void)
 398:Drivers/CMSIS/Include/cmsis_gcc.h **** {
 399:Drivers/CMSIS/Include/cmsis_gcc.h ****   uint32_t result;
 400:Drivers/CMSIS/Include/cmsis_gcc.h **** 
 401:Drivers/CMSIS/Include/cmsis_gcc.h ****   __ASM volatile ("MRS %0, primask_ns" : "=r" (result) :: "memory");
 402:Drivers/CMSIS/Include/cmsis_gcc.h ****   return(result);
 403:Drivers/CMSIS/Include/cmsis_gcc.h **** }
 404:Drivers/CMSIS/Include/cmsis_gcc.h **** #endif
 405:Drivers/CMSIS/Include/cmsis_gcc.h **** 
 406:Drivers/CMSIS/Include/cmsis_gcc.h **** 
 407:Drivers/CMSIS/Include/cmsis_gcc.h **** /**
 408:Drivers/CMSIS/Include/cmsis_gcc.h ****   \brief   Set Priority Mask
 409:Drivers/CMSIS/Include/cmsis_gcc.h ****   \details Assigns the given value to the Priority Mask Register.
 410:Drivers/CMSIS/Include/cmsis_gcc.h ****   \param [in]    priMask  Priority Mask
 411:Drivers/CMSIS/Include/cmsis_gcc.h ****  */
 412:Drivers/CMSIS/Include/cmsis_gcc.h **** __STATIC_FORCEINLINE void __set_PRIMASK(uint32_t priMask)
 413:Drivers/CMSIS/Include/cmsis_gcc.h **** {
 414:Drivers/CMSIS/Include/cmsis_gcc.h ****   __ASM volatile ("MSR primask, %0" : : "r" (priMask) : "memory");
 415:Drivers/CMSIS/Include/cmsis_gcc.h **** }
 416:Drivers/CMSIS/Include/cmsis_gcc.h **** 
 417:Drivers/CMSIS/Include/cmsis_gcc.h **** 
 418:Drivers/CMSIS/Include/cmsis_gcc.h **** #if (defined (__ARM_FEATURE_CMSE ) && (__ARM_FEATURE_CMSE == 3))
 419:Drivers/CMSIS/Include/cmsis_gcc.h **** /**
 420:Drivers/CMSIS/Include/cmsis_gcc.h ****   \brief   Set Priority Mask (non-secure)
 421:Drivers/CMSIS/Include/cmsis_gcc.h ****   \details Assigns the given value to the non-secure Priority Mask Register when in secure state.
 422:Drivers/CMSIS/Include/cmsis_gcc.h ****   \param [in]    priMask  Priority Mask
 423:Drivers/CMSIS/Include/cmsis_gcc.h ****  */
 424:Drivers/CMSIS/Include/cmsis_gcc.h **** __STATIC_FORCEINLINE void __TZ_set_PRIMASK_NS(uint32_t priMask)
 425:Drivers/CMSIS/Include/cmsis_gcc.h **** {
 426:Drivers/CMSIS/Include/cmsis_gcc.h ****   __ASM volatile ("MSR primask_ns, %0" : : "r" (priMask) : "memory");
 427:Drivers/CMSIS/Include/cmsis_gcc.h **** }
 428:Drivers/CMSIS/Include/cmsis_gcc.h **** #endif
 429:Drivers/CMSIS/Include/cmsis_gcc.h **** 
 430:Drivers/CMSIS/Include/cmsis_gcc.h **** 
 431:Drivers/CMSIS/Include/cmsis_gcc.h **** #if ((defined (__ARM_ARCH_7M__      ) && (__ARM_ARCH_7M__      == 1)) || \
ARM GAS  /var/folders/jw/jcj5j9_530958b2rm5vp9wn00000gn/T//cceMbtLF.s 			page 18


 432:Drivers/CMSIS/Include/cmsis_gcc.h ****      (defined (__ARM_ARCH_7EM__     ) && (__ARM_ARCH_7EM__     == 1)) || \
 433:Drivers/CMSIS/Include/cmsis_gcc.h ****      (defined (__ARM_ARCH_8M_MAIN__ ) && (__ARM_ARCH_8M_MAIN__ == 1))    )
 434:Drivers/CMSIS/Include/cmsis_gcc.h **** /**
 435:Drivers/CMSIS/Include/cmsis_gcc.h ****   \brief   Enable FIQ
 436:Drivers/CMSIS/Include/cmsis_gcc.h ****   \details Enables FIQ interrupts by clearing the F-bit in the CPSR.
 437:Drivers/CMSIS/Include/cmsis_gcc.h ****            Can only be executed in Privileged modes.
 438:Drivers/CMSIS/Include/cmsis_gcc.h ****  */
 439:Drivers/CMSIS/Include/cmsis_gcc.h **** __STATIC_FORCEINLINE void __enable_fault_irq(void)
 440:Drivers/CMSIS/Include/cmsis_gcc.h **** {
 441:Drivers/CMSIS/Include/cmsis_gcc.h ****   __ASM volatile ("cpsie f" : : : "memory");
 442:Drivers/CMSIS/Include/cmsis_gcc.h **** }
 443:Drivers/CMSIS/Include/cmsis_gcc.h **** 
 444:Drivers/CMSIS/Include/cmsis_gcc.h **** 
 445:Drivers/CMSIS/Include/cmsis_gcc.h **** /**
 446:Drivers/CMSIS/Include/cmsis_gcc.h ****   \brief   Disable FIQ
 447:Drivers/CMSIS/Include/cmsis_gcc.h ****   \details Disables FIQ interrupts by setting the F-bit in the CPSR.
 448:Drivers/CMSIS/Include/cmsis_gcc.h ****            Can only be executed in Privileged modes.
 449:Drivers/CMSIS/Include/cmsis_gcc.h ****  */
 450:Drivers/CMSIS/Include/cmsis_gcc.h **** __STATIC_FORCEINLINE void __disable_fault_irq(void)
 451:Drivers/CMSIS/Include/cmsis_gcc.h **** {
 452:Drivers/CMSIS/Include/cmsis_gcc.h ****   __ASM volatile ("cpsid f" : : : "memory");
 453:Drivers/CMSIS/Include/cmsis_gcc.h **** }
 454:Drivers/CMSIS/Include/cmsis_gcc.h **** 
 455:Drivers/CMSIS/Include/cmsis_gcc.h **** 
 456:Drivers/CMSIS/Include/cmsis_gcc.h **** /**
 457:Drivers/CMSIS/Include/cmsis_gcc.h ****   \brief   Get Base Priority
 458:Drivers/CMSIS/Include/cmsis_gcc.h ****   \details Returns the current value of the Base Priority register.
 459:Drivers/CMSIS/Include/cmsis_gcc.h ****   \return               Base Priority register value
 460:Drivers/CMSIS/Include/cmsis_gcc.h ****  */
 461:Drivers/CMSIS/Include/cmsis_gcc.h **** __STATIC_FORCEINLINE uint32_t __get_BASEPRI(void)
 462:Drivers/CMSIS/Include/cmsis_gcc.h **** {
 463:Drivers/CMSIS/Include/cmsis_gcc.h ****   uint32_t result;
 464:Drivers/CMSIS/Include/cmsis_gcc.h **** 
 465:Drivers/CMSIS/Include/cmsis_gcc.h ****   __ASM volatile ("MRS %0, basepri" : "=r" (result) );
 466:Drivers/CMSIS/Include/cmsis_gcc.h ****   return(result);
 467:Drivers/CMSIS/Include/cmsis_gcc.h **** }
 468:Drivers/CMSIS/Include/cmsis_gcc.h **** 
 469:Drivers/CMSIS/Include/cmsis_gcc.h **** 
 470:Drivers/CMSIS/Include/cmsis_gcc.h **** #if (defined (__ARM_FEATURE_CMSE ) && (__ARM_FEATURE_CMSE == 3))
 471:Drivers/CMSIS/Include/cmsis_gcc.h **** /**
 472:Drivers/CMSIS/Include/cmsis_gcc.h ****   \brief   Get Base Priority (non-secure)
 473:Drivers/CMSIS/Include/cmsis_gcc.h ****   \details Returns the current value of the non-secure Base Priority register when in secure state.
 474:Drivers/CMSIS/Include/cmsis_gcc.h ****   \return               Base Priority register value
 475:Drivers/CMSIS/Include/cmsis_gcc.h ****  */
 476:Drivers/CMSIS/Include/cmsis_gcc.h **** __STATIC_FORCEINLINE uint32_t __TZ_get_BASEPRI_NS(void)
 477:Drivers/CMSIS/Include/cmsis_gcc.h **** {
 478:Drivers/CMSIS/Include/cmsis_gcc.h ****   uint32_t result;
 479:Drivers/CMSIS/Include/cmsis_gcc.h **** 
 480:Drivers/CMSIS/Include/cmsis_gcc.h ****   __ASM volatile ("MRS %0, basepri_ns" : "=r" (result) );
 481:Drivers/CMSIS/Include/cmsis_gcc.h ****   return(result);
 482:Drivers/CMSIS/Include/cmsis_gcc.h **** }
 483:Drivers/CMSIS/Include/cmsis_gcc.h **** #endif
 484:Drivers/CMSIS/Include/cmsis_gcc.h **** 
 485:Drivers/CMSIS/Include/cmsis_gcc.h **** 
 486:Drivers/CMSIS/Include/cmsis_gcc.h **** /**
 487:Drivers/CMSIS/Include/cmsis_gcc.h ****   \brief   Set Base Priority
 488:Drivers/CMSIS/Include/cmsis_gcc.h ****   \details Assigns the given value to the Base Priority register.
ARM GAS  /var/folders/jw/jcj5j9_530958b2rm5vp9wn00000gn/T//cceMbtLF.s 			page 19


 489:Drivers/CMSIS/Include/cmsis_gcc.h ****   \param [in]    basePri  Base Priority value to set
 490:Drivers/CMSIS/Include/cmsis_gcc.h ****  */
 491:Drivers/CMSIS/Include/cmsis_gcc.h **** __STATIC_FORCEINLINE void __set_BASEPRI(uint32_t basePri)
 492:Drivers/CMSIS/Include/cmsis_gcc.h **** {
 493:Drivers/CMSIS/Include/cmsis_gcc.h ****   __ASM volatile ("MSR basepri, %0" : : "r" (basePri) : "memory");
 494:Drivers/CMSIS/Include/cmsis_gcc.h **** }
 495:Drivers/CMSIS/Include/cmsis_gcc.h **** 
 496:Drivers/CMSIS/Include/cmsis_gcc.h **** 
 497:Drivers/CMSIS/Include/cmsis_gcc.h **** #if (defined (__ARM_FEATURE_CMSE ) && (__ARM_FEATURE_CMSE == 3))
 498:Drivers/CMSIS/Include/cmsis_gcc.h **** /**
 499:Drivers/CMSIS/Include/cmsis_gcc.h ****   \brief   Set Base Priority (non-secure)
 500:Drivers/CMSIS/Include/cmsis_gcc.h ****   \details Assigns the given value to the non-secure Base Priority register when in secure state.
 501:Drivers/CMSIS/Include/cmsis_gcc.h ****   \param [in]    basePri  Base Priority value to set
 502:Drivers/CMSIS/Include/cmsis_gcc.h ****  */
 503:Drivers/CMSIS/Include/cmsis_gcc.h **** __STATIC_FORCEINLINE void __TZ_set_BASEPRI_NS(uint32_t basePri)
 504:Drivers/CMSIS/Include/cmsis_gcc.h **** {
 505:Drivers/CMSIS/Include/cmsis_gcc.h ****   __ASM volatile ("MSR basepri_ns, %0" : : "r" (basePri) : "memory");
 506:Drivers/CMSIS/Include/cmsis_gcc.h **** }
 507:Drivers/CMSIS/Include/cmsis_gcc.h **** #endif
 508:Drivers/CMSIS/Include/cmsis_gcc.h **** 
 509:Drivers/CMSIS/Include/cmsis_gcc.h **** 
 510:Drivers/CMSIS/Include/cmsis_gcc.h **** /**
 511:Drivers/CMSIS/Include/cmsis_gcc.h ****   \brief   Set Base Priority with condition
 512:Drivers/CMSIS/Include/cmsis_gcc.h ****   \details Assigns the given value to the Base Priority register only if BASEPRI masking is disable
 513:Drivers/CMSIS/Include/cmsis_gcc.h ****            or the new value increases the BASEPRI priority level.
 514:Drivers/CMSIS/Include/cmsis_gcc.h ****   \param [in]    basePri  Base Priority value to set
 515:Drivers/CMSIS/Include/cmsis_gcc.h ****  */
 516:Drivers/CMSIS/Include/cmsis_gcc.h **** __STATIC_FORCEINLINE void __set_BASEPRI_MAX(uint32_t basePri)
 517:Drivers/CMSIS/Include/cmsis_gcc.h **** {
 518:Drivers/CMSIS/Include/cmsis_gcc.h ****   __ASM volatile ("MSR basepri_max, %0" : : "r" (basePri) : "memory");
 519:Drivers/CMSIS/Include/cmsis_gcc.h **** }
 520:Drivers/CMSIS/Include/cmsis_gcc.h **** 
 521:Drivers/CMSIS/Include/cmsis_gcc.h **** 
 522:Drivers/CMSIS/Include/cmsis_gcc.h **** /**
 523:Drivers/CMSIS/Include/cmsis_gcc.h ****   \brief   Get Fault Mask
 524:Drivers/CMSIS/Include/cmsis_gcc.h ****   \details Returns the current value of the Fault Mask register.
 525:Drivers/CMSIS/Include/cmsis_gcc.h ****   \return               Fault Mask register value
 526:Drivers/CMSIS/Include/cmsis_gcc.h ****  */
 527:Drivers/CMSIS/Include/cmsis_gcc.h **** __STATIC_FORCEINLINE uint32_t __get_FAULTMASK(void)
 528:Drivers/CMSIS/Include/cmsis_gcc.h **** {
 529:Drivers/CMSIS/Include/cmsis_gcc.h ****   uint32_t result;
 530:Drivers/CMSIS/Include/cmsis_gcc.h **** 
 531:Drivers/CMSIS/Include/cmsis_gcc.h ****   __ASM volatile ("MRS %0, faultmask" : "=r" (result) );
 532:Drivers/CMSIS/Include/cmsis_gcc.h ****   return(result);
 533:Drivers/CMSIS/Include/cmsis_gcc.h **** }
 534:Drivers/CMSIS/Include/cmsis_gcc.h **** 
 535:Drivers/CMSIS/Include/cmsis_gcc.h **** 
 536:Drivers/CMSIS/Include/cmsis_gcc.h **** #if (defined (__ARM_FEATURE_CMSE ) && (__ARM_FEATURE_CMSE == 3))
 537:Drivers/CMSIS/Include/cmsis_gcc.h **** /**
 538:Drivers/CMSIS/Include/cmsis_gcc.h ****   \brief   Get Fault Mask (non-secure)
 539:Drivers/CMSIS/Include/cmsis_gcc.h ****   \details Returns the current value of the non-secure Fault Mask register when in secure state.
 540:Drivers/CMSIS/Include/cmsis_gcc.h ****   \return               Fault Mask register value
 541:Drivers/CMSIS/Include/cmsis_gcc.h ****  */
 542:Drivers/CMSIS/Include/cmsis_gcc.h **** __STATIC_FORCEINLINE uint32_t __TZ_get_FAULTMASK_NS(void)
 543:Drivers/CMSIS/Include/cmsis_gcc.h **** {
 544:Drivers/CMSIS/Include/cmsis_gcc.h ****   uint32_t result;
 545:Drivers/CMSIS/Include/cmsis_gcc.h **** 
ARM GAS  /var/folders/jw/jcj5j9_530958b2rm5vp9wn00000gn/T//cceMbtLF.s 			page 20


 546:Drivers/CMSIS/Include/cmsis_gcc.h ****   __ASM volatile ("MRS %0, faultmask_ns" : "=r" (result) );
 547:Drivers/CMSIS/Include/cmsis_gcc.h ****   return(result);
 548:Drivers/CMSIS/Include/cmsis_gcc.h **** }
 549:Drivers/CMSIS/Include/cmsis_gcc.h **** #endif
 550:Drivers/CMSIS/Include/cmsis_gcc.h **** 
 551:Drivers/CMSIS/Include/cmsis_gcc.h **** 
 552:Drivers/CMSIS/Include/cmsis_gcc.h **** /**
 553:Drivers/CMSIS/Include/cmsis_gcc.h ****   \brief   Set Fault Mask
 554:Drivers/CMSIS/Include/cmsis_gcc.h ****   \details Assigns the given value to the Fault Mask register.
 555:Drivers/CMSIS/Include/cmsis_gcc.h ****   \param [in]    faultMask  Fault Mask value to set
 556:Drivers/CMSIS/Include/cmsis_gcc.h ****  */
 557:Drivers/CMSIS/Include/cmsis_gcc.h **** __STATIC_FORCEINLINE void __set_FAULTMASK(uint32_t faultMask)
 558:Drivers/CMSIS/Include/cmsis_gcc.h **** {
 559:Drivers/CMSIS/Include/cmsis_gcc.h ****   __ASM volatile ("MSR faultmask, %0" : : "r" (faultMask) : "memory");
 560:Drivers/CMSIS/Include/cmsis_gcc.h **** }
 561:Drivers/CMSIS/Include/cmsis_gcc.h **** 
 562:Drivers/CMSIS/Include/cmsis_gcc.h **** 
 563:Drivers/CMSIS/Include/cmsis_gcc.h **** #if (defined (__ARM_FEATURE_CMSE ) && (__ARM_FEATURE_CMSE == 3))
 564:Drivers/CMSIS/Include/cmsis_gcc.h **** /**
 565:Drivers/CMSIS/Include/cmsis_gcc.h ****   \brief   Set Fault Mask (non-secure)
 566:Drivers/CMSIS/Include/cmsis_gcc.h ****   \details Assigns the given value to the non-secure Fault Mask register when in secure state.
 567:Drivers/CMSIS/Include/cmsis_gcc.h ****   \param [in]    faultMask  Fault Mask value to set
 568:Drivers/CMSIS/Include/cmsis_gcc.h ****  */
 569:Drivers/CMSIS/Include/cmsis_gcc.h **** __STATIC_FORCEINLINE void __TZ_set_FAULTMASK_NS(uint32_t faultMask)
 570:Drivers/CMSIS/Include/cmsis_gcc.h **** {
 571:Drivers/CMSIS/Include/cmsis_gcc.h ****   __ASM volatile ("MSR faultmask_ns, %0" : : "r" (faultMask) : "memory");
 572:Drivers/CMSIS/Include/cmsis_gcc.h **** }
 573:Drivers/CMSIS/Include/cmsis_gcc.h **** #endif
 574:Drivers/CMSIS/Include/cmsis_gcc.h **** 
 575:Drivers/CMSIS/Include/cmsis_gcc.h **** #endif /* ((defined (__ARM_ARCH_7M__      ) && (__ARM_ARCH_7M__      == 1)) || \
 576:Drivers/CMSIS/Include/cmsis_gcc.h ****            (defined (__ARM_ARCH_7EM__     ) && (__ARM_ARCH_7EM__     == 1)) || \
 577:Drivers/CMSIS/Include/cmsis_gcc.h ****            (defined (__ARM_ARCH_8M_MAIN__ ) && (__ARM_ARCH_8M_MAIN__ == 1))    ) */
 578:Drivers/CMSIS/Include/cmsis_gcc.h **** 
 579:Drivers/CMSIS/Include/cmsis_gcc.h **** 
 580:Drivers/CMSIS/Include/cmsis_gcc.h **** #if ((defined (__ARM_ARCH_8M_MAIN__ ) && (__ARM_ARCH_8M_MAIN__ == 1)) || \
 581:Drivers/CMSIS/Include/cmsis_gcc.h ****      (defined (__ARM_ARCH_8M_BASE__ ) && (__ARM_ARCH_8M_BASE__ == 1))    )
 582:Drivers/CMSIS/Include/cmsis_gcc.h **** 
 583:Drivers/CMSIS/Include/cmsis_gcc.h **** /**
 584:Drivers/CMSIS/Include/cmsis_gcc.h ****   \brief   Get Process Stack Pointer Limit
 585:Drivers/CMSIS/Include/cmsis_gcc.h ****   Devices without ARMv8-M Main Extensions (i.e. Cortex-M23) lack the non-secure
 586:Drivers/CMSIS/Include/cmsis_gcc.h ****   Stack Pointer Limit register hence zero is returned always in non-secure
 587:Drivers/CMSIS/Include/cmsis_gcc.h ****   mode.
 588:Drivers/CMSIS/Include/cmsis_gcc.h ****   
 589:Drivers/CMSIS/Include/cmsis_gcc.h ****   \details Returns the current value of the Process Stack Pointer Limit (PSPLIM).
 590:Drivers/CMSIS/Include/cmsis_gcc.h ****   \return               PSPLIM Register value
 591:Drivers/CMSIS/Include/cmsis_gcc.h ****  */
 592:Drivers/CMSIS/Include/cmsis_gcc.h **** __STATIC_FORCEINLINE uint32_t __get_PSPLIM(void)
 593:Drivers/CMSIS/Include/cmsis_gcc.h **** {
 594:Drivers/CMSIS/Include/cmsis_gcc.h **** #if (!(defined (__ARM_ARCH_8M_MAIN__ ) && (__ARM_ARCH_8M_MAIN__ == 1)) && \
 595:Drivers/CMSIS/Include/cmsis_gcc.h ****     (!defined (__ARM_FEATURE_CMSE) || (__ARM_FEATURE_CMSE < 3)))
 596:Drivers/CMSIS/Include/cmsis_gcc.h ****     // without main extensions, the non-secure PSPLIM is RAZ/WI
 597:Drivers/CMSIS/Include/cmsis_gcc.h ****   return 0U;
 598:Drivers/CMSIS/Include/cmsis_gcc.h **** #else
 599:Drivers/CMSIS/Include/cmsis_gcc.h ****   uint32_t result;
 600:Drivers/CMSIS/Include/cmsis_gcc.h ****   __ASM volatile ("MRS %0, psplim"  : "=r" (result) );
 601:Drivers/CMSIS/Include/cmsis_gcc.h ****   return result;
 602:Drivers/CMSIS/Include/cmsis_gcc.h **** #endif
ARM GAS  /var/folders/jw/jcj5j9_530958b2rm5vp9wn00000gn/T//cceMbtLF.s 			page 21


 603:Drivers/CMSIS/Include/cmsis_gcc.h **** }
 604:Drivers/CMSIS/Include/cmsis_gcc.h **** 
 605:Drivers/CMSIS/Include/cmsis_gcc.h **** #if (defined (__ARM_FEATURE_CMSE) && (__ARM_FEATURE_CMSE == 3))
 606:Drivers/CMSIS/Include/cmsis_gcc.h **** /**
 607:Drivers/CMSIS/Include/cmsis_gcc.h ****   \brief   Get Process Stack Pointer Limit (non-secure)
 608:Drivers/CMSIS/Include/cmsis_gcc.h ****   Devices without ARMv8-M Main Extensions (i.e. Cortex-M23) lack the non-secure
 609:Drivers/CMSIS/Include/cmsis_gcc.h ****   Stack Pointer Limit register hence zero is returned always.
 610:Drivers/CMSIS/Include/cmsis_gcc.h **** 
 611:Drivers/CMSIS/Include/cmsis_gcc.h ****   \details Returns the current value of the non-secure Process Stack Pointer Limit (PSPLIM) when in
 612:Drivers/CMSIS/Include/cmsis_gcc.h ****   \return               PSPLIM Register value
 613:Drivers/CMSIS/Include/cmsis_gcc.h ****  */
 614:Drivers/CMSIS/Include/cmsis_gcc.h **** __STATIC_FORCEINLINE uint32_t __TZ_get_PSPLIM_NS(void)
 615:Drivers/CMSIS/Include/cmsis_gcc.h **** {
 616:Drivers/CMSIS/Include/cmsis_gcc.h **** #if (!(defined (__ARM_ARCH_8M_MAIN__ ) && (__ARM_ARCH_8M_MAIN__ == 1)))
 617:Drivers/CMSIS/Include/cmsis_gcc.h ****   // without main extensions, the non-secure PSPLIM is RAZ/WI
 618:Drivers/CMSIS/Include/cmsis_gcc.h ****   return 0U;
 619:Drivers/CMSIS/Include/cmsis_gcc.h **** #else
 620:Drivers/CMSIS/Include/cmsis_gcc.h ****   uint32_t result;
 621:Drivers/CMSIS/Include/cmsis_gcc.h ****   __ASM volatile ("MRS %0, psplim_ns"  : "=r" (result) );
 622:Drivers/CMSIS/Include/cmsis_gcc.h ****   return result;
 623:Drivers/CMSIS/Include/cmsis_gcc.h **** #endif
 624:Drivers/CMSIS/Include/cmsis_gcc.h **** }
 625:Drivers/CMSIS/Include/cmsis_gcc.h **** #endif
 626:Drivers/CMSIS/Include/cmsis_gcc.h **** 
 627:Drivers/CMSIS/Include/cmsis_gcc.h **** 
 628:Drivers/CMSIS/Include/cmsis_gcc.h **** /**
 629:Drivers/CMSIS/Include/cmsis_gcc.h ****   \brief   Set Process Stack Pointer Limit
 630:Drivers/CMSIS/Include/cmsis_gcc.h ****   Devices without ARMv8-M Main Extensions (i.e. Cortex-M23) lack the non-secure
 631:Drivers/CMSIS/Include/cmsis_gcc.h ****   Stack Pointer Limit register hence the write is silently ignored in non-secure
 632:Drivers/CMSIS/Include/cmsis_gcc.h ****   mode.
 633:Drivers/CMSIS/Include/cmsis_gcc.h ****   
 634:Drivers/CMSIS/Include/cmsis_gcc.h ****   \details Assigns the given value to the Process Stack Pointer Limit (PSPLIM).
 635:Drivers/CMSIS/Include/cmsis_gcc.h ****   \param [in]    ProcStackPtrLimit  Process Stack Pointer Limit value to set
 636:Drivers/CMSIS/Include/cmsis_gcc.h ****  */
 637:Drivers/CMSIS/Include/cmsis_gcc.h **** __STATIC_FORCEINLINE void __set_PSPLIM(uint32_t ProcStackPtrLimit)
 638:Drivers/CMSIS/Include/cmsis_gcc.h **** {
 639:Drivers/CMSIS/Include/cmsis_gcc.h **** #if (!(defined (__ARM_ARCH_8M_MAIN__ ) && (__ARM_ARCH_8M_MAIN__ == 1)) && \
 640:Drivers/CMSIS/Include/cmsis_gcc.h ****     (!defined (__ARM_FEATURE_CMSE) || (__ARM_FEATURE_CMSE < 3)))
 641:Drivers/CMSIS/Include/cmsis_gcc.h ****   // without main extensions, the non-secure PSPLIM is RAZ/WI
 642:Drivers/CMSIS/Include/cmsis_gcc.h ****   (void)ProcStackPtrLimit;
 643:Drivers/CMSIS/Include/cmsis_gcc.h **** #else
 644:Drivers/CMSIS/Include/cmsis_gcc.h ****   __ASM volatile ("MSR psplim, %0" : : "r" (ProcStackPtrLimit));
 645:Drivers/CMSIS/Include/cmsis_gcc.h **** #endif
 646:Drivers/CMSIS/Include/cmsis_gcc.h **** }
 647:Drivers/CMSIS/Include/cmsis_gcc.h **** 
 648:Drivers/CMSIS/Include/cmsis_gcc.h **** 
 649:Drivers/CMSIS/Include/cmsis_gcc.h **** #if (defined (__ARM_FEATURE_CMSE  ) && (__ARM_FEATURE_CMSE   == 3))
 650:Drivers/CMSIS/Include/cmsis_gcc.h **** /**
 651:Drivers/CMSIS/Include/cmsis_gcc.h ****   \brief   Set Process Stack Pointer (non-secure)
 652:Drivers/CMSIS/Include/cmsis_gcc.h ****   Devices without ARMv8-M Main Extensions (i.e. Cortex-M23) lack the non-secure
 653:Drivers/CMSIS/Include/cmsis_gcc.h ****   Stack Pointer Limit register hence the write is silently ignored.
 654:Drivers/CMSIS/Include/cmsis_gcc.h **** 
 655:Drivers/CMSIS/Include/cmsis_gcc.h ****   \details Assigns the given value to the non-secure Process Stack Pointer Limit (PSPLIM) when in s
 656:Drivers/CMSIS/Include/cmsis_gcc.h ****   \param [in]    ProcStackPtrLimit  Process Stack Pointer Limit value to set
 657:Drivers/CMSIS/Include/cmsis_gcc.h ****  */
 658:Drivers/CMSIS/Include/cmsis_gcc.h **** __STATIC_FORCEINLINE void __TZ_set_PSPLIM_NS(uint32_t ProcStackPtrLimit)
 659:Drivers/CMSIS/Include/cmsis_gcc.h **** {
ARM GAS  /var/folders/jw/jcj5j9_530958b2rm5vp9wn00000gn/T//cceMbtLF.s 			page 22


 660:Drivers/CMSIS/Include/cmsis_gcc.h **** #if (!(defined (__ARM_ARCH_8M_MAIN__ ) && (__ARM_ARCH_8M_MAIN__ == 1)))
 661:Drivers/CMSIS/Include/cmsis_gcc.h ****   // without main extensions, the non-secure PSPLIM is RAZ/WI
 662:Drivers/CMSIS/Include/cmsis_gcc.h ****   (void)ProcStackPtrLimit;
 663:Drivers/CMSIS/Include/cmsis_gcc.h **** #else
 664:Drivers/CMSIS/Include/cmsis_gcc.h ****   __ASM volatile ("MSR psplim_ns, %0\n" : : "r" (ProcStackPtrLimit));
 665:Drivers/CMSIS/Include/cmsis_gcc.h **** #endif
 666:Drivers/CMSIS/Include/cmsis_gcc.h **** }
 667:Drivers/CMSIS/Include/cmsis_gcc.h **** #endif
 668:Drivers/CMSIS/Include/cmsis_gcc.h **** 
 669:Drivers/CMSIS/Include/cmsis_gcc.h **** 
 670:Drivers/CMSIS/Include/cmsis_gcc.h **** /**
 671:Drivers/CMSIS/Include/cmsis_gcc.h ****   \brief   Get Main Stack Pointer Limit
 672:Drivers/CMSIS/Include/cmsis_gcc.h ****   Devices without ARMv8-M Main Extensions (i.e. Cortex-M23) lack the non-secure
 673:Drivers/CMSIS/Include/cmsis_gcc.h ****   Stack Pointer Limit register hence zero is returned always in non-secure
 674:Drivers/CMSIS/Include/cmsis_gcc.h ****   mode.
 675:Drivers/CMSIS/Include/cmsis_gcc.h **** 
 676:Drivers/CMSIS/Include/cmsis_gcc.h ****   \details Returns the current value of the Main Stack Pointer Limit (MSPLIM).
 677:Drivers/CMSIS/Include/cmsis_gcc.h ****   \return               MSPLIM Register value
 678:Drivers/CMSIS/Include/cmsis_gcc.h ****  */
 679:Drivers/CMSIS/Include/cmsis_gcc.h **** __STATIC_FORCEINLINE uint32_t __get_MSPLIM(void)
 680:Drivers/CMSIS/Include/cmsis_gcc.h **** {
 681:Drivers/CMSIS/Include/cmsis_gcc.h **** #if (!(defined (__ARM_ARCH_8M_MAIN__ ) && (__ARM_ARCH_8M_MAIN__ == 1)) && \
 682:Drivers/CMSIS/Include/cmsis_gcc.h ****     (!defined (__ARM_FEATURE_CMSE) || (__ARM_FEATURE_CMSE < 3)))
 683:Drivers/CMSIS/Include/cmsis_gcc.h ****   // without main extensions, the non-secure MSPLIM is RAZ/WI
 684:Drivers/CMSIS/Include/cmsis_gcc.h ****   return 0U;
 685:Drivers/CMSIS/Include/cmsis_gcc.h **** #else
 686:Drivers/CMSIS/Include/cmsis_gcc.h ****   uint32_t result;
 687:Drivers/CMSIS/Include/cmsis_gcc.h ****   __ASM volatile ("MRS %0, msplim" : "=r" (result) );
 688:Drivers/CMSIS/Include/cmsis_gcc.h ****   return result;
 689:Drivers/CMSIS/Include/cmsis_gcc.h **** #endif
 690:Drivers/CMSIS/Include/cmsis_gcc.h **** }
 691:Drivers/CMSIS/Include/cmsis_gcc.h **** 
 692:Drivers/CMSIS/Include/cmsis_gcc.h **** 
 693:Drivers/CMSIS/Include/cmsis_gcc.h **** #if (defined (__ARM_FEATURE_CMSE  ) && (__ARM_FEATURE_CMSE   == 3))
 694:Drivers/CMSIS/Include/cmsis_gcc.h **** /**
 695:Drivers/CMSIS/Include/cmsis_gcc.h ****   \brief   Get Main Stack Pointer Limit (non-secure)
 696:Drivers/CMSIS/Include/cmsis_gcc.h ****   Devices without ARMv8-M Main Extensions (i.e. Cortex-M23) lack the non-secure
 697:Drivers/CMSIS/Include/cmsis_gcc.h ****   Stack Pointer Limit register hence zero is returned always.
 698:Drivers/CMSIS/Include/cmsis_gcc.h **** 
 699:Drivers/CMSIS/Include/cmsis_gcc.h ****   \details Returns the current value of the non-secure Main Stack Pointer Limit(MSPLIM) when in sec
 700:Drivers/CMSIS/Include/cmsis_gcc.h ****   \return               MSPLIM Register value
 701:Drivers/CMSIS/Include/cmsis_gcc.h ****  */
 702:Drivers/CMSIS/Include/cmsis_gcc.h **** __STATIC_FORCEINLINE uint32_t __TZ_get_MSPLIM_NS(void)
 703:Drivers/CMSIS/Include/cmsis_gcc.h **** {
 704:Drivers/CMSIS/Include/cmsis_gcc.h **** #if (!(defined (__ARM_ARCH_8M_MAIN__ ) && (__ARM_ARCH_8M_MAIN__ == 1)))
 705:Drivers/CMSIS/Include/cmsis_gcc.h ****   // without main extensions, the non-secure MSPLIM is RAZ/WI
 706:Drivers/CMSIS/Include/cmsis_gcc.h ****   return 0U;
 707:Drivers/CMSIS/Include/cmsis_gcc.h **** #else
 708:Drivers/CMSIS/Include/cmsis_gcc.h ****   uint32_t result;
 709:Drivers/CMSIS/Include/cmsis_gcc.h ****   __ASM volatile ("MRS %0, msplim_ns" : "=r" (result) );
 710:Drivers/CMSIS/Include/cmsis_gcc.h ****   return result;
 711:Drivers/CMSIS/Include/cmsis_gcc.h **** #endif
 712:Drivers/CMSIS/Include/cmsis_gcc.h **** }
 713:Drivers/CMSIS/Include/cmsis_gcc.h **** #endif
 714:Drivers/CMSIS/Include/cmsis_gcc.h **** 
 715:Drivers/CMSIS/Include/cmsis_gcc.h **** 
 716:Drivers/CMSIS/Include/cmsis_gcc.h **** /**
ARM GAS  /var/folders/jw/jcj5j9_530958b2rm5vp9wn00000gn/T//cceMbtLF.s 			page 23


 717:Drivers/CMSIS/Include/cmsis_gcc.h ****   \brief   Set Main Stack Pointer Limit
 718:Drivers/CMSIS/Include/cmsis_gcc.h ****   Devices without ARMv8-M Main Extensions (i.e. Cortex-M23) lack the non-secure
 719:Drivers/CMSIS/Include/cmsis_gcc.h ****   Stack Pointer Limit register hence the write is silently ignored in non-secure
 720:Drivers/CMSIS/Include/cmsis_gcc.h ****   mode.
 721:Drivers/CMSIS/Include/cmsis_gcc.h **** 
 722:Drivers/CMSIS/Include/cmsis_gcc.h ****   \details Assigns the given value to the Main Stack Pointer Limit (MSPLIM).
 723:Drivers/CMSIS/Include/cmsis_gcc.h ****   \param [in]    MainStackPtrLimit  Main Stack Pointer Limit value to set
 724:Drivers/CMSIS/Include/cmsis_gcc.h ****  */
 725:Drivers/CMSIS/Include/cmsis_gcc.h **** __STATIC_FORCEINLINE void __set_MSPLIM(uint32_t MainStackPtrLimit)
 726:Drivers/CMSIS/Include/cmsis_gcc.h **** {
 727:Drivers/CMSIS/Include/cmsis_gcc.h **** #if (!(defined (__ARM_ARCH_8M_MAIN__ ) && (__ARM_ARCH_8M_MAIN__ == 1)) && \
 728:Drivers/CMSIS/Include/cmsis_gcc.h ****     (!defined (__ARM_FEATURE_CMSE) || (__ARM_FEATURE_CMSE < 3)))
 729:Drivers/CMSIS/Include/cmsis_gcc.h ****   // without main extensions, the non-secure MSPLIM is RAZ/WI
 730:Drivers/CMSIS/Include/cmsis_gcc.h ****   (void)MainStackPtrLimit;
 731:Drivers/CMSIS/Include/cmsis_gcc.h **** #else
 732:Drivers/CMSIS/Include/cmsis_gcc.h ****   __ASM volatile ("MSR msplim, %0" : : "r" (MainStackPtrLimit));
 733:Drivers/CMSIS/Include/cmsis_gcc.h **** #endif
 734:Drivers/CMSIS/Include/cmsis_gcc.h **** }
 735:Drivers/CMSIS/Include/cmsis_gcc.h **** 
 736:Drivers/CMSIS/Include/cmsis_gcc.h **** 
 737:Drivers/CMSIS/Include/cmsis_gcc.h **** #if (defined (__ARM_FEATURE_CMSE  ) && (__ARM_FEATURE_CMSE   == 3))
 738:Drivers/CMSIS/Include/cmsis_gcc.h **** /**
 739:Drivers/CMSIS/Include/cmsis_gcc.h ****   \brief   Set Main Stack Pointer Limit (non-secure)
 740:Drivers/CMSIS/Include/cmsis_gcc.h ****   Devices without ARMv8-M Main Extensions (i.e. Cortex-M23) lack the non-secure
 741:Drivers/CMSIS/Include/cmsis_gcc.h ****   Stack Pointer Limit register hence the write is silently ignored.
 742:Drivers/CMSIS/Include/cmsis_gcc.h **** 
 743:Drivers/CMSIS/Include/cmsis_gcc.h ****   \details Assigns the given value to the non-secure Main Stack Pointer Limit (MSPLIM) when in secu
 744:Drivers/CMSIS/Include/cmsis_gcc.h ****   \param [in]    MainStackPtrLimit  Main Stack Pointer value to set
 745:Drivers/CMSIS/Include/cmsis_gcc.h ****  */
 746:Drivers/CMSIS/Include/cmsis_gcc.h **** __STATIC_FORCEINLINE void __TZ_set_MSPLIM_NS(uint32_t MainStackPtrLimit)
 747:Drivers/CMSIS/Include/cmsis_gcc.h **** {
 748:Drivers/CMSIS/Include/cmsis_gcc.h **** #if (!(defined (__ARM_ARCH_8M_MAIN__ ) && (__ARM_ARCH_8M_MAIN__ == 1)))
 749:Drivers/CMSIS/Include/cmsis_gcc.h ****   // without main extensions, the non-secure MSPLIM is RAZ/WI
 750:Drivers/CMSIS/Include/cmsis_gcc.h ****   (void)MainStackPtrLimit;
 751:Drivers/CMSIS/Include/cmsis_gcc.h **** #else
 752:Drivers/CMSIS/Include/cmsis_gcc.h ****   __ASM volatile ("MSR msplim_ns, %0" : : "r" (MainStackPtrLimit));
 753:Drivers/CMSIS/Include/cmsis_gcc.h **** #endif
 754:Drivers/CMSIS/Include/cmsis_gcc.h **** }
 755:Drivers/CMSIS/Include/cmsis_gcc.h **** #endif
 756:Drivers/CMSIS/Include/cmsis_gcc.h **** 
 757:Drivers/CMSIS/Include/cmsis_gcc.h **** #endif /* ((defined (__ARM_ARCH_8M_MAIN__ ) && (__ARM_ARCH_8M_MAIN__ == 1)) || \
 758:Drivers/CMSIS/Include/cmsis_gcc.h ****            (defined (__ARM_ARCH_8M_BASE__ ) && (__ARM_ARCH_8M_BASE__ == 1))    ) */
 759:Drivers/CMSIS/Include/cmsis_gcc.h **** 
 760:Drivers/CMSIS/Include/cmsis_gcc.h **** 
 761:Drivers/CMSIS/Include/cmsis_gcc.h **** /**
 762:Drivers/CMSIS/Include/cmsis_gcc.h ****   \brief   Get FPSCR
 763:Drivers/CMSIS/Include/cmsis_gcc.h ****   \details Returns the current value of the Floating Point Status/Control register.
 764:Drivers/CMSIS/Include/cmsis_gcc.h ****   \return               Floating Point Status/Control register value
 765:Drivers/CMSIS/Include/cmsis_gcc.h ****  */
 766:Drivers/CMSIS/Include/cmsis_gcc.h **** __STATIC_FORCEINLINE uint32_t __get_FPSCR(void)
 767:Drivers/CMSIS/Include/cmsis_gcc.h **** {
 768:Drivers/CMSIS/Include/cmsis_gcc.h **** #if ((defined (__FPU_PRESENT) && (__FPU_PRESENT == 1U)) && \
 769:Drivers/CMSIS/Include/cmsis_gcc.h ****      (defined (__FPU_USED   ) && (__FPU_USED    == 1U))     )
 770:Drivers/CMSIS/Include/cmsis_gcc.h **** #if __has_builtin(__builtin_arm_get_fpscr) 
 771:Drivers/CMSIS/Include/cmsis_gcc.h **** // Re-enable using built-in when GCC has been fixed
 772:Drivers/CMSIS/Include/cmsis_gcc.h **** // || (__GNUC__ > 7) || (__GNUC__ == 7 && __GNUC_MINOR__ >= 2)
 773:Drivers/CMSIS/Include/cmsis_gcc.h ****   /* see https://gcc.gnu.org/ml/gcc-patches/2017-04/msg00443.html */
ARM GAS  /var/folders/jw/jcj5j9_530958b2rm5vp9wn00000gn/T//cceMbtLF.s 			page 24


 774:Drivers/CMSIS/Include/cmsis_gcc.h ****   return __builtin_arm_get_fpscr();
 775:Drivers/CMSIS/Include/cmsis_gcc.h **** #else
 776:Drivers/CMSIS/Include/cmsis_gcc.h ****   uint32_t result;
 777:Drivers/CMSIS/Include/cmsis_gcc.h **** 
 778:Drivers/CMSIS/Include/cmsis_gcc.h ****   __ASM volatile ("VMRS %0, fpscr" : "=r" (result) );
 779:Drivers/CMSIS/Include/cmsis_gcc.h ****   return(result);
 780:Drivers/CMSIS/Include/cmsis_gcc.h **** #endif
 781:Drivers/CMSIS/Include/cmsis_gcc.h **** #else
 782:Drivers/CMSIS/Include/cmsis_gcc.h ****   return(0U);
 783:Drivers/CMSIS/Include/cmsis_gcc.h **** #endif
 784:Drivers/CMSIS/Include/cmsis_gcc.h **** }
 785:Drivers/CMSIS/Include/cmsis_gcc.h **** 
 786:Drivers/CMSIS/Include/cmsis_gcc.h **** 
 787:Drivers/CMSIS/Include/cmsis_gcc.h **** /**
 788:Drivers/CMSIS/Include/cmsis_gcc.h ****   \brief   Set FPSCR
 789:Drivers/CMSIS/Include/cmsis_gcc.h ****   \details Assigns the given value to the Floating Point Status/Control register.
 790:Drivers/CMSIS/Include/cmsis_gcc.h ****   \param [in]    fpscr  Floating Point Status/Control value to set
 791:Drivers/CMSIS/Include/cmsis_gcc.h ****  */
 792:Drivers/CMSIS/Include/cmsis_gcc.h **** __STATIC_FORCEINLINE void __set_FPSCR(uint32_t fpscr)
 793:Drivers/CMSIS/Include/cmsis_gcc.h **** {
 794:Drivers/CMSIS/Include/cmsis_gcc.h **** #if ((defined (__FPU_PRESENT) && (__FPU_PRESENT == 1U)) && \
 795:Drivers/CMSIS/Include/cmsis_gcc.h ****      (defined (__FPU_USED   ) && (__FPU_USED    == 1U))     )
 796:Drivers/CMSIS/Include/cmsis_gcc.h **** #if __has_builtin(__builtin_arm_set_fpscr)
 797:Drivers/CMSIS/Include/cmsis_gcc.h **** // Re-enable using built-in when GCC has been fixed
 798:Drivers/CMSIS/Include/cmsis_gcc.h **** // || (__GNUC__ > 7) || (__GNUC__ == 7 && __GNUC_MINOR__ >= 2)
 799:Drivers/CMSIS/Include/cmsis_gcc.h ****   /* see https://gcc.gnu.org/ml/gcc-patches/2017-04/msg00443.html */
 800:Drivers/CMSIS/Include/cmsis_gcc.h ****   __builtin_arm_set_fpscr(fpscr);
 801:Drivers/CMSIS/Include/cmsis_gcc.h **** #else
 802:Drivers/CMSIS/Include/cmsis_gcc.h ****   __ASM volatile ("VMSR fpscr, %0" : : "r" (fpscr) : "vfpcc", "memory");
 803:Drivers/CMSIS/Include/cmsis_gcc.h **** #endif
 804:Drivers/CMSIS/Include/cmsis_gcc.h **** #else
 805:Drivers/CMSIS/Include/cmsis_gcc.h ****   (void)fpscr;
 806:Drivers/CMSIS/Include/cmsis_gcc.h **** #endif
 807:Drivers/CMSIS/Include/cmsis_gcc.h **** }
 808:Drivers/CMSIS/Include/cmsis_gcc.h **** 
 809:Drivers/CMSIS/Include/cmsis_gcc.h **** 
 810:Drivers/CMSIS/Include/cmsis_gcc.h **** /*@} end of CMSIS_Core_RegAccFunctions */
 811:Drivers/CMSIS/Include/cmsis_gcc.h **** 
 812:Drivers/CMSIS/Include/cmsis_gcc.h **** 
 813:Drivers/CMSIS/Include/cmsis_gcc.h **** /* ##########################  Core Instruction Access  ######################### */
 814:Drivers/CMSIS/Include/cmsis_gcc.h **** /** \defgroup CMSIS_Core_InstructionInterface CMSIS Core Instruction Interface
 815:Drivers/CMSIS/Include/cmsis_gcc.h ****   Access to dedicated instructions
 816:Drivers/CMSIS/Include/cmsis_gcc.h ****   @{
 817:Drivers/CMSIS/Include/cmsis_gcc.h **** */
 818:Drivers/CMSIS/Include/cmsis_gcc.h **** 
 819:Drivers/CMSIS/Include/cmsis_gcc.h **** /* Define macros for porting to both thumb1 and thumb2.
 820:Drivers/CMSIS/Include/cmsis_gcc.h ****  * For thumb1, use low register (r0-r7), specified by constraint "l"
 821:Drivers/CMSIS/Include/cmsis_gcc.h ****  * Otherwise, use general registers, specified by constraint "r" */
 822:Drivers/CMSIS/Include/cmsis_gcc.h **** #if defined (__thumb__) && !defined (__thumb2__)
 823:Drivers/CMSIS/Include/cmsis_gcc.h **** #define __CMSIS_GCC_OUT_REG(r) "=l" (r)
 824:Drivers/CMSIS/Include/cmsis_gcc.h **** #define __CMSIS_GCC_RW_REG(r) "+l" (r)
 825:Drivers/CMSIS/Include/cmsis_gcc.h **** #define __CMSIS_GCC_USE_REG(r) "l" (r)
 826:Drivers/CMSIS/Include/cmsis_gcc.h **** #else
 827:Drivers/CMSIS/Include/cmsis_gcc.h **** #define __CMSIS_GCC_OUT_REG(r) "=r" (r)
 828:Drivers/CMSIS/Include/cmsis_gcc.h **** #define __CMSIS_GCC_RW_REG(r) "+r" (r)
 829:Drivers/CMSIS/Include/cmsis_gcc.h **** #define __CMSIS_GCC_USE_REG(r) "r" (r)
 830:Drivers/CMSIS/Include/cmsis_gcc.h **** #endif
ARM GAS  /var/folders/jw/jcj5j9_530958b2rm5vp9wn00000gn/T//cceMbtLF.s 			page 25


 831:Drivers/CMSIS/Include/cmsis_gcc.h **** 
 832:Drivers/CMSIS/Include/cmsis_gcc.h **** /**
 833:Drivers/CMSIS/Include/cmsis_gcc.h ****   \brief   No Operation
 834:Drivers/CMSIS/Include/cmsis_gcc.h ****   \details No Operation does nothing. This instruction can be used for code alignment purposes.
 835:Drivers/CMSIS/Include/cmsis_gcc.h ****  */
 836:Drivers/CMSIS/Include/cmsis_gcc.h **** #define __NOP()                             __ASM volatile ("nop")
 837:Drivers/CMSIS/Include/cmsis_gcc.h **** 
 838:Drivers/CMSIS/Include/cmsis_gcc.h **** /**
 839:Drivers/CMSIS/Include/cmsis_gcc.h ****   \brief   Wait For Interrupt
 840:Drivers/CMSIS/Include/cmsis_gcc.h ****   \details Wait For Interrupt is a hint instruction that suspends execution until one of a number o
 841:Drivers/CMSIS/Include/cmsis_gcc.h ****  */
 842:Drivers/CMSIS/Include/cmsis_gcc.h **** #define __WFI()                             __ASM volatile ("wfi")
 843:Drivers/CMSIS/Include/cmsis_gcc.h **** 
 844:Drivers/CMSIS/Include/cmsis_gcc.h **** 
 845:Drivers/CMSIS/Include/cmsis_gcc.h **** /**
 846:Drivers/CMSIS/Include/cmsis_gcc.h ****   \brief   Wait For Event
 847:Drivers/CMSIS/Include/cmsis_gcc.h ****   \details Wait For Event is a hint instruction that permits the processor to enter
 848:Drivers/CMSIS/Include/cmsis_gcc.h ****            a low-power state until one of a number of events occurs.
 849:Drivers/CMSIS/Include/cmsis_gcc.h ****  */
 850:Drivers/CMSIS/Include/cmsis_gcc.h **** #define __WFE()                             __ASM volatile ("wfe")
 851:Drivers/CMSIS/Include/cmsis_gcc.h **** 
 852:Drivers/CMSIS/Include/cmsis_gcc.h **** 
 853:Drivers/CMSIS/Include/cmsis_gcc.h **** /**
 854:Drivers/CMSIS/Include/cmsis_gcc.h ****   \brief   Send Event
 855:Drivers/CMSIS/Include/cmsis_gcc.h ****   \details Send Event is a hint instruction. It causes an event to be signaled to the CPU.
 856:Drivers/CMSIS/Include/cmsis_gcc.h ****  */
 857:Drivers/CMSIS/Include/cmsis_gcc.h **** #define __SEV()                             __ASM volatile ("sev")
 858:Drivers/CMSIS/Include/cmsis_gcc.h **** 
 859:Drivers/CMSIS/Include/cmsis_gcc.h **** 
 860:Drivers/CMSIS/Include/cmsis_gcc.h **** /**
 861:Drivers/CMSIS/Include/cmsis_gcc.h ****   \brief   Instruction Synchronization Barrier
 862:Drivers/CMSIS/Include/cmsis_gcc.h ****   \details Instruction Synchronization Barrier flushes the pipeline in the processor,
 863:Drivers/CMSIS/Include/cmsis_gcc.h ****            so that all instructions following the ISB are fetched from cache or memory,
 864:Drivers/CMSIS/Include/cmsis_gcc.h ****            after the instruction has been completed.
 865:Drivers/CMSIS/Include/cmsis_gcc.h ****  */
 866:Drivers/CMSIS/Include/cmsis_gcc.h **** __STATIC_FORCEINLINE void __ISB(void)
 867:Drivers/CMSIS/Include/cmsis_gcc.h **** {
 868:Drivers/CMSIS/Include/cmsis_gcc.h ****   __ASM volatile ("isb 0xF":::"memory");
 869:Drivers/CMSIS/Include/cmsis_gcc.h **** }
 870:Drivers/CMSIS/Include/cmsis_gcc.h **** 
 871:Drivers/CMSIS/Include/cmsis_gcc.h **** 
 872:Drivers/CMSIS/Include/cmsis_gcc.h **** /**
 873:Drivers/CMSIS/Include/cmsis_gcc.h ****   \brief   Data Synchronization Barrier
 874:Drivers/CMSIS/Include/cmsis_gcc.h ****   \details Acts as a special kind of Data Memory Barrier.
 875:Drivers/CMSIS/Include/cmsis_gcc.h ****            It completes when all explicit memory accesses before this instruction complete.
 876:Drivers/CMSIS/Include/cmsis_gcc.h ****  */
 877:Drivers/CMSIS/Include/cmsis_gcc.h **** __STATIC_FORCEINLINE void __DSB(void)
 878:Drivers/CMSIS/Include/cmsis_gcc.h **** {
 879:Drivers/CMSIS/Include/cmsis_gcc.h ****   __ASM volatile ("dsb 0xF":::"memory");
 880:Drivers/CMSIS/Include/cmsis_gcc.h **** }
 881:Drivers/CMSIS/Include/cmsis_gcc.h **** 
 882:Drivers/CMSIS/Include/cmsis_gcc.h **** 
 883:Drivers/CMSIS/Include/cmsis_gcc.h **** /**
 884:Drivers/CMSIS/Include/cmsis_gcc.h ****   \brief   Data Memory Barrier
 885:Drivers/CMSIS/Include/cmsis_gcc.h ****   \details Ensures the apparent order of the explicit memory operations before
 886:Drivers/CMSIS/Include/cmsis_gcc.h ****            and after the instruction, without ensuring their completion.
 887:Drivers/CMSIS/Include/cmsis_gcc.h ****  */
ARM GAS  /var/folders/jw/jcj5j9_530958b2rm5vp9wn00000gn/T//cceMbtLF.s 			page 26


 888:Drivers/CMSIS/Include/cmsis_gcc.h **** __STATIC_FORCEINLINE void __DMB(void)
 889:Drivers/CMSIS/Include/cmsis_gcc.h **** {
 890:Drivers/CMSIS/Include/cmsis_gcc.h ****   __ASM volatile ("dmb 0xF":::"memory");
 891:Drivers/CMSIS/Include/cmsis_gcc.h **** }
 892:Drivers/CMSIS/Include/cmsis_gcc.h **** 
 893:Drivers/CMSIS/Include/cmsis_gcc.h **** 
 894:Drivers/CMSIS/Include/cmsis_gcc.h **** /**
 895:Drivers/CMSIS/Include/cmsis_gcc.h ****   \brief   Reverse byte order (32 bit)
 896:Drivers/CMSIS/Include/cmsis_gcc.h ****   \details Reverses the byte order in unsigned integer value. For example, 0x12345678 becomes 0x785
 897:Drivers/CMSIS/Include/cmsis_gcc.h ****   \param [in]    value  Value to reverse
 898:Drivers/CMSIS/Include/cmsis_gcc.h ****   \return               Reversed value
 899:Drivers/CMSIS/Include/cmsis_gcc.h ****  */
 900:Drivers/CMSIS/Include/cmsis_gcc.h **** __STATIC_FORCEINLINE uint32_t __REV(uint32_t value)
 901:Drivers/CMSIS/Include/cmsis_gcc.h **** {
 902:Drivers/CMSIS/Include/cmsis_gcc.h **** #if (__GNUC__ > 4) || (__GNUC__ == 4 && __GNUC_MINOR__ >= 5)
 903:Drivers/CMSIS/Include/cmsis_gcc.h ****   return __builtin_bswap32(value);
 904:Drivers/CMSIS/Include/cmsis_gcc.h **** #else
 905:Drivers/CMSIS/Include/cmsis_gcc.h ****   uint32_t result;
 906:Drivers/CMSIS/Include/cmsis_gcc.h **** 
 907:Drivers/CMSIS/Include/cmsis_gcc.h ****   __ASM volatile ("rev %0, %1" : __CMSIS_GCC_OUT_REG (result) : __CMSIS_GCC_USE_REG (value) );
 908:Drivers/CMSIS/Include/cmsis_gcc.h ****   return result;
 909:Drivers/CMSIS/Include/cmsis_gcc.h **** #endif
 910:Drivers/CMSIS/Include/cmsis_gcc.h **** }
 911:Drivers/CMSIS/Include/cmsis_gcc.h **** 
 912:Drivers/CMSIS/Include/cmsis_gcc.h **** 
 913:Drivers/CMSIS/Include/cmsis_gcc.h **** /**
 914:Drivers/CMSIS/Include/cmsis_gcc.h ****   \brief   Reverse byte order (16 bit)
 915:Drivers/CMSIS/Include/cmsis_gcc.h ****   \details Reverses the byte order within each halfword of a word. For example, 0x12345678 becomes 
 916:Drivers/CMSIS/Include/cmsis_gcc.h ****   \param [in]    value  Value to reverse
 917:Drivers/CMSIS/Include/cmsis_gcc.h ****   \return               Reversed value
 918:Drivers/CMSIS/Include/cmsis_gcc.h ****  */
 919:Drivers/CMSIS/Include/cmsis_gcc.h **** __STATIC_FORCEINLINE uint32_t __REV16(uint32_t value)
 920:Drivers/CMSIS/Include/cmsis_gcc.h **** {
 921:Drivers/CMSIS/Include/cmsis_gcc.h ****   uint32_t result;
 922:Drivers/CMSIS/Include/cmsis_gcc.h **** 
 923:Drivers/CMSIS/Include/cmsis_gcc.h ****   __ASM volatile ("rev16 %0, %1" : __CMSIS_GCC_OUT_REG (result) : __CMSIS_GCC_USE_REG (value) );
 924:Drivers/CMSIS/Include/cmsis_gcc.h ****   return result;
 925:Drivers/CMSIS/Include/cmsis_gcc.h **** }
 926:Drivers/CMSIS/Include/cmsis_gcc.h **** 
 927:Drivers/CMSIS/Include/cmsis_gcc.h **** 
 928:Drivers/CMSIS/Include/cmsis_gcc.h **** /**
 929:Drivers/CMSIS/Include/cmsis_gcc.h ****   \brief   Reverse byte order (16 bit)
 930:Drivers/CMSIS/Include/cmsis_gcc.h ****   \details Reverses the byte order in a 16-bit value and returns the signed 16-bit result. For exam
 931:Drivers/CMSIS/Include/cmsis_gcc.h ****   \param [in]    value  Value to reverse
 932:Drivers/CMSIS/Include/cmsis_gcc.h ****   \return               Reversed value
 933:Drivers/CMSIS/Include/cmsis_gcc.h ****  */
 934:Drivers/CMSIS/Include/cmsis_gcc.h **** __STATIC_FORCEINLINE int16_t __REVSH(int16_t value)
 935:Drivers/CMSIS/Include/cmsis_gcc.h **** {
 936:Drivers/CMSIS/Include/cmsis_gcc.h **** #if (__GNUC__ > 4) || (__GNUC__ == 4 && __GNUC_MINOR__ >= 8)
 937:Drivers/CMSIS/Include/cmsis_gcc.h ****   return (int16_t)__builtin_bswap16(value);
 938:Drivers/CMSIS/Include/cmsis_gcc.h **** #else
 939:Drivers/CMSIS/Include/cmsis_gcc.h ****   int16_t result;
 940:Drivers/CMSIS/Include/cmsis_gcc.h **** 
 941:Drivers/CMSIS/Include/cmsis_gcc.h ****   __ASM volatile ("revsh %0, %1" : __CMSIS_GCC_OUT_REG (result) : __CMSIS_GCC_USE_REG (value) );
 942:Drivers/CMSIS/Include/cmsis_gcc.h ****   return result;
 943:Drivers/CMSIS/Include/cmsis_gcc.h **** #endif
 944:Drivers/CMSIS/Include/cmsis_gcc.h **** }
ARM GAS  /var/folders/jw/jcj5j9_530958b2rm5vp9wn00000gn/T//cceMbtLF.s 			page 27


 945:Drivers/CMSIS/Include/cmsis_gcc.h **** 
 946:Drivers/CMSIS/Include/cmsis_gcc.h **** 
 947:Drivers/CMSIS/Include/cmsis_gcc.h **** /**
 948:Drivers/CMSIS/Include/cmsis_gcc.h ****   \brief   Rotate Right in unsigned value (32 bit)
 949:Drivers/CMSIS/Include/cmsis_gcc.h ****   \details Rotate Right (immediate) provides the value of the contents of a register rotated by a v
 950:Drivers/CMSIS/Include/cmsis_gcc.h ****   \param [in]    op1  Value to rotate
 951:Drivers/CMSIS/Include/cmsis_gcc.h ****   \param [in]    op2  Number of Bits to rotate
 952:Drivers/CMSIS/Include/cmsis_gcc.h ****   \return               Rotated value
 953:Drivers/CMSIS/Include/cmsis_gcc.h ****  */
 954:Drivers/CMSIS/Include/cmsis_gcc.h **** __STATIC_FORCEINLINE uint32_t __ROR(uint32_t op1, uint32_t op2)
 955:Drivers/CMSIS/Include/cmsis_gcc.h **** {
 956:Drivers/CMSIS/Include/cmsis_gcc.h ****   op2 %= 32U;
 957:Drivers/CMSIS/Include/cmsis_gcc.h ****   if (op2 == 0U)
 958:Drivers/CMSIS/Include/cmsis_gcc.h ****   {
 959:Drivers/CMSIS/Include/cmsis_gcc.h ****     return op1;
 960:Drivers/CMSIS/Include/cmsis_gcc.h ****   }
 961:Drivers/CMSIS/Include/cmsis_gcc.h ****   return (op1 >> op2) | (op1 << (32U - op2));
 962:Drivers/CMSIS/Include/cmsis_gcc.h **** }
 963:Drivers/CMSIS/Include/cmsis_gcc.h **** 
 964:Drivers/CMSIS/Include/cmsis_gcc.h **** 
 965:Drivers/CMSIS/Include/cmsis_gcc.h **** /**
 966:Drivers/CMSIS/Include/cmsis_gcc.h ****   \brief   Breakpoint
 967:Drivers/CMSIS/Include/cmsis_gcc.h ****   \details Causes the processor to enter Debug state.
 968:Drivers/CMSIS/Include/cmsis_gcc.h ****            Debug tools can use this to investigate system state when the instruction at a particula
 969:Drivers/CMSIS/Include/cmsis_gcc.h ****   \param [in]    value  is ignored by the processor.
 970:Drivers/CMSIS/Include/cmsis_gcc.h ****                  If required, a debugger can use it to store additional information about the break
 971:Drivers/CMSIS/Include/cmsis_gcc.h ****  */
 972:Drivers/CMSIS/Include/cmsis_gcc.h **** #define __BKPT(value)                       __ASM volatile ("bkpt "#value)
 973:Drivers/CMSIS/Include/cmsis_gcc.h **** 
 974:Drivers/CMSIS/Include/cmsis_gcc.h **** 
 975:Drivers/CMSIS/Include/cmsis_gcc.h **** /**
 976:Drivers/CMSIS/Include/cmsis_gcc.h ****   \brief   Reverse bit order of value
 977:Drivers/CMSIS/Include/cmsis_gcc.h ****   \details Reverses the bit order of the given value.
 978:Drivers/CMSIS/Include/cmsis_gcc.h ****   \param [in]    value  Value to reverse
 979:Drivers/CMSIS/Include/cmsis_gcc.h ****   \return               Reversed value
 980:Drivers/CMSIS/Include/cmsis_gcc.h ****  */
 981:Drivers/CMSIS/Include/cmsis_gcc.h **** __STATIC_FORCEINLINE uint32_t __RBIT(uint32_t value)
 200              		.loc 2 981 31 view .LVU55
 201              	.LBB169:
 982:Drivers/CMSIS/Include/cmsis_gcc.h **** {
 983:Drivers/CMSIS/Include/cmsis_gcc.h ****   uint32_t result;
 202              		.loc 2 983 3 view .LVU56
 984:Drivers/CMSIS/Include/cmsis_gcc.h **** 
 985:Drivers/CMSIS/Include/cmsis_gcc.h **** #if ((defined (__ARM_ARCH_7M__      ) && (__ARM_ARCH_7M__      == 1)) || \
 986:Drivers/CMSIS/Include/cmsis_gcc.h ****      (defined (__ARM_ARCH_7EM__     ) && (__ARM_ARCH_7EM__     == 1)) || \
 987:Drivers/CMSIS/Include/cmsis_gcc.h ****      (defined (__ARM_ARCH_8M_MAIN__ ) && (__ARM_ARCH_8M_MAIN__ == 1))    )
 988:Drivers/CMSIS/Include/cmsis_gcc.h ****    __ASM volatile ("rbit %0, %1" : "=r" (result) : "r" (value) );
 203              		.loc 2 988 4 view .LVU57
 204 00c2 4FF08072 		mov	r2, #16777216
 205              		.syntax unified
 206              	@ 988 "Drivers/CMSIS/Include/cmsis_gcc.h" 1
 207 00c6 92FAA2F2 		rbit r2, r2
 208              	@ 0 "" 2
 209              	.LVL17:
 989:Drivers/CMSIS/Include/cmsis_gcc.h **** #else
 990:Drivers/CMSIS/Include/cmsis_gcc.h ****   uint32_t s = (4U /*sizeof(v)*/ * 8U) - 1U; /* extra shift needed at end */
 991:Drivers/CMSIS/Include/cmsis_gcc.h **** 
ARM GAS  /var/folders/jw/jcj5j9_530958b2rm5vp9wn00000gn/T//cceMbtLF.s 			page 28


 992:Drivers/CMSIS/Include/cmsis_gcc.h ****   result = value;                      /* r will be reversed bits of v; first get LSB of v */
 993:Drivers/CMSIS/Include/cmsis_gcc.h ****   for (value >>= 1U; value != 0U; value >>= 1U)
 994:Drivers/CMSIS/Include/cmsis_gcc.h ****   {
 995:Drivers/CMSIS/Include/cmsis_gcc.h ****     result <<= 1U;
 996:Drivers/CMSIS/Include/cmsis_gcc.h ****     result |= value & 1U;
 997:Drivers/CMSIS/Include/cmsis_gcc.h ****     s--;
 998:Drivers/CMSIS/Include/cmsis_gcc.h ****   }
 999:Drivers/CMSIS/Include/cmsis_gcc.h ****   result <<= s;                        /* shift when v's highest bits are zero */
1000:Drivers/CMSIS/Include/cmsis_gcc.h **** #endif
1001:Drivers/CMSIS/Include/cmsis_gcc.h ****   return result;
 210              		.loc 2 1001 3 view .LVU58
 211              		.loc 2 1001 3 is_stmt 0 view .LVU59
 212              		.thumb
 213              		.syntax unified
 214              	.LBE169:
 215              	.LBE168:
 297:Drivers/STM32F3xx_HAL_Driver/Src/stm32f3xx_hal_rcc.c **** 
 216              		.loc 1 297 3 view .LVU60
 217 00ca B2FA82F2 		clz	r2, r2
 218 00ce 084B     		ldr	r3, .L18+20
 219 00d0 1344     		add	r3, r3, r2
 220 00d2 9B00     		lsls	r3, r3, #2
 221 00d4 0122     		movs	r2, #1
 222 00d6 1A60     		str	r2, [r3]
 299:Drivers/STM32F3xx_HAL_Driver/Src/stm32f3xx_hal_rcc.c **** }
 223              		.loc 1 299 3 is_stmt 1 view .LVU61
 299:Drivers/STM32F3xx_HAL_Driver/Src/stm32f3xx_hal_rcc.c **** }
 224              		.loc 1 299 10 is_stmt 0 view .LVU62
 225 00d8 A6E7     		b	.L3
 226              	.L19:
 227 00da 00BF     		.align	2
 228              	.L18:
 229 00dc 00100240 		.word	1073876992
 230 00e0 0CC0FFF8 		.word	-117456884
 231 00e4 00000000 		.word	SystemCoreClock
 232 00e8 00127A00 		.word	8000000
 233 00ec 00000000 		.word	uwTickPrio
 234 00f0 20819010 		.word	277905696
 235              		.cfi_endproc
 236              	.LFE130:
 238              		.section	.text.HAL_RCC_OscConfig,"ax",%progbits
 239              		.align	1
 240              		.global	HAL_RCC_OscConfig
 241              		.syntax unified
 242              		.thumb
 243              		.thumb_func
 244              		.fpu fpv4-sp-d16
 246              	HAL_RCC_OscConfig:
 247              	.LVL18:
 248              	.LFB131:
 301:Drivers/STM32F3xx_HAL_Driver/Src/stm32f3xx_hal_rcc.c **** 
 302:Drivers/STM32F3xx_HAL_Driver/Src/stm32f3xx_hal_rcc.c **** /**
 303:Drivers/STM32F3xx_HAL_Driver/Src/stm32f3xx_hal_rcc.c ****   * @brief  Initializes the RCC Oscillators according to the specified parameters in the
 304:Drivers/STM32F3xx_HAL_Driver/Src/stm32f3xx_hal_rcc.c ****   *         RCC_OscInitTypeDef.
 305:Drivers/STM32F3xx_HAL_Driver/Src/stm32f3xx_hal_rcc.c ****   * @param  RCC_OscInitStruct pointer to an RCC_OscInitTypeDef structure that
 306:Drivers/STM32F3xx_HAL_Driver/Src/stm32f3xx_hal_rcc.c ****   *         contains the configuration information for the RCC Oscillators.
 307:Drivers/STM32F3xx_HAL_Driver/Src/stm32f3xx_hal_rcc.c ****   * @note   The PLL is not disabled when used as system clock.
ARM GAS  /var/folders/jw/jcj5j9_530958b2rm5vp9wn00000gn/T//cceMbtLF.s 			page 29


 308:Drivers/STM32F3xx_HAL_Driver/Src/stm32f3xx_hal_rcc.c ****   * @note   Transitions LSE Bypass to LSE On and LSE On to LSE Bypass are not
 309:Drivers/STM32F3xx_HAL_Driver/Src/stm32f3xx_hal_rcc.c ****   *         supported by this macro. User should request a transition to LSE Off
 310:Drivers/STM32F3xx_HAL_Driver/Src/stm32f3xx_hal_rcc.c ****   *         first and then LSE On or LSE Bypass.
 311:Drivers/STM32F3xx_HAL_Driver/Src/stm32f3xx_hal_rcc.c ****   * @note   Transition HSE Bypass to HSE On and HSE On to HSE Bypass are not
 312:Drivers/STM32F3xx_HAL_Driver/Src/stm32f3xx_hal_rcc.c ****   *         supported by this macro. User should request a transition to HSE Off
 313:Drivers/STM32F3xx_HAL_Driver/Src/stm32f3xx_hal_rcc.c ****   *         first and then HSE On or HSE Bypass.
 314:Drivers/STM32F3xx_HAL_Driver/Src/stm32f3xx_hal_rcc.c ****   * @retval HAL status
 315:Drivers/STM32F3xx_HAL_Driver/Src/stm32f3xx_hal_rcc.c ****   */
 316:Drivers/STM32F3xx_HAL_Driver/Src/stm32f3xx_hal_rcc.c **** HAL_StatusTypeDef HAL_RCC_OscConfig(RCC_OscInitTypeDef  *RCC_OscInitStruct)
 317:Drivers/STM32F3xx_HAL_Driver/Src/stm32f3xx_hal_rcc.c **** {
 249              		.loc 1 317 1 is_stmt 1 view -0
 250              		.cfi_startproc
 251              		@ args = 0, pretend = 0, frame = 8
 252              		@ frame_needed = 0, uses_anonymous_args = 0
 318:Drivers/STM32F3xx_HAL_Driver/Src/stm32f3xx_hal_rcc.c ****   uint32_t tickstart;
 253              		.loc 1 318 3 view .LVU64
 319:Drivers/STM32F3xx_HAL_Driver/Src/stm32f3xx_hal_rcc.c ****   uint32_t pll_config;
 254              		.loc 1 319 3 view .LVU65
 320:Drivers/STM32F3xx_HAL_Driver/Src/stm32f3xx_hal_rcc.c **** #if defined(RCC_CFGR_PLLSRC_HSI_PREDIV)
 321:Drivers/STM32F3xx_HAL_Driver/Src/stm32f3xx_hal_rcc.c ****   uint32_t pll_config2;
 322:Drivers/STM32F3xx_HAL_Driver/Src/stm32f3xx_hal_rcc.c **** #endif /* RCC_CFGR_PLLSRC_HSI_PREDIV */
 323:Drivers/STM32F3xx_HAL_Driver/Src/stm32f3xx_hal_rcc.c **** 
 324:Drivers/STM32F3xx_HAL_Driver/Src/stm32f3xx_hal_rcc.c ****   /* Check Null pointer */
 325:Drivers/STM32F3xx_HAL_Driver/Src/stm32f3xx_hal_rcc.c ****   if(RCC_OscInitStruct == NULL)
 255              		.loc 1 325 3 view .LVU66
 256              		.loc 1 325 5 is_stmt 0 view .LVU67
 257 0000 0028     		cmp	r0, #0
 258 0002 00F00183 		beq	.L94
 317:Drivers/STM32F3xx_HAL_Driver/Src/stm32f3xx_hal_rcc.c ****   uint32_t tickstart;
 259              		.loc 1 317 1 view .LVU68
 260 0006 70B5     		push	{r4, r5, r6, lr}
 261              	.LCFI1:
 262              		.cfi_def_cfa_offset 16
 263              		.cfi_offset 4, -16
 264              		.cfi_offset 5, -12
 265              		.cfi_offset 6, -8
 266              		.cfi_offset 14, -4
 267 0008 82B0     		sub	sp, sp, #8
 268              	.LCFI2:
 269              		.cfi_def_cfa_offset 24
 270 000a 0446     		mov	r4, r0
 326:Drivers/STM32F3xx_HAL_Driver/Src/stm32f3xx_hal_rcc.c ****   {
 327:Drivers/STM32F3xx_HAL_Driver/Src/stm32f3xx_hal_rcc.c ****     return HAL_ERROR;
 328:Drivers/STM32F3xx_HAL_Driver/Src/stm32f3xx_hal_rcc.c ****   }
 329:Drivers/STM32F3xx_HAL_Driver/Src/stm32f3xx_hal_rcc.c **** 
 330:Drivers/STM32F3xx_HAL_Driver/Src/stm32f3xx_hal_rcc.c ****   /* Check the parameters */
 331:Drivers/STM32F3xx_HAL_Driver/Src/stm32f3xx_hal_rcc.c ****   assert_param(IS_RCC_OSCILLATORTYPE(RCC_OscInitStruct->OscillatorType));
 271              		.loc 1 331 3 is_stmt 1 view .LVU69
 332:Drivers/STM32F3xx_HAL_Driver/Src/stm32f3xx_hal_rcc.c **** 
 333:Drivers/STM32F3xx_HAL_Driver/Src/stm32f3xx_hal_rcc.c ****   /*------------------------------- HSE Configuration ------------------------*/ 
 334:Drivers/STM32F3xx_HAL_Driver/Src/stm32f3xx_hal_rcc.c ****   if(((RCC_OscInitStruct->OscillatorType) & RCC_OSCILLATORTYPE_HSE) == RCC_OSCILLATORTYPE_HSE)
 272              		.loc 1 334 3 view .LVU70
 273              		.loc 1 334 25 is_stmt 0 view .LVU71
 274 000c 0368     		ldr	r3, [r0]
 275              		.loc 1 334 5 view .LVU72
 276 000e 13F0010F 		tst	r3, #1
 277 0012 3BD0     		beq	.L22
ARM GAS  /var/folders/jw/jcj5j9_530958b2rm5vp9wn00000gn/T//cceMbtLF.s 			page 30


 335:Drivers/STM32F3xx_HAL_Driver/Src/stm32f3xx_hal_rcc.c ****   {
 336:Drivers/STM32F3xx_HAL_Driver/Src/stm32f3xx_hal_rcc.c ****     /* Check the parameters */
 337:Drivers/STM32F3xx_HAL_Driver/Src/stm32f3xx_hal_rcc.c ****     assert_param(IS_RCC_HSE(RCC_OscInitStruct->HSEState));
 278              		.loc 1 337 5 is_stmt 1 view .LVU73
 338:Drivers/STM32F3xx_HAL_Driver/Src/stm32f3xx_hal_rcc.c **** 
 339:Drivers/STM32F3xx_HAL_Driver/Src/stm32f3xx_hal_rcc.c ****     /* When the HSE is used as system clock or clock source for PLL in these cases it is not allowe
 340:Drivers/STM32F3xx_HAL_Driver/Src/stm32f3xx_hal_rcc.c ****     if((__HAL_RCC_GET_SYSCLK_SOURCE() == RCC_SYSCLKSOURCE_STATUS_HSE) 
 279              		.loc 1 340 5 view .LVU74
 280              		.loc 1 340 9 is_stmt 0 view .LVU75
 281 0014 B54B     		ldr	r3, .L132
 282 0016 5B68     		ldr	r3, [r3, #4]
 283 0018 03F00C03 		and	r3, r3, #12
 284              		.loc 1 340 7 view .LVU76
 285 001c 042B     		cmp	r3, #4
 286 001e 1ED0     		beq	.L23
 341:Drivers/STM32F3xx_HAL_Driver/Src/stm32f3xx_hal_rcc.c ****        || ((__HAL_RCC_GET_SYSCLK_SOURCE() == RCC_SYSCLKSOURCE_STATUS_PLLCLK) && (__HAL_RCC_GET_PLL_
 287              		.loc 1 341 13 view .LVU77
 288 0020 B24B     		ldr	r3, .L132
 289 0022 5B68     		ldr	r3, [r3, #4]
 290 0024 03F00C03 		and	r3, r3, #12
 291              		.loc 1 341 8 view .LVU78
 292 0028 082B     		cmp	r3, #8
 293 002a 13D0     		beq	.L118
 294              	.L24:
 342:Drivers/STM32F3xx_HAL_Driver/Src/stm32f3xx_hal_rcc.c ****     {
 343:Drivers/STM32F3xx_HAL_Driver/Src/stm32f3xx_hal_rcc.c ****       if((__HAL_RCC_GET_FLAG(RCC_FLAG_HSERDY) != RESET) && (RCC_OscInitStruct->HSEState == RCC_HSE_
 344:Drivers/STM32F3xx_HAL_Driver/Src/stm32f3xx_hal_rcc.c ****       {
 345:Drivers/STM32F3xx_HAL_Driver/Src/stm32f3xx_hal_rcc.c ****         return HAL_ERROR;
 346:Drivers/STM32F3xx_HAL_Driver/Src/stm32f3xx_hal_rcc.c ****       }
 347:Drivers/STM32F3xx_HAL_Driver/Src/stm32f3xx_hal_rcc.c ****     }
 348:Drivers/STM32F3xx_HAL_Driver/Src/stm32f3xx_hal_rcc.c ****     else
 349:Drivers/STM32F3xx_HAL_Driver/Src/stm32f3xx_hal_rcc.c ****     {
 350:Drivers/STM32F3xx_HAL_Driver/Src/stm32f3xx_hal_rcc.c ****       /* Set the new HSE configuration ---------------------------------------*/
 351:Drivers/STM32F3xx_HAL_Driver/Src/stm32f3xx_hal_rcc.c ****       __HAL_RCC_HSE_CONFIG(RCC_OscInitStruct->HSEState);
 295              		.loc 1 351 7 is_stmt 1 view .LVU79
 296              		.loc 1 351 7 view .LVU80
 297 002c 6368     		ldr	r3, [r4, #4]
 298 002e B3F5803F 		cmp	r3, #65536
 299 0032 68D0     		beq	.L119
 300              		.loc 1 351 7 discriminator 2 view .LVU81
 301 0034 002B     		cmp	r3, #0
 302 0036 40F09280 		bne	.L29
 303              		.loc 1 351 7 discriminator 4 view .LVU82
 304 003a 03F18043 		add	r3, r3, #1073741824
 305 003e 03F50433 		add	r3, r3, #135168
 306 0042 1A68     		ldr	r2, [r3]
 307 0044 22F48032 		bic	r2, r2, #65536
 308 0048 1A60     		str	r2, [r3]
 309              		.loc 1 351 7 discriminator 4 view .LVU83
 310 004a 1A68     		ldr	r2, [r3]
 311 004c 22F48022 		bic	r2, r2, #262144
 312 0050 1A60     		str	r2, [r3]
 313 0052 5DE0     		b	.L28
 314              	.L118:
 341:Drivers/STM32F3xx_HAL_Driver/Src/stm32f3xx_hal_rcc.c ****        || ((__HAL_RCC_GET_SYSCLK_SOURCE() == RCC_SYSCLKSOURCE_STATUS_PLLCLK) && (__HAL_RCC_GET_PLL_
 315              		.loc 1 341 82 is_stmt 0 discriminator 1 view .LVU84
 316 0054 A54B     		ldr	r3, .L132
ARM GAS  /var/folders/jw/jcj5j9_530958b2rm5vp9wn00000gn/T//cceMbtLF.s 			page 31


 317 0056 5B68     		ldr	r3, [r3, #4]
 341:Drivers/STM32F3xx_HAL_Driver/Src/stm32f3xx_hal_rcc.c ****        || ((__HAL_RCC_GET_SYSCLK_SOURCE() == RCC_SYSCLKSOURCE_STATUS_PLLCLK) && (__HAL_RCC_GET_PLL_
 318              		.loc 1 341 78 discriminator 1 view .LVU85
 319 0058 13F4803F 		tst	r3, #65536
 320 005c E6D0     		beq	.L24
 321              	.L23:
 343:Drivers/STM32F3xx_HAL_Driver/Src/stm32f3xx_hal_rcc.c ****       {
 322              		.loc 1 343 7 is_stmt 1 view .LVU86
 323              	.LVL19:
 324              	.LBB170:
 325              	.LBI170:
 981:Drivers/CMSIS/Include/cmsis_gcc.h **** {
 326              		.loc 2 981 31 view .LVU87
 327              	.LBB171:
 983:Drivers/CMSIS/Include/cmsis_gcc.h **** 
 328              		.loc 2 983 3 view .LVU88
 988:Drivers/CMSIS/Include/cmsis_gcc.h **** #else
 329              		.loc 2 988 4 view .LVU89
 330 005e 4FF40033 		mov	r3, #131072
 331              		.syntax unified
 332              	@ 988 "Drivers/CMSIS/Include/cmsis_gcc.h" 1
 333 0062 93FAA3F3 		rbit r3, r3
 334              	@ 0 "" 2
 335              		.loc 2 1001 3 view .LVU90
 336              	.LVL20:
 337              		.loc 2 1001 3 is_stmt 0 view .LVU91
 338              		.thumb
 339              		.syntax unified
 340              	.LBE171:
 341              	.LBE170:
 343:Drivers/STM32F3xx_HAL_Driver/Src/stm32f3xx_hal_rcc.c ****       {
 342              		.loc 1 343 11 view .LVU92
 343 0066 A14B     		ldr	r3, .L132
 344 0068 1968     		ldr	r1, [r3]
 345              	.LVL21:
 346              	.LBB172:
 347              	.LBI172:
 981:Drivers/CMSIS/Include/cmsis_gcc.h **** {
 348              		.loc 2 981 31 is_stmt 1 view .LVU93
 349              	.LBB173:
 983:Drivers/CMSIS/Include/cmsis_gcc.h **** 
 350              		.loc 2 983 3 view .LVU94
 988:Drivers/CMSIS/Include/cmsis_gcc.h **** #else
 351              		.loc 2 988 4 view .LVU95
 352 006a 4FF40033 		mov	r3, #131072
 353              		.syntax unified
 354              	@ 988 "Drivers/CMSIS/Include/cmsis_gcc.h" 1
 355 006e 93FAA3F3 		rbit r3, r3
 356              	@ 0 "" 2
 357              	.LVL22:
 358              		.loc 2 1001 3 view .LVU96
 359              		.loc 2 1001 3 is_stmt 0 view .LVU97
 360              		.thumb
 361              		.syntax unified
 362              	.LBE173:
 363              	.LBE172:
 343:Drivers/STM32F3xx_HAL_Driver/Src/stm32f3xx_hal_rcc.c ****       {
ARM GAS  /var/folders/jw/jcj5j9_530958b2rm5vp9wn00000gn/T//cceMbtLF.s 			page 32


 364              		.loc 1 343 11 view .LVU98
 365 0072 B3FA83F3 		clz	r3, r3
 366 0076 03F01F03 		and	r3, r3, #31
 367 007a 0122     		movs	r2, #1
 368 007c 02FA03F3 		lsl	r3, r2, r3
 343:Drivers/STM32F3xx_HAL_Driver/Src/stm32f3xx_hal_rcc.c ****       {
 369              		.loc 1 343 9 view .LVU99
 370 0080 0B42     		tst	r3, r1
 371 0082 03D0     		beq	.L22
 343:Drivers/STM32F3xx_HAL_Driver/Src/stm32f3xx_hal_rcc.c ****       {
 372              		.loc 1 343 78 discriminator 13 view .LVU100
 373 0084 6368     		ldr	r3, [r4, #4]
 343:Drivers/STM32F3xx_HAL_Driver/Src/stm32f3xx_hal_rcc.c ****       {
 374              		.loc 1 343 57 discriminator 13 view .LVU101
 375 0086 002B     		cmp	r3, #0
 376 0088 00F0C082 		beq	.L120
 377              	.LVL23:
 378              	.L22:
 352:Drivers/STM32F3xx_HAL_Driver/Src/stm32f3xx_hal_rcc.c ****       
 353:Drivers/STM32F3xx_HAL_Driver/Src/stm32f3xx_hal_rcc.c **** #if defined(RCC_CFGR_PLLSRC_HSI_DIV2)
 354:Drivers/STM32F3xx_HAL_Driver/Src/stm32f3xx_hal_rcc.c ****       /* Configure the HSE predivision factor --------------------------------*/
 355:Drivers/STM32F3xx_HAL_Driver/Src/stm32f3xx_hal_rcc.c ****       __HAL_RCC_HSE_PREDIV_CONFIG(RCC_OscInitStruct->HSEPredivValue);
 356:Drivers/STM32F3xx_HAL_Driver/Src/stm32f3xx_hal_rcc.c **** #endif /* RCC_CFGR_PLLSRC_HSI_DIV2 */
 357:Drivers/STM32F3xx_HAL_Driver/Src/stm32f3xx_hal_rcc.c **** 
 358:Drivers/STM32F3xx_HAL_Driver/Src/stm32f3xx_hal_rcc.c ****        /* Check the HSE State */
 359:Drivers/STM32F3xx_HAL_Driver/Src/stm32f3xx_hal_rcc.c ****       if(RCC_OscInitStruct->HSEState != RCC_HSE_OFF)
 360:Drivers/STM32F3xx_HAL_Driver/Src/stm32f3xx_hal_rcc.c ****       {
 361:Drivers/STM32F3xx_HAL_Driver/Src/stm32f3xx_hal_rcc.c ****         /* Get Start Tick */
 362:Drivers/STM32F3xx_HAL_Driver/Src/stm32f3xx_hal_rcc.c ****         tickstart = HAL_GetTick();
 363:Drivers/STM32F3xx_HAL_Driver/Src/stm32f3xx_hal_rcc.c ****         
 364:Drivers/STM32F3xx_HAL_Driver/Src/stm32f3xx_hal_rcc.c ****         /* Wait till HSE is ready */
 365:Drivers/STM32F3xx_HAL_Driver/Src/stm32f3xx_hal_rcc.c ****         while(__HAL_RCC_GET_FLAG(RCC_FLAG_HSERDY) == RESET)
 366:Drivers/STM32F3xx_HAL_Driver/Src/stm32f3xx_hal_rcc.c ****         {
 367:Drivers/STM32F3xx_HAL_Driver/Src/stm32f3xx_hal_rcc.c ****           if((HAL_GetTick() - tickstart ) > HSE_TIMEOUT_VALUE)
 368:Drivers/STM32F3xx_HAL_Driver/Src/stm32f3xx_hal_rcc.c ****           {
 369:Drivers/STM32F3xx_HAL_Driver/Src/stm32f3xx_hal_rcc.c ****             return HAL_TIMEOUT;
 370:Drivers/STM32F3xx_HAL_Driver/Src/stm32f3xx_hal_rcc.c ****           }
 371:Drivers/STM32F3xx_HAL_Driver/Src/stm32f3xx_hal_rcc.c ****         }
 372:Drivers/STM32F3xx_HAL_Driver/Src/stm32f3xx_hal_rcc.c ****       }
 373:Drivers/STM32F3xx_HAL_Driver/Src/stm32f3xx_hal_rcc.c ****       else
 374:Drivers/STM32F3xx_HAL_Driver/Src/stm32f3xx_hal_rcc.c ****       {
 375:Drivers/STM32F3xx_HAL_Driver/Src/stm32f3xx_hal_rcc.c ****         /* Get Start Tick */
 376:Drivers/STM32F3xx_HAL_Driver/Src/stm32f3xx_hal_rcc.c ****         tickstart = HAL_GetTick();
 377:Drivers/STM32F3xx_HAL_Driver/Src/stm32f3xx_hal_rcc.c ****         
 378:Drivers/STM32F3xx_HAL_Driver/Src/stm32f3xx_hal_rcc.c ****         /* Wait till HSE is disabled */
 379:Drivers/STM32F3xx_HAL_Driver/Src/stm32f3xx_hal_rcc.c ****         while(__HAL_RCC_GET_FLAG(RCC_FLAG_HSERDY) != RESET)
 380:Drivers/STM32F3xx_HAL_Driver/Src/stm32f3xx_hal_rcc.c ****         {
 381:Drivers/STM32F3xx_HAL_Driver/Src/stm32f3xx_hal_rcc.c ****            if((HAL_GetTick() - tickstart ) > HSE_TIMEOUT_VALUE)
 382:Drivers/STM32F3xx_HAL_Driver/Src/stm32f3xx_hal_rcc.c ****           {
 383:Drivers/STM32F3xx_HAL_Driver/Src/stm32f3xx_hal_rcc.c ****             return HAL_TIMEOUT;
 384:Drivers/STM32F3xx_HAL_Driver/Src/stm32f3xx_hal_rcc.c ****           }
 385:Drivers/STM32F3xx_HAL_Driver/Src/stm32f3xx_hal_rcc.c ****         }
 386:Drivers/STM32F3xx_HAL_Driver/Src/stm32f3xx_hal_rcc.c ****       }
 387:Drivers/STM32F3xx_HAL_Driver/Src/stm32f3xx_hal_rcc.c ****     }
 388:Drivers/STM32F3xx_HAL_Driver/Src/stm32f3xx_hal_rcc.c ****   }
 389:Drivers/STM32F3xx_HAL_Driver/Src/stm32f3xx_hal_rcc.c ****   /*----------------------------- HSI Configuration --------------------------*/ 
 390:Drivers/STM32F3xx_HAL_Driver/Src/stm32f3xx_hal_rcc.c ****   if(((RCC_OscInitStruct->OscillatorType) & RCC_OSCILLATORTYPE_HSI) == RCC_OSCILLATORTYPE_HSI)
ARM GAS  /var/folders/jw/jcj5j9_530958b2rm5vp9wn00000gn/T//cceMbtLF.s 			page 33


 379              		.loc 1 390 3 is_stmt 1 view .LVU102
 380              		.loc 1 390 25 is_stmt 0 view .LVU103
 381 008c 2368     		ldr	r3, [r4]
 382              		.loc 1 390 5 view .LVU104
 383 008e 13F0020F 		tst	r3, #2
 384 0092 00F0C580 		beq	.L40
 391:Drivers/STM32F3xx_HAL_Driver/Src/stm32f3xx_hal_rcc.c ****   {
 392:Drivers/STM32F3xx_HAL_Driver/Src/stm32f3xx_hal_rcc.c ****     /* Check the parameters */
 393:Drivers/STM32F3xx_HAL_Driver/Src/stm32f3xx_hal_rcc.c ****     assert_param(IS_RCC_HSI(RCC_OscInitStruct->HSIState));
 385              		.loc 1 393 5 is_stmt 1 view .LVU105
 394:Drivers/STM32F3xx_HAL_Driver/Src/stm32f3xx_hal_rcc.c ****     assert_param(IS_RCC_CALIBRATION_VALUE(RCC_OscInitStruct->HSICalibrationValue));
 386              		.loc 1 394 5 view .LVU106
 395:Drivers/STM32F3xx_HAL_Driver/Src/stm32f3xx_hal_rcc.c ****     
 396:Drivers/STM32F3xx_HAL_Driver/Src/stm32f3xx_hal_rcc.c ****     /* Check if HSI is used as system clock or as PLL source when PLL is selected as system clock *
 397:Drivers/STM32F3xx_HAL_Driver/Src/stm32f3xx_hal_rcc.c ****     if((__HAL_RCC_GET_SYSCLK_SOURCE() == RCC_SYSCLKSOURCE_STATUS_HSI) 
 387              		.loc 1 397 5 view .LVU107
 388              		.loc 1 397 9 is_stmt 0 view .LVU108
 389 0096 954B     		ldr	r3, .L132
 390 0098 5B68     		ldr	r3, [r3, #4]
 391              		.loc 1 397 7 view .LVU109
 392 009a 13F00C0F 		tst	r3, #12
 393 009e 00F09C80 		beq	.L41
 398:Drivers/STM32F3xx_HAL_Driver/Src/stm32f3xx_hal_rcc.c ****        || ((__HAL_RCC_GET_SYSCLK_SOURCE() == RCC_SYSCLKSOURCE_STATUS_PLLCLK) && (__HAL_RCC_GET_PLL_
 394              		.loc 1 398 13 view .LVU110
 395 00a2 924B     		ldr	r3, .L132
 396 00a4 5B68     		ldr	r3, [r3, #4]
 397 00a6 03F00C03 		and	r3, r3, #12
 398              		.loc 1 398 8 view .LVU111
 399 00aa 082B     		cmp	r3, #8
 400 00ac 00F08F80 		beq	.L121
 401              	.L42:
 399:Drivers/STM32F3xx_HAL_Driver/Src/stm32f3xx_hal_rcc.c ****     {
 400:Drivers/STM32F3xx_HAL_Driver/Src/stm32f3xx_hal_rcc.c ****       /* When HSI is used as system clock it will not disabled */
 401:Drivers/STM32F3xx_HAL_Driver/Src/stm32f3xx_hal_rcc.c ****       if((__HAL_RCC_GET_FLAG(RCC_FLAG_HSIRDY) != RESET) && (RCC_OscInitStruct->HSIState != RCC_HSI_
 402:Drivers/STM32F3xx_HAL_Driver/Src/stm32f3xx_hal_rcc.c ****       {
 403:Drivers/STM32F3xx_HAL_Driver/Src/stm32f3xx_hal_rcc.c ****         return HAL_ERROR;
 404:Drivers/STM32F3xx_HAL_Driver/Src/stm32f3xx_hal_rcc.c ****       }
 405:Drivers/STM32F3xx_HAL_Driver/Src/stm32f3xx_hal_rcc.c ****       /* Otherwise, just the calibration is allowed */
 406:Drivers/STM32F3xx_HAL_Driver/Src/stm32f3xx_hal_rcc.c ****       else
 407:Drivers/STM32F3xx_HAL_Driver/Src/stm32f3xx_hal_rcc.c ****       {
 408:Drivers/STM32F3xx_HAL_Driver/Src/stm32f3xx_hal_rcc.c ****         /* Adjusts the Internal High Speed oscillator (HSI) calibration value.*/
 409:Drivers/STM32F3xx_HAL_Driver/Src/stm32f3xx_hal_rcc.c ****         __HAL_RCC_HSI_CALIBRATIONVALUE_ADJUST(RCC_OscInitStruct->HSICalibrationValue);
 410:Drivers/STM32F3xx_HAL_Driver/Src/stm32f3xx_hal_rcc.c ****       }
 411:Drivers/STM32F3xx_HAL_Driver/Src/stm32f3xx_hal_rcc.c ****     }
 412:Drivers/STM32F3xx_HAL_Driver/Src/stm32f3xx_hal_rcc.c ****     else
 413:Drivers/STM32F3xx_HAL_Driver/Src/stm32f3xx_hal_rcc.c ****     {
 414:Drivers/STM32F3xx_HAL_Driver/Src/stm32f3xx_hal_rcc.c ****       /* Check the HSI State */
 415:Drivers/STM32F3xx_HAL_Driver/Src/stm32f3xx_hal_rcc.c ****       if(RCC_OscInitStruct->HSIState != RCC_HSI_OFF)
 402              		.loc 1 415 7 is_stmt 1 view .LVU112
 403              		.loc 1 415 27 is_stmt 0 view .LVU113
 404 00b0 2369     		ldr	r3, [r4, #16]
 405              		.loc 1 415 9 view .LVU114
 406 00b2 002B     		cmp	r3, #0
 407 00b4 00F0F280 		beq	.L46
 416:Drivers/STM32F3xx_HAL_Driver/Src/stm32f3xx_hal_rcc.c ****       {
 417:Drivers/STM32F3xx_HAL_Driver/Src/stm32f3xx_hal_rcc.c ****        /* Enable the Internal High Speed oscillator (HSI). */
 418:Drivers/STM32F3xx_HAL_Driver/Src/stm32f3xx_hal_rcc.c ****         __HAL_RCC_HSI_ENABLE();
ARM GAS  /var/folders/jw/jcj5j9_530958b2rm5vp9wn00000gn/T//cceMbtLF.s 			page 34


 408              		.loc 1 418 9 is_stmt 1 view .LVU115
 409              	.LVL24:
 410              	.LBB174:
 411              	.LBI174:
 981:Drivers/CMSIS/Include/cmsis_gcc.h **** {
 412              		.loc 2 981 31 view .LVU116
 413              	.LBB175:
 983:Drivers/CMSIS/Include/cmsis_gcc.h **** 
 414              		.loc 2 983 3 view .LVU117
 988:Drivers/CMSIS/Include/cmsis_gcc.h **** #else
 415              		.loc 2 988 4 view .LVU118
 416 00b8 0122     		movs	r2, #1
 417              		.syntax unified
 418              	@ 988 "Drivers/CMSIS/Include/cmsis_gcc.h" 1
 419 00ba 92FAA2F3 		rbit r3, r2
 420              	@ 0 "" 2
 421              	.LVL25:
 422              		.loc 2 1001 3 view .LVU119
 423              		.loc 2 1001 3 is_stmt 0 view .LVU120
 424              		.thumb
 425              		.syntax unified
 426              	.LBE175:
 427              	.LBE174:
 428              		.loc 1 418 9 view .LVU121
 429 00be B3FA83F3 		clz	r3, r3
 430 00c2 03F18453 		add	r3, r3, #276824064
 431 00c6 03F58413 		add	r3, r3, #1081344
 432 00ca 9B00     		lsls	r3, r3, #2
 433 00cc 1A60     		str	r2, [r3]
 419:Drivers/STM32F3xx_HAL_Driver/Src/stm32f3xx_hal_rcc.c ****         
 420:Drivers/STM32F3xx_HAL_Driver/Src/stm32f3xx_hal_rcc.c ****         /* Get Start Tick */
 421:Drivers/STM32F3xx_HAL_Driver/Src/stm32f3xx_hal_rcc.c ****         tickstart = HAL_GetTick();
 434              		.loc 1 421 9 is_stmt 1 view .LVU122
 435              		.loc 1 421 21 is_stmt 0 view .LVU123
 436 00ce FFF7FEFF 		bl	HAL_GetTick
 437              	.LVL26:
 438 00d2 0546     		mov	r5, r0
 439              	.LVL27:
 422:Drivers/STM32F3xx_HAL_Driver/Src/stm32f3xx_hal_rcc.c ****         
 423:Drivers/STM32F3xx_HAL_Driver/Src/stm32f3xx_hal_rcc.c ****         /* Wait till HSI is ready */
 424:Drivers/STM32F3xx_HAL_Driver/Src/stm32f3xx_hal_rcc.c ****         while(__HAL_RCC_GET_FLAG(RCC_FLAG_HSIRDY) == RESET)
 440              		.loc 1 424 9 is_stmt 1 view .LVU124
 441              	.L47:
 442              		.loc 1 424 14 view .LVU125
 443              	.LBB176:
 444              	.LBI176:
 981:Drivers/CMSIS/Include/cmsis_gcc.h **** {
 445              		.loc 2 981 31 view .LVU126
 446              	.LBB177:
 983:Drivers/CMSIS/Include/cmsis_gcc.h **** 
 447              		.loc 2 983 3 view .LVU127
 988:Drivers/CMSIS/Include/cmsis_gcc.h **** #else
 448              		.loc 2 988 4 view .LVU128
 449 00d4 0223     		movs	r3, #2
 450              		.syntax unified
 451              	@ 988 "Drivers/CMSIS/Include/cmsis_gcc.h" 1
 452 00d6 93FAA3F3 		rbit r3, r3
ARM GAS  /var/folders/jw/jcj5j9_530958b2rm5vp9wn00000gn/T//cceMbtLF.s 			page 35


 453              	@ 0 "" 2
 454              		.loc 2 1001 3 view .LVU129
 455              	.LVL28:
 456              		.loc 2 1001 3 is_stmt 0 view .LVU130
 457              		.thumb
 458              		.syntax unified
 459              	.LBE177:
 460              	.LBE176:
 461              		.loc 1 424 15 view .LVU131
 462 00da 844B     		ldr	r3, .L132
 463 00dc 1968     		ldr	r1, [r3]
 464              	.LVL29:
 465              	.LBB178:
 466              	.LBI178:
 981:Drivers/CMSIS/Include/cmsis_gcc.h **** {
 467              		.loc 2 981 31 is_stmt 1 view .LVU132
 468              	.LBB179:
 983:Drivers/CMSIS/Include/cmsis_gcc.h **** 
 469              		.loc 2 983 3 view .LVU133
 988:Drivers/CMSIS/Include/cmsis_gcc.h **** #else
 470              		.loc 2 988 4 view .LVU134
 471 00de 0223     		movs	r3, #2
 472              		.syntax unified
 473              	@ 988 "Drivers/CMSIS/Include/cmsis_gcc.h" 1
 474 00e0 93FAA3F3 		rbit r3, r3
 475              	@ 0 "" 2
 476              	.LVL30:
 477              		.loc 2 1001 3 view .LVU135
 478              		.loc 2 1001 3 is_stmt 0 view .LVU136
 479              		.thumb
 480              		.syntax unified
 481              	.LBE179:
 482              	.LBE178:
 483              		.loc 1 424 15 view .LVU137
 484 00e4 B3FA83F3 		clz	r3, r3
 485 00e8 03F01F03 		and	r3, r3, #31
 486 00ec 0122     		movs	r2, #1
 487 00ee 02FA03F3 		lsl	r3, r2, r3
 488              		.loc 1 424 14 view .LVU138
 489 00f2 0B42     		tst	r3, r1
 490 00f4 40F0C380 		bne	.L122
 425:Drivers/STM32F3xx_HAL_Driver/Src/stm32f3xx_hal_rcc.c ****         {
 426:Drivers/STM32F3xx_HAL_Driver/Src/stm32f3xx_hal_rcc.c ****           if((HAL_GetTick() - tickstart ) > HSI_TIMEOUT_VALUE)
 491              		.loc 1 426 11 is_stmt 1 view .LVU139
 492              		.loc 1 426 15 is_stmt 0 view .LVU140
 493 00f8 FFF7FEFF 		bl	HAL_GetTick
 494              	.LVL31:
 495              		.loc 1 426 29 view .LVU141
 496 00fc 401B     		subs	r0, r0, r5
 497              		.loc 1 426 13 view .LVU142
 498 00fe 0228     		cmp	r0, #2
 499 0100 E8D9     		bls	.L47
 427:Drivers/STM32F3xx_HAL_Driver/Src/stm32f3xx_hal_rcc.c ****           {
 428:Drivers/STM32F3xx_HAL_Driver/Src/stm32f3xx_hal_rcc.c ****             return HAL_TIMEOUT;
 500              		.loc 1 428 20 view .LVU143
 501 0102 0320     		movs	r0, #3
 502 0104 8BE2     		b	.L21
ARM GAS  /var/folders/jw/jcj5j9_530958b2rm5vp9wn00000gn/T//cceMbtLF.s 			page 36


 503              	.LVL32:
 504              	.L119:
 351:Drivers/STM32F3xx_HAL_Driver/Src/stm32f3xx_hal_rcc.c ****       
 505              		.loc 1 351 7 is_stmt 1 discriminator 1 view .LVU144
 506 0106 794A     		ldr	r2, .L132
 507 0108 1368     		ldr	r3, [r2]
 508 010a 43F48033 		orr	r3, r3, #65536
 509 010e 1360     		str	r3, [r2]
 510              	.L28:
 351:Drivers/STM32F3xx_HAL_Driver/Src/stm32f3xx_hal_rcc.c ****       
 511              		.loc 1 351 7 discriminator 10 view .LVU145
 355:Drivers/STM32F3xx_HAL_Driver/Src/stm32f3xx_hal_rcc.c **** #endif /* RCC_CFGR_PLLSRC_HSI_DIV2 */
 512              		.loc 1 355 7 discriminator 10 view .LVU146
 513 0110 764A     		ldr	r2, .L132
 514 0112 D36A     		ldr	r3, [r2, #44]
 515 0114 23F00F03 		bic	r3, r3, #15
 516 0118 A168     		ldr	r1, [r4, #8]
 517 011a 0B43     		orrs	r3, r3, r1
 518 011c D362     		str	r3, [r2, #44]
 359:Drivers/STM32F3xx_HAL_Driver/Src/stm32f3xx_hal_rcc.c ****       {
 519              		.loc 1 359 7 discriminator 10 view .LVU147
 359:Drivers/STM32F3xx_HAL_Driver/Src/stm32f3xx_hal_rcc.c ****       {
 520              		.loc 1 359 27 is_stmt 0 discriminator 10 view .LVU148
 521 011e 6368     		ldr	r3, [r4, #4]
 359:Drivers/STM32F3xx_HAL_Driver/Src/stm32f3xx_hal_rcc.c ****       {
 522              		.loc 1 359 9 discriminator 10 view .LVU149
 523 0120 002B     		cmp	r3, #0
 524 0122 36D0     		beq	.L31
 362:Drivers/STM32F3xx_HAL_Driver/Src/stm32f3xx_hal_rcc.c ****         
 525              		.loc 1 362 9 is_stmt 1 view .LVU150
 362:Drivers/STM32F3xx_HAL_Driver/Src/stm32f3xx_hal_rcc.c ****         
 526              		.loc 1 362 21 is_stmt 0 view .LVU151
 527 0124 FFF7FEFF 		bl	HAL_GetTick
 528              	.LVL33:
 362:Drivers/STM32F3xx_HAL_Driver/Src/stm32f3xx_hal_rcc.c ****         
 529              		.loc 1 362 21 view .LVU152
 530 0128 0546     		mov	r5, r0
 531              	.LVL34:
 365:Drivers/STM32F3xx_HAL_Driver/Src/stm32f3xx_hal_rcc.c ****         {
 532              		.loc 1 365 9 is_stmt 1 view .LVU153
 533              	.L32:
 365:Drivers/STM32F3xx_HAL_Driver/Src/stm32f3xx_hal_rcc.c ****         {
 534              		.loc 1 365 14 view .LVU154
 535              	.LBB180:
 536              	.LBI180:
 981:Drivers/CMSIS/Include/cmsis_gcc.h **** {
 537              		.loc 2 981 31 view .LVU155
 538              	.LBB181:
 983:Drivers/CMSIS/Include/cmsis_gcc.h **** 
 539              		.loc 2 983 3 view .LVU156
 988:Drivers/CMSIS/Include/cmsis_gcc.h **** #else
 540              		.loc 2 988 4 view .LVU157
 541 012a 4FF40033 		mov	r3, #131072
 542              		.syntax unified
 543              	@ 988 "Drivers/CMSIS/Include/cmsis_gcc.h" 1
 544 012e 93FAA3F3 		rbit r3, r3
 545              	@ 0 "" 2
ARM GAS  /var/folders/jw/jcj5j9_530958b2rm5vp9wn00000gn/T//cceMbtLF.s 			page 37


 546              		.loc 2 1001 3 view .LVU158
 547              	.LVL35:
 548              		.loc 2 1001 3 is_stmt 0 view .LVU159
 549              		.thumb
 550              		.syntax unified
 551              	.LBE181:
 552              	.LBE180:
 365:Drivers/STM32F3xx_HAL_Driver/Src/stm32f3xx_hal_rcc.c ****         {
 553              		.loc 1 365 15 view .LVU160
 554 0132 6E4B     		ldr	r3, .L132
 555 0134 1968     		ldr	r1, [r3]
 556              	.LVL36:
 557              	.LBB182:
 558              	.LBI182:
 981:Drivers/CMSIS/Include/cmsis_gcc.h **** {
 559              		.loc 2 981 31 is_stmt 1 view .LVU161
 560              	.LBB183:
 983:Drivers/CMSIS/Include/cmsis_gcc.h **** 
 561              		.loc 2 983 3 view .LVU162
 988:Drivers/CMSIS/Include/cmsis_gcc.h **** #else
 562              		.loc 2 988 4 view .LVU163
 563 0136 4FF40033 		mov	r3, #131072
 564              		.syntax unified
 565              	@ 988 "Drivers/CMSIS/Include/cmsis_gcc.h" 1
 566 013a 93FAA3F3 		rbit r3, r3
 567              	@ 0 "" 2
 568              	.LVL37:
 569              		.loc 2 1001 3 view .LVU164
 570              		.loc 2 1001 3 is_stmt 0 view .LVU165
 571              		.thumb
 572              		.syntax unified
 573              	.LBE183:
 574              	.LBE182:
 365:Drivers/STM32F3xx_HAL_Driver/Src/stm32f3xx_hal_rcc.c ****         {
 575              		.loc 1 365 15 view .LVU166
 576 013e B3FA83F3 		clz	r3, r3
 577 0142 03F01F03 		and	r3, r3, #31
 578 0146 0122     		movs	r2, #1
 579 0148 02FA03F3 		lsl	r3, r2, r3
 365:Drivers/STM32F3xx_HAL_Driver/Src/stm32f3xx_hal_rcc.c ****         {
 580              		.loc 1 365 14 view .LVU167
 581 014c 0B42     		tst	r3, r1
 582 014e 9DD1     		bne	.L22
 367:Drivers/STM32F3xx_HAL_Driver/Src/stm32f3xx_hal_rcc.c ****           {
 583              		.loc 1 367 11 is_stmt 1 view .LVU168
 367:Drivers/STM32F3xx_HAL_Driver/Src/stm32f3xx_hal_rcc.c ****           {
 584              		.loc 1 367 15 is_stmt 0 view .LVU169
 585 0150 FFF7FEFF 		bl	HAL_GetTick
 586              	.LVL38:
 367:Drivers/STM32F3xx_HAL_Driver/Src/stm32f3xx_hal_rcc.c ****           {
 587              		.loc 1 367 29 view .LVU170
 588 0154 401B     		subs	r0, r0, r5
 367:Drivers/STM32F3xx_HAL_Driver/Src/stm32f3xx_hal_rcc.c ****           {
 589              		.loc 1 367 13 view .LVU171
 590 0156 6428     		cmp	r0, #100
 591 0158 E7D9     		bls	.L32
 369:Drivers/STM32F3xx_HAL_Driver/Src/stm32f3xx_hal_rcc.c ****           }
ARM GAS  /var/folders/jw/jcj5j9_530958b2rm5vp9wn00000gn/T//cceMbtLF.s 			page 38


 592              		.loc 1 369 20 view .LVU172
 593 015a 0320     		movs	r0, #3
 594 015c 5FE2     		b	.L21
 595              	.LVL39:
 596              	.L29:
 351:Drivers/STM32F3xx_HAL_Driver/Src/stm32f3xx_hal_rcc.c ****       
 597              		.loc 1 351 7 is_stmt 1 discriminator 5 view .LVU173
 598 015e B3F5A02F 		cmp	r3, #327680
 599 0162 09D0     		beq	.L123
 351:Drivers/STM32F3xx_HAL_Driver/Src/stm32f3xx_hal_rcc.c ****       
 600              		.loc 1 351 7 discriminator 8 view .LVU174
 601 0164 614B     		ldr	r3, .L132
 602 0166 1A68     		ldr	r2, [r3]
 603 0168 22F48032 		bic	r2, r2, #65536
 604 016c 1A60     		str	r2, [r3]
 351:Drivers/STM32F3xx_HAL_Driver/Src/stm32f3xx_hal_rcc.c ****       
 605              		.loc 1 351 7 discriminator 8 view .LVU175
 606 016e 1A68     		ldr	r2, [r3]
 607 0170 22F48022 		bic	r2, r2, #262144
 608 0174 1A60     		str	r2, [r3]
 609 0176 CBE7     		b	.L28
 610              	.L123:
 351:Drivers/STM32F3xx_HAL_Driver/Src/stm32f3xx_hal_rcc.c ****       
 611              		.loc 1 351 7 discriminator 7 view .LVU176
 612 0178 03F18043 		add	r3, r3, #1073741824
 613 017c A3F53C33 		sub	r3, r3, #192512
 614 0180 1A68     		ldr	r2, [r3]
 615 0182 42F48022 		orr	r2, r2, #262144
 616 0186 1A60     		str	r2, [r3]
 351:Drivers/STM32F3xx_HAL_Driver/Src/stm32f3xx_hal_rcc.c ****       
 617              		.loc 1 351 7 discriminator 7 view .LVU177
 618 0188 1A68     		ldr	r2, [r3]
 619 018a 42F48032 		orr	r2, r2, #65536
 620 018e 1A60     		str	r2, [r3]
 621 0190 BEE7     		b	.L28
 622              	.L31:
 376:Drivers/STM32F3xx_HAL_Driver/Src/stm32f3xx_hal_rcc.c ****         
 623              		.loc 1 376 9 view .LVU178
 376:Drivers/STM32F3xx_HAL_Driver/Src/stm32f3xx_hal_rcc.c ****         
 624              		.loc 1 376 21 is_stmt 0 view .LVU179
 625 0192 FFF7FEFF 		bl	HAL_GetTick
 626              	.LVL40:
 376:Drivers/STM32F3xx_HAL_Driver/Src/stm32f3xx_hal_rcc.c ****         
 627              		.loc 1 376 21 view .LVU180
 628 0196 0546     		mov	r5, r0
 629              	.LVL41:
 379:Drivers/STM32F3xx_HAL_Driver/Src/stm32f3xx_hal_rcc.c ****         {
 630              		.loc 1 379 9 is_stmt 1 view .LVU181
 631              	.L36:
 379:Drivers/STM32F3xx_HAL_Driver/Src/stm32f3xx_hal_rcc.c ****         {
 632              		.loc 1 379 14 view .LVU182
 633              	.LBB184:
 634              	.LBI184:
 981:Drivers/CMSIS/Include/cmsis_gcc.h **** {
 635              		.loc 2 981 31 view .LVU183
 636              	.LBB185:
 983:Drivers/CMSIS/Include/cmsis_gcc.h **** 
ARM GAS  /var/folders/jw/jcj5j9_530958b2rm5vp9wn00000gn/T//cceMbtLF.s 			page 39


 637              		.loc 2 983 3 view .LVU184
 988:Drivers/CMSIS/Include/cmsis_gcc.h **** #else
 638              		.loc 2 988 4 view .LVU185
 639 0198 4FF40033 		mov	r3, #131072
 640              		.syntax unified
 641              	@ 988 "Drivers/CMSIS/Include/cmsis_gcc.h" 1
 642 019c 93FAA3F3 		rbit r3, r3
 643              	@ 0 "" 2
 644              		.loc 2 1001 3 view .LVU186
 645              	.LVL42:
 646              		.loc 2 1001 3 is_stmt 0 view .LVU187
 647              		.thumb
 648              		.syntax unified
 649              	.LBE185:
 650              	.LBE184:
 379:Drivers/STM32F3xx_HAL_Driver/Src/stm32f3xx_hal_rcc.c ****         {
 651              		.loc 1 379 15 view .LVU188
 652 01a0 524B     		ldr	r3, .L132
 653 01a2 1968     		ldr	r1, [r3]
 654              	.LVL43:
 655              	.LBB186:
 656              	.LBI186:
 981:Drivers/CMSIS/Include/cmsis_gcc.h **** {
 657              		.loc 2 981 31 is_stmt 1 view .LVU189
 658              	.LBB187:
 983:Drivers/CMSIS/Include/cmsis_gcc.h **** 
 659              		.loc 2 983 3 view .LVU190
 988:Drivers/CMSIS/Include/cmsis_gcc.h **** #else
 660              		.loc 2 988 4 view .LVU191
 661 01a4 4FF40033 		mov	r3, #131072
 662              		.syntax unified
 663              	@ 988 "Drivers/CMSIS/Include/cmsis_gcc.h" 1
 664 01a8 93FAA3F3 		rbit r3, r3
 665              	@ 0 "" 2
 666              	.LVL44:
 667              		.loc 2 1001 3 view .LVU192
 668              		.loc 2 1001 3 is_stmt 0 view .LVU193
 669              		.thumb
 670              		.syntax unified
 671              	.LBE187:
 672              	.LBE186:
 379:Drivers/STM32F3xx_HAL_Driver/Src/stm32f3xx_hal_rcc.c ****         {
 673              		.loc 1 379 15 view .LVU194
 674 01ac B3FA83F3 		clz	r3, r3
 675 01b0 03F01F03 		and	r3, r3, #31
 676 01b4 0122     		movs	r2, #1
 677 01b6 02FA03F3 		lsl	r3, r2, r3
 379:Drivers/STM32F3xx_HAL_Driver/Src/stm32f3xx_hal_rcc.c ****         {
 678              		.loc 1 379 14 view .LVU195
 679 01ba 0B42     		tst	r3, r1
 680 01bc 3FF466AF 		beq	.L22
 381:Drivers/STM32F3xx_HAL_Driver/Src/stm32f3xx_hal_rcc.c ****           {
 681              		.loc 1 381 12 is_stmt 1 view .LVU196
 381:Drivers/STM32F3xx_HAL_Driver/Src/stm32f3xx_hal_rcc.c ****           {
 682              		.loc 1 381 16 is_stmt 0 view .LVU197
 683 01c0 FFF7FEFF 		bl	HAL_GetTick
 684              	.LVL45:
ARM GAS  /var/folders/jw/jcj5j9_530958b2rm5vp9wn00000gn/T//cceMbtLF.s 			page 40


 381:Drivers/STM32F3xx_HAL_Driver/Src/stm32f3xx_hal_rcc.c ****           {
 685              		.loc 1 381 30 view .LVU198
 686 01c4 401B     		subs	r0, r0, r5
 381:Drivers/STM32F3xx_HAL_Driver/Src/stm32f3xx_hal_rcc.c ****           {
 687              		.loc 1 381 14 view .LVU199
 688 01c6 6428     		cmp	r0, #100
 689 01c8 E6D9     		bls	.L36
 383:Drivers/STM32F3xx_HAL_Driver/Src/stm32f3xx_hal_rcc.c ****           }
 690              		.loc 1 383 20 view .LVU200
 691 01ca 0320     		movs	r0, #3
 692 01cc 27E2     		b	.L21
 693              	.LVL46:
 694              	.L121:
 398:Drivers/STM32F3xx_HAL_Driver/Src/stm32f3xx_hal_rcc.c ****     {
 695              		.loc 1 398 82 discriminator 1 view .LVU201
 696 01ce 474B     		ldr	r3, .L132
 697 01d0 5B68     		ldr	r3, [r3, #4]
 398:Drivers/STM32F3xx_HAL_Driver/Src/stm32f3xx_hal_rcc.c ****     {
 698              		.loc 1 398 78 discriminator 1 view .LVU202
 699 01d2 13F4803F 		tst	r3, #65536
 700 01d6 7FF46BAF 		bne	.L42
 701              	.L41:
 401:Drivers/STM32F3xx_HAL_Driver/Src/stm32f3xx_hal_rcc.c ****       {
 702              		.loc 1 401 7 is_stmt 1 view .LVU203
 703              	.LVL47:
 704              	.LBB188:
 705              	.LBI188:
 981:Drivers/CMSIS/Include/cmsis_gcc.h **** {
 706              		.loc 2 981 31 view .LVU204
 707              	.LBB189:
 983:Drivers/CMSIS/Include/cmsis_gcc.h **** 
 708              		.loc 2 983 3 view .LVU205
 988:Drivers/CMSIS/Include/cmsis_gcc.h **** #else
 709              		.loc 2 988 4 view .LVU206
 710 01da 0223     		movs	r3, #2
 711              		.syntax unified
 712              	@ 988 "Drivers/CMSIS/Include/cmsis_gcc.h" 1
 713 01dc 93FAA3F3 		rbit r3, r3
 714              	@ 0 "" 2
 715              		.loc 2 1001 3 view .LVU207
 716              	.LVL48:
 717              		.loc 2 1001 3 is_stmt 0 view .LVU208
 718              		.thumb
 719              		.syntax unified
 720              	.LBE189:
 721              	.LBE188:
 401:Drivers/STM32F3xx_HAL_Driver/Src/stm32f3xx_hal_rcc.c ****       {
 722              		.loc 1 401 11 view .LVU209
 723 01e0 424B     		ldr	r3, .L132
 724 01e2 1968     		ldr	r1, [r3]
 725              	.LVL49:
 726              	.LBB190:
 727              	.LBI190:
 981:Drivers/CMSIS/Include/cmsis_gcc.h **** {
 728              		.loc 2 981 31 is_stmt 1 view .LVU210
 729              	.LBB191:
 983:Drivers/CMSIS/Include/cmsis_gcc.h **** 
ARM GAS  /var/folders/jw/jcj5j9_530958b2rm5vp9wn00000gn/T//cceMbtLF.s 			page 41


 730              		.loc 2 983 3 view .LVU211
 988:Drivers/CMSIS/Include/cmsis_gcc.h **** #else
 731              		.loc 2 988 4 view .LVU212
 732 01e4 0223     		movs	r3, #2
 733              		.syntax unified
 734              	@ 988 "Drivers/CMSIS/Include/cmsis_gcc.h" 1
 735 01e6 93FAA3F3 		rbit r3, r3
 736              	@ 0 "" 2
 737              	.LVL50:
 738              		.loc 2 1001 3 view .LVU213
 739              		.loc 2 1001 3 is_stmt 0 view .LVU214
 740              		.thumb
 741              		.syntax unified
 742              	.LBE191:
 743              	.LBE190:
 401:Drivers/STM32F3xx_HAL_Driver/Src/stm32f3xx_hal_rcc.c ****       {
 744              		.loc 1 401 11 view .LVU215
 745 01ea B3FA83F3 		clz	r3, r3
 746 01ee 03F01F03 		and	r3, r3, #31
 747 01f2 0122     		movs	r2, #1
 748 01f4 02FA03F3 		lsl	r3, r2, r3
 401:Drivers/STM32F3xx_HAL_Driver/Src/stm32f3xx_hal_rcc.c ****       {
 749              		.loc 1 401 9 view .LVU216
 750 01f8 0B42     		tst	r3, r1
 751 01fa 03D0     		beq	.L45
 401:Drivers/STM32F3xx_HAL_Driver/Src/stm32f3xx_hal_rcc.c ****       {
 752              		.loc 1 401 78 discriminator 13 view .LVU217
 753 01fc 2369     		ldr	r3, [r4, #16]
 401:Drivers/STM32F3xx_HAL_Driver/Src/stm32f3xx_hal_rcc.c ****       {
 754              		.loc 1 401 57 discriminator 13 view .LVU218
 755 01fe 9342     		cmp	r3, r2
 756 0200 40F00682 		bne	.L98
 757              	.L45:
 409:Drivers/STM32F3xx_HAL_Driver/Src/stm32f3xx_hal_rcc.c ****       }
 758              		.loc 1 409 9 is_stmt 1 view .LVU219
 759 0204 3948     		ldr	r0, .L132
 760 0206 0368     		ldr	r3, [r0]
 761 0208 23F0F803 		bic	r3, r3, #248
 762 020c 6169     		ldr	r1, [r4, #20]
 763              	.LVL51:
 764              	.LBB192:
 765              	.LBI192:
 981:Drivers/CMSIS/Include/cmsis_gcc.h **** {
 766              		.loc 2 981 31 view .LVU220
 767              	.LBB193:
 983:Drivers/CMSIS/Include/cmsis_gcc.h **** 
 768              		.loc 2 983 3 view .LVU221
 988:Drivers/CMSIS/Include/cmsis_gcc.h **** #else
 769              		.loc 2 988 4 view .LVU222
 770 020e F822     		movs	r2, #248
 771              		.syntax unified
 772              	@ 988 "Drivers/CMSIS/Include/cmsis_gcc.h" 1
 773 0210 92FAA2F2 		rbit r2, r2
 774              	@ 0 "" 2
 775              	.LVL52:
 776              		.loc 2 1001 3 view .LVU223
 777              		.loc 2 1001 3 is_stmt 0 view .LVU224
ARM GAS  /var/folders/jw/jcj5j9_530958b2rm5vp9wn00000gn/T//cceMbtLF.s 			page 42


 778              		.thumb
 779              		.syntax unified
 780              	.LBE193:
 781              	.LBE192:
 409:Drivers/STM32F3xx_HAL_Driver/Src/stm32f3xx_hal_rcc.c ****       }
 782              		.loc 1 409 9 view .LVU225
 783 0214 B2FA82F2 		clz	r2, r2
 784 0218 01FA02F2 		lsl	r2, r1, r2
 785 021c 1343     		orrs	r3, r3, r2
 786 021e 0360     		str	r3, [r0]
 787              	.L40:
 429:Drivers/STM32F3xx_HAL_Driver/Src/stm32f3xx_hal_rcc.c ****           }
 430:Drivers/STM32F3xx_HAL_Driver/Src/stm32f3xx_hal_rcc.c ****         }
 431:Drivers/STM32F3xx_HAL_Driver/Src/stm32f3xx_hal_rcc.c ****                 
 432:Drivers/STM32F3xx_HAL_Driver/Src/stm32f3xx_hal_rcc.c ****         /* Adjusts the Internal High Speed oscillator (HSI) calibration value.*/
 433:Drivers/STM32F3xx_HAL_Driver/Src/stm32f3xx_hal_rcc.c ****         __HAL_RCC_HSI_CALIBRATIONVALUE_ADJUST(RCC_OscInitStruct->HSICalibrationValue);
 434:Drivers/STM32F3xx_HAL_Driver/Src/stm32f3xx_hal_rcc.c ****       }
 435:Drivers/STM32F3xx_HAL_Driver/Src/stm32f3xx_hal_rcc.c ****       else
 436:Drivers/STM32F3xx_HAL_Driver/Src/stm32f3xx_hal_rcc.c ****       {
 437:Drivers/STM32F3xx_HAL_Driver/Src/stm32f3xx_hal_rcc.c ****         /* Disable the Internal High Speed oscillator (HSI). */
 438:Drivers/STM32F3xx_HAL_Driver/Src/stm32f3xx_hal_rcc.c ****         __HAL_RCC_HSI_DISABLE();
 439:Drivers/STM32F3xx_HAL_Driver/Src/stm32f3xx_hal_rcc.c ****         
 440:Drivers/STM32F3xx_HAL_Driver/Src/stm32f3xx_hal_rcc.c ****         /* Get Start Tick */
 441:Drivers/STM32F3xx_HAL_Driver/Src/stm32f3xx_hal_rcc.c ****         tickstart = HAL_GetTick();
 442:Drivers/STM32F3xx_HAL_Driver/Src/stm32f3xx_hal_rcc.c ****         
 443:Drivers/STM32F3xx_HAL_Driver/Src/stm32f3xx_hal_rcc.c ****         /* Wait till HSI is disabled */
 444:Drivers/STM32F3xx_HAL_Driver/Src/stm32f3xx_hal_rcc.c ****         while(__HAL_RCC_GET_FLAG(RCC_FLAG_HSIRDY) != RESET)
 445:Drivers/STM32F3xx_HAL_Driver/Src/stm32f3xx_hal_rcc.c ****         {
 446:Drivers/STM32F3xx_HAL_Driver/Src/stm32f3xx_hal_rcc.c ****           if((HAL_GetTick() - tickstart ) > HSI_TIMEOUT_VALUE)
 447:Drivers/STM32F3xx_HAL_Driver/Src/stm32f3xx_hal_rcc.c ****           {
 448:Drivers/STM32F3xx_HAL_Driver/Src/stm32f3xx_hal_rcc.c ****             return HAL_TIMEOUT;
 449:Drivers/STM32F3xx_HAL_Driver/Src/stm32f3xx_hal_rcc.c ****           }
 450:Drivers/STM32F3xx_HAL_Driver/Src/stm32f3xx_hal_rcc.c ****         }
 451:Drivers/STM32F3xx_HAL_Driver/Src/stm32f3xx_hal_rcc.c ****       }
 452:Drivers/STM32F3xx_HAL_Driver/Src/stm32f3xx_hal_rcc.c ****     }
 453:Drivers/STM32F3xx_HAL_Driver/Src/stm32f3xx_hal_rcc.c ****   }
 454:Drivers/STM32F3xx_HAL_Driver/Src/stm32f3xx_hal_rcc.c ****   /*------------------------------ LSI Configuration -------------------------*/ 
 455:Drivers/STM32F3xx_HAL_Driver/Src/stm32f3xx_hal_rcc.c ****   if(((RCC_OscInitStruct->OscillatorType) & RCC_OSCILLATORTYPE_LSI) == RCC_OSCILLATORTYPE_LSI)
 788              		.loc 1 455 3 is_stmt 1 view .LVU226
 789              		.loc 1 455 25 is_stmt 0 view .LVU227
 790 0220 2368     		ldr	r3, [r4]
 791              		.loc 1 455 5 view .LVU228
 792 0222 13F0080F 		tst	r3, #8
 793 0226 00F08D80 		beq	.L55
 456:Drivers/STM32F3xx_HAL_Driver/Src/stm32f3xx_hal_rcc.c ****   {
 457:Drivers/STM32F3xx_HAL_Driver/Src/stm32f3xx_hal_rcc.c ****     /* Check the parameters */
 458:Drivers/STM32F3xx_HAL_Driver/Src/stm32f3xx_hal_rcc.c ****     assert_param(IS_RCC_LSI(RCC_OscInitStruct->LSIState));
 794              		.loc 1 458 5 is_stmt 1 view .LVU229
 459:Drivers/STM32F3xx_HAL_Driver/Src/stm32f3xx_hal_rcc.c ****     
 460:Drivers/STM32F3xx_HAL_Driver/Src/stm32f3xx_hal_rcc.c ****     /* Check the LSI State */
 461:Drivers/STM32F3xx_HAL_Driver/Src/stm32f3xx_hal_rcc.c ****     if(RCC_OscInitStruct->LSIState != RCC_LSI_OFF)
 795              		.loc 1 461 5 view .LVU230
 796              		.loc 1 461 25 is_stmt 0 view .LVU231
 797 022a A369     		ldr	r3, [r4, #24]
 798              		.loc 1 461 7 view .LVU232
 799 022c 002B     		cmp	r3, #0
 800 022e 61D0     		beq	.L56
ARM GAS  /var/folders/jw/jcj5j9_530958b2rm5vp9wn00000gn/T//cceMbtLF.s 			page 43


 462:Drivers/STM32F3xx_HAL_Driver/Src/stm32f3xx_hal_rcc.c ****     {
 463:Drivers/STM32F3xx_HAL_Driver/Src/stm32f3xx_hal_rcc.c ****       /* Enable the Internal Low Speed oscillator (LSI). */
 464:Drivers/STM32F3xx_HAL_Driver/Src/stm32f3xx_hal_rcc.c ****       __HAL_RCC_LSI_ENABLE();
 801              		.loc 1 464 7 is_stmt 1 view .LVU233
 802              	.LVL53:
 803              	.LBB194:
 804              	.LBI194:
 981:Drivers/CMSIS/Include/cmsis_gcc.h **** {
 805              		.loc 2 981 31 view .LVU234
 806              	.LBB195:
 983:Drivers/CMSIS/Include/cmsis_gcc.h **** 
 807              		.loc 2 983 3 view .LVU235
 988:Drivers/CMSIS/Include/cmsis_gcc.h **** #else
 808              		.loc 2 988 4 view .LVU236
 809 0230 0121     		movs	r1, #1
 810              		.syntax unified
 811              	@ 988 "Drivers/CMSIS/Include/cmsis_gcc.h" 1
 812 0232 91FAA1F2 		rbit r2, r1
 813              	@ 0 "" 2
 814              	.LVL54:
 815              		.loc 2 1001 3 view .LVU237
 816              		.loc 2 1001 3 is_stmt 0 view .LVU238
 817              		.thumb
 818              		.syntax unified
 819              	.LBE195:
 820              	.LBE194:
 821              		.loc 1 464 7 view .LVU239
 822 0236 B2FA82F2 		clz	r2, r2
 823 023a 2D4B     		ldr	r3, .L132+4
 824 023c 1344     		add	r3, r3, r2
 825 023e 9B00     		lsls	r3, r3, #2
 826 0240 1960     		str	r1, [r3]
 465:Drivers/STM32F3xx_HAL_Driver/Src/stm32f3xx_hal_rcc.c ****       
 466:Drivers/STM32F3xx_HAL_Driver/Src/stm32f3xx_hal_rcc.c ****       /* Get Start Tick */
 467:Drivers/STM32F3xx_HAL_Driver/Src/stm32f3xx_hal_rcc.c ****       tickstart = HAL_GetTick();
 827              		.loc 1 467 7 is_stmt 1 view .LVU240
 828              		.loc 1 467 19 is_stmt 0 view .LVU241
 829 0242 FFF7FEFF 		bl	HAL_GetTick
 830              	.LVL55:
 831 0246 0546     		mov	r5, r0
 832              	.LVL56:
 468:Drivers/STM32F3xx_HAL_Driver/Src/stm32f3xx_hal_rcc.c ****       
 469:Drivers/STM32F3xx_HAL_Driver/Src/stm32f3xx_hal_rcc.c ****       /* Wait till LSI is ready */  
 470:Drivers/STM32F3xx_HAL_Driver/Src/stm32f3xx_hal_rcc.c ****       while(__HAL_RCC_GET_FLAG(RCC_FLAG_LSIRDY) == RESET)
 833              		.loc 1 470 7 is_stmt 1 view .LVU242
 834              	.L57:
 835              		.loc 1 470 12 view .LVU243
 836              	.LBB196:
 837              	.LBI196:
 981:Drivers/CMSIS/Include/cmsis_gcc.h **** {
 838              		.loc 2 981 31 view .LVU244
 839              	.LBB197:
 983:Drivers/CMSIS/Include/cmsis_gcc.h **** 
 840              		.loc 2 983 3 view .LVU245
 988:Drivers/CMSIS/Include/cmsis_gcc.h **** #else
 841              		.loc 2 988 4 view .LVU246
 842 0248 0223     		movs	r3, #2
ARM GAS  /var/folders/jw/jcj5j9_530958b2rm5vp9wn00000gn/T//cceMbtLF.s 			page 44


 843              		.syntax unified
 844              	@ 988 "Drivers/CMSIS/Include/cmsis_gcc.h" 1
 845 024a 93FAA3F2 		rbit r2, r3
 846              	@ 0 "" 2
 847              	.LVL57:
 848              		.loc 2 1001 3 view .LVU247
 849              		.loc 2 1001 3 is_stmt 0 view .LVU248
 850              		.thumb
 851              		.syntax unified
 852              	.LBE197:
 853              	.LBE196:
 854              	.LBB198:
 855              	.LBI198:
 981:Drivers/CMSIS/Include/cmsis_gcc.h **** {
 856              		.loc 2 981 31 is_stmt 1 view .LVU249
 857              	.LBB199:
 983:Drivers/CMSIS/Include/cmsis_gcc.h **** 
 858              		.loc 2 983 3 view .LVU250
 988:Drivers/CMSIS/Include/cmsis_gcc.h **** #else
 859              		.loc 2 988 4 view .LVU251
 860              		.syntax unified
 861              	@ 988 "Drivers/CMSIS/Include/cmsis_gcc.h" 1
 862 024e 93FAA3F2 		rbit r2, r3
 863              	@ 0 "" 2
 864              	.LVL58:
 865              		.loc 2 1001 3 view .LVU252
 866              		.loc 2 1001 3 is_stmt 0 view .LVU253
 867              		.thumb
 868              		.syntax unified
 869              	.LBE199:
 870              	.LBE198:
 871              	.LBB200:
 872              	.LBI200:
 981:Drivers/CMSIS/Include/cmsis_gcc.h **** {
 873              		.loc 2 981 31 is_stmt 1 view .LVU254
 874              	.LBB201:
 983:Drivers/CMSIS/Include/cmsis_gcc.h **** 
 875              		.loc 2 983 3 view .LVU255
 988:Drivers/CMSIS/Include/cmsis_gcc.h **** #else
 876              		.loc 2 988 4 view .LVU256
 877              		.syntax unified
 878              	@ 988 "Drivers/CMSIS/Include/cmsis_gcc.h" 1
 879 0252 93FAA3F2 		rbit r2, r3
 880              	@ 0 "" 2
 881              	.LVL59:
 882              		.loc 2 1001 3 view .LVU257
 883              		.loc 2 1001 3 is_stmt 0 view .LVU258
 884              		.thumb
 885              		.syntax unified
 886              	.LBE201:
 887              	.LBE200:
 888              		.loc 1 470 13 view .LVU259
 889 0256 254A     		ldr	r2, .L132
 890 0258 516A     		ldr	r1, [r2, #36]
 891              	.LVL60:
 892              	.LBB202:
 893              	.LBI202:
ARM GAS  /var/folders/jw/jcj5j9_530958b2rm5vp9wn00000gn/T//cceMbtLF.s 			page 45


 981:Drivers/CMSIS/Include/cmsis_gcc.h **** {
 894              		.loc 2 981 31 is_stmt 1 view .LVU260
 895              	.LBB203:
 983:Drivers/CMSIS/Include/cmsis_gcc.h **** 
 896              		.loc 2 983 3 view .LVU261
 988:Drivers/CMSIS/Include/cmsis_gcc.h **** #else
 897              		.loc 2 988 4 view .LVU262
 898              		.syntax unified
 899              	@ 988 "Drivers/CMSIS/Include/cmsis_gcc.h" 1
 900 025a 93FAA3F3 		rbit r3, r3
 901              	@ 0 "" 2
 902              	.LVL61:
 903              		.loc 2 1001 3 view .LVU263
 904              		.loc 2 1001 3 is_stmt 0 view .LVU264
 905              		.thumb
 906              		.syntax unified
 907              	.LBE203:
 908              	.LBE202:
 909              		.loc 1 470 13 view .LVU265
 910 025e B3FA83F3 		clz	r3, r3
 911 0262 03F01F03 		and	r3, r3, #31
 912 0266 0122     		movs	r2, #1
 913 0268 02FA03F3 		lsl	r3, r2, r3
 914              		.loc 1 470 12 view .LVU266
 915 026c 0B42     		tst	r3, r1
 916 026e 69D1     		bne	.L55
 471:Drivers/STM32F3xx_HAL_Driver/Src/stm32f3xx_hal_rcc.c ****       {
 472:Drivers/STM32F3xx_HAL_Driver/Src/stm32f3xx_hal_rcc.c ****         if((HAL_GetTick() - tickstart ) > LSI_TIMEOUT_VALUE)
 917              		.loc 1 472 9 is_stmt 1 view .LVU267
 918              		.loc 1 472 13 is_stmt 0 view .LVU268
 919 0270 FFF7FEFF 		bl	HAL_GetTick
 920              	.LVL62:
 921              		.loc 1 472 27 view .LVU269
 922 0274 401B     		subs	r0, r0, r5
 923              		.loc 1 472 11 view .LVU270
 924 0276 0228     		cmp	r0, #2
 925 0278 E6D9     		bls	.L57
 473:Drivers/STM32F3xx_HAL_Driver/Src/stm32f3xx_hal_rcc.c ****         {
 474:Drivers/STM32F3xx_HAL_Driver/Src/stm32f3xx_hal_rcc.c ****           return HAL_TIMEOUT;
 926              		.loc 1 474 18 view .LVU271
 927 027a 0320     		movs	r0, #3
 928 027c CFE1     		b	.L21
 929              	.L122:
 433:Drivers/STM32F3xx_HAL_Driver/Src/stm32f3xx_hal_rcc.c ****       }
 930              		.loc 1 433 9 is_stmt 1 view .LVU272
 931 027e 1B48     		ldr	r0, .L132
 932 0280 0368     		ldr	r3, [r0]
 933 0282 23F0F803 		bic	r3, r3, #248
 934 0286 6169     		ldr	r1, [r4, #20]
 935              	.LVL63:
 936              	.LBB204:
 937              	.LBI204:
 981:Drivers/CMSIS/Include/cmsis_gcc.h **** {
 938              		.loc 2 981 31 view .LVU273
 939              	.LBB205:
 983:Drivers/CMSIS/Include/cmsis_gcc.h **** 
 940              		.loc 2 983 3 view .LVU274
ARM GAS  /var/folders/jw/jcj5j9_530958b2rm5vp9wn00000gn/T//cceMbtLF.s 			page 46


 988:Drivers/CMSIS/Include/cmsis_gcc.h **** #else
 941              		.loc 2 988 4 view .LVU275
 942 0288 F822     		movs	r2, #248
 943              		.syntax unified
 944              	@ 988 "Drivers/CMSIS/Include/cmsis_gcc.h" 1
 945 028a 92FAA2F2 		rbit r2, r2
 946              	@ 0 "" 2
 947              	.LVL64:
 948              		.loc 2 1001 3 view .LVU276
 949              		.loc 2 1001 3 is_stmt 0 view .LVU277
 950              		.thumb
 951              		.syntax unified
 952              	.LBE205:
 953              	.LBE204:
 433:Drivers/STM32F3xx_HAL_Driver/Src/stm32f3xx_hal_rcc.c ****       }
 954              		.loc 1 433 9 view .LVU278
 955 028e B2FA82F2 		clz	r2, r2
 956 0292 01FA02F2 		lsl	r2, r1, r2
 957 0296 1343     		orrs	r3, r3, r2
 958 0298 0360     		str	r3, [r0]
 959 029a C1E7     		b	.L40
 960              	.LVL65:
 961              	.L46:
 438:Drivers/STM32F3xx_HAL_Driver/Src/stm32f3xx_hal_rcc.c ****         
 962              		.loc 1 438 9 is_stmt 1 view .LVU279
 963              	.LBB206:
 964              	.LBI206:
 981:Drivers/CMSIS/Include/cmsis_gcc.h **** {
 965              		.loc 2 981 31 view .LVU280
 966              	.LBB207:
 983:Drivers/CMSIS/Include/cmsis_gcc.h **** 
 967              		.loc 2 983 3 view .LVU281
 988:Drivers/CMSIS/Include/cmsis_gcc.h **** #else
 968              		.loc 2 988 4 view .LVU282
 969 029c 0123     		movs	r3, #1
 970              		.syntax unified
 971              	@ 988 "Drivers/CMSIS/Include/cmsis_gcc.h" 1
 972 029e 93FAA3F3 		rbit r3, r3
 973              	@ 0 "" 2
 974              	.LVL66:
 975              		.loc 2 1001 3 view .LVU283
 976              		.loc 2 1001 3 is_stmt 0 view .LVU284
 977              		.thumb
 978              		.syntax unified
 979              	.LBE207:
 980              	.LBE206:
 438:Drivers/STM32F3xx_HAL_Driver/Src/stm32f3xx_hal_rcc.c ****         
 981              		.loc 1 438 9 view .LVU285
 982 02a2 B3FA83F3 		clz	r3, r3
 983 02a6 03F18453 		add	r3, r3, #276824064
 984 02aa 03F58413 		add	r3, r3, #1081344
 985 02ae 9B00     		lsls	r3, r3, #2
 986 02b0 0022     		movs	r2, #0
 987 02b2 1A60     		str	r2, [r3]
 441:Drivers/STM32F3xx_HAL_Driver/Src/stm32f3xx_hal_rcc.c ****         
 988              		.loc 1 441 9 is_stmt 1 view .LVU286
 441:Drivers/STM32F3xx_HAL_Driver/Src/stm32f3xx_hal_rcc.c ****         
ARM GAS  /var/folders/jw/jcj5j9_530958b2rm5vp9wn00000gn/T//cceMbtLF.s 			page 47


 989              		.loc 1 441 21 is_stmt 0 view .LVU287
 990 02b4 FFF7FEFF 		bl	HAL_GetTick
 991              	.LVL67:
 992 02b8 0546     		mov	r5, r0
 993              	.LVL68:
 444:Drivers/STM32F3xx_HAL_Driver/Src/stm32f3xx_hal_rcc.c ****         {
 994              		.loc 1 444 9 is_stmt 1 view .LVU288
 995              	.L51:
 444:Drivers/STM32F3xx_HAL_Driver/Src/stm32f3xx_hal_rcc.c ****         {
 996              		.loc 1 444 14 view .LVU289
 997              	.LBB208:
 998              	.LBI208:
 981:Drivers/CMSIS/Include/cmsis_gcc.h **** {
 999              		.loc 2 981 31 view .LVU290
 1000              	.LBB209:
 983:Drivers/CMSIS/Include/cmsis_gcc.h **** 
 1001              		.loc 2 983 3 view .LVU291
 988:Drivers/CMSIS/Include/cmsis_gcc.h **** #else
 1002              		.loc 2 988 4 view .LVU292
 1003 02ba 0223     		movs	r3, #2
 1004              		.syntax unified
 1005              	@ 988 "Drivers/CMSIS/Include/cmsis_gcc.h" 1
 1006 02bc 93FAA3F3 		rbit r3, r3
 1007              	@ 0 "" 2
 1008              		.loc 2 1001 3 view .LVU293
 1009              	.LVL69:
 1010              		.loc 2 1001 3 is_stmt 0 view .LVU294
 1011              		.thumb
 1012              		.syntax unified
 1013              	.LBE209:
 1014              	.LBE208:
 444:Drivers/STM32F3xx_HAL_Driver/Src/stm32f3xx_hal_rcc.c ****         {
 1015              		.loc 1 444 15 view .LVU295
 1016 02c0 0A4B     		ldr	r3, .L132
 1017 02c2 1968     		ldr	r1, [r3]
 1018              	.LVL70:
 1019              	.LBB210:
 1020              	.LBI210:
 981:Drivers/CMSIS/Include/cmsis_gcc.h **** {
 1021              		.loc 2 981 31 is_stmt 1 view .LVU296
 1022              	.LBB211:
 983:Drivers/CMSIS/Include/cmsis_gcc.h **** 
 1023              		.loc 2 983 3 view .LVU297
 988:Drivers/CMSIS/Include/cmsis_gcc.h **** #else
 1024              		.loc 2 988 4 view .LVU298
 1025 02c4 0223     		movs	r3, #2
 1026              		.syntax unified
 1027              	@ 988 "Drivers/CMSIS/Include/cmsis_gcc.h" 1
 1028 02c6 93FAA3F3 		rbit r3, r3
 1029              	@ 0 "" 2
 1030              	.LVL71:
 1031              		.loc 2 1001 3 view .LVU299
 1032              		.loc 2 1001 3 is_stmt 0 view .LVU300
 1033              		.thumb
 1034              		.syntax unified
 1035              	.LBE211:
 1036              	.LBE210:
ARM GAS  /var/folders/jw/jcj5j9_530958b2rm5vp9wn00000gn/T//cceMbtLF.s 			page 48


 444:Drivers/STM32F3xx_HAL_Driver/Src/stm32f3xx_hal_rcc.c ****         {
 1037              		.loc 1 444 15 view .LVU301
 1038 02ca B3FA83F3 		clz	r3, r3
 1039 02ce 03F01F03 		and	r3, r3, #31
 1040 02d2 0122     		movs	r2, #1
 1041 02d4 02FA03F3 		lsl	r3, r2, r3
 444:Drivers/STM32F3xx_HAL_Driver/Src/stm32f3xx_hal_rcc.c ****         {
 1042              		.loc 1 444 14 view .LVU302
 1043 02d8 0B42     		tst	r3, r1
 1044 02da A1D0     		beq	.L40
 446:Drivers/STM32F3xx_HAL_Driver/Src/stm32f3xx_hal_rcc.c ****           {
 1045              		.loc 1 446 11 is_stmt 1 view .LVU303
 446:Drivers/STM32F3xx_HAL_Driver/Src/stm32f3xx_hal_rcc.c ****           {
 1046              		.loc 1 446 15 is_stmt 0 view .LVU304
 1047 02dc FFF7FEFF 		bl	HAL_GetTick
 1048              	.LVL72:
 446:Drivers/STM32F3xx_HAL_Driver/Src/stm32f3xx_hal_rcc.c ****           {
 1049              		.loc 1 446 29 view .LVU305
 1050 02e0 401B     		subs	r0, r0, r5
 446:Drivers/STM32F3xx_HAL_Driver/Src/stm32f3xx_hal_rcc.c ****           {
 1051              		.loc 1 446 13 view .LVU306
 1052 02e2 0228     		cmp	r0, #2
 1053 02e4 E9D9     		bls	.L51
 448:Drivers/STM32F3xx_HAL_Driver/Src/stm32f3xx_hal_rcc.c ****           }
 1054              		.loc 1 448 20 view .LVU307
 1055 02e6 0320     		movs	r0, #3
 1056 02e8 99E1     		b	.L21
 1057              	.L133:
 1058 02ea 00BF     		.align	2
 1059              	.L132:
 1060 02ec 00100240 		.word	1073876992
 1061 02f0 20819010 		.word	277905696
 1062              	.LVL73:
 1063              	.L56:
 475:Drivers/STM32F3xx_HAL_Driver/Src/stm32f3xx_hal_rcc.c ****         }
 476:Drivers/STM32F3xx_HAL_Driver/Src/stm32f3xx_hal_rcc.c ****       }
 477:Drivers/STM32F3xx_HAL_Driver/Src/stm32f3xx_hal_rcc.c ****     }
 478:Drivers/STM32F3xx_HAL_Driver/Src/stm32f3xx_hal_rcc.c ****     else
 479:Drivers/STM32F3xx_HAL_Driver/Src/stm32f3xx_hal_rcc.c ****     {
 480:Drivers/STM32F3xx_HAL_Driver/Src/stm32f3xx_hal_rcc.c ****       /* Disable the Internal Low Speed oscillator (LSI). */
 481:Drivers/STM32F3xx_HAL_Driver/Src/stm32f3xx_hal_rcc.c ****       __HAL_RCC_LSI_DISABLE();
 1064              		.loc 1 481 7 is_stmt 1 view .LVU308
 1065              	.LBB212:
 1066              	.LBI212:
 981:Drivers/CMSIS/Include/cmsis_gcc.h **** {
 1067              		.loc 2 981 31 view .LVU309
 1068              	.LBB213:
 983:Drivers/CMSIS/Include/cmsis_gcc.h **** 
 1069              		.loc 2 983 3 view .LVU310
 988:Drivers/CMSIS/Include/cmsis_gcc.h **** #else
 1070              		.loc 2 988 4 view .LVU311
 1071 02f4 0122     		movs	r2, #1
 1072              		.syntax unified
 1073              	@ 988 "Drivers/CMSIS/Include/cmsis_gcc.h" 1
 1074 02f6 92FAA2F2 		rbit r2, r2
 1075              	@ 0 "" 2
 1076              	.LVL74:
ARM GAS  /var/folders/jw/jcj5j9_530958b2rm5vp9wn00000gn/T//cceMbtLF.s 			page 49


 1077              		.loc 2 1001 3 view .LVU312
 1078              		.loc 2 1001 3 is_stmt 0 view .LVU313
 1079              		.thumb
 1080              		.syntax unified
 1081              	.LBE213:
 1082              	.LBE212:
 1083              		.loc 1 481 7 view .LVU314
 1084 02fa B2FA82F2 		clz	r2, r2
 1085 02fe B74B     		ldr	r3, .L134
 1086 0300 1344     		add	r3, r3, r2
 1087 0302 9B00     		lsls	r3, r3, #2
 1088 0304 0022     		movs	r2, #0
 1089 0306 1A60     		str	r2, [r3]
 482:Drivers/STM32F3xx_HAL_Driver/Src/stm32f3xx_hal_rcc.c ****       
 483:Drivers/STM32F3xx_HAL_Driver/Src/stm32f3xx_hal_rcc.c ****       /* Get Start Tick */
 484:Drivers/STM32F3xx_HAL_Driver/Src/stm32f3xx_hal_rcc.c ****       tickstart = HAL_GetTick();
 1090              		.loc 1 484 7 is_stmt 1 view .LVU315
 1091              		.loc 1 484 19 is_stmt 0 view .LVU316
 1092 0308 FFF7FEFF 		bl	HAL_GetTick
 1093              	.LVL75:
 1094 030c 0546     		mov	r5, r0
 1095              	.LVL76:
 485:Drivers/STM32F3xx_HAL_Driver/Src/stm32f3xx_hal_rcc.c ****       
 486:Drivers/STM32F3xx_HAL_Driver/Src/stm32f3xx_hal_rcc.c ****       /* Wait till LSI is disabled */  
 487:Drivers/STM32F3xx_HAL_Driver/Src/stm32f3xx_hal_rcc.c ****       while(__HAL_RCC_GET_FLAG(RCC_FLAG_LSIRDY) != RESET)
 1096              		.loc 1 487 7 is_stmt 1 view .LVU317
 1097              	.L59:
 1098              		.loc 1 487 12 view .LVU318
 1099              	.LBB214:
 1100              	.LBI214:
 981:Drivers/CMSIS/Include/cmsis_gcc.h **** {
 1101              		.loc 2 981 31 view .LVU319
 1102              	.LBB215:
 983:Drivers/CMSIS/Include/cmsis_gcc.h **** 
 1103              		.loc 2 983 3 view .LVU320
 988:Drivers/CMSIS/Include/cmsis_gcc.h **** #else
 1104              		.loc 2 988 4 view .LVU321
 1105 030e 0223     		movs	r3, #2
 1106              		.syntax unified
 1107              	@ 988 "Drivers/CMSIS/Include/cmsis_gcc.h" 1
 1108 0310 93FAA3F2 		rbit r2, r3
 1109              	@ 0 "" 2
 1110              	.LVL77:
 1111              		.loc 2 1001 3 view .LVU322
 1112              		.loc 2 1001 3 is_stmt 0 view .LVU323
 1113              		.thumb
 1114              		.syntax unified
 1115              	.LBE215:
 1116              	.LBE214:
 1117              	.LBB216:
 1118              	.LBI216:
 981:Drivers/CMSIS/Include/cmsis_gcc.h **** {
 1119              		.loc 2 981 31 is_stmt 1 view .LVU324
 1120              	.LBB217:
 983:Drivers/CMSIS/Include/cmsis_gcc.h **** 
 1121              		.loc 2 983 3 view .LVU325
 988:Drivers/CMSIS/Include/cmsis_gcc.h **** #else
ARM GAS  /var/folders/jw/jcj5j9_530958b2rm5vp9wn00000gn/T//cceMbtLF.s 			page 50


 1122              		.loc 2 988 4 view .LVU326
 1123              		.syntax unified
 1124              	@ 988 "Drivers/CMSIS/Include/cmsis_gcc.h" 1
 1125 0314 93FAA3F2 		rbit r2, r3
 1126              	@ 0 "" 2
 1127              	.LVL78:
 1128              		.loc 2 1001 3 view .LVU327
 1129              		.loc 2 1001 3 is_stmt 0 view .LVU328
 1130              		.thumb
 1131              		.syntax unified
 1132              	.LBE217:
 1133              	.LBE216:
 1134              	.LBB218:
 1135              	.LBI218:
 981:Drivers/CMSIS/Include/cmsis_gcc.h **** {
 1136              		.loc 2 981 31 is_stmt 1 view .LVU329
 1137              	.LBB219:
 983:Drivers/CMSIS/Include/cmsis_gcc.h **** 
 1138              		.loc 2 983 3 view .LVU330
 988:Drivers/CMSIS/Include/cmsis_gcc.h **** #else
 1139              		.loc 2 988 4 view .LVU331
 1140              		.syntax unified
 1141              	@ 988 "Drivers/CMSIS/Include/cmsis_gcc.h" 1
 1142 0318 93FAA3F2 		rbit r2, r3
 1143              	@ 0 "" 2
 1144              	.LVL79:
 1145              		.loc 2 1001 3 view .LVU332
 1146              		.loc 2 1001 3 is_stmt 0 view .LVU333
 1147              		.thumb
 1148              		.syntax unified
 1149              	.LBE219:
 1150              	.LBE218:
 1151              		.loc 1 487 13 view .LVU334
 1152 031c B04A     		ldr	r2, .L134+4
 1153 031e 516A     		ldr	r1, [r2, #36]
 1154              	.LVL80:
 1155              	.LBB220:
 1156              	.LBI220:
 981:Drivers/CMSIS/Include/cmsis_gcc.h **** {
 1157              		.loc 2 981 31 is_stmt 1 view .LVU335
 1158              	.LBB221:
 983:Drivers/CMSIS/Include/cmsis_gcc.h **** 
 1159              		.loc 2 983 3 view .LVU336
 988:Drivers/CMSIS/Include/cmsis_gcc.h **** #else
 1160              		.loc 2 988 4 view .LVU337
 1161              		.syntax unified
 1162              	@ 988 "Drivers/CMSIS/Include/cmsis_gcc.h" 1
 1163 0320 93FAA3F3 		rbit r3, r3
 1164              	@ 0 "" 2
 1165              	.LVL81:
 1166              		.loc 2 1001 3 view .LVU338
 1167              		.loc 2 1001 3 is_stmt 0 view .LVU339
 1168              		.thumb
 1169              		.syntax unified
 1170              	.LBE221:
 1171              	.LBE220:
 1172              		.loc 1 487 13 view .LVU340
ARM GAS  /var/folders/jw/jcj5j9_530958b2rm5vp9wn00000gn/T//cceMbtLF.s 			page 51


 1173 0324 B3FA83F3 		clz	r3, r3
 1174 0328 03F01F03 		and	r3, r3, #31
 1175 032c 0122     		movs	r2, #1
 1176 032e 02FA03F3 		lsl	r3, r2, r3
 1177              		.loc 1 487 12 view .LVU341
 1178 0332 0B42     		tst	r3, r1
 1179 0334 06D0     		beq	.L55
 488:Drivers/STM32F3xx_HAL_Driver/Src/stm32f3xx_hal_rcc.c ****       {
 489:Drivers/STM32F3xx_HAL_Driver/Src/stm32f3xx_hal_rcc.c ****         if((HAL_GetTick() - tickstart ) > LSI_TIMEOUT_VALUE)
 1180              		.loc 1 489 9 is_stmt 1 view .LVU342
 1181              		.loc 1 489 13 is_stmt 0 view .LVU343
 1182 0336 FFF7FEFF 		bl	HAL_GetTick
 1183              	.LVL82:
 1184              		.loc 1 489 27 view .LVU344
 1185 033a 401B     		subs	r0, r0, r5
 1186              		.loc 1 489 11 view .LVU345
 1187 033c 0228     		cmp	r0, #2
 1188 033e E6D9     		bls	.L59
 490:Drivers/STM32F3xx_HAL_Driver/Src/stm32f3xx_hal_rcc.c ****         {
 491:Drivers/STM32F3xx_HAL_Driver/Src/stm32f3xx_hal_rcc.c ****           return HAL_TIMEOUT;
 1189              		.loc 1 491 18 view .LVU346
 1190 0340 0320     		movs	r0, #3
 1191 0342 6CE1     		b	.L21
 1192              	.LVL83:
 1193              	.L55:
 492:Drivers/STM32F3xx_HAL_Driver/Src/stm32f3xx_hal_rcc.c ****         }
 493:Drivers/STM32F3xx_HAL_Driver/Src/stm32f3xx_hal_rcc.c ****       }
 494:Drivers/STM32F3xx_HAL_Driver/Src/stm32f3xx_hal_rcc.c ****     }
 495:Drivers/STM32F3xx_HAL_Driver/Src/stm32f3xx_hal_rcc.c ****   }
 496:Drivers/STM32F3xx_HAL_Driver/Src/stm32f3xx_hal_rcc.c ****   /*------------------------------ LSE Configuration -------------------------*/ 
 497:Drivers/STM32F3xx_HAL_Driver/Src/stm32f3xx_hal_rcc.c ****   if(((RCC_OscInitStruct->OscillatorType) & RCC_OSCILLATORTYPE_LSE) == RCC_OSCILLATORTYPE_LSE)
 1194              		.loc 1 497 3 is_stmt 1 view .LVU347
 1195              		.loc 1 497 25 is_stmt 0 view .LVU348
 1196 0344 2368     		ldr	r3, [r4]
 1197              		.loc 1 497 5 view .LVU349
 1198 0346 13F0040F 		tst	r3, #4
 1199 034a 00F0A980 		beq	.L61
 1200              	.LBB222:
 498:Drivers/STM32F3xx_HAL_Driver/Src/stm32f3xx_hal_rcc.c ****   {
 499:Drivers/STM32F3xx_HAL_Driver/Src/stm32f3xx_hal_rcc.c ****     FlagStatus       pwrclkchanged = RESET;
 1201              		.loc 1 499 5 is_stmt 1 view .LVU350
 1202              	.LVL84:
 500:Drivers/STM32F3xx_HAL_Driver/Src/stm32f3xx_hal_rcc.c ****     
 501:Drivers/STM32F3xx_HAL_Driver/Src/stm32f3xx_hal_rcc.c ****     /* Check the parameters */
 502:Drivers/STM32F3xx_HAL_Driver/Src/stm32f3xx_hal_rcc.c ****     assert_param(IS_RCC_LSE(RCC_OscInitStruct->LSEState));
 1203              		.loc 1 502 5 view .LVU351
 503:Drivers/STM32F3xx_HAL_Driver/Src/stm32f3xx_hal_rcc.c **** 
 504:Drivers/STM32F3xx_HAL_Driver/Src/stm32f3xx_hal_rcc.c ****     /* Update LSE configuration in Backup Domain control register    */
 505:Drivers/STM32F3xx_HAL_Driver/Src/stm32f3xx_hal_rcc.c ****     /* Requires to enable write access to Backup Domain of necessary */
 506:Drivers/STM32F3xx_HAL_Driver/Src/stm32f3xx_hal_rcc.c ****     if(__HAL_RCC_PWR_IS_CLK_DISABLED())
 1204              		.loc 1 506 5 view .LVU352
 1205              		.loc 1 506 8 is_stmt 0 view .LVU353
 1206 034e A44B     		ldr	r3, .L134+4
 1207 0350 DB69     		ldr	r3, [r3, #28]
 1208              		.loc 1 506 7 view .LVU354
 1209 0352 13F0805F 		tst	r3, #268435456
 1210 0356 0BD1     		bne	.L103
ARM GAS  /var/folders/jw/jcj5j9_530958b2rm5vp9wn00000gn/T//cceMbtLF.s 			page 52


 507:Drivers/STM32F3xx_HAL_Driver/Src/stm32f3xx_hal_rcc.c ****     {
 508:Drivers/STM32F3xx_HAL_Driver/Src/stm32f3xx_hal_rcc.c ****       __HAL_RCC_PWR_CLK_ENABLE();
 1211              		.loc 1 508 7 is_stmt 1 view .LVU355
 1212              	.LBB223:
 1213              		.loc 1 508 7 view .LVU356
 1214              		.loc 1 508 7 view .LVU357
 1215 0358 A14B     		ldr	r3, .L134+4
 1216 035a DA69     		ldr	r2, [r3, #28]
 1217 035c 42F08052 		orr	r2, r2, #268435456
 1218 0360 DA61     		str	r2, [r3, #28]
 1219              		.loc 1 508 7 view .LVU358
 1220 0362 DB69     		ldr	r3, [r3, #28]
 1221 0364 03F08053 		and	r3, r3, #268435456
 1222 0368 0193     		str	r3, [sp, #4]
 1223              		.loc 1 508 7 view .LVU359
 1224 036a 019B     		ldr	r3, [sp, #4]
 1225              	.LBE223:
 1226              		.loc 1 508 7 view .LVU360
 509:Drivers/STM32F3xx_HAL_Driver/Src/stm32f3xx_hal_rcc.c ****       pwrclkchanged = SET;
 1227              		.loc 1 509 7 view .LVU361
 1228              	.LVL85:
 1229              		.loc 1 509 21 is_stmt 0 view .LVU362
 1230 036c 0125     		movs	r5, #1
 1231 036e 00E0     		b	.L62
 1232              	.LVL86:
 1233              	.L103:
 499:Drivers/STM32F3xx_HAL_Driver/Src/stm32f3xx_hal_rcc.c ****     
 1234              		.loc 1 499 22 view .LVU363
 1235 0370 0025     		movs	r5, #0
 1236              	.LVL87:
 1237              	.L62:
 510:Drivers/STM32F3xx_HAL_Driver/Src/stm32f3xx_hal_rcc.c ****     }
 511:Drivers/STM32F3xx_HAL_Driver/Src/stm32f3xx_hal_rcc.c ****     
 512:Drivers/STM32F3xx_HAL_Driver/Src/stm32f3xx_hal_rcc.c ****     if(HAL_IS_BIT_CLR(PWR->CR, PWR_CR_DBP))
 1238              		.loc 1 512 5 is_stmt 1 view .LVU364
 1239              		.loc 1 512 8 is_stmt 0 view .LVU365
 1240 0372 9C4B     		ldr	r3, .L134+8
 1241 0374 1B68     		ldr	r3, [r3]
 1242              		.loc 1 512 7 view .LVU366
 1243 0376 13F4807F 		tst	r3, #256
 1244 037a 10D0     		beq	.L124
 1245              	.L63:
 513:Drivers/STM32F3xx_HAL_Driver/Src/stm32f3xx_hal_rcc.c ****     {
 514:Drivers/STM32F3xx_HAL_Driver/Src/stm32f3xx_hal_rcc.c ****       /* Enable write access to Backup domain */
 515:Drivers/STM32F3xx_HAL_Driver/Src/stm32f3xx_hal_rcc.c ****       SET_BIT(PWR->CR, PWR_CR_DBP);
 516:Drivers/STM32F3xx_HAL_Driver/Src/stm32f3xx_hal_rcc.c ****       
 517:Drivers/STM32F3xx_HAL_Driver/Src/stm32f3xx_hal_rcc.c ****       /* Wait for Backup domain Write protection disable */
 518:Drivers/STM32F3xx_HAL_Driver/Src/stm32f3xx_hal_rcc.c ****       tickstart = HAL_GetTick();
 519:Drivers/STM32F3xx_HAL_Driver/Src/stm32f3xx_hal_rcc.c **** 
 520:Drivers/STM32F3xx_HAL_Driver/Src/stm32f3xx_hal_rcc.c ****       while(HAL_IS_BIT_CLR(PWR->CR, PWR_CR_DBP))
 521:Drivers/STM32F3xx_HAL_Driver/Src/stm32f3xx_hal_rcc.c ****       {
 522:Drivers/STM32F3xx_HAL_Driver/Src/stm32f3xx_hal_rcc.c ****         if((HAL_GetTick() - tickstart) > RCC_DBP_TIMEOUT_VALUE)
 523:Drivers/STM32F3xx_HAL_Driver/Src/stm32f3xx_hal_rcc.c ****         {
 524:Drivers/STM32F3xx_HAL_Driver/Src/stm32f3xx_hal_rcc.c ****           return HAL_TIMEOUT;
 525:Drivers/STM32F3xx_HAL_Driver/Src/stm32f3xx_hal_rcc.c ****         }
 526:Drivers/STM32F3xx_HAL_Driver/Src/stm32f3xx_hal_rcc.c ****       }
 527:Drivers/STM32F3xx_HAL_Driver/Src/stm32f3xx_hal_rcc.c ****     }
ARM GAS  /var/folders/jw/jcj5j9_530958b2rm5vp9wn00000gn/T//cceMbtLF.s 			page 53


 528:Drivers/STM32F3xx_HAL_Driver/Src/stm32f3xx_hal_rcc.c **** 
 529:Drivers/STM32F3xx_HAL_Driver/Src/stm32f3xx_hal_rcc.c ****     /* Set the new LSE configuration -----------------------------------------*/
 530:Drivers/STM32F3xx_HAL_Driver/Src/stm32f3xx_hal_rcc.c ****     __HAL_RCC_LSE_CONFIG(RCC_OscInitStruct->LSEState);
 1246              		.loc 1 530 5 is_stmt 1 view .LVU367
 1247              		.loc 1 530 5 view .LVU368
 1248 037c E368     		ldr	r3, [r4, #12]
 1249 037e 012B     		cmp	r3, #1
 1250 0380 21D0     		beq	.L125
 1251              		.loc 1 530 5 discriminator 2 view .LVU369
 1252 0382 63BB     		cbnz	r3, .L68
 1253              		.loc 1 530 5 discriminator 4 view .LVU370
 1254 0384 03F18043 		add	r3, r3, #1073741824
 1255 0388 03F50433 		add	r3, r3, #135168
 1256 038c 1A6A     		ldr	r2, [r3, #32]
 1257 038e 22F00102 		bic	r2, r2, #1
 1258 0392 1A62     		str	r2, [r3, #32]
 1259              		.loc 1 530 5 discriminator 4 view .LVU371
 1260 0394 1A6A     		ldr	r2, [r3, #32]
 1261 0396 22F00402 		bic	r2, r2, #4
 1262 039a 1A62     		str	r2, [r3, #32]
 1263 039c 18E0     		b	.L67
 1264              	.L124:
 515:Drivers/STM32F3xx_HAL_Driver/Src/stm32f3xx_hal_rcc.c ****       
 1265              		.loc 1 515 7 view .LVU372
 1266 039e 914A     		ldr	r2, .L134+8
 1267 03a0 1368     		ldr	r3, [r2]
 1268 03a2 43F48073 		orr	r3, r3, #256
 1269 03a6 1360     		str	r3, [r2]
 518:Drivers/STM32F3xx_HAL_Driver/Src/stm32f3xx_hal_rcc.c **** 
 1270              		.loc 1 518 7 view .LVU373
 518:Drivers/STM32F3xx_HAL_Driver/Src/stm32f3xx_hal_rcc.c **** 
 1271              		.loc 1 518 19 is_stmt 0 view .LVU374
 1272 03a8 FFF7FEFF 		bl	HAL_GetTick
 1273              	.LVL88:
 1274 03ac 0646     		mov	r6, r0
 1275              	.LVL89:
 520:Drivers/STM32F3xx_HAL_Driver/Src/stm32f3xx_hal_rcc.c ****       {
 1276              		.loc 1 520 7 is_stmt 1 view .LVU375
 1277              	.L64:
 520:Drivers/STM32F3xx_HAL_Driver/Src/stm32f3xx_hal_rcc.c ****       {
 1278              		.loc 1 520 12 view .LVU376
 520:Drivers/STM32F3xx_HAL_Driver/Src/stm32f3xx_hal_rcc.c ****       {
 1279              		.loc 1 520 13 is_stmt 0 view .LVU377
 1280 03ae 8D4B     		ldr	r3, .L134+8
 1281 03b0 1B68     		ldr	r3, [r3]
 520:Drivers/STM32F3xx_HAL_Driver/Src/stm32f3xx_hal_rcc.c ****       {
 1282              		.loc 1 520 12 view .LVU378
 1283 03b2 13F4807F 		tst	r3, #256
 1284 03b6 E1D1     		bne	.L63
 522:Drivers/STM32F3xx_HAL_Driver/Src/stm32f3xx_hal_rcc.c ****         {
 1285              		.loc 1 522 9 is_stmt 1 view .LVU379
 522:Drivers/STM32F3xx_HAL_Driver/Src/stm32f3xx_hal_rcc.c ****         {
 1286              		.loc 1 522 13 is_stmt 0 view .LVU380
 1287 03b8 FFF7FEFF 		bl	HAL_GetTick
 1288              	.LVL90:
 522:Drivers/STM32F3xx_HAL_Driver/Src/stm32f3xx_hal_rcc.c ****         {
 1289              		.loc 1 522 27 view .LVU381
ARM GAS  /var/folders/jw/jcj5j9_530958b2rm5vp9wn00000gn/T//cceMbtLF.s 			page 54


 1290 03bc 801B     		subs	r0, r0, r6
 522:Drivers/STM32F3xx_HAL_Driver/Src/stm32f3xx_hal_rcc.c ****         {
 1291              		.loc 1 522 11 view .LVU382
 1292 03be 6428     		cmp	r0, #100
 1293 03c0 F5D9     		bls	.L64
 524:Drivers/STM32F3xx_HAL_Driver/Src/stm32f3xx_hal_rcc.c ****         }
 1294              		.loc 1 524 18 view .LVU383
 1295 03c2 0320     		movs	r0, #3
 1296 03c4 2BE1     		b	.L21
 1297              	.LVL91:
 1298              	.L125:
 1299              		.loc 1 530 5 is_stmt 1 discriminator 1 view .LVU384
 1300 03c6 864A     		ldr	r2, .L134+4
 1301 03c8 136A     		ldr	r3, [r2, #32]
 1302 03ca 43F00103 		orr	r3, r3, #1
 1303 03ce 1362     		str	r3, [r2, #32]
 1304              	.L67:
 1305              		.loc 1 530 5 discriminator 10 view .LVU385
 531:Drivers/STM32F3xx_HAL_Driver/Src/stm32f3xx_hal_rcc.c ****     /* Check the LSE State */
 532:Drivers/STM32F3xx_HAL_Driver/Src/stm32f3xx_hal_rcc.c ****     if(RCC_OscInitStruct->LSEState != RCC_LSE_OFF)
 1306              		.loc 1 532 5 discriminator 10 view .LVU386
 1307              		.loc 1 532 25 is_stmt 0 discriminator 10 view .LVU387
 1308 03d0 E368     		ldr	r3, [r4, #12]
 1309              		.loc 1 532 7 discriminator 10 view .LVU388
 1310 03d2 002B     		cmp	r3, #0
 1311 03d4 3CD0     		beq	.L70
 533:Drivers/STM32F3xx_HAL_Driver/Src/stm32f3xx_hal_rcc.c ****     {
 534:Drivers/STM32F3xx_HAL_Driver/Src/stm32f3xx_hal_rcc.c ****       /* Get Start Tick */
 535:Drivers/STM32F3xx_HAL_Driver/Src/stm32f3xx_hal_rcc.c ****       tickstart = HAL_GetTick();
 1312              		.loc 1 535 7 is_stmt 1 view .LVU389
 1313              		.loc 1 535 19 is_stmt 0 view .LVU390
 1314 03d6 FFF7FEFF 		bl	HAL_GetTick
 1315              	.LVL92:
 1316 03da 0646     		mov	r6, r0
 1317              	.LVL93:
 536:Drivers/STM32F3xx_HAL_Driver/Src/stm32f3xx_hal_rcc.c ****       
 537:Drivers/STM32F3xx_HAL_Driver/Src/stm32f3xx_hal_rcc.c ****       /* Wait till LSE is ready */  
 538:Drivers/STM32F3xx_HAL_Driver/Src/stm32f3xx_hal_rcc.c ****       while(__HAL_RCC_GET_FLAG(RCC_FLAG_LSERDY) == RESET)
 1318              		.loc 1 538 7 is_stmt 1 view .LVU391
 1319              		.loc 1 538 12 is_stmt 0 view .LVU392
 1320 03dc 2EE0     		b	.L71
 1321              	.LVL94:
 1322              	.L68:
 530:Drivers/STM32F3xx_HAL_Driver/Src/stm32f3xx_hal_rcc.c ****     /* Check the LSE State */
 1323              		.loc 1 530 5 is_stmt 1 discriminator 5 view .LVU393
 1324 03de 052B     		cmp	r3, #5
 1325 03e0 09D0     		beq	.L126
 530:Drivers/STM32F3xx_HAL_Driver/Src/stm32f3xx_hal_rcc.c ****     /* Check the LSE State */
 1326              		.loc 1 530 5 discriminator 8 view .LVU394
 1327 03e2 7F4B     		ldr	r3, .L134+4
 1328 03e4 1A6A     		ldr	r2, [r3, #32]
 1329 03e6 22F00102 		bic	r2, r2, #1
 1330 03ea 1A62     		str	r2, [r3, #32]
 530:Drivers/STM32F3xx_HAL_Driver/Src/stm32f3xx_hal_rcc.c ****     /* Check the LSE State */
 1331              		.loc 1 530 5 discriminator 8 view .LVU395
 1332 03ec 1A6A     		ldr	r2, [r3, #32]
 1333 03ee 22F00402 		bic	r2, r2, #4
ARM GAS  /var/folders/jw/jcj5j9_530958b2rm5vp9wn00000gn/T//cceMbtLF.s 			page 55


 1334 03f2 1A62     		str	r2, [r3, #32]
 1335 03f4 ECE7     		b	.L67
 1336              	.L126:
 530:Drivers/STM32F3xx_HAL_Driver/Src/stm32f3xx_hal_rcc.c ****     /* Check the LSE State */
 1337              		.loc 1 530 5 discriminator 7 view .LVU396
 1338 03f6 7A4B     		ldr	r3, .L134+4
 1339 03f8 1A6A     		ldr	r2, [r3, #32]
 1340 03fa 42F00402 		orr	r2, r2, #4
 1341 03fe 1A62     		str	r2, [r3, #32]
 530:Drivers/STM32F3xx_HAL_Driver/Src/stm32f3xx_hal_rcc.c ****     /* Check the LSE State */
 1342              		.loc 1 530 5 discriminator 7 view .LVU397
 1343 0400 1A6A     		ldr	r2, [r3, #32]
 1344 0402 42F00102 		orr	r2, r2, #1
 1345 0406 1A62     		str	r2, [r3, #32]
 1346 0408 E2E7     		b	.L67
 1347              	.LVL95:
 1348              	.L72:
 1349              	.LBB224:
 1350              	.LBI224:
 981:Drivers/CMSIS/Include/cmsis_gcc.h **** {
 1351              		.loc 2 981 31 view .LVU398
 1352              	.LBB225:
 983:Drivers/CMSIS/Include/cmsis_gcc.h **** 
 1353              		.loc 2 983 3 view .LVU399
 988:Drivers/CMSIS/Include/cmsis_gcc.h **** #else
 1354              		.loc 2 988 4 view .LVU400
 1355 040a 0223     		movs	r3, #2
 1356              		.syntax unified
 1357              	@ 988 "Drivers/CMSIS/Include/cmsis_gcc.h" 1
 1358 040c 93FAA3F3 		rbit r3, r3
 1359              	@ 0 "" 2
 1360              	.LVL96:
 1361              		.loc 2 1001 3 view .LVU401
 1362              		.loc 2 1001 3 is_stmt 0 view .LVU402
 1363              		.thumb
 1364              		.syntax unified
 1365              	.LBE225:
 1366              	.LBE224:
 1367              		.loc 1 538 13 view .LVU403
 1368 0410 734B     		ldr	r3, .L134+4
 1369 0412 596A     		ldr	r1, [r3, #36]
 1370              	.L73:
 1371              	.LVL97:
 1372              	.LBB226:
 1373              	.LBI226:
 981:Drivers/CMSIS/Include/cmsis_gcc.h **** {
 1374              		.loc 2 981 31 is_stmt 1 discriminator 11 view .LVU404
 1375              	.LBB227:
 983:Drivers/CMSIS/Include/cmsis_gcc.h **** 
 1376              		.loc 2 983 3 discriminator 11 view .LVU405
 988:Drivers/CMSIS/Include/cmsis_gcc.h **** #else
 1377              		.loc 2 988 4 discriminator 11 view .LVU406
 1378 0414 0223     		movs	r3, #2
 1379              		.syntax unified
 1380              	@ 988 "Drivers/CMSIS/Include/cmsis_gcc.h" 1
 1381 0416 93FAA3F3 		rbit r3, r3
 1382              	@ 0 "" 2
ARM GAS  /var/folders/jw/jcj5j9_530958b2rm5vp9wn00000gn/T//cceMbtLF.s 			page 56


 1383              	.LVL98:
 1384              		.loc 2 1001 3 discriminator 11 view .LVU407
 1385              		.loc 2 1001 3 is_stmt 0 discriminator 11 view .LVU408
 1386              		.thumb
 1387              		.syntax unified
 1388              	.LBE227:
 1389              	.LBE226:
 1390              		.loc 1 538 13 discriminator 11 view .LVU409
 1391 041a B3FA83F3 		clz	r3, r3
 1392 041e 03F01F03 		and	r3, r3, #31
 1393 0422 0122     		movs	r2, #1
 1394 0424 02FA03F3 		lsl	r3, r2, r3
 1395              		.loc 1 538 12 discriminator 11 view .LVU410
 1396 0428 1942     		tst	r1, r3
 1397 042a 38D1     		bne	.L75
 539:Drivers/STM32F3xx_HAL_Driver/Src/stm32f3xx_hal_rcc.c ****       {
 540:Drivers/STM32F3xx_HAL_Driver/Src/stm32f3xx_hal_rcc.c ****         if((HAL_GetTick() - tickstart ) > RCC_LSE_TIMEOUT_VALUE)
 1398              		.loc 1 540 9 is_stmt 1 view .LVU411
 1399              		.loc 1 540 13 is_stmt 0 view .LVU412
 1400 042c FFF7FEFF 		bl	HAL_GetTick
 1401              	.LVL99:
 1402              		.loc 1 540 27 view .LVU413
 1403 0430 801B     		subs	r0, r0, r6
 1404              		.loc 1 540 11 view .LVU414
 1405 0432 41F28833 		movw	r3, #5000
 1406 0436 9842     		cmp	r0, r3
 1407 0438 00F2EC80 		bhi	.L105
 1408              	.L71:
 538:Drivers/STM32F3xx_HAL_Driver/Src/stm32f3xx_hal_rcc.c ****       {
 1409              		.loc 1 538 12 is_stmt 1 view .LVU415
 1410              	.LVL100:
 1411              	.LBB228:
 1412              	.LBI228:
 981:Drivers/CMSIS/Include/cmsis_gcc.h **** {
 1413              		.loc 2 981 31 view .LVU416
 1414              	.LBB229:
 983:Drivers/CMSIS/Include/cmsis_gcc.h **** 
 1415              		.loc 2 983 3 view .LVU417
 988:Drivers/CMSIS/Include/cmsis_gcc.h **** #else
 1416              		.loc 2 988 4 view .LVU418
 1417 043c 0223     		movs	r3, #2
 1418              		.syntax unified
 1419              	@ 988 "Drivers/CMSIS/Include/cmsis_gcc.h" 1
 1420 043e 93FAA3F2 		rbit r2, r3
 1421              	@ 0 "" 2
 1422              	.LVL101:
 1423              		.loc 2 1001 3 view .LVU419
 1424              		.loc 2 1001 3 is_stmt 0 view .LVU420
 1425              		.thumb
 1426              		.syntax unified
 1427              	.LBE229:
 1428              	.LBE228:
 1429              	.LBB230:
 1430              	.LBI230:
 981:Drivers/CMSIS/Include/cmsis_gcc.h **** {
 1431              		.loc 2 981 31 is_stmt 1 view .LVU421
 1432              	.LBB231:
ARM GAS  /var/folders/jw/jcj5j9_530958b2rm5vp9wn00000gn/T//cceMbtLF.s 			page 57


 983:Drivers/CMSIS/Include/cmsis_gcc.h **** 
 1433              		.loc 2 983 3 view .LVU422
 988:Drivers/CMSIS/Include/cmsis_gcc.h **** #else
 1434              		.loc 2 988 4 view .LVU423
 1435              		.syntax unified
 1436              	@ 988 "Drivers/CMSIS/Include/cmsis_gcc.h" 1
 1437 0442 93FAA3F3 		rbit r3, r3
 1438              	@ 0 "" 2
 1439              	.LVL102:
 1440              		.loc 2 1001 3 view .LVU424
 1441              		.loc 2 1001 3 is_stmt 0 view .LVU425
 1442              		.thumb
 1443              		.syntax unified
 1444              	.LBE231:
 1445              	.LBE230:
 538:Drivers/STM32F3xx_HAL_Driver/Src/stm32f3xx_hal_rcc.c ****       {
 1446              		.loc 1 538 13 view .LVU426
 1447 0446 002B     		cmp	r3, #0
 1448 0448 DFD0     		beq	.L72
 538:Drivers/STM32F3xx_HAL_Driver/Src/stm32f3xx_hal_rcc.c ****       {
 1449              		.loc 1 538 13 discriminator 4 view .LVU427
 1450 044a 654B     		ldr	r3, .L134+4
 1451 044c 196A     		ldr	r1, [r3, #32]
 1452 044e E1E7     		b	.L73
 1453              	.LVL103:
 1454              	.L70:
 541:Drivers/STM32F3xx_HAL_Driver/Src/stm32f3xx_hal_rcc.c ****         {
 542:Drivers/STM32F3xx_HAL_Driver/Src/stm32f3xx_hal_rcc.c ****           return HAL_TIMEOUT;
 543:Drivers/STM32F3xx_HAL_Driver/Src/stm32f3xx_hal_rcc.c ****         }
 544:Drivers/STM32F3xx_HAL_Driver/Src/stm32f3xx_hal_rcc.c ****       }
 545:Drivers/STM32F3xx_HAL_Driver/Src/stm32f3xx_hal_rcc.c ****     }
 546:Drivers/STM32F3xx_HAL_Driver/Src/stm32f3xx_hal_rcc.c ****     else
 547:Drivers/STM32F3xx_HAL_Driver/Src/stm32f3xx_hal_rcc.c ****     {
 548:Drivers/STM32F3xx_HAL_Driver/Src/stm32f3xx_hal_rcc.c ****       /* Get Start Tick */
 549:Drivers/STM32F3xx_HAL_Driver/Src/stm32f3xx_hal_rcc.c ****       tickstart = HAL_GetTick();
 1455              		.loc 1 549 7 is_stmt 1 view .LVU428
 1456              		.loc 1 549 19 is_stmt 0 view .LVU429
 1457 0450 FFF7FEFF 		bl	HAL_GetTick
 1458              	.LVL104:
 1459 0454 0646     		mov	r6, r0
 1460              	.LVL105:
 550:Drivers/STM32F3xx_HAL_Driver/Src/stm32f3xx_hal_rcc.c ****       
 551:Drivers/STM32F3xx_HAL_Driver/Src/stm32f3xx_hal_rcc.c ****       /* Wait till LSE is disabled */  
 552:Drivers/STM32F3xx_HAL_Driver/Src/stm32f3xx_hal_rcc.c ****       while(__HAL_RCC_GET_FLAG(RCC_FLAG_LSERDY) != RESET)
 1461              		.loc 1 552 7 is_stmt 1 view .LVU430
 1462              		.loc 1 552 12 is_stmt 0 view .LVU431
 1463 0456 18E0     		b	.L76
 1464              	.LVL106:
 1465              	.L77:
 1466              	.LBB232:
 1467              	.LBI232:
 981:Drivers/CMSIS/Include/cmsis_gcc.h **** {
 1468              		.loc 2 981 31 is_stmt 1 view .LVU432
 1469              	.LBB233:
 983:Drivers/CMSIS/Include/cmsis_gcc.h **** 
 1470              		.loc 2 983 3 view .LVU433
 988:Drivers/CMSIS/Include/cmsis_gcc.h **** #else
ARM GAS  /var/folders/jw/jcj5j9_530958b2rm5vp9wn00000gn/T//cceMbtLF.s 			page 58


 1471              		.loc 2 988 4 view .LVU434
 1472 0458 0223     		movs	r3, #2
 1473              		.syntax unified
 1474              	@ 988 "Drivers/CMSIS/Include/cmsis_gcc.h" 1
 1475 045a 93FAA3F3 		rbit r3, r3
 1476              	@ 0 "" 2
 1477              	.LVL107:
 1478              		.loc 2 1001 3 view .LVU435
 1479              		.loc 2 1001 3 is_stmt 0 view .LVU436
 1480              		.thumb
 1481              		.syntax unified
 1482              	.LBE233:
 1483              	.LBE232:
 1484              		.loc 1 552 13 view .LVU437
 1485 045e 604B     		ldr	r3, .L134+4
 1486 0460 596A     		ldr	r1, [r3, #36]
 1487              	.L78:
 1488              	.LVL108:
 1489              	.LBB234:
 1490              	.LBI234:
 981:Drivers/CMSIS/Include/cmsis_gcc.h **** {
 1491              		.loc 2 981 31 is_stmt 1 discriminator 11 view .LVU438
 1492              	.LBB235:
 983:Drivers/CMSIS/Include/cmsis_gcc.h **** 
 1493              		.loc 2 983 3 discriminator 11 view .LVU439
 988:Drivers/CMSIS/Include/cmsis_gcc.h **** #else
 1494              		.loc 2 988 4 discriminator 11 view .LVU440
 1495 0462 0223     		movs	r3, #2
 1496              		.syntax unified
 1497              	@ 988 "Drivers/CMSIS/Include/cmsis_gcc.h" 1
 1498 0464 93FAA3F3 		rbit r3, r3
 1499              	@ 0 "" 2
 1500              	.LVL109:
 1501              		.loc 2 1001 3 discriminator 11 view .LVU441
 1502              		.loc 2 1001 3 is_stmt 0 discriminator 11 view .LVU442
 1503              		.thumb
 1504              		.syntax unified
 1505              	.LBE235:
 1506              	.LBE234:
 1507              		.loc 1 552 13 discriminator 11 view .LVU443
 1508 0468 B3FA83F3 		clz	r3, r3
 1509 046c 03F01F03 		and	r3, r3, #31
 1510 0470 0122     		movs	r2, #1
 1511 0472 02FA03F3 		lsl	r3, r2, r3
 1512              		.loc 1 552 12 discriminator 11 view .LVU444
 1513 0476 1942     		tst	r1, r3
 1514 0478 11D0     		beq	.L75
 553:Drivers/STM32F3xx_HAL_Driver/Src/stm32f3xx_hal_rcc.c ****       {
 554:Drivers/STM32F3xx_HAL_Driver/Src/stm32f3xx_hal_rcc.c ****         if((HAL_GetTick() - tickstart ) > RCC_LSE_TIMEOUT_VALUE)
 1515              		.loc 1 554 9 is_stmt 1 view .LVU445
 1516              		.loc 1 554 13 is_stmt 0 view .LVU446
 1517 047a FFF7FEFF 		bl	HAL_GetTick
 1518              	.LVL110:
 1519              		.loc 1 554 27 view .LVU447
 1520 047e 801B     		subs	r0, r0, r6
 1521              		.loc 1 554 11 view .LVU448
 1522 0480 41F28833 		movw	r3, #5000
ARM GAS  /var/folders/jw/jcj5j9_530958b2rm5vp9wn00000gn/T//cceMbtLF.s 			page 59


 1523 0484 9842     		cmp	r0, r3
 1524 0486 00F2C780 		bhi	.L106
 1525              	.L76:
 552:Drivers/STM32F3xx_HAL_Driver/Src/stm32f3xx_hal_rcc.c ****       {
 1526              		.loc 1 552 12 is_stmt 1 view .LVU449
 1527              	.LVL111:
 1528              	.LBB236:
 1529              	.LBI236:
 981:Drivers/CMSIS/Include/cmsis_gcc.h **** {
 1530              		.loc 2 981 31 view .LVU450
 1531              	.LBB237:
 983:Drivers/CMSIS/Include/cmsis_gcc.h **** 
 1532              		.loc 2 983 3 view .LVU451
 988:Drivers/CMSIS/Include/cmsis_gcc.h **** #else
 1533              		.loc 2 988 4 view .LVU452
 1534 048a 0223     		movs	r3, #2
 1535              		.syntax unified
 1536              	@ 988 "Drivers/CMSIS/Include/cmsis_gcc.h" 1
 1537 048c 93FAA3F2 		rbit r2, r3
 1538              	@ 0 "" 2
 1539              	.LVL112:
 1540              		.loc 2 1001 3 view .LVU453
 1541              		.loc 2 1001 3 is_stmt 0 view .LVU454
 1542              		.thumb
 1543              		.syntax unified
 1544              	.LBE237:
 1545              	.LBE236:
 1546              	.LBB238:
 1547              	.LBI238:
 981:Drivers/CMSIS/Include/cmsis_gcc.h **** {
 1548              		.loc 2 981 31 is_stmt 1 view .LVU455
 1549              	.LBB239:
 983:Drivers/CMSIS/Include/cmsis_gcc.h **** 
 1550              		.loc 2 983 3 view .LVU456
 988:Drivers/CMSIS/Include/cmsis_gcc.h **** #else
 1551              		.loc 2 988 4 view .LVU457
 1552              		.syntax unified
 1553              	@ 988 "Drivers/CMSIS/Include/cmsis_gcc.h" 1
 1554 0490 93FAA3F3 		rbit r3, r3
 1555              	@ 0 "" 2
 1556              	.LVL113:
 1557              		.loc 2 1001 3 view .LVU458
 1558              		.loc 2 1001 3 is_stmt 0 view .LVU459
 1559              		.thumb
 1560              		.syntax unified
 1561              	.LBE239:
 1562              	.LBE238:
 552:Drivers/STM32F3xx_HAL_Driver/Src/stm32f3xx_hal_rcc.c ****       {
 1563              		.loc 1 552 13 view .LVU460
 1564 0494 002B     		cmp	r3, #0
 1565 0496 DFD0     		beq	.L77
 552:Drivers/STM32F3xx_HAL_Driver/Src/stm32f3xx_hal_rcc.c ****       {
 1566              		.loc 1 552 13 discriminator 4 view .LVU461
 1567 0498 514B     		ldr	r3, .L134+4
 1568 049a 196A     		ldr	r1, [r3, #32]
 1569 049c E1E7     		b	.L78
 1570              	.L75:
ARM GAS  /var/folders/jw/jcj5j9_530958b2rm5vp9wn00000gn/T//cceMbtLF.s 			page 60


 555:Drivers/STM32F3xx_HAL_Driver/Src/stm32f3xx_hal_rcc.c ****         {
 556:Drivers/STM32F3xx_HAL_Driver/Src/stm32f3xx_hal_rcc.c ****           return HAL_TIMEOUT;
 557:Drivers/STM32F3xx_HAL_Driver/Src/stm32f3xx_hal_rcc.c ****         }
 558:Drivers/STM32F3xx_HAL_Driver/Src/stm32f3xx_hal_rcc.c ****       }
 559:Drivers/STM32F3xx_HAL_Driver/Src/stm32f3xx_hal_rcc.c ****     }
 560:Drivers/STM32F3xx_HAL_Driver/Src/stm32f3xx_hal_rcc.c **** 
 561:Drivers/STM32F3xx_HAL_Driver/Src/stm32f3xx_hal_rcc.c ****     /* Require to disable power clock if necessary */
 562:Drivers/STM32F3xx_HAL_Driver/Src/stm32f3xx_hal_rcc.c ****     if(pwrclkchanged == SET)
 1571              		.loc 1 562 5 is_stmt 1 view .LVU462
 1572              		.loc 1 562 7 is_stmt 0 view .LVU463
 1573 049e B5BB     		cbnz	r5, .L127
 1574              	.LVL114:
 1575              	.L61:
 1576              		.loc 1 562 7 view .LVU464
 1577              	.LBE222:
 563:Drivers/STM32F3xx_HAL_Driver/Src/stm32f3xx_hal_rcc.c ****     {
 564:Drivers/STM32F3xx_HAL_Driver/Src/stm32f3xx_hal_rcc.c ****       __HAL_RCC_PWR_CLK_DISABLE();
 565:Drivers/STM32F3xx_HAL_Driver/Src/stm32f3xx_hal_rcc.c ****     }
 566:Drivers/STM32F3xx_HAL_Driver/Src/stm32f3xx_hal_rcc.c ****   }
 567:Drivers/STM32F3xx_HAL_Driver/Src/stm32f3xx_hal_rcc.c **** 
 568:Drivers/STM32F3xx_HAL_Driver/Src/stm32f3xx_hal_rcc.c ****   /*-------------------------------- PLL Configuration -----------------------*/
 569:Drivers/STM32F3xx_HAL_Driver/Src/stm32f3xx_hal_rcc.c ****   /* Check the parameters */
 570:Drivers/STM32F3xx_HAL_Driver/Src/stm32f3xx_hal_rcc.c ****   assert_param(IS_RCC_PLL(RCC_OscInitStruct->PLL.PLLState));
 1578              		.loc 1 570 3 is_stmt 1 view .LVU465
 571:Drivers/STM32F3xx_HAL_Driver/Src/stm32f3xx_hal_rcc.c ****   if ((RCC_OscInitStruct->PLL.PLLState) != RCC_PLL_NONE)
 1579              		.loc 1 571 3 view .LVU466
 1580              		.loc 1 571 30 is_stmt 0 view .LVU467
 1581 04a0 E369     		ldr	r3, [r4, #28]
 1582              		.loc 1 571 6 view .LVU468
 1583 04a2 002B     		cmp	r3, #0
 1584 04a4 00F0BA80 		beq	.L107
 572:Drivers/STM32F3xx_HAL_Driver/Src/stm32f3xx_hal_rcc.c ****   {
 573:Drivers/STM32F3xx_HAL_Driver/Src/stm32f3xx_hal_rcc.c ****     /* Check if the PLL is used as system clock or not */
 574:Drivers/STM32F3xx_HAL_Driver/Src/stm32f3xx_hal_rcc.c ****     if(__HAL_RCC_GET_SYSCLK_SOURCE() != RCC_SYSCLKSOURCE_STATUS_PLLCLK)
 1585              		.loc 1 574 5 is_stmt 1 view .LVU469
 1586              		.loc 1 574 8 is_stmt 0 view .LVU470
 1587 04a8 4D4A     		ldr	r2, .L134+4
 1588 04aa 5268     		ldr	r2, [r2, #4]
 1589 04ac 02F00C02 		and	r2, r2, #12
 1590              		.loc 1 574 7 view .LVU471
 1591 04b0 082A     		cmp	r2, #8
 1592 04b2 00F09980 		beq	.L80
 575:Drivers/STM32F3xx_HAL_Driver/Src/stm32f3xx_hal_rcc.c ****     { 
 576:Drivers/STM32F3xx_HAL_Driver/Src/stm32f3xx_hal_rcc.c ****       if((RCC_OscInitStruct->PLL.PLLState) == RCC_PLL_ON)
 1593              		.loc 1 576 7 is_stmt 1 view .LVU472
 1594              		.loc 1 576 9 is_stmt 0 view .LVU473
 1595 04b6 022B     		cmp	r3, #2
 1596 04b8 2FD0     		beq	.L128
 577:Drivers/STM32F3xx_HAL_Driver/Src/stm32f3xx_hal_rcc.c ****       {
 578:Drivers/STM32F3xx_HAL_Driver/Src/stm32f3xx_hal_rcc.c ****         /* Check the parameters */
 579:Drivers/STM32F3xx_HAL_Driver/Src/stm32f3xx_hal_rcc.c ****         assert_param(IS_RCC_PLLSOURCE(RCC_OscInitStruct->PLL.PLLSource));
 580:Drivers/STM32F3xx_HAL_Driver/Src/stm32f3xx_hal_rcc.c ****         assert_param(IS_RCC_PLL_MUL(RCC_OscInitStruct->PLL.PLLMUL));
 581:Drivers/STM32F3xx_HAL_Driver/Src/stm32f3xx_hal_rcc.c **** #if   defined(RCC_CFGR_PLLSRC_HSI_PREDIV)
 582:Drivers/STM32F3xx_HAL_Driver/Src/stm32f3xx_hal_rcc.c ****         assert_param(IS_RCC_PREDIV(RCC_OscInitStruct->PLL.PREDIV));
 583:Drivers/STM32F3xx_HAL_Driver/Src/stm32f3xx_hal_rcc.c **** #endif
 584:Drivers/STM32F3xx_HAL_Driver/Src/stm32f3xx_hal_rcc.c ****   
 585:Drivers/STM32F3xx_HAL_Driver/Src/stm32f3xx_hal_rcc.c ****         /* Disable the main PLL. */
ARM GAS  /var/folders/jw/jcj5j9_530958b2rm5vp9wn00000gn/T//cceMbtLF.s 			page 61


 586:Drivers/STM32F3xx_HAL_Driver/Src/stm32f3xx_hal_rcc.c ****         __HAL_RCC_PLL_DISABLE();
 587:Drivers/STM32F3xx_HAL_Driver/Src/stm32f3xx_hal_rcc.c ****         
 588:Drivers/STM32F3xx_HAL_Driver/Src/stm32f3xx_hal_rcc.c ****         /* Get Start Tick */
 589:Drivers/STM32F3xx_HAL_Driver/Src/stm32f3xx_hal_rcc.c ****         tickstart = HAL_GetTick();
 590:Drivers/STM32F3xx_HAL_Driver/Src/stm32f3xx_hal_rcc.c ****         
 591:Drivers/STM32F3xx_HAL_Driver/Src/stm32f3xx_hal_rcc.c ****         /* Wait till PLL is disabled */
 592:Drivers/STM32F3xx_HAL_Driver/Src/stm32f3xx_hal_rcc.c ****         while(__HAL_RCC_GET_FLAG(RCC_FLAG_PLLRDY)  != RESET)
 593:Drivers/STM32F3xx_HAL_Driver/Src/stm32f3xx_hal_rcc.c ****         {
 594:Drivers/STM32F3xx_HAL_Driver/Src/stm32f3xx_hal_rcc.c ****           if((HAL_GetTick() - tickstart ) > PLL_TIMEOUT_VALUE)
 595:Drivers/STM32F3xx_HAL_Driver/Src/stm32f3xx_hal_rcc.c ****           {
 596:Drivers/STM32F3xx_HAL_Driver/Src/stm32f3xx_hal_rcc.c ****             return HAL_TIMEOUT;
 597:Drivers/STM32F3xx_HAL_Driver/Src/stm32f3xx_hal_rcc.c ****           }
 598:Drivers/STM32F3xx_HAL_Driver/Src/stm32f3xx_hal_rcc.c ****         }
 599:Drivers/STM32F3xx_HAL_Driver/Src/stm32f3xx_hal_rcc.c **** 
 600:Drivers/STM32F3xx_HAL_Driver/Src/stm32f3xx_hal_rcc.c **** #if defined(RCC_CFGR_PLLSRC_HSI_PREDIV)
 601:Drivers/STM32F3xx_HAL_Driver/Src/stm32f3xx_hal_rcc.c ****         /* Configure the main PLL clock source, predivider and multiplication factor. */
 602:Drivers/STM32F3xx_HAL_Driver/Src/stm32f3xx_hal_rcc.c ****         __HAL_RCC_PLL_CONFIG(RCC_OscInitStruct->PLL.PLLSource,
 603:Drivers/STM32F3xx_HAL_Driver/Src/stm32f3xx_hal_rcc.c ****                              RCC_OscInitStruct->PLL.PREDIV,
 604:Drivers/STM32F3xx_HAL_Driver/Src/stm32f3xx_hal_rcc.c ****                              RCC_OscInitStruct->PLL.PLLMUL);
 605:Drivers/STM32F3xx_HAL_Driver/Src/stm32f3xx_hal_rcc.c **** #else
 606:Drivers/STM32F3xx_HAL_Driver/Src/stm32f3xx_hal_rcc.c ****       /* Configure the main PLL clock source and multiplication factor. */
 607:Drivers/STM32F3xx_HAL_Driver/Src/stm32f3xx_hal_rcc.c ****       __HAL_RCC_PLL_CONFIG(RCC_OscInitStruct->PLL.PLLSource,
 608:Drivers/STM32F3xx_HAL_Driver/Src/stm32f3xx_hal_rcc.c ****                            RCC_OscInitStruct->PLL.PLLMUL);
 609:Drivers/STM32F3xx_HAL_Driver/Src/stm32f3xx_hal_rcc.c **** #endif /* RCC_CFGR_PLLSRC_HSI_PREDIV */
 610:Drivers/STM32F3xx_HAL_Driver/Src/stm32f3xx_hal_rcc.c ****         /* Enable the main PLL. */
 611:Drivers/STM32F3xx_HAL_Driver/Src/stm32f3xx_hal_rcc.c ****         __HAL_RCC_PLL_ENABLE();
 612:Drivers/STM32F3xx_HAL_Driver/Src/stm32f3xx_hal_rcc.c ****         
 613:Drivers/STM32F3xx_HAL_Driver/Src/stm32f3xx_hal_rcc.c ****         /* Get Start Tick */
 614:Drivers/STM32F3xx_HAL_Driver/Src/stm32f3xx_hal_rcc.c ****         tickstart = HAL_GetTick();
 615:Drivers/STM32F3xx_HAL_Driver/Src/stm32f3xx_hal_rcc.c ****         
 616:Drivers/STM32F3xx_HAL_Driver/Src/stm32f3xx_hal_rcc.c ****         /* Wait till PLL is ready */
 617:Drivers/STM32F3xx_HAL_Driver/Src/stm32f3xx_hal_rcc.c ****         while(__HAL_RCC_GET_FLAG(RCC_FLAG_PLLRDY)  == RESET)
 618:Drivers/STM32F3xx_HAL_Driver/Src/stm32f3xx_hal_rcc.c ****         {
 619:Drivers/STM32F3xx_HAL_Driver/Src/stm32f3xx_hal_rcc.c ****           if((HAL_GetTick() - tickstart ) > PLL_TIMEOUT_VALUE)
 620:Drivers/STM32F3xx_HAL_Driver/Src/stm32f3xx_hal_rcc.c ****           {
 621:Drivers/STM32F3xx_HAL_Driver/Src/stm32f3xx_hal_rcc.c ****             return HAL_TIMEOUT;
 622:Drivers/STM32F3xx_HAL_Driver/Src/stm32f3xx_hal_rcc.c ****           }
 623:Drivers/STM32F3xx_HAL_Driver/Src/stm32f3xx_hal_rcc.c ****         }
 624:Drivers/STM32F3xx_HAL_Driver/Src/stm32f3xx_hal_rcc.c ****       }
 625:Drivers/STM32F3xx_HAL_Driver/Src/stm32f3xx_hal_rcc.c ****       else
 626:Drivers/STM32F3xx_HAL_Driver/Src/stm32f3xx_hal_rcc.c ****       {
 627:Drivers/STM32F3xx_HAL_Driver/Src/stm32f3xx_hal_rcc.c ****         /* Disable the main PLL. */
 628:Drivers/STM32F3xx_HAL_Driver/Src/stm32f3xx_hal_rcc.c ****         __HAL_RCC_PLL_DISABLE();
 1597              		.loc 1 628 9 is_stmt 1 view .LVU474
 1598              	.LVL115:
 1599              	.LBB240:
 1600              	.LBI240:
 981:Drivers/CMSIS/Include/cmsis_gcc.h **** {
 1601              		.loc 2 981 31 view .LVU475
 1602              	.LBB241:
 983:Drivers/CMSIS/Include/cmsis_gcc.h **** 
 1603              		.loc 2 983 3 view .LVU476
 988:Drivers/CMSIS/Include/cmsis_gcc.h **** #else
 1604              		.loc 2 988 4 view .LVU477
 1605 04ba 4FF08073 		mov	r3, #16777216
 1606              		.syntax unified
 1607              	@ 988 "Drivers/CMSIS/Include/cmsis_gcc.h" 1
ARM GAS  /var/folders/jw/jcj5j9_530958b2rm5vp9wn00000gn/T//cceMbtLF.s 			page 62


 1608 04be 93FAA3F3 		rbit r3, r3
 1609              	@ 0 "" 2
 1610              	.LVL116:
 1611              		.loc 2 1001 3 view .LVU478
 1612              		.loc 2 1001 3 is_stmt 0 view .LVU479
 1613              		.thumb
 1614              		.syntax unified
 1615              	.LBE241:
 1616              	.LBE240:
 1617              		.loc 1 628 9 view .LVU480
 1618 04c2 B3FA83F3 		clz	r3, r3
 1619 04c6 03F18453 		add	r3, r3, #276824064
 1620 04ca 03F58413 		add	r3, r3, #1081344
 1621 04ce 9B00     		lsls	r3, r3, #2
 1622 04d0 0022     		movs	r2, #0
 1623 04d2 1A60     		str	r2, [r3]
 629:Drivers/STM32F3xx_HAL_Driver/Src/stm32f3xx_hal_rcc.c ****  
 630:Drivers/STM32F3xx_HAL_Driver/Src/stm32f3xx_hal_rcc.c ****         /* Get Start Tick */
 631:Drivers/STM32F3xx_HAL_Driver/Src/stm32f3xx_hal_rcc.c ****         tickstart = HAL_GetTick();
 1624              		.loc 1 631 9 is_stmt 1 view .LVU481
 1625              		.loc 1 631 21 is_stmt 0 view .LVU482
 1626 04d4 FFF7FEFF 		bl	HAL_GetTick
 1627              	.LVL117:
 1628 04d8 0446     		mov	r4, r0
 1629              	.LVL118:
 632:Drivers/STM32F3xx_HAL_Driver/Src/stm32f3xx_hal_rcc.c ****         
 633:Drivers/STM32F3xx_HAL_Driver/Src/stm32f3xx_hal_rcc.c ****         /* Wait till PLL is disabled */  
 634:Drivers/STM32F3xx_HAL_Driver/Src/stm32f3xx_hal_rcc.c ****         while(__HAL_RCC_GET_FLAG(RCC_FLAG_PLLRDY)  != RESET)
 1630              		.loc 1 634 9 is_stmt 1 view .LVU483
 1631              	.L90:
 1632              		.loc 1 634 14 view .LVU484
 1633              	.LBB242:
 1634              	.LBI242:
 981:Drivers/CMSIS/Include/cmsis_gcc.h **** {
 1635              		.loc 2 981 31 view .LVU485
 1636              	.LBB243:
 983:Drivers/CMSIS/Include/cmsis_gcc.h **** 
 1637              		.loc 2 983 3 view .LVU486
 988:Drivers/CMSIS/Include/cmsis_gcc.h **** #else
 1638              		.loc 2 988 4 view .LVU487
 1639 04da 4FF00073 		mov	r3, #33554432
 1640              		.syntax unified
 1641              	@ 988 "Drivers/CMSIS/Include/cmsis_gcc.h" 1
 1642 04de 93FAA3F3 		rbit r3, r3
 1643              	@ 0 "" 2
 1644              		.loc 2 1001 3 view .LVU488
 1645              	.LVL119:
 1646              		.loc 2 1001 3 is_stmt 0 view .LVU489
 1647              		.thumb
 1648              		.syntax unified
 1649              	.LBE243:
 1650              	.LBE242:
 1651              		.loc 1 634 15 view .LVU490
 1652 04e2 3F4B     		ldr	r3, .L134+4
 1653 04e4 1968     		ldr	r1, [r3]
 1654              	.LVL120:
 1655              	.LBB244:
ARM GAS  /var/folders/jw/jcj5j9_530958b2rm5vp9wn00000gn/T//cceMbtLF.s 			page 63


 1656              	.LBI244:
 981:Drivers/CMSIS/Include/cmsis_gcc.h **** {
 1657              		.loc 2 981 31 is_stmt 1 view .LVU491
 1658              	.LBB245:
 983:Drivers/CMSIS/Include/cmsis_gcc.h **** 
 1659              		.loc 2 983 3 view .LVU492
 988:Drivers/CMSIS/Include/cmsis_gcc.h **** #else
 1660              		.loc 2 988 4 view .LVU493
 1661 04e6 4FF00073 		mov	r3, #33554432
 1662              		.syntax unified
 1663              	@ 988 "Drivers/CMSIS/Include/cmsis_gcc.h" 1
 1664 04ea 93FAA3F3 		rbit r3, r3
 1665              	@ 0 "" 2
 1666              	.LVL121:
 1667              		.loc 2 1001 3 view .LVU494
 1668              		.loc 2 1001 3 is_stmt 0 view .LVU495
 1669              		.thumb
 1670              		.syntax unified
 1671              	.LBE245:
 1672              	.LBE244:
 1673              		.loc 1 634 15 view .LVU496
 1674 04ee B3FA83F3 		clz	r3, r3
 1675 04f2 03F01F03 		and	r3, r3, #31
 1676 04f6 0122     		movs	r2, #1
 1677 04f8 02FA03F3 		lsl	r3, r2, r3
 1678              		.loc 1 634 14 view .LVU497
 1679 04fc 1942     		tst	r1, r3
 1680 04fe 6BD0     		beq	.L129
 635:Drivers/STM32F3xx_HAL_Driver/Src/stm32f3xx_hal_rcc.c ****         {
 636:Drivers/STM32F3xx_HAL_Driver/Src/stm32f3xx_hal_rcc.c ****           if((HAL_GetTick() - tickstart ) > PLL_TIMEOUT_VALUE)
 1681              		.loc 1 636 11 is_stmt 1 view .LVU498
 1682              		.loc 1 636 15 is_stmt 0 view .LVU499
 1683 0500 FFF7FEFF 		bl	HAL_GetTick
 1684              	.LVL122:
 1685              		.loc 1 636 29 view .LVU500
 1686 0504 001B     		subs	r0, r0, r4
 1687              		.loc 1 636 13 view .LVU501
 1688 0506 0228     		cmp	r0, #2
 1689 0508 E7D9     		bls	.L90
 637:Drivers/STM32F3xx_HAL_Driver/Src/stm32f3xx_hal_rcc.c ****           {
 638:Drivers/STM32F3xx_HAL_Driver/Src/stm32f3xx_hal_rcc.c ****             return HAL_TIMEOUT;
 1690              		.loc 1 638 20 view .LVU502
 1691 050a 0320     		movs	r0, #3
 1692 050c 87E0     		b	.L21
 1693              	.LVL123:
 1694              	.L127:
 1695              	.LBB246:
 564:Drivers/STM32F3xx_HAL_Driver/Src/stm32f3xx_hal_rcc.c ****     }
 1696              		.loc 1 564 7 is_stmt 1 view .LVU503
 1697 050e 344A     		ldr	r2, .L134+4
 1698 0510 D369     		ldr	r3, [r2, #28]
 1699 0512 23F08053 		bic	r3, r3, #268435456
 1700 0516 D361     		str	r3, [r2, #28]
 1701 0518 C2E7     		b	.L61
 1702              	.LVL124:
 1703              	.L128:
 564:Drivers/STM32F3xx_HAL_Driver/Src/stm32f3xx_hal_rcc.c ****     }
ARM GAS  /var/folders/jw/jcj5j9_530958b2rm5vp9wn00000gn/T//cceMbtLF.s 			page 64


 1704              		.loc 1 564 7 is_stmt 0 view .LVU504
 1705              	.LBE246:
 579:Drivers/STM32F3xx_HAL_Driver/Src/stm32f3xx_hal_rcc.c ****         assert_param(IS_RCC_PLL_MUL(RCC_OscInitStruct->PLL.PLLMUL));
 1706              		.loc 1 579 9 is_stmt 1 view .LVU505
 580:Drivers/STM32F3xx_HAL_Driver/Src/stm32f3xx_hal_rcc.c **** #if   defined(RCC_CFGR_PLLSRC_HSI_PREDIV)
 1707              		.loc 1 580 9 view .LVU506
 586:Drivers/STM32F3xx_HAL_Driver/Src/stm32f3xx_hal_rcc.c ****         
 1708              		.loc 1 586 9 view .LVU507
 1709              	.LBB247:
 1710              	.LBI247:
 981:Drivers/CMSIS/Include/cmsis_gcc.h **** {
 1711              		.loc 2 981 31 view .LVU508
 1712              	.LBB248:
 983:Drivers/CMSIS/Include/cmsis_gcc.h **** 
 1713              		.loc 2 983 3 view .LVU509
 988:Drivers/CMSIS/Include/cmsis_gcc.h **** #else
 1714              		.loc 2 988 4 view .LVU510
 1715 051a 4FF08073 		mov	r3, #16777216
 1716              		.syntax unified
 1717              	@ 988 "Drivers/CMSIS/Include/cmsis_gcc.h" 1
 1718 051e 93FAA3F3 		rbit r3, r3
 1719              	@ 0 "" 2
 1720              	.LVL125:
 1721              		.loc 2 1001 3 view .LVU511
 1722              		.loc 2 1001 3 is_stmt 0 view .LVU512
 1723              		.thumb
 1724              		.syntax unified
 1725              	.LBE248:
 1726              	.LBE247:
 586:Drivers/STM32F3xx_HAL_Driver/Src/stm32f3xx_hal_rcc.c ****         
 1727              		.loc 1 586 9 view .LVU513
 1728 0522 B3FA83F3 		clz	r3, r3
 1729 0526 03F18453 		add	r3, r3, #276824064
 1730 052a 03F58413 		add	r3, r3, #1081344
 1731 052e 9B00     		lsls	r3, r3, #2
 1732 0530 0022     		movs	r2, #0
 1733 0532 1A60     		str	r2, [r3]
 589:Drivers/STM32F3xx_HAL_Driver/Src/stm32f3xx_hal_rcc.c ****         
 1734              		.loc 1 589 9 is_stmt 1 view .LVU514
 589:Drivers/STM32F3xx_HAL_Driver/Src/stm32f3xx_hal_rcc.c ****         
 1735              		.loc 1 589 21 is_stmt 0 view .LVU515
 1736 0534 FFF7FEFF 		bl	HAL_GetTick
 1737              	.LVL126:
 1738 0538 0546     		mov	r5, r0
 1739              	.LVL127:
 592:Drivers/STM32F3xx_HAL_Driver/Src/stm32f3xx_hal_rcc.c ****         {
 1740              		.loc 1 592 9 is_stmt 1 view .LVU516
 1741              	.L82:
 592:Drivers/STM32F3xx_HAL_Driver/Src/stm32f3xx_hal_rcc.c ****         {
 1742              		.loc 1 592 14 view .LVU517
 1743              	.LBB249:
 1744              	.LBI249:
 981:Drivers/CMSIS/Include/cmsis_gcc.h **** {
 1745              		.loc 2 981 31 view .LVU518
 1746              	.LBB250:
 983:Drivers/CMSIS/Include/cmsis_gcc.h **** 
 1747              		.loc 2 983 3 view .LVU519
ARM GAS  /var/folders/jw/jcj5j9_530958b2rm5vp9wn00000gn/T//cceMbtLF.s 			page 65


 988:Drivers/CMSIS/Include/cmsis_gcc.h **** #else
 1748              		.loc 2 988 4 view .LVU520
 1749 053a 4FF00073 		mov	r3, #33554432
 1750              		.syntax unified
 1751              	@ 988 "Drivers/CMSIS/Include/cmsis_gcc.h" 1
 1752 053e 93FAA3F3 		rbit r3, r3
 1753              	@ 0 "" 2
 1754              		.loc 2 1001 3 view .LVU521
 1755              	.LVL128:
 1756              		.loc 2 1001 3 is_stmt 0 view .LVU522
 1757              		.thumb
 1758              		.syntax unified
 1759              	.LBE250:
 1760              	.LBE249:
 592:Drivers/STM32F3xx_HAL_Driver/Src/stm32f3xx_hal_rcc.c ****         {
 1761              		.loc 1 592 15 view .LVU523
 1762 0542 274B     		ldr	r3, .L134+4
 1763 0544 1968     		ldr	r1, [r3]
 1764              	.LVL129:
 1765              	.LBB251:
 1766              	.LBI251:
 981:Drivers/CMSIS/Include/cmsis_gcc.h **** {
 1767              		.loc 2 981 31 is_stmt 1 view .LVU524
 1768              	.LBB252:
 983:Drivers/CMSIS/Include/cmsis_gcc.h **** 
 1769              		.loc 2 983 3 view .LVU525
 988:Drivers/CMSIS/Include/cmsis_gcc.h **** #else
 1770              		.loc 2 988 4 view .LVU526
 1771 0546 4FF00073 		mov	r3, #33554432
 1772              		.syntax unified
 1773              	@ 988 "Drivers/CMSIS/Include/cmsis_gcc.h" 1
 1774 054a 93FAA3F3 		rbit r3, r3
 1775              	@ 0 "" 2
 1776              	.LVL130:
 1777              		.loc 2 1001 3 view .LVU527
 1778              		.loc 2 1001 3 is_stmt 0 view .LVU528
 1779              		.thumb
 1780              		.syntax unified
 1781              	.LBE252:
 1782              	.LBE251:
 592:Drivers/STM32F3xx_HAL_Driver/Src/stm32f3xx_hal_rcc.c ****         {
 1783              		.loc 1 592 15 view .LVU529
 1784 054e B3FA83F3 		clz	r3, r3
 1785 0552 03F01F03 		and	r3, r3, #31
 1786 0556 0122     		movs	r2, #1
 1787 0558 02FA03F3 		lsl	r3, r2, r3
 592:Drivers/STM32F3xx_HAL_Driver/Src/stm32f3xx_hal_rcc.c ****         {
 1788              		.loc 1 592 14 view .LVU530
 1789 055c 1942     		tst	r1, r3
 1790 055e 06D0     		beq	.L130
 594:Drivers/STM32F3xx_HAL_Driver/Src/stm32f3xx_hal_rcc.c ****           {
 1791              		.loc 1 594 11 is_stmt 1 view .LVU531
 594:Drivers/STM32F3xx_HAL_Driver/Src/stm32f3xx_hal_rcc.c ****           {
 1792              		.loc 1 594 15 is_stmt 0 view .LVU532
 1793 0560 FFF7FEFF 		bl	HAL_GetTick
 1794              	.LVL131:
 594:Drivers/STM32F3xx_HAL_Driver/Src/stm32f3xx_hal_rcc.c ****           {
ARM GAS  /var/folders/jw/jcj5j9_530958b2rm5vp9wn00000gn/T//cceMbtLF.s 			page 66


 1795              		.loc 1 594 29 view .LVU533
 1796 0564 401B     		subs	r0, r0, r5
 594:Drivers/STM32F3xx_HAL_Driver/Src/stm32f3xx_hal_rcc.c ****           {
 1797              		.loc 1 594 13 view .LVU534
 1798 0566 0228     		cmp	r0, #2
 1799 0568 E7D9     		bls	.L82
 596:Drivers/STM32F3xx_HAL_Driver/Src/stm32f3xx_hal_rcc.c ****           }
 1800              		.loc 1 596 20 view .LVU535
 1801 056a 0320     		movs	r0, #3
 1802 056c 57E0     		b	.L21
 1803              	.L130:
 607:Drivers/STM32F3xx_HAL_Driver/Src/stm32f3xx_hal_rcc.c ****                            RCC_OscInitStruct->PLL.PLLMUL);
 1804              		.loc 1 607 7 is_stmt 1 view .LVU536
 1805 056e 1C49     		ldr	r1, .L134+4
 1806 0570 4B68     		ldr	r3, [r1, #4]
 1807 0572 23F47413 		bic	r3, r3, #3997696
 1808 0576 626A     		ldr	r2, [r4, #36]
 1809 0578 206A     		ldr	r0, [r4, #32]
 1810 057a 0243     		orrs	r2, r2, r0
 1811 057c 1343     		orrs	r3, r3, r2
 1812 057e 4B60     		str	r3, [r1, #4]
 611:Drivers/STM32F3xx_HAL_Driver/Src/stm32f3xx_hal_rcc.c ****         
 1813              		.loc 1 611 9 view .LVU537
 1814              	.LVL132:
 1815              	.LBB253:
 1816              	.LBI253:
 981:Drivers/CMSIS/Include/cmsis_gcc.h **** {
 1817              		.loc 2 981 31 view .LVU538
 1818              	.LBB254:
 983:Drivers/CMSIS/Include/cmsis_gcc.h **** 
 1819              		.loc 2 983 3 view .LVU539
 988:Drivers/CMSIS/Include/cmsis_gcc.h **** #else
 1820              		.loc 2 988 4 view .LVU540
 1821 0580 4FF08073 		mov	r3, #16777216
 1822              		.syntax unified
 1823              	@ 988 "Drivers/CMSIS/Include/cmsis_gcc.h" 1
 1824 0584 93FAA3F3 		rbit r3, r3
 1825              	@ 0 "" 2
 1826              	.LVL133:
 1827              		.loc 2 1001 3 view .LVU541
 1828              		.loc 2 1001 3 is_stmt 0 view .LVU542
 1829              		.thumb
 1830              		.syntax unified
 1831              	.LBE254:
 1832              	.LBE253:
 611:Drivers/STM32F3xx_HAL_Driver/Src/stm32f3xx_hal_rcc.c ****         
 1833              		.loc 1 611 9 view .LVU543
 1834 0588 B3FA83F3 		clz	r3, r3
 1835 058c 03F18453 		add	r3, r3, #276824064
 1836 0590 03F58413 		add	r3, r3, #1081344
 1837 0594 9B00     		lsls	r3, r3, #2
 1838 0596 0122     		movs	r2, #1
 1839 0598 1A60     		str	r2, [r3]
 614:Drivers/STM32F3xx_HAL_Driver/Src/stm32f3xx_hal_rcc.c ****         
 1840              		.loc 1 614 9 is_stmt 1 view .LVU544
 614:Drivers/STM32F3xx_HAL_Driver/Src/stm32f3xx_hal_rcc.c ****         
 1841              		.loc 1 614 21 is_stmt 0 view .LVU545
ARM GAS  /var/folders/jw/jcj5j9_530958b2rm5vp9wn00000gn/T//cceMbtLF.s 			page 67


 1842 059a FFF7FEFF 		bl	HAL_GetTick
 1843              	.LVL134:
 1844 059e 0446     		mov	r4, r0
 1845              	.LVL135:
 617:Drivers/STM32F3xx_HAL_Driver/Src/stm32f3xx_hal_rcc.c ****         {
 1846              		.loc 1 617 9 is_stmt 1 view .LVU546
 1847              	.L86:
 617:Drivers/STM32F3xx_HAL_Driver/Src/stm32f3xx_hal_rcc.c ****         {
 1848              		.loc 1 617 14 view .LVU547
 1849              	.LBB255:
 1850              	.LBI255:
 981:Drivers/CMSIS/Include/cmsis_gcc.h **** {
 1851              		.loc 2 981 31 view .LVU548
 1852              	.LBB256:
 983:Drivers/CMSIS/Include/cmsis_gcc.h **** 
 1853              		.loc 2 983 3 view .LVU549
 988:Drivers/CMSIS/Include/cmsis_gcc.h **** #else
 1854              		.loc 2 988 4 view .LVU550
 1855 05a0 4FF00073 		mov	r3, #33554432
 1856              		.syntax unified
 1857              	@ 988 "Drivers/CMSIS/Include/cmsis_gcc.h" 1
 1858 05a4 93FAA3F3 		rbit r3, r3
 1859              	@ 0 "" 2
 1860              		.loc 2 1001 3 view .LVU551
 1861              	.LVL136:
 1862              		.loc 2 1001 3 is_stmt 0 view .LVU552
 1863              		.thumb
 1864              		.syntax unified
 1865              	.LBE256:
 1866              	.LBE255:
 617:Drivers/STM32F3xx_HAL_Driver/Src/stm32f3xx_hal_rcc.c ****         {
 1867              		.loc 1 617 15 view .LVU553
 1868 05a8 0D4B     		ldr	r3, .L134+4
 1869 05aa 1968     		ldr	r1, [r3]
 1870              	.LVL137:
 1871              	.LBB257:
 1872              	.LBI257:
 981:Drivers/CMSIS/Include/cmsis_gcc.h **** {
 1873              		.loc 2 981 31 is_stmt 1 view .LVU554
 1874              	.LBB258:
 983:Drivers/CMSIS/Include/cmsis_gcc.h **** 
 1875              		.loc 2 983 3 view .LVU555
 988:Drivers/CMSIS/Include/cmsis_gcc.h **** #else
 1876              		.loc 2 988 4 view .LVU556
 1877 05ac 4FF00073 		mov	r3, #33554432
 1878              		.syntax unified
 1879              	@ 988 "Drivers/CMSIS/Include/cmsis_gcc.h" 1
 1880 05b0 93FAA3F3 		rbit r3, r3
 1881              	@ 0 "" 2
 1882              	.LVL138:
 1883              		.loc 2 1001 3 view .LVU557
 1884              		.loc 2 1001 3 is_stmt 0 view .LVU558
 1885              		.thumb
 1886              		.syntax unified
 1887              	.LBE258:
 1888              	.LBE257:
 617:Drivers/STM32F3xx_HAL_Driver/Src/stm32f3xx_hal_rcc.c ****         {
ARM GAS  /var/folders/jw/jcj5j9_530958b2rm5vp9wn00000gn/T//cceMbtLF.s 			page 68


 1889              		.loc 1 617 15 view .LVU559
 1890 05b4 B3FA83F3 		clz	r3, r3
 1891 05b8 03F01F03 		and	r3, r3, #31
 1892 05bc 0122     		movs	r2, #1
 1893 05be 02FA03F3 		lsl	r3, r2, r3
 617:Drivers/STM32F3xx_HAL_Driver/Src/stm32f3xx_hal_rcc.c ****         {
 1894              		.loc 1 617 14 view .LVU560
 1895 05c2 1942     		tst	r1, r3
 1896 05c4 06D1     		bne	.L131
 619:Drivers/STM32F3xx_HAL_Driver/Src/stm32f3xx_hal_rcc.c ****           {
 1897              		.loc 1 619 11 is_stmt 1 view .LVU561
 619:Drivers/STM32F3xx_HAL_Driver/Src/stm32f3xx_hal_rcc.c ****           {
 1898              		.loc 1 619 15 is_stmt 0 view .LVU562
 1899 05c6 FFF7FEFF 		bl	HAL_GetTick
 1900              	.LVL139:
 619:Drivers/STM32F3xx_HAL_Driver/Src/stm32f3xx_hal_rcc.c ****           {
 1901              		.loc 1 619 29 view .LVU563
 1902 05ca 001B     		subs	r0, r0, r4
 619:Drivers/STM32F3xx_HAL_Driver/Src/stm32f3xx_hal_rcc.c ****           {
 1903              		.loc 1 619 13 view .LVU564
 1904 05cc 0228     		cmp	r0, #2
 1905 05ce E7D9     		bls	.L86
 621:Drivers/STM32F3xx_HAL_Driver/Src/stm32f3xx_hal_rcc.c ****           }
 1906              		.loc 1 621 20 view .LVU565
 1907 05d0 0320     		movs	r0, #3
 1908 05d2 24E0     		b	.L21
 1909              	.L131:
 639:Drivers/STM32F3xx_HAL_Driver/Src/stm32f3xx_hal_rcc.c ****           }
 640:Drivers/STM32F3xx_HAL_Driver/Src/stm32f3xx_hal_rcc.c ****         }
 641:Drivers/STM32F3xx_HAL_Driver/Src/stm32f3xx_hal_rcc.c ****       }
 642:Drivers/STM32F3xx_HAL_Driver/Src/stm32f3xx_hal_rcc.c ****     }
 643:Drivers/STM32F3xx_HAL_Driver/Src/stm32f3xx_hal_rcc.c ****     else
 644:Drivers/STM32F3xx_HAL_Driver/Src/stm32f3xx_hal_rcc.c ****     {
 645:Drivers/STM32F3xx_HAL_Driver/Src/stm32f3xx_hal_rcc.c ****       /* Check if there is a request to disable the PLL used as System clock source */
 646:Drivers/STM32F3xx_HAL_Driver/Src/stm32f3xx_hal_rcc.c ****       if((RCC_OscInitStruct->PLL.PLLState) == RCC_PLL_OFF)
 647:Drivers/STM32F3xx_HAL_Driver/Src/stm32f3xx_hal_rcc.c ****       {
 648:Drivers/STM32F3xx_HAL_Driver/Src/stm32f3xx_hal_rcc.c ****         return HAL_ERROR;
 649:Drivers/STM32F3xx_HAL_Driver/Src/stm32f3xx_hal_rcc.c ****       }
 650:Drivers/STM32F3xx_HAL_Driver/Src/stm32f3xx_hal_rcc.c ****       else
 651:Drivers/STM32F3xx_HAL_Driver/Src/stm32f3xx_hal_rcc.c ****       {
 652:Drivers/STM32F3xx_HAL_Driver/Src/stm32f3xx_hal_rcc.c ****         /* Do not return HAL_ERROR if request repeats the current configuration */
 653:Drivers/STM32F3xx_HAL_Driver/Src/stm32f3xx_hal_rcc.c ****         pll_config = RCC->CFGR;
 654:Drivers/STM32F3xx_HAL_Driver/Src/stm32f3xx_hal_rcc.c **** #if defined(RCC_CFGR_PLLSRC_HSI_PREDIV)
 655:Drivers/STM32F3xx_HAL_Driver/Src/stm32f3xx_hal_rcc.c ****         pll_config2 = RCC->CFGR2;
 656:Drivers/STM32F3xx_HAL_Driver/Src/stm32f3xx_hal_rcc.c ****         if((READ_BIT(pll_config, RCC_CFGR_PLLSRC)   != RCC_OscInitStruct->PLL.PLLSource) ||      
 657:Drivers/STM32F3xx_HAL_Driver/Src/stm32f3xx_hal_rcc.c ****            (READ_BIT(pll_config, RCC_CFGR_PLLMUL)   != RCC_OscInitStruct->PLL.PLLMUL)    ||      
 658:Drivers/STM32F3xx_HAL_Driver/Src/stm32f3xx_hal_rcc.c ****            (READ_BIT(pll_config2, RCC_CFGR2_PREDIV)  != RCC_OscInitStruct->PLL.PREDIV))     
 659:Drivers/STM32F3xx_HAL_Driver/Src/stm32f3xx_hal_rcc.c **** #else
 660:Drivers/STM32F3xx_HAL_Driver/Src/stm32f3xx_hal_rcc.c ****         if((READ_BIT(pll_config, RCC_CFGR_PLLSRC)   != RCC_OscInitStruct->PLL.PLLSource) ||      
 661:Drivers/STM32F3xx_HAL_Driver/Src/stm32f3xx_hal_rcc.c ****            (READ_BIT(pll_config, RCC_CFGR_PLLMUL)   != RCC_OscInitStruct->PLL.PLLMUL))
 662:Drivers/STM32F3xx_HAL_Driver/Src/stm32f3xx_hal_rcc.c **** #endif
 663:Drivers/STM32F3xx_HAL_Driver/Src/stm32f3xx_hal_rcc.c ****         {
 664:Drivers/STM32F3xx_HAL_Driver/Src/stm32f3xx_hal_rcc.c ****           return HAL_ERROR;
 665:Drivers/STM32F3xx_HAL_Driver/Src/stm32f3xx_hal_rcc.c ****         }
 666:Drivers/STM32F3xx_HAL_Driver/Src/stm32f3xx_hal_rcc.c ****       }
 667:Drivers/STM32F3xx_HAL_Driver/Src/stm32f3xx_hal_rcc.c ****     }
 668:Drivers/STM32F3xx_HAL_Driver/Src/stm32f3xx_hal_rcc.c ****   }
ARM GAS  /var/folders/jw/jcj5j9_530958b2rm5vp9wn00000gn/T//cceMbtLF.s 			page 69


 669:Drivers/STM32F3xx_HAL_Driver/Src/stm32f3xx_hal_rcc.c **** 
 670:Drivers/STM32F3xx_HAL_Driver/Src/stm32f3xx_hal_rcc.c ****   return HAL_OK;
 1910              		.loc 1 670 10 view .LVU566
 1911 05d4 0020     		movs	r0, #0
 1912 05d6 22E0     		b	.L21
 1913              	.L129:
 1914              		.loc 1 670 10 view .LVU567
 1915 05d8 0020     		movs	r0, #0
 1916 05da 20E0     		b	.L21
 1917              	.L135:
 1918              		.align	2
 1919              	.L134:
 1920 05dc 20819010 		.word	277905696
 1921 05e0 00100240 		.word	1073876992
 1922 05e4 00700040 		.word	1073770496
 1923              	.LVL140:
 1924              	.L80:
 646:Drivers/STM32F3xx_HAL_Driver/Src/stm32f3xx_hal_rcc.c ****       {
 1925              		.loc 1 646 7 is_stmt 1 view .LVU568
 646:Drivers/STM32F3xx_HAL_Driver/Src/stm32f3xx_hal_rcc.c ****       {
 1926              		.loc 1 646 9 is_stmt 0 view .LVU569
 1927 05e8 012B     		cmp	r3, #1
 1928 05ea 1AD0     		beq	.L111
 653:Drivers/STM32F3xx_HAL_Driver/Src/stm32f3xx_hal_rcc.c **** #if defined(RCC_CFGR_PLLSRC_HSI_PREDIV)
 1929              		.loc 1 653 9 is_stmt 1 view .LVU570
 653:Drivers/STM32F3xx_HAL_Driver/Src/stm32f3xx_hal_rcc.c **** #if defined(RCC_CFGR_PLLSRC_HSI_PREDIV)
 1930              		.loc 1 653 20 is_stmt 0 view .LVU571
 1931 05ec 104B     		ldr	r3, .L136
 1932 05ee 5B68     		ldr	r3, [r3, #4]
 1933              	.LVL141:
 660:Drivers/STM32F3xx_HAL_Driver/Src/stm32f3xx_hal_rcc.c ****            (READ_BIT(pll_config, RCC_CFGR_PLLMUL)   != RCC_OscInitStruct->PLL.PLLMUL))
 1934              		.loc 1 660 9 is_stmt 1 view .LVU572
 660:Drivers/STM32F3xx_HAL_Driver/Src/stm32f3xx_hal_rcc.c ****            (READ_BIT(pll_config, RCC_CFGR_PLLMUL)   != RCC_OscInitStruct->PLL.PLLMUL))
 1935              		.loc 1 660 13 is_stmt 0 view .LVU573
 1936 05f0 03F48031 		and	r1, r3, #65536
 660:Drivers/STM32F3xx_HAL_Driver/Src/stm32f3xx_hal_rcc.c ****            (READ_BIT(pll_config, RCC_CFGR_PLLMUL)   != RCC_OscInitStruct->PLL.PLLMUL))
 1937              		.loc 1 660 78 view .LVU574
 1938 05f4 226A     		ldr	r2, [r4, #32]
 660:Drivers/STM32F3xx_HAL_Driver/Src/stm32f3xx_hal_rcc.c ****            (READ_BIT(pll_config, RCC_CFGR_PLLMUL)   != RCC_OscInitStruct->PLL.PLLMUL))
 1939              		.loc 1 660 11 view .LVU575
 1940 05f6 9142     		cmp	r1, r2
 1941 05f8 15D1     		bne	.L112
 661:Drivers/STM32F3xx_HAL_Driver/Src/stm32f3xx_hal_rcc.c **** #endif
 1942              		.loc 1 661 13 discriminator 1 view .LVU576
 1943 05fa 03F47013 		and	r3, r3, #3932160
 1944              	.LVL142:
 661:Drivers/STM32F3xx_HAL_Driver/Src/stm32f3xx_hal_rcc.c **** #endif
 1945              		.loc 1 661 78 discriminator 1 view .LVU577
 1946 05fe 626A     		ldr	r2, [r4, #36]
 660:Drivers/STM32F3xx_HAL_Driver/Src/stm32f3xx_hal_rcc.c ****            (READ_BIT(pll_config, RCC_CFGR_PLLMUL)   != RCC_OscInitStruct->PLL.PLLMUL))
 1947              		.loc 1 660 90 discriminator 1 view .LVU578
 1948 0600 9342     		cmp	r3, r2
 1949 0602 12D1     		bne	.L113
 1950              		.loc 1 670 10 view .LVU579
 1951 0604 0020     		movs	r0, #0
 1952 0606 0AE0     		b	.L21
 1953              	.LVL143:
ARM GAS  /var/folders/jw/jcj5j9_530958b2rm5vp9wn00000gn/T//cceMbtLF.s 			page 70


 1954              	.L94:
 1955              	.LCFI3:
 1956              		.cfi_def_cfa_offset 0
 1957              		.cfi_restore 4
 1958              		.cfi_restore 5
 1959              		.cfi_restore 6
 1960              		.cfi_restore 14
 327:Drivers/STM32F3xx_HAL_Driver/Src/stm32f3xx_hal_rcc.c ****   }
 1961              		.loc 1 327 12 view .LVU580
 1962 0608 0120     		movs	r0, #1
 1963              	.LVL144:
 671:Drivers/STM32F3xx_HAL_Driver/Src/stm32f3xx_hal_rcc.c **** }
 1964              		.loc 1 671 1 view .LVU581
 1965 060a 7047     		bx	lr
 1966              	.LVL145:
 1967              	.L120:
 1968              	.LCFI4:
 1969              		.cfi_def_cfa_offset 24
 1970              		.cfi_offset 4, -16
 1971              		.cfi_offset 5, -12
 1972              		.cfi_offset 6, -8
 1973              		.cfi_offset 14, -4
 345:Drivers/STM32F3xx_HAL_Driver/Src/stm32f3xx_hal_rcc.c ****       }
 1974              		.loc 1 345 16 view .LVU582
 1975 060c 0120     		movs	r0, #1
 1976              	.LVL146:
 345:Drivers/STM32F3xx_HAL_Driver/Src/stm32f3xx_hal_rcc.c ****       }
 1977              		.loc 1 345 16 view .LVU583
 1978 060e 06E0     		b	.L21
 1979              	.L98:
 403:Drivers/STM32F3xx_HAL_Driver/Src/stm32f3xx_hal_rcc.c ****       }
 1980              		.loc 1 403 16 view .LVU584
 1981 0610 0120     		movs	r0, #1
 1982 0612 04E0     		b	.L21
 1983              	.LVL147:
 1984              	.L105:
 1985              	.LBB259:
 542:Drivers/STM32F3xx_HAL_Driver/Src/stm32f3xx_hal_rcc.c ****         }
 1986              		.loc 1 542 18 view .LVU585
 1987 0614 0320     		movs	r0, #3
 1988 0616 02E0     		b	.L21
 1989              	.L106:
 556:Drivers/STM32F3xx_HAL_Driver/Src/stm32f3xx_hal_rcc.c ****         }
 1990              		.loc 1 556 18 view .LVU586
 1991 0618 0320     		movs	r0, #3
 1992 061a 00E0     		b	.L21
 1993              	.LVL148:
 1994              	.L107:
 556:Drivers/STM32F3xx_HAL_Driver/Src/stm32f3xx_hal_rcc.c ****         }
 1995              		.loc 1 556 18 view .LVU587
 1996              	.LBE259:
 670:Drivers/STM32F3xx_HAL_Driver/Src/stm32f3xx_hal_rcc.c **** }
 1997              		.loc 1 670 10 view .LVU588
 1998 061c 0020     		movs	r0, #0
 1999              	.LVL149:
 2000              	.L21:
 2001              		.loc 1 671 1 view .LVU589
ARM GAS  /var/folders/jw/jcj5j9_530958b2rm5vp9wn00000gn/T//cceMbtLF.s 			page 71


 2002 061e 02B0     		add	sp, sp, #8
 2003              	.LCFI5:
 2004              		.cfi_remember_state
 2005              		.cfi_def_cfa_offset 16
 2006              		@ sp needed
 2007 0620 70BD     		pop	{r4, r5, r6, pc}
 2008              	.LVL150:
 2009              	.L111:
 2010              	.LCFI6:
 2011              		.cfi_restore_state
 648:Drivers/STM32F3xx_HAL_Driver/Src/stm32f3xx_hal_rcc.c ****       }
 2012              		.loc 1 648 16 view .LVU590
 2013 0622 0120     		movs	r0, #1
 2014 0624 FBE7     		b	.L21
 2015              	.LVL151:
 2016              	.L112:
 664:Drivers/STM32F3xx_HAL_Driver/Src/stm32f3xx_hal_rcc.c ****         }
 2017              		.loc 1 664 18 view .LVU591
 2018 0626 0120     		movs	r0, #1
 2019 0628 F9E7     		b	.L21
 2020              	.LVL152:
 2021              	.L113:
 664:Drivers/STM32F3xx_HAL_Driver/Src/stm32f3xx_hal_rcc.c ****         }
 2022              		.loc 1 664 18 view .LVU592
 2023 062a 0120     		movs	r0, #1
 2024 062c F7E7     		b	.L21
 2025              	.L137:
 2026 062e 00BF     		.align	2
 2027              	.L136:
 2028 0630 00100240 		.word	1073876992
 2029              		.cfi_endproc
 2030              	.LFE131:
 2032              		.section	.text.HAL_RCC_MCOConfig,"ax",%progbits
 2033              		.align	1
 2034              		.global	HAL_RCC_MCOConfig
 2035              		.syntax unified
 2036              		.thumb
 2037              		.thumb_func
 2038              		.fpu fpv4-sp-d16
 2040              	HAL_RCC_MCOConfig:
 2041              	.LVL153:
 2042              	.LFB133:
 672:Drivers/STM32F3xx_HAL_Driver/Src/stm32f3xx_hal_rcc.c **** 
 673:Drivers/STM32F3xx_HAL_Driver/Src/stm32f3xx_hal_rcc.c **** /**
 674:Drivers/STM32F3xx_HAL_Driver/Src/stm32f3xx_hal_rcc.c ****   * @brief  Initializes the CPU, AHB and APB buses clocks according to the specified 
 675:Drivers/STM32F3xx_HAL_Driver/Src/stm32f3xx_hal_rcc.c ****   *         parameters in the RCC_ClkInitStruct.
 676:Drivers/STM32F3xx_HAL_Driver/Src/stm32f3xx_hal_rcc.c ****   * @param  RCC_ClkInitStruct pointer to an RCC_OscInitTypeDef structure that
 677:Drivers/STM32F3xx_HAL_Driver/Src/stm32f3xx_hal_rcc.c ****   *         contains the configuration information for the RCC peripheral.
 678:Drivers/STM32F3xx_HAL_Driver/Src/stm32f3xx_hal_rcc.c ****   * @param  FLatency FLASH Latency                   
 679:Drivers/STM32F3xx_HAL_Driver/Src/stm32f3xx_hal_rcc.c ****   *          The value of this parameter depend on device used within the same series
 680:Drivers/STM32F3xx_HAL_Driver/Src/stm32f3xx_hal_rcc.c ****   * @note   The SystemCoreClock CMSIS variable is used to store System Clock Frequency 
 681:Drivers/STM32F3xx_HAL_Driver/Src/stm32f3xx_hal_rcc.c ****   *         and updated by @ref HAL_RCC_GetHCLKFreq() function called within this function
 682:Drivers/STM32F3xx_HAL_Driver/Src/stm32f3xx_hal_rcc.c ****   *
 683:Drivers/STM32F3xx_HAL_Driver/Src/stm32f3xx_hal_rcc.c ****   * @note   The HSI is used (enabled by hardware) as system clock source after
 684:Drivers/STM32F3xx_HAL_Driver/Src/stm32f3xx_hal_rcc.c ****   *         start-up from Reset, wake-up from STOP and STANDBY mode, or in case
 685:Drivers/STM32F3xx_HAL_Driver/Src/stm32f3xx_hal_rcc.c ****   *         of failure of the HSE used directly or indirectly as system clock
 686:Drivers/STM32F3xx_HAL_Driver/Src/stm32f3xx_hal_rcc.c ****   *         (if the Clock Security System CSS is enabled).
ARM GAS  /var/folders/jw/jcj5j9_530958b2rm5vp9wn00000gn/T//cceMbtLF.s 			page 72


 687:Drivers/STM32F3xx_HAL_Driver/Src/stm32f3xx_hal_rcc.c ****   *           
 688:Drivers/STM32F3xx_HAL_Driver/Src/stm32f3xx_hal_rcc.c ****   * @note   A switch from one clock source to another occurs only if the target
 689:Drivers/STM32F3xx_HAL_Driver/Src/stm32f3xx_hal_rcc.c ****   *         clock source is ready (clock stable after start-up delay or PLL locked). 
 690:Drivers/STM32F3xx_HAL_Driver/Src/stm32f3xx_hal_rcc.c ****   *         If a clock source which is not yet ready is selected, the switch will
 691:Drivers/STM32F3xx_HAL_Driver/Src/stm32f3xx_hal_rcc.c ****   *         occur when the clock source will be ready. 
 692:Drivers/STM32F3xx_HAL_Driver/Src/stm32f3xx_hal_rcc.c ****   *         You can use @ref HAL_RCC_GetClockConfig() function to know which clock is
 693:Drivers/STM32F3xx_HAL_Driver/Src/stm32f3xx_hal_rcc.c ****   *         currently used as system clock source.
 694:Drivers/STM32F3xx_HAL_Driver/Src/stm32f3xx_hal_rcc.c ****   * @retval HAL status
 695:Drivers/STM32F3xx_HAL_Driver/Src/stm32f3xx_hal_rcc.c ****   */
 696:Drivers/STM32F3xx_HAL_Driver/Src/stm32f3xx_hal_rcc.c **** HAL_StatusTypeDef HAL_RCC_ClockConfig(RCC_ClkInitTypeDef  *RCC_ClkInitStruct, uint32_t FLatency)
 697:Drivers/STM32F3xx_HAL_Driver/Src/stm32f3xx_hal_rcc.c **** {
 698:Drivers/STM32F3xx_HAL_Driver/Src/stm32f3xx_hal_rcc.c ****   uint32_t tickstart = 0U;
 699:Drivers/STM32F3xx_HAL_Driver/Src/stm32f3xx_hal_rcc.c **** 
 700:Drivers/STM32F3xx_HAL_Driver/Src/stm32f3xx_hal_rcc.c ****   /* Check Null pointer */
 701:Drivers/STM32F3xx_HAL_Driver/Src/stm32f3xx_hal_rcc.c ****   if(RCC_ClkInitStruct == NULL)
 702:Drivers/STM32F3xx_HAL_Driver/Src/stm32f3xx_hal_rcc.c ****   {
 703:Drivers/STM32F3xx_HAL_Driver/Src/stm32f3xx_hal_rcc.c ****     return HAL_ERROR;
 704:Drivers/STM32F3xx_HAL_Driver/Src/stm32f3xx_hal_rcc.c ****   }
 705:Drivers/STM32F3xx_HAL_Driver/Src/stm32f3xx_hal_rcc.c **** 
 706:Drivers/STM32F3xx_HAL_Driver/Src/stm32f3xx_hal_rcc.c ****   /* Check the parameters */
 707:Drivers/STM32F3xx_HAL_Driver/Src/stm32f3xx_hal_rcc.c ****   assert_param(IS_RCC_CLOCKTYPE(RCC_ClkInitStruct->ClockType));
 708:Drivers/STM32F3xx_HAL_Driver/Src/stm32f3xx_hal_rcc.c ****   assert_param(IS_FLASH_LATENCY(FLatency));
 709:Drivers/STM32F3xx_HAL_Driver/Src/stm32f3xx_hal_rcc.c **** 
 710:Drivers/STM32F3xx_HAL_Driver/Src/stm32f3xx_hal_rcc.c ****   /* To correctly read data from FLASH memory, the number of wait states (LATENCY) 
 711:Drivers/STM32F3xx_HAL_Driver/Src/stm32f3xx_hal_rcc.c ****   must be correctly programmed according to the frequency of the CPU clock 
 712:Drivers/STM32F3xx_HAL_Driver/Src/stm32f3xx_hal_rcc.c ****     (HCLK) of the device. */
 713:Drivers/STM32F3xx_HAL_Driver/Src/stm32f3xx_hal_rcc.c **** 
 714:Drivers/STM32F3xx_HAL_Driver/Src/stm32f3xx_hal_rcc.c ****   /* Increasing the number of wait states because of higher CPU frequency */
 715:Drivers/STM32F3xx_HAL_Driver/Src/stm32f3xx_hal_rcc.c ****   if(FLatency > __HAL_FLASH_GET_LATENCY())
 716:Drivers/STM32F3xx_HAL_Driver/Src/stm32f3xx_hal_rcc.c ****   {    
 717:Drivers/STM32F3xx_HAL_Driver/Src/stm32f3xx_hal_rcc.c ****     /* Program the new number of wait states to the LATENCY bits in the FLASH_ACR register */
 718:Drivers/STM32F3xx_HAL_Driver/Src/stm32f3xx_hal_rcc.c ****     __HAL_FLASH_SET_LATENCY(FLatency);
 719:Drivers/STM32F3xx_HAL_Driver/Src/stm32f3xx_hal_rcc.c ****     
 720:Drivers/STM32F3xx_HAL_Driver/Src/stm32f3xx_hal_rcc.c ****     /* Check that the new number of wait states is taken into account to access the Flash
 721:Drivers/STM32F3xx_HAL_Driver/Src/stm32f3xx_hal_rcc.c ****     memory by reading the FLASH_ACR register */
 722:Drivers/STM32F3xx_HAL_Driver/Src/stm32f3xx_hal_rcc.c ****     if(__HAL_FLASH_GET_LATENCY() != FLatency)
 723:Drivers/STM32F3xx_HAL_Driver/Src/stm32f3xx_hal_rcc.c ****     {
 724:Drivers/STM32F3xx_HAL_Driver/Src/stm32f3xx_hal_rcc.c ****       return HAL_ERROR;
 725:Drivers/STM32F3xx_HAL_Driver/Src/stm32f3xx_hal_rcc.c ****     }
 726:Drivers/STM32F3xx_HAL_Driver/Src/stm32f3xx_hal_rcc.c ****   }
 727:Drivers/STM32F3xx_HAL_Driver/Src/stm32f3xx_hal_rcc.c **** 
 728:Drivers/STM32F3xx_HAL_Driver/Src/stm32f3xx_hal_rcc.c ****   /*-------------------------- HCLK Configuration --------------------------*/
 729:Drivers/STM32F3xx_HAL_Driver/Src/stm32f3xx_hal_rcc.c ****   if(((RCC_ClkInitStruct->ClockType) & RCC_CLOCKTYPE_HCLK) == RCC_CLOCKTYPE_HCLK)
 730:Drivers/STM32F3xx_HAL_Driver/Src/stm32f3xx_hal_rcc.c ****   {
 731:Drivers/STM32F3xx_HAL_Driver/Src/stm32f3xx_hal_rcc.c ****     assert_param(IS_RCC_HCLK(RCC_ClkInitStruct->AHBCLKDivider));
 732:Drivers/STM32F3xx_HAL_Driver/Src/stm32f3xx_hal_rcc.c ****     MODIFY_REG(RCC->CFGR, RCC_CFGR_HPRE, RCC_ClkInitStruct->AHBCLKDivider);
 733:Drivers/STM32F3xx_HAL_Driver/Src/stm32f3xx_hal_rcc.c ****   }
 734:Drivers/STM32F3xx_HAL_Driver/Src/stm32f3xx_hal_rcc.c **** 
 735:Drivers/STM32F3xx_HAL_Driver/Src/stm32f3xx_hal_rcc.c ****   /*------------------------- SYSCLK Configuration ---------------------------*/ 
 736:Drivers/STM32F3xx_HAL_Driver/Src/stm32f3xx_hal_rcc.c ****   if(((RCC_ClkInitStruct->ClockType) & RCC_CLOCKTYPE_SYSCLK) == RCC_CLOCKTYPE_SYSCLK)
 737:Drivers/STM32F3xx_HAL_Driver/Src/stm32f3xx_hal_rcc.c ****   {    
 738:Drivers/STM32F3xx_HAL_Driver/Src/stm32f3xx_hal_rcc.c ****     assert_param(IS_RCC_SYSCLKSOURCE(RCC_ClkInitStruct->SYSCLKSource));
 739:Drivers/STM32F3xx_HAL_Driver/Src/stm32f3xx_hal_rcc.c ****     
 740:Drivers/STM32F3xx_HAL_Driver/Src/stm32f3xx_hal_rcc.c ****     /* HSE is selected as System Clock Source */
 741:Drivers/STM32F3xx_HAL_Driver/Src/stm32f3xx_hal_rcc.c ****     if(RCC_ClkInitStruct->SYSCLKSource == RCC_SYSCLKSOURCE_HSE)
 742:Drivers/STM32F3xx_HAL_Driver/Src/stm32f3xx_hal_rcc.c ****     {
 743:Drivers/STM32F3xx_HAL_Driver/Src/stm32f3xx_hal_rcc.c ****       /* Check the HSE ready flag */  
ARM GAS  /var/folders/jw/jcj5j9_530958b2rm5vp9wn00000gn/T//cceMbtLF.s 			page 73


 744:Drivers/STM32F3xx_HAL_Driver/Src/stm32f3xx_hal_rcc.c ****       if(__HAL_RCC_GET_FLAG(RCC_FLAG_HSERDY) == RESET)
 745:Drivers/STM32F3xx_HAL_Driver/Src/stm32f3xx_hal_rcc.c ****       {
 746:Drivers/STM32F3xx_HAL_Driver/Src/stm32f3xx_hal_rcc.c ****         return HAL_ERROR;
 747:Drivers/STM32F3xx_HAL_Driver/Src/stm32f3xx_hal_rcc.c ****       }
 748:Drivers/STM32F3xx_HAL_Driver/Src/stm32f3xx_hal_rcc.c ****     }
 749:Drivers/STM32F3xx_HAL_Driver/Src/stm32f3xx_hal_rcc.c ****     /* PLL is selected as System Clock Source */
 750:Drivers/STM32F3xx_HAL_Driver/Src/stm32f3xx_hal_rcc.c ****     else if(RCC_ClkInitStruct->SYSCLKSource == RCC_SYSCLKSOURCE_PLLCLK)
 751:Drivers/STM32F3xx_HAL_Driver/Src/stm32f3xx_hal_rcc.c ****     {
 752:Drivers/STM32F3xx_HAL_Driver/Src/stm32f3xx_hal_rcc.c ****       /* Check the PLL ready flag */  
 753:Drivers/STM32F3xx_HAL_Driver/Src/stm32f3xx_hal_rcc.c ****       if(__HAL_RCC_GET_FLAG(RCC_FLAG_PLLRDY) == RESET)
 754:Drivers/STM32F3xx_HAL_Driver/Src/stm32f3xx_hal_rcc.c ****       {
 755:Drivers/STM32F3xx_HAL_Driver/Src/stm32f3xx_hal_rcc.c ****         return HAL_ERROR;
 756:Drivers/STM32F3xx_HAL_Driver/Src/stm32f3xx_hal_rcc.c ****       }
 757:Drivers/STM32F3xx_HAL_Driver/Src/stm32f3xx_hal_rcc.c ****     }
 758:Drivers/STM32F3xx_HAL_Driver/Src/stm32f3xx_hal_rcc.c ****     /* HSI is selected as System Clock Source */
 759:Drivers/STM32F3xx_HAL_Driver/Src/stm32f3xx_hal_rcc.c ****     else
 760:Drivers/STM32F3xx_HAL_Driver/Src/stm32f3xx_hal_rcc.c ****     {
 761:Drivers/STM32F3xx_HAL_Driver/Src/stm32f3xx_hal_rcc.c ****       /* Check the HSI ready flag */  
 762:Drivers/STM32F3xx_HAL_Driver/Src/stm32f3xx_hal_rcc.c ****       if(__HAL_RCC_GET_FLAG(RCC_FLAG_HSIRDY) == RESET)
 763:Drivers/STM32F3xx_HAL_Driver/Src/stm32f3xx_hal_rcc.c ****       {
 764:Drivers/STM32F3xx_HAL_Driver/Src/stm32f3xx_hal_rcc.c ****         return HAL_ERROR;
 765:Drivers/STM32F3xx_HAL_Driver/Src/stm32f3xx_hal_rcc.c ****       }
 766:Drivers/STM32F3xx_HAL_Driver/Src/stm32f3xx_hal_rcc.c ****     }
 767:Drivers/STM32F3xx_HAL_Driver/Src/stm32f3xx_hal_rcc.c **** 
 768:Drivers/STM32F3xx_HAL_Driver/Src/stm32f3xx_hal_rcc.c ****     __HAL_RCC_SYSCLK_CONFIG(RCC_ClkInitStruct->SYSCLKSource);
 769:Drivers/STM32F3xx_HAL_Driver/Src/stm32f3xx_hal_rcc.c **** 
 770:Drivers/STM32F3xx_HAL_Driver/Src/stm32f3xx_hal_rcc.c ****     /* Get Start Tick */
 771:Drivers/STM32F3xx_HAL_Driver/Src/stm32f3xx_hal_rcc.c ****     tickstart = HAL_GetTick();
 772:Drivers/STM32F3xx_HAL_Driver/Src/stm32f3xx_hal_rcc.c ****     
 773:Drivers/STM32F3xx_HAL_Driver/Src/stm32f3xx_hal_rcc.c ****     while (__HAL_RCC_GET_SYSCLK_SOURCE() != (RCC_ClkInitStruct->SYSCLKSource << RCC_CFGR_SWS_Pos))
 774:Drivers/STM32F3xx_HAL_Driver/Src/stm32f3xx_hal_rcc.c ****     {
 775:Drivers/STM32F3xx_HAL_Driver/Src/stm32f3xx_hal_rcc.c ****       if ((HAL_GetTick() - tickstart) > CLOCKSWITCH_TIMEOUT_VALUE)
 776:Drivers/STM32F3xx_HAL_Driver/Src/stm32f3xx_hal_rcc.c ****       {
 777:Drivers/STM32F3xx_HAL_Driver/Src/stm32f3xx_hal_rcc.c ****         return HAL_TIMEOUT;
 778:Drivers/STM32F3xx_HAL_Driver/Src/stm32f3xx_hal_rcc.c ****       }
 779:Drivers/STM32F3xx_HAL_Driver/Src/stm32f3xx_hal_rcc.c ****     }
 780:Drivers/STM32F3xx_HAL_Driver/Src/stm32f3xx_hal_rcc.c ****   }
 781:Drivers/STM32F3xx_HAL_Driver/Src/stm32f3xx_hal_rcc.c ****   /* Decreasing the number of wait states because of lower CPU frequency */
 782:Drivers/STM32F3xx_HAL_Driver/Src/stm32f3xx_hal_rcc.c ****   if(FLatency < __HAL_FLASH_GET_LATENCY())
 783:Drivers/STM32F3xx_HAL_Driver/Src/stm32f3xx_hal_rcc.c ****   {    
 784:Drivers/STM32F3xx_HAL_Driver/Src/stm32f3xx_hal_rcc.c ****     /* Program the new number of wait states to the LATENCY bits in the FLASH_ACR register */
 785:Drivers/STM32F3xx_HAL_Driver/Src/stm32f3xx_hal_rcc.c ****     __HAL_FLASH_SET_LATENCY(FLatency);
 786:Drivers/STM32F3xx_HAL_Driver/Src/stm32f3xx_hal_rcc.c ****     
 787:Drivers/STM32F3xx_HAL_Driver/Src/stm32f3xx_hal_rcc.c ****     /* Check that the new number of wait states is taken into account to access the Flash
 788:Drivers/STM32F3xx_HAL_Driver/Src/stm32f3xx_hal_rcc.c ****     memory by reading the FLASH_ACR register */
 789:Drivers/STM32F3xx_HAL_Driver/Src/stm32f3xx_hal_rcc.c ****     if(__HAL_FLASH_GET_LATENCY() != FLatency)
 790:Drivers/STM32F3xx_HAL_Driver/Src/stm32f3xx_hal_rcc.c ****     {
 791:Drivers/STM32F3xx_HAL_Driver/Src/stm32f3xx_hal_rcc.c ****       return HAL_ERROR;
 792:Drivers/STM32F3xx_HAL_Driver/Src/stm32f3xx_hal_rcc.c ****     }
 793:Drivers/STM32F3xx_HAL_Driver/Src/stm32f3xx_hal_rcc.c ****   }    
 794:Drivers/STM32F3xx_HAL_Driver/Src/stm32f3xx_hal_rcc.c **** 
 795:Drivers/STM32F3xx_HAL_Driver/Src/stm32f3xx_hal_rcc.c ****   /*-------------------------- PCLK1 Configuration ---------------------------*/ 
 796:Drivers/STM32F3xx_HAL_Driver/Src/stm32f3xx_hal_rcc.c ****   if(((RCC_ClkInitStruct->ClockType) & RCC_CLOCKTYPE_PCLK1) == RCC_CLOCKTYPE_PCLK1)
 797:Drivers/STM32F3xx_HAL_Driver/Src/stm32f3xx_hal_rcc.c ****   {
 798:Drivers/STM32F3xx_HAL_Driver/Src/stm32f3xx_hal_rcc.c ****     assert_param(IS_RCC_PCLK(RCC_ClkInitStruct->APB1CLKDivider));
 799:Drivers/STM32F3xx_HAL_Driver/Src/stm32f3xx_hal_rcc.c ****     MODIFY_REG(RCC->CFGR, RCC_CFGR_PPRE1, RCC_ClkInitStruct->APB1CLKDivider);
 800:Drivers/STM32F3xx_HAL_Driver/Src/stm32f3xx_hal_rcc.c ****   }
ARM GAS  /var/folders/jw/jcj5j9_530958b2rm5vp9wn00000gn/T//cceMbtLF.s 			page 74


 801:Drivers/STM32F3xx_HAL_Driver/Src/stm32f3xx_hal_rcc.c ****   
 802:Drivers/STM32F3xx_HAL_Driver/Src/stm32f3xx_hal_rcc.c ****   /*-------------------------- PCLK2 Configuration ---------------------------*/ 
 803:Drivers/STM32F3xx_HAL_Driver/Src/stm32f3xx_hal_rcc.c ****   if(((RCC_ClkInitStruct->ClockType) & RCC_CLOCKTYPE_PCLK2) == RCC_CLOCKTYPE_PCLK2)
 804:Drivers/STM32F3xx_HAL_Driver/Src/stm32f3xx_hal_rcc.c ****   {
 805:Drivers/STM32F3xx_HAL_Driver/Src/stm32f3xx_hal_rcc.c ****     assert_param(IS_RCC_PCLK(RCC_ClkInitStruct->APB2CLKDivider));
 806:Drivers/STM32F3xx_HAL_Driver/Src/stm32f3xx_hal_rcc.c ****     MODIFY_REG(RCC->CFGR, RCC_CFGR_PPRE2, ((RCC_ClkInitStruct->APB2CLKDivider) << 3U));
 807:Drivers/STM32F3xx_HAL_Driver/Src/stm32f3xx_hal_rcc.c ****   }
 808:Drivers/STM32F3xx_HAL_Driver/Src/stm32f3xx_hal_rcc.c ****  
 809:Drivers/STM32F3xx_HAL_Driver/Src/stm32f3xx_hal_rcc.c ****   /* Update the SystemCoreClock global variable */
 810:Drivers/STM32F3xx_HAL_Driver/Src/stm32f3xx_hal_rcc.c ****   SystemCoreClock = HAL_RCC_GetSysClockFreq() >> AHBPrescTable[(RCC->CFGR & RCC_CFGR_HPRE)>> RCC_CF
 811:Drivers/STM32F3xx_HAL_Driver/Src/stm32f3xx_hal_rcc.c **** 
 812:Drivers/STM32F3xx_HAL_Driver/Src/stm32f3xx_hal_rcc.c ****   /* Configure the source of time base considering new system clocks settings*/
 813:Drivers/STM32F3xx_HAL_Driver/Src/stm32f3xx_hal_rcc.c ****   HAL_InitTick (uwTickPrio);
 814:Drivers/STM32F3xx_HAL_Driver/Src/stm32f3xx_hal_rcc.c ****   
 815:Drivers/STM32F3xx_HAL_Driver/Src/stm32f3xx_hal_rcc.c ****   return HAL_OK;
 816:Drivers/STM32F3xx_HAL_Driver/Src/stm32f3xx_hal_rcc.c **** }
 817:Drivers/STM32F3xx_HAL_Driver/Src/stm32f3xx_hal_rcc.c **** 
 818:Drivers/STM32F3xx_HAL_Driver/Src/stm32f3xx_hal_rcc.c **** /**
 819:Drivers/STM32F3xx_HAL_Driver/Src/stm32f3xx_hal_rcc.c ****   * @}
 820:Drivers/STM32F3xx_HAL_Driver/Src/stm32f3xx_hal_rcc.c ****   */
 821:Drivers/STM32F3xx_HAL_Driver/Src/stm32f3xx_hal_rcc.c **** 
 822:Drivers/STM32F3xx_HAL_Driver/Src/stm32f3xx_hal_rcc.c **** /** @defgroup RCC_Exported_Functions_Group2 Peripheral Control functions
 823:Drivers/STM32F3xx_HAL_Driver/Src/stm32f3xx_hal_rcc.c ****   *  @brief   RCC clocks control functions
 824:Drivers/STM32F3xx_HAL_Driver/Src/stm32f3xx_hal_rcc.c ****   *
 825:Drivers/STM32F3xx_HAL_Driver/Src/stm32f3xx_hal_rcc.c ****   @verbatim   
 826:Drivers/STM32F3xx_HAL_Driver/Src/stm32f3xx_hal_rcc.c ****   ===============================================================================
 827:Drivers/STM32F3xx_HAL_Driver/Src/stm32f3xx_hal_rcc.c ****                   ##### Peripheral Control functions #####
 828:Drivers/STM32F3xx_HAL_Driver/Src/stm32f3xx_hal_rcc.c ****   ===============================================================================  
 829:Drivers/STM32F3xx_HAL_Driver/Src/stm32f3xx_hal_rcc.c ****     [..]
 830:Drivers/STM32F3xx_HAL_Driver/Src/stm32f3xx_hal_rcc.c ****     This subsection provides a set of functions allowing to control the RCC Clocks 
 831:Drivers/STM32F3xx_HAL_Driver/Src/stm32f3xx_hal_rcc.c ****     frequencies.
 832:Drivers/STM32F3xx_HAL_Driver/Src/stm32f3xx_hal_rcc.c **** 
 833:Drivers/STM32F3xx_HAL_Driver/Src/stm32f3xx_hal_rcc.c ****   @endverbatim
 834:Drivers/STM32F3xx_HAL_Driver/Src/stm32f3xx_hal_rcc.c ****   * @{
 835:Drivers/STM32F3xx_HAL_Driver/Src/stm32f3xx_hal_rcc.c ****   */
 836:Drivers/STM32F3xx_HAL_Driver/Src/stm32f3xx_hal_rcc.c **** 
 837:Drivers/STM32F3xx_HAL_Driver/Src/stm32f3xx_hal_rcc.c **** #if defined(RCC_CFGR_MCOPRE)
 838:Drivers/STM32F3xx_HAL_Driver/Src/stm32f3xx_hal_rcc.c **** /**
 839:Drivers/STM32F3xx_HAL_Driver/Src/stm32f3xx_hal_rcc.c ****   * @brief  Selects the clock source to output on MCO pin.
 840:Drivers/STM32F3xx_HAL_Driver/Src/stm32f3xx_hal_rcc.c ****   * @note   MCO pin should be configured in alternate function mode.
 841:Drivers/STM32F3xx_HAL_Driver/Src/stm32f3xx_hal_rcc.c ****   * @param  RCC_MCOx specifies the output direction for the clock source.
 842:Drivers/STM32F3xx_HAL_Driver/Src/stm32f3xx_hal_rcc.c ****   *          This parameter can be one of the following values:
 843:Drivers/STM32F3xx_HAL_Driver/Src/stm32f3xx_hal_rcc.c ****   *            @arg @ref RCC_MCO1 Clock source to output on MCO1 pin(PA8).
 844:Drivers/STM32F3xx_HAL_Driver/Src/stm32f3xx_hal_rcc.c ****   * @param  RCC_MCOSource specifies the clock source to output.
 845:Drivers/STM32F3xx_HAL_Driver/Src/stm32f3xx_hal_rcc.c ****   *          This parameter can be one of the following values:
 846:Drivers/STM32F3xx_HAL_Driver/Src/stm32f3xx_hal_rcc.c ****   *            @arg @ref RCC_MCO1SOURCE_NOCLOCK     No clock selected
 847:Drivers/STM32F3xx_HAL_Driver/Src/stm32f3xx_hal_rcc.c ****   *            @arg @ref RCC_MCO1SOURCE_SYSCLK      System Clock selected as MCO clock
 848:Drivers/STM32F3xx_HAL_Driver/Src/stm32f3xx_hal_rcc.c ****   *            @arg @ref RCC_MCO1SOURCE_HSI         HSI selected as MCO clock
 849:Drivers/STM32F3xx_HAL_Driver/Src/stm32f3xx_hal_rcc.c ****   *            @arg @ref RCC_MCO1SOURCE_HSE         HSE selected as MCO clock
 850:Drivers/STM32F3xx_HAL_Driver/Src/stm32f3xx_hal_rcc.c ****   *            @arg @ref RCC_MCO1SOURCE_LSI         LSI selected as MCO clock
 851:Drivers/STM32F3xx_HAL_Driver/Src/stm32f3xx_hal_rcc.c ****   *            @arg @ref RCC_MCO1SOURCE_LSE         LSE selected as MCO clock
 852:Drivers/STM32F3xx_HAL_Driver/Src/stm32f3xx_hal_rcc.c ****   *            @arg @ref RCC_MCO1SOURCE_PLLCLK      PLLCLK selected as MCO clock
 853:Drivers/STM32F3xx_HAL_Driver/Src/stm32f3xx_hal_rcc.c ****   *            @arg @ref RCC_MCO1SOURCE_PLLCLK_DIV2 PLLCLK Divided by 2 selected as MCO clock
 854:Drivers/STM32F3xx_HAL_Driver/Src/stm32f3xx_hal_rcc.c ****   * @param  RCC_MCODiv specifies the MCO DIV.
 855:Drivers/STM32F3xx_HAL_Driver/Src/stm32f3xx_hal_rcc.c ****   *          This parameter can be one of the following values:
 856:Drivers/STM32F3xx_HAL_Driver/Src/stm32f3xx_hal_rcc.c ****   *            @arg @ref RCC_MCODIV_1   no division applied to MCO clock
 857:Drivers/STM32F3xx_HAL_Driver/Src/stm32f3xx_hal_rcc.c ****   *            @arg @ref RCC_MCODIV_2   division by 2 applied to MCO clock
ARM GAS  /var/folders/jw/jcj5j9_530958b2rm5vp9wn00000gn/T//cceMbtLF.s 			page 75


 858:Drivers/STM32F3xx_HAL_Driver/Src/stm32f3xx_hal_rcc.c ****   *            @arg @ref RCC_MCODIV_4   division by 4 applied to MCO clock
 859:Drivers/STM32F3xx_HAL_Driver/Src/stm32f3xx_hal_rcc.c ****   *            @arg @ref RCC_MCODIV_8   division by 8 applied to MCO clock
 860:Drivers/STM32F3xx_HAL_Driver/Src/stm32f3xx_hal_rcc.c ****   *            @arg @ref RCC_MCODIV_16  division by 16 applied to MCO clock
 861:Drivers/STM32F3xx_HAL_Driver/Src/stm32f3xx_hal_rcc.c ****   *            @arg @ref RCC_MCODIV_32  division by 32 applied to MCO clock
 862:Drivers/STM32F3xx_HAL_Driver/Src/stm32f3xx_hal_rcc.c ****   *            @arg @ref RCC_MCODIV_64  division by 64 applied to MCO clock
 863:Drivers/STM32F3xx_HAL_Driver/Src/stm32f3xx_hal_rcc.c ****   *            @arg @ref RCC_MCODIV_128 division by 128 applied to MCO clock
 864:Drivers/STM32F3xx_HAL_Driver/Src/stm32f3xx_hal_rcc.c ****   * @retval None
 865:Drivers/STM32F3xx_HAL_Driver/Src/stm32f3xx_hal_rcc.c ****   */
 866:Drivers/STM32F3xx_HAL_Driver/Src/stm32f3xx_hal_rcc.c **** #else
 867:Drivers/STM32F3xx_HAL_Driver/Src/stm32f3xx_hal_rcc.c **** /**
 868:Drivers/STM32F3xx_HAL_Driver/Src/stm32f3xx_hal_rcc.c ****   * @brief  Selects the clock source to output on MCO pin.
 869:Drivers/STM32F3xx_HAL_Driver/Src/stm32f3xx_hal_rcc.c ****   * @note   MCO pin should be configured in alternate function mode.
 870:Drivers/STM32F3xx_HAL_Driver/Src/stm32f3xx_hal_rcc.c ****   * @param  RCC_MCOx specifies the output direction for the clock source.
 871:Drivers/STM32F3xx_HAL_Driver/Src/stm32f3xx_hal_rcc.c ****   *          This parameter can be one of the following values:
 872:Drivers/STM32F3xx_HAL_Driver/Src/stm32f3xx_hal_rcc.c ****   *            @arg @ref RCC_MCO1 Clock source to output on MCO1 pin(PA8).
 873:Drivers/STM32F3xx_HAL_Driver/Src/stm32f3xx_hal_rcc.c ****   * @param  RCC_MCOSource specifies the clock source to output.
 874:Drivers/STM32F3xx_HAL_Driver/Src/stm32f3xx_hal_rcc.c ****   *          This parameter can be one of the following values:
 875:Drivers/STM32F3xx_HAL_Driver/Src/stm32f3xx_hal_rcc.c ****   *            @arg @ref RCC_MCO1SOURCE_NOCLOCK     No clock selected as MCO clock
 876:Drivers/STM32F3xx_HAL_Driver/Src/stm32f3xx_hal_rcc.c ****   *            @arg @ref RCC_MCO1SOURCE_SYSCLK      System clock selected as MCO clock
 877:Drivers/STM32F3xx_HAL_Driver/Src/stm32f3xx_hal_rcc.c ****   *            @arg @ref RCC_MCO1SOURCE_HSI         HSI selected as MCO clock
 878:Drivers/STM32F3xx_HAL_Driver/Src/stm32f3xx_hal_rcc.c ****   *            @arg @ref RCC_MCO1SOURCE_HSE         HSE selected as MCO clock
 879:Drivers/STM32F3xx_HAL_Driver/Src/stm32f3xx_hal_rcc.c ****   *            @arg @ref RCC_MCO1SOURCE_LSI         LSI selected as MCO clock
 880:Drivers/STM32F3xx_HAL_Driver/Src/stm32f3xx_hal_rcc.c ****   *            @arg @ref RCC_MCO1SOURCE_LSE         LSE selected as MCO clock
 881:Drivers/STM32F3xx_HAL_Driver/Src/stm32f3xx_hal_rcc.c ****   *            @arg @ref RCC_MCO1SOURCE_PLLCLK_DIV2 PLLCLK Divided by 2 selected as MCO clock
 882:Drivers/STM32F3xx_HAL_Driver/Src/stm32f3xx_hal_rcc.c ****   * @param  RCC_MCODiv specifies the MCO DIV.
 883:Drivers/STM32F3xx_HAL_Driver/Src/stm32f3xx_hal_rcc.c ****   *          This parameter can be one of the following values:
 884:Drivers/STM32F3xx_HAL_Driver/Src/stm32f3xx_hal_rcc.c ****   *            @arg @ref RCC_MCODIV_1 no division applied to MCO clock
 885:Drivers/STM32F3xx_HAL_Driver/Src/stm32f3xx_hal_rcc.c ****   * @retval None
 886:Drivers/STM32F3xx_HAL_Driver/Src/stm32f3xx_hal_rcc.c ****   */
 887:Drivers/STM32F3xx_HAL_Driver/Src/stm32f3xx_hal_rcc.c **** #endif
 888:Drivers/STM32F3xx_HAL_Driver/Src/stm32f3xx_hal_rcc.c **** void HAL_RCC_MCOConfig(uint32_t RCC_MCOx, uint32_t RCC_MCOSource, uint32_t RCC_MCODiv)
 889:Drivers/STM32F3xx_HAL_Driver/Src/stm32f3xx_hal_rcc.c **** {
 2043              		.loc 1 889 1 is_stmt 1 view -0
 2044              		.cfi_startproc
 2045              		@ args = 0, pretend = 0, frame = 24
 2046              		@ frame_needed = 0, uses_anonymous_args = 0
 2047              		.loc 1 889 1 is_stmt 0 view .LVU594
 2048 0000 30B5     		push	{r4, r5, lr}
 2049              	.LCFI7:
 2050              		.cfi_def_cfa_offset 12
 2051              		.cfi_offset 4, -12
 2052              		.cfi_offset 5, -8
 2053              		.cfi_offset 14, -4
 2054 0002 87B0     		sub	sp, sp, #28
 2055              	.LCFI8:
 2056              		.cfi_def_cfa_offset 40
 2057 0004 0D46     		mov	r5, r1
 890:Drivers/STM32F3xx_HAL_Driver/Src/stm32f3xx_hal_rcc.c ****   GPIO_InitTypeDef gpio;
 2058              		.loc 1 890 3 is_stmt 1 view .LVU595
 891:Drivers/STM32F3xx_HAL_Driver/Src/stm32f3xx_hal_rcc.c **** 
 892:Drivers/STM32F3xx_HAL_Driver/Src/stm32f3xx_hal_rcc.c ****   /* Check the parameters */
 893:Drivers/STM32F3xx_HAL_Driver/Src/stm32f3xx_hal_rcc.c ****   assert_param(IS_RCC_MCO(RCC_MCOx));
 2059              		.loc 1 893 3 view .LVU596
 894:Drivers/STM32F3xx_HAL_Driver/Src/stm32f3xx_hal_rcc.c ****   assert_param(IS_RCC_MCODIV(RCC_MCODiv));
 2060              		.loc 1 894 3 view .LVU597
 895:Drivers/STM32F3xx_HAL_Driver/Src/stm32f3xx_hal_rcc.c ****   assert_param(IS_RCC_MCO1SOURCE(RCC_MCOSource));
 2061              		.loc 1 895 3 view .LVU598
ARM GAS  /var/folders/jw/jcj5j9_530958b2rm5vp9wn00000gn/T//cceMbtLF.s 			page 76


 896:Drivers/STM32F3xx_HAL_Driver/Src/stm32f3xx_hal_rcc.c ****   
 897:Drivers/STM32F3xx_HAL_Driver/Src/stm32f3xx_hal_rcc.c ****   /* Configure the MCO1 pin in alternate function mode */
 898:Drivers/STM32F3xx_HAL_Driver/Src/stm32f3xx_hal_rcc.c ****   gpio.Mode      = GPIO_MODE_AF_PP;
 2062              		.loc 1 898 3 view .LVU599
 2063              		.loc 1 898 18 is_stmt 0 view .LVU600
 2064 0006 0223     		movs	r3, #2
 2065 0008 0293     		str	r3, [sp, #8]
 899:Drivers/STM32F3xx_HAL_Driver/Src/stm32f3xx_hal_rcc.c ****   gpio.Speed     = GPIO_SPEED_FREQ_HIGH;
 2066              		.loc 1 899 3 is_stmt 1 view .LVU601
 2067              		.loc 1 899 18 is_stmt 0 view .LVU602
 2068 000a 0323     		movs	r3, #3
 2069 000c 0493     		str	r3, [sp, #16]
 900:Drivers/STM32F3xx_HAL_Driver/Src/stm32f3xx_hal_rcc.c ****   gpio.Pull      = GPIO_NOPULL;
 2070              		.loc 1 900 3 is_stmt 1 view .LVU603
 2071              		.loc 1 900 18 is_stmt 0 view .LVU604
 2072 000e 0023     		movs	r3, #0
 2073 0010 0393     		str	r3, [sp, #12]
 901:Drivers/STM32F3xx_HAL_Driver/Src/stm32f3xx_hal_rcc.c ****   gpio.Pin       = MCO1_PIN;
 2074              		.loc 1 901 3 is_stmt 1 view .LVU605
 2075              		.loc 1 901 18 is_stmt 0 view .LVU606
 2076 0012 4FF48072 		mov	r2, #256
 2077              	.LVL154:
 2078              		.loc 1 901 18 view .LVU607
 2079 0016 0192     		str	r2, [sp, #4]
 902:Drivers/STM32F3xx_HAL_Driver/Src/stm32f3xx_hal_rcc.c ****   gpio.Alternate = GPIO_AF0_MCO;
 2080              		.loc 1 902 3 is_stmt 1 view .LVU608
 2081              		.loc 1 902 18 is_stmt 0 view .LVU609
 2082 0018 0593     		str	r3, [sp, #20]
 903:Drivers/STM32F3xx_HAL_Driver/Src/stm32f3xx_hal_rcc.c **** 
 904:Drivers/STM32F3xx_HAL_Driver/Src/stm32f3xx_hal_rcc.c ****   /* MCO1 Clock Enable */
 905:Drivers/STM32F3xx_HAL_Driver/Src/stm32f3xx_hal_rcc.c ****   MCO1_CLK_ENABLE();
 2083              		.loc 1 905 3 is_stmt 1 view .LVU610
 2084              	.LBB260:
 2085              		.loc 1 905 3 view .LVU611
 2086              		.loc 1 905 3 view .LVU612
 2087 001a 0B4C     		ldr	r4, .L140
 2088 001c 6369     		ldr	r3, [r4, #20]
 2089 001e 43F40033 		orr	r3, r3, #131072
 2090 0022 6361     		str	r3, [r4, #20]
 2091              		.loc 1 905 3 view .LVU613
 2092 0024 6369     		ldr	r3, [r4, #20]
 2093 0026 03F40033 		and	r3, r3, #131072
 2094 002a 0093     		str	r3, [sp]
 2095              		.loc 1 905 3 view .LVU614
 2096 002c 009B     		ldr	r3, [sp]
 2097              	.LBE260:
 2098              		.loc 1 905 3 view .LVU615
 906:Drivers/STM32F3xx_HAL_Driver/Src/stm32f3xx_hal_rcc.c ****   
 907:Drivers/STM32F3xx_HAL_Driver/Src/stm32f3xx_hal_rcc.c ****   HAL_GPIO_Init(MCO1_GPIO_PORT, &gpio);
 2099              		.loc 1 907 3 view .LVU616
 2100 002e 01A9     		add	r1, sp, #4
 2101              	.LVL155:
 2102              		.loc 1 907 3 is_stmt 0 view .LVU617
 2103 0030 4FF09040 		mov	r0, #1207959552
 2104              	.LVL156:
 2105              		.loc 1 907 3 view .LVU618
 2106 0034 FFF7FEFF 		bl	HAL_GPIO_Init
ARM GAS  /var/folders/jw/jcj5j9_530958b2rm5vp9wn00000gn/T//cceMbtLF.s 			page 77


 2107              	.LVL157:
 908:Drivers/STM32F3xx_HAL_Driver/Src/stm32f3xx_hal_rcc.c ****   
 909:Drivers/STM32F3xx_HAL_Driver/Src/stm32f3xx_hal_rcc.c ****   /* Configure the MCO clock source */
 910:Drivers/STM32F3xx_HAL_Driver/Src/stm32f3xx_hal_rcc.c ****   __HAL_RCC_MCO1_CONFIG(RCC_MCOSource, RCC_MCODiv);
 2108              		.loc 1 910 3 is_stmt 1 view .LVU619
 2109 0038 6368     		ldr	r3, [r4, #4]
 2110 003a 23F0E063 		bic	r3, r3, #117440512
 2111 003e 2B43     		orrs	r3, r3, r5
 2112 0040 6360     		str	r3, [r4, #4]
 911:Drivers/STM32F3xx_HAL_Driver/Src/stm32f3xx_hal_rcc.c **** }
 2113              		.loc 1 911 1 is_stmt 0 view .LVU620
 2114 0042 07B0     		add	sp, sp, #28
 2115              	.LCFI9:
 2116              		.cfi_def_cfa_offset 12
 2117              		@ sp needed
 2118 0044 30BD     		pop	{r4, r5, pc}
 2119              	.LVL158:
 2120              	.L141:
 2121              		.loc 1 911 1 view .LVU621
 2122 0046 00BF     		.align	2
 2123              	.L140:
 2124 0048 00100240 		.word	1073876992
 2125              		.cfi_endproc
 2126              	.LFE133:
 2128              		.section	.text.HAL_RCC_EnableCSS,"ax",%progbits
 2129              		.align	1
 2130              		.global	HAL_RCC_EnableCSS
 2131              		.syntax unified
 2132              		.thumb
 2133              		.thumb_func
 2134              		.fpu fpv4-sp-d16
 2136              	HAL_RCC_EnableCSS:
 2137              	.LFB134:
 912:Drivers/STM32F3xx_HAL_Driver/Src/stm32f3xx_hal_rcc.c **** 
 913:Drivers/STM32F3xx_HAL_Driver/Src/stm32f3xx_hal_rcc.c **** /**
 914:Drivers/STM32F3xx_HAL_Driver/Src/stm32f3xx_hal_rcc.c ****   * @brief  Enables the Clock Security System.
 915:Drivers/STM32F3xx_HAL_Driver/Src/stm32f3xx_hal_rcc.c ****   * @note   If a failure is detected on the HSE oscillator clock, this oscillator
 916:Drivers/STM32F3xx_HAL_Driver/Src/stm32f3xx_hal_rcc.c ****   *         is automatically disabled and an interrupt is generated to inform the
 917:Drivers/STM32F3xx_HAL_Driver/Src/stm32f3xx_hal_rcc.c ****   *         software about the failure (Clock Security System Interrupt, CSSI),
 918:Drivers/STM32F3xx_HAL_Driver/Src/stm32f3xx_hal_rcc.c ****   *         allowing the MCU to perform rescue operations. The CSSI is linked to 
 919:Drivers/STM32F3xx_HAL_Driver/Src/stm32f3xx_hal_rcc.c ****   *         the Cortex-M4 NMI (Non-Maskable Interrupt) exception vector.  
 920:Drivers/STM32F3xx_HAL_Driver/Src/stm32f3xx_hal_rcc.c ****   * @retval None
 921:Drivers/STM32F3xx_HAL_Driver/Src/stm32f3xx_hal_rcc.c ****   */
 922:Drivers/STM32F3xx_HAL_Driver/Src/stm32f3xx_hal_rcc.c **** void HAL_RCC_EnableCSS(void)
 923:Drivers/STM32F3xx_HAL_Driver/Src/stm32f3xx_hal_rcc.c **** {
 2138              		.loc 1 923 1 is_stmt 1 view -0
 2139              		.cfi_startproc
 2140              		@ args = 0, pretend = 0, frame = 0
 2141              		@ frame_needed = 0, uses_anonymous_args = 0
 2142              		@ link register save eliminated.
 924:Drivers/STM32F3xx_HAL_Driver/Src/stm32f3xx_hal_rcc.c ****   *(__IO uint32_t *) RCC_CR_CSSON_BB = (uint32_t)ENABLE;
 2143              		.loc 1 924 3 view .LVU623
 2144              	.LVL159:
 2145              	.LBB261:
 2146              	.LBI261:
 981:Drivers/CMSIS/Include/cmsis_gcc.h **** {
 2147              		.loc 2 981 31 view .LVU624
ARM GAS  /var/folders/jw/jcj5j9_530958b2rm5vp9wn00000gn/T//cceMbtLF.s 			page 78


 2148              	.LBB262:
 983:Drivers/CMSIS/Include/cmsis_gcc.h **** 
 2149              		.loc 2 983 3 view .LVU625
 988:Drivers/CMSIS/Include/cmsis_gcc.h **** #else
 2150              		.loc 2 988 4 view .LVU626
 2151 0000 4FF40023 		mov	r3, #524288
 2152              		.syntax unified
 2153              	@ 988 "Drivers/CMSIS/Include/cmsis_gcc.h" 1
 2154 0004 93FAA3F3 		rbit r3, r3
 2155              	@ 0 "" 2
 2156              	.LVL160:
 2157              		.loc 2 1001 3 view .LVU627
 2158              		.loc 2 1001 3 is_stmt 0 view .LVU628
 2159              		.thumb
 2160              		.syntax unified
 2161              	.LBE262:
 2162              	.LBE261:
 2163              		.loc 1 924 22 view .LVU629
 2164 0008 B3FA83F3 		clz	r3, r3
 2165 000c 03F18453 		add	r3, r3, #276824064
 2166 0010 03F58413 		add	r3, r3, #1081344
 2167 0014 9B00     		lsls	r3, r3, #2
 2168              		.loc 1 924 38 view .LVU630
 2169 0016 0122     		movs	r2, #1
 2170 0018 1A60     		str	r2, [r3]
 925:Drivers/STM32F3xx_HAL_Driver/Src/stm32f3xx_hal_rcc.c **** }
 2171              		.loc 1 925 1 view .LVU631
 2172 001a 7047     		bx	lr
 2173              		.cfi_endproc
 2174              	.LFE134:
 2176              		.section	.text.HAL_RCC_DisableCSS,"ax",%progbits
 2177              		.align	1
 2178              		.global	HAL_RCC_DisableCSS
 2179              		.syntax unified
 2180              		.thumb
 2181              		.thumb_func
 2182              		.fpu fpv4-sp-d16
 2184              	HAL_RCC_DisableCSS:
 2185              	.LFB135:
 926:Drivers/STM32F3xx_HAL_Driver/Src/stm32f3xx_hal_rcc.c **** 
 927:Drivers/STM32F3xx_HAL_Driver/Src/stm32f3xx_hal_rcc.c **** /**
 928:Drivers/STM32F3xx_HAL_Driver/Src/stm32f3xx_hal_rcc.c ****   * @brief  Disables the Clock Security System.
 929:Drivers/STM32F3xx_HAL_Driver/Src/stm32f3xx_hal_rcc.c ****   * @retval None
 930:Drivers/STM32F3xx_HAL_Driver/Src/stm32f3xx_hal_rcc.c ****   */
 931:Drivers/STM32F3xx_HAL_Driver/Src/stm32f3xx_hal_rcc.c **** void HAL_RCC_DisableCSS(void)
 932:Drivers/STM32F3xx_HAL_Driver/Src/stm32f3xx_hal_rcc.c **** {
 2186              		.loc 1 932 1 is_stmt 1 view -0
 2187              		.cfi_startproc
 2188              		@ args = 0, pretend = 0, frame = 0
 2189              		@ frame_needed = 0, uses_anonymous_args = 0
 2190              		@ link register save eliminated.
 933:Drivers/STM32F3xx_HAL_Driver/Src/stm32f3xx_hal_rcc.c ****   *(__IO uint32_t *) RCC_CR_CSSON_BB = (uint32_t)DISABLE;
 2191              		.loc 1 933 3 view .LVU633
 2192              	.LVL161:
 2193              	.LBB263:
 2194              	.LBI263:
 981:Drivers/CMSIS/Include/cmsis_gcc.h **** {
ARM GAS  /var/folders/jw/jcj5j9_530958b2rm5vp9wn00000gn/T//cceMbtLF.s 			page 79


 2195              		.loc 2 981 31 view .LVU634
 2196              	.LBB264:
 983:Drivers/CMSIS/Include/cmsis_gcc.h **** 
 2197              		.loc 2 983 3 view .LVU635
 988:Drivers/CMSIS/Include/cmsis_gcc.h **** #else
 2198              		.loc 2 988 4 view .LVU636
 2199 0000 4FF40023 		mov	r3, #524288
 2200              		.syntax unified
 2201              	@ 988 "Drivers/CMSIS/Include/cmsis_gcc.h" 1
 2202 0004 93FAA3F3 		rbit r3, r3
 2203              	@ 0 "" 2
 2204              	.LVL162:
 2205              		.loc 2 1001 3 view .LVU637
 2206              		.loc 2 1001 3 is_stmt 0 view .LVU638
 2207              		.thumb
 2208              		.syntax unified
 2209              	.LBE264:
 2210              	.LBE263:
 2211              		.loc 1 933 22 view .LVU639
 2212 0008 B3FA83F3 		clz	r3, r3
 2213 000c 03F18453 		add	r3, r3, #276824064
 2214 0010 03F58413 		add	r3, r3, #1081344
 2215 0014 9B00     		lsls	r3, r3, #2
 2216              		.loc 1 933 38 view .LVU640
 2217 0016 0022     		movs	r2, #0
 2218 0018 1A60     		str	r2, [r3]
 934:Drivers/STM32F3xx_HAL_Driver/Src/stm32f3xx_hal_rcc.c **** }
 2219              		.loc 1 934 1 view .LVU641
 2220 001a 7047     		bx	lr
 2221              		.cfi_endproc
 2222              	.LFE135:
 2224              		.section	.text.HAL_RCC_GetSysClockFreq,"ax",%progbits
 2225              		.align	1
 2226              		.global	HAL_RCC_GetSysClockFreq
 2227              		.syntax unified
 2228              		.thumb
 2229              		.thumb_func
 2230              		.fpu fpv4-sp-d16
 2232              	HAL_RCC_GetSysClockFreq:
 2233              	.LFB136:
 935:Drivers/STM32F3xx_HAL_Driver/Src/stm32f3xx_hal_rcc.c **** 
 936:Drivers/STM32F3xx_HAL_Driver/Src/stm32f3xx_hal_rcc.c **** /**
 937:Drivers/STM32F3xx_HAL_Driver/Src/stm32f3xx_hal_rcc.c ****   * @brief  Returns the SYSCLK frequency     
 938:Drivers/STM32F3xx_HAL_Driver/Src/stm32f3xx_hal_rcc.c ****   * @note   The system frequency computed by this function is not the real 
 939:Drivers/STM32F3xx_HAL_Driver/Src/stm32f3xx_hal_rcc.c ****   *         frequency in the chip. It is calculated based on the predefined 
 940:Drivers/STM32F3xx_HAL_Driver/Src/stm32f3xx_hal_rcc.c ****   *         constant and the selected clock source:
 941:Drivers/STM32F3xx_HAL_Driver/Src/stm32f3xx_hal_rcc.c ****   * @note     If SYSCLK source is HSI, function returns values based on HSI_VALUE(*)
 942:Drivers/STM32F3xx_HAL_Driver/Src/stm32f3xx_hal_rcc.c ****   * @note     If SYSCLK source is HSE, function returns a value based on HSE_VALUE
 943:Drivers/STM32F3xx_HAL_Driver/Src/stm32f3xx_hal_rcc.c ****   *           divided by PREDIV factor(**)
 944:Drivers/STM32F3xx_HAL_Driver/Src/stm32f3xx_hal_rcc.c ****   * @note     If SYSCLK source is PLL, function returns a value based on HSE_VALUE
 945:Drivers/STM32F3xx_HAL_Driver/Src/stm32f3xx_hal_rcc.c ****   *           divided by PREDIV factor(**) or HSI_VALUE(*) multiplied by the PLL factor.
 946:Drivers/STM32F3xx_HAL_Driver/Src/stm32f3xx_hal_rcc.c ****   * @note     (*) HSI_VALUE is a constant defined in stm32f3xx_hal_conf.h file (default value
 947:Drivers/STM32F3xx_HAL_Driver/Src/stm32f3xx_hal_rcc.c ****   *               8 MHz) but the real value may vary depending on the variations
 948:Drivers/STM32F3xx_HAL_Driver/Src/stm32f3xx_hal_rcc.c ****   *               in voltage and temperature.
 949:Drivers/STM32F3xx_HAL_Driver/Src/stm32f3xx_hal_rcc.c ****   * @note     (**) HSE_VALUE is a constant defined in stm32f3xx_hal_conf.h file (default value
 950:Drivers/STM32F3xx_HAL_Driver/Src/stm32f3xx_hal_rcc.c ****   *                8 MHz), user has to ensure that HSE_VALUE is same as the real
 951:Drivers/STM32F3xx_HAL_Driver/Src/stm32f3xx_hal_rcc.c ****   *                frequency of the crystal used. Otherwise, this function may
ARM GAS  /var/folders/jw/jcj5j9_530958b2rm5vp9wn00000gn/T//cceMbtLF.s 			page 80


 952:Drivers/STM32F3xx_HAL_Driver/Src/stm32f3xx_hal_rcc.c ****   *                have wrong result.
 953:Drivers/STM32F3xx_HAL_Driver/Src/stm32f3xx_hal_rcc.c ****   *                  
 954:Drivers/STM32F3xx_HAL_Driver/Src/stm32f3xx_hal_rcc.c ****   * @note   The result of this function could be not correct when using fractional
 955:Drivers/STM32F3xx_HAL_Driver/Src/stm32f3xx_hal_rcc.c ****   *         value for HSE crystal.
 956:Drivers/STM32F3xx_HAL_Driver/Src/stm32f3xx_hal_rcc.c ****   *           
 957:Drivers/STM32F3xx_HAL_Driver/Src/stm32f3xx_hal_rcc.c ****   * @note   This function can be used by the user application to compute the 
 958:Drivers/STM32F3xx_HAL_Driver/Src/stm32f3xx_hal_rcc.c ****   *         baud-rate for the communication peripherals or configure other parameters.
 959:Drivers/STM32F3xx_HAL_Driver/Src/stm32f3xx_hal_rcc.c ****   *           
 960:Drivers/STM32F3xx_HAL_Driver/Src/stm32f3xx_hal_rcc.c ****   * @note   Each time SYSCLK changes, this function must be called to update the
 961:Drivers/STM32F3xx_HAL_Driver/Src/stm32f3xx_hal_rcc.c ****   *         right SYSCLK value. Otherwise, any configuration based on this function will be incorre
 962:Drivers/STM32F3xx_HAL_Driver/Src/stm32f3xx_hal_rcc.c ****   *         
 963:Drivers/STM32F3xx_HAL_Driver/Src/stm32f3xx_hal_rcc.c ****   * @retval SYSCLK frequency
 964:Drivers/STM32F3xx_HAL_Driver/Src/stm32f3xx_hal_rcc.c ****   */
 965:Drivers/STM32F3xx_HAL_Driver/Src/stm32f3xx_hal_rcc.c **** uint32_t HAL_RCC_GetSysClockFreq(void)
 966:Drivers/STM32F3xx_HAL_Driver/Src/stm32f3xx_hal_rcc.c **** {
 2234              		.loc 1 966 1 is_stmt 1 view -0
 2235              		.cfi_startproc
 2236              		@ args = 0, pretend = 0, frame = 0
 2237              		@ frame_needed = 0, uses_anonymous_args = 0
 2238              		@ link register save eliminated.
 967:Drivers/STM32F3xx_HAL_Driver/Src/stm32f3xx_hal_rcc.c ****   uint32_t tmpreg = 0U, prediv = 0U, pllclk = 0U, pllmul = 0U;
 2239              		.loc 1 967 3 view .LVU643
 2240              	.LVL163:
 968:Drivers/STM32F3xx_HAL_Driver/Src/stm32f3xx_hal_rcc.c ****   uint32_t sysclockfreq = 0U;
 2241              		.loc 1 968 3 view .LVU644
 969:Drivers/STM32F3xx_HAL_Driver/Src/stm32f3xx_hal_rcc.c ****   
 970:Drivers/STM32F3xx_HAL_Driver/Src/stm32f3xx_hal_rcc.c ****   tmpreg = RCC->CFGR;
 2242              		.loc 1 970 3 view .LVU645
 2243              		.loc 1 970 10 is_stmt 0 view .LVU646
 2244 0000 164B     		ldr	r3, .L149
 2245 0002 5B68     		ldr	r3, [r3, #4]
 2246              	.LVL164:
 971:Drivers/STM32F3xx_HAL_Driver/Src/stm32f3xx_hal_rcc.c ****   
 972:Drivers/STM32F3xx_HAL_Driver/Src/stm32f3xx_hal_rcc.c ****   /* Get SYSCLK source -------------------------------------------------------*/
 973:Drivers/STM32F3xx_HAL_Driver/Src/stm32f3xx_hal_rcc.c ****   switch (tmpreg & RCC_CFGR_SWS)
 2247              		.loc 1 973 3 is_stmt 1 view .LVU647
 2248              		.loc 1 973 18 is_stmt 0 view .LVU648
 2249 0004 03F00C02 		and	r2, r3, #12
 2250              		.loc 1 973 3 view .LVU649
 2251 0008 082A     		cmp	r2, #8
 2252 000a 01D0     		beq	.L148
 974:Drivers/STM32F3xx_HAL_Driver/Src/stm32f3xx_hal_rcc.c ****   {
 975:Drivers/STM32F3xx_HAL_Driver/Src/stm32f3xx_hal_rcc.c ****     case RCC_SYSCLKSOURCE_STATUS_HSE:  /* HSE used as system clock */
 976:Drivers/STM32F3xx_HAL_Driver/Src/stm32f3xx_hal_rcc.c ****     {
 977:Drivers/STM32F3xx_HAL_Driver/Src/stm32f3xx_hal_rcc.c ****       sysclockfreq = HSE_VALUE;
 2253              		.loc 1 977 20 view .LVU650
 2254 000c 1448     		ldr	r0, .L149+4
 2255              	.LVL165:
 978:Drivers/STM32F3xx_HAL_Driver/Src/stm32f3xx_hal_rcc.c ****       break;
 979:Drivers/STM32F3xx_HAL_Driver/Src/stm32f3xx_hal_rcc.c ****     }
 980:Drivers/STM32F3xx_HAL_Driver/Src/stm32f3xx_hal_rcc.c ****     case RCC_SYSCLKSOURCE_STATUS_PLLCLK:  /* PLL used as system clock */
 981:Drivers/STM32F3xx_HAL_Driver/Src/stm32f3xx_hal_rcc.c ****     {
 982:Drivers/STM32F3xx_HAL_Driver/Src/stm32f3xx_hal_rcc.c ****       pllmul = aPLLMULFactorTable[(uint32_t)(tmpreg & RCC_CFGR_PLLMUL) >> POSITION_VAL(RCC_CFGR_PLL
 983:Drivers/STM32F3xx_HAL_Driver/Src/stm32f3xx_hal_rcc.c ****       prediv = aPredivFactorTable[(uint32_t)(RCC->CFGR2 & RCC_CFGR2_PREDIV) >> POSITION_VAL(RCC_CFG
 984:Drivers/STM32F3xx_HAL_Driver/Src/stm32f3xx_hal_rcc.c **** #if defined(RCC_CFGR_PLLSRC_HSI_DIV2)
 985:Drivers/STM32F3xx_HAL_Driver/Src/stm32f3xx_hal_rcc.c ****       if ((tmpreg & RCC_CFGR_PLLSRC) != RCC_PLLSOURCE_HSI)
 986:Drivers/STM32F3xx_HAL_Driver/Src/stm32f3xx_hal_rcc.c ****       {
ARM GAS  /var/folders/jw/jcj5j9_530958b2rm5vp9wn00000gn/T//cceMbtLF.s 			page 81


 987:Drivers/STM32F3xx_HAL_Driver/Src/stm32f3xx_hal_rcc.c ****         /* HSE used as PLL clock source : PLLCLK = HSE/PREDIV * PLLMUL */
 988:Drivers/STM32F3xx_HAL_Driver/Src/stm32f3xx_hal_rcc.c ****         pllclk = (uint32_t)((uint64_t) HSE_VALUE / (uint64_t) (prediv)) * ((uint64_t) pllmul);
 989:Drivers/STM32F3xx_HAL_Driver/Src/stm32f3xx_hal_rcc.c ****       }
 990:Drivers/STM32F3xx_HAL_Driver/Src/stm32f3xx_hal_rcc.c ****       else
 991:Drivers/STM32F3xx_HAL_Driver/Src/stm32f3xx_hal_rcc.c ****       {
 992:Drivers/STM32F3xx_HAL_Driver/Src/stm32f3xx_hal_rcc.c ****         /* HSI used as PLL clock source : PLLCLK = HSI/2 * PLLMUL */
 993:Drivers/STM32F3xx_HAL_Driver/Src/stm32f3xx_hal_rcc.c ****         pllclk = (uint32_t)((uint64_t) (HSI_VALUE >> 1U) * ((uint64_t) pllmul));
 994:Drivers/STM32F3xx_HAL_Driver/Src/stm32f3xx_hal_rcc.c ****       }
 995:Drivers/STM32F3xx_HAL_Driver/Src/stm32f3xx_hal_rcc.c **** #else
 996:Drivers/STM32F3xx_HAL_Driver/Src/stm32f3xx_hal_rcc.c ****       if ((tmpreg & RCC_CFGR_PLLSRC_HSE_PREDIV) == RCC_CFGR_PLLSRC_HSE_PREDIV)
 997:Drivers/STM32F3xx_HAL_Driver/Src/stm32f3xx_hal_rcc.c ****       {
 998:Drivers/STM32F3xx_HAL_Driver/Src/stm32f3xx_hal_rcc.c ****         /* HSE used as PLL clock source : PLLCLK = HSE/PREDIV * PLLMUL */
 999:Drivers/STM32F3xx_HAL_Driver/Src/stm32f3xx_hal_rcc.c ****         pllclk = (uint32_t)((uint64_t) HSE_VALUE / (uint64_t) (prediv)) * ((uint64_t) pllmul);
1000:Drivers/STM32F3xx_HAL_Driver/Src/stm32f3xx_hal_rcc.c ****       }
1001:Drivers/STM32F3xx_HAL_Driver/Src/stm32f3xx_hal_rcc.c ****       else
1002:Drivers/STM32F3xx_HAL_Driver/Src/stm32f3xx_hal_rcc.c ****       {
1003:Drivers/STM32F3xx_HAL_Driver/Src/stm32f3xx_hal_rcc.c ****         /* HSI used as PLL clock source : PLLCLK = HSI/PREDIV * PLLMUL */
1004:Drivers/STM32F3xx_HAL_Driver/Src/stm32f3xx_hal_rcc.c ****         pllclk = (uint32_t)((uint64_t) HSI_VALUE / (uint64_t) (prediv)) * ((uint64_t) pllmul);
1005:Drivers/STM32F3xx_HAL_Driver/Src/stm32f3xx_hal_rcc.c ****       }
1006:Drivers/STM32F3xx_HAL_Driver/Src/stm32f3xx_hal_rcc.c **** #endif /* RCC_CFGR_PLLSRC_HSI_DIV2 */
1007:Drivers/STM32F3xx_HAL_Driver/Src/stm32f3xx_hal_rcc.c ****       sysclockfreq = pllclk;
1008:Drivers/STM32F3xx_HAL_Driver/Src/stm32f3xx_hal_rcc.c ****       break;
1009:Drivers/STM32F3xx_HAL_Driver/Src/stm32f3xx_hal_rcc.c ****     }
1010:Drivers/STM32F3xx_HAL_Driver/Src/stm32f3xx_hal_rcc.c ****     case RCC_SYSCLKSOURCE_STATUS_HSI:  /* HSI used as system clock source */
1011:Drivers/STM32F3xx_HAL_Driver/Src/stm32f3xx_hal_rcc.c ****     default: /* HSI used as system clock */
1012:Drivers/STM32F3xx_HAL_Driver/Src/stm32f3xx_hal_rcc.c ****     {
1013:Drivers/STM32F3xx_HAL_Driver/Src/stm32f3xx_hal_rcc.c ****       sysclockfreq = HSI_VALUE;
1014:Drivers/STM32F3xx_HAL_Driver/Src/stm32f3xx_hal_rcc.c ****       break;
1015:Drivers/STM32F3xx_HAL_Driver/Src/stm32f3xx_hal_rcc.c ****     }
1016:Drivers/STM32F3xx_HAL_Driver/Src/stm32f3xx_hal_rcc.c ****   }
1017:Drivers/STM32F3xx_HAL_Driver/Src/stm32f3xx_hal_rcc.c ****   return sysclockfreq;
 2256              		.loc 1 1017 3 is_stmt 1 view .LVU651
1018:Drivers/STM32F3xx_HAL_Driver/Src/stm32f3xx_hal_rcc.c **** }
 2257              		.loc 1 1018 1 is_stmt 0 view .LVU652
 2258 000e 7047     		bx	lr
 2259              	.LVL166:
 2260              	.L148:
 982:Drivers/STM32F3xx_HAL_Driver/Src/stm32f3xx_hal_rcc.c ****       prediv = aPredivFactorTable[(uint32_t)(RCC->CFGR2 & RCC_CFGR2_PREDIV) >> POSITION_VAL(RCC_CFG
 2261              		.loc 1 982 7 is_stmt 1 view .LVU653
 982:Drivers/STM32F3xx_HAL_Driver/Src/stm32f3xx_hal_rcc.c ****       prediv = aPredivFactorTable[(uint32_t)(RCC->CFGR2 & RCC_CFGR2_PREDIV) >> POSITION_VAL(RCC_CFG
 2262              		.loc 1 982 35 is_stmt 0 view .LVU654
 2263 0010 03F47011 		and	r1, r3, #3932160
 2264              	.LVL167:
 2265              	.LBB265:
 2266              	.LBI265:
 981:Drivers/CMSIS/Include/cmsis_gcc.h **** {
 2267              		.loc 2 981 31 is_stmt 1 view .LVU655
 2268              	.LBB266:
 983:Drivers/CMSIS/Include/cmsis_gcc.h **** 
 2269              		.loc 2 983 3 view .LVU656
 988:Drivers/CMSIS/Include/cmsis_gcc.h **** #else
 2270              		.loc 2 988 4 view .LVU657
 2271 0014 4FF47012 		mov	r2, #3932160
 2272              		.syntax unified
 2273              	@ 988 "Drivers/CMSIS/Include/cmsis_gcc.h" 1
 2274 0018 92FAA2F2 		rbit r2, r2
 2275              	@ 0 "" 2
ARM GAS  /var/folders/jw/jcj5j9_530958b2rm5vp9wn00000gn/T//cceMbtLF.s 			page 82


 2276              	.LVL168:
 2277              		.loc 2 1001 3 view .LVU658
 2278              		.loc 2 1001 3 is_stmt 0 view .LVU659
 2279              		.thumb
 2280              		.syntax unified
 2281              	.LBE266:
 2282              	.LBE265:
 982:Drivers/STM32F3xx_HAL_Driver/Src/stm32f3xx_hal_rcc.c ****       prediv = aPredivFactorTable[(uint32_t)(RCC->CFGR2 & RCC_CFGR2_PREDIV) >> POSITION_VAL(RCC_CFG
 2283              		.loc 1 982 72 view .LVU660
 2284 001c B2FA82F2 		clz	r2, r2
 2285 0020 21FA02F2 		lsr	r2, r1, r2
 982:Drivers/STM32F3xx_HAL_Driver/Src/stm32f3xx_hal_rcc.c ****       prediv = aPredivFactorTable[(uint32_t)(RCC->CFGR2 & RCC_CFGR2_PREDIV) >> POSITION_VAL(RCC_CFG
 2286              		.loc 1 982 34 view .LVU661
 2287 0024 0F49     		ldr	r1, .L149+8
 2288 0026 885C     		ldrb	r0, [r1, r2]	@ zero_extendqisi2
 2289              	.LVL169:
 983:Drivers/STM32F3xx_HAL_Driver/Src/stm32f3xx_hal_rcc.c **** #if defined(RCC_CFGR_PLLSRC_HSI_DIV2)
 2290              		.loc 1 983 7 is_stmt 1 view .LVU662
 983:Drivers/STM32F3xx_HAL_Driver/Src/stm32f3xx_hal_rcc.c **** #if defined(RCC_CFGR_PLLSRC_HSI_DIV2)
 2291              		.loc 1 983 49 is_stmt 0 view .LVU663
 2292 0028 0C4A     		ldr	r2, .L149
 2293 002a D26A     		ldr	r2, [r2, #44]
 983:Drivers/STM32F3xx_HAL_Driver/Src/stm32f3xx_hal_rcc.c **** #if defined(RCC_CFGR_PLLSRC_HSI_DIV2)
 2294              		.loc 1 983 35 view .LVU664
 2295 002c 02F00F02 		and	r2, r2, #15
 2296              	.LVL170:
 2297              	.LBB267:
 2298              	.LBI267:
 981:Drivers/CMSIS/Include/cmsis_gcc.h **** {
 2299              		.loc 2 981 31 is_stmt 1 view .LVU665
 2300              	.LBB268:
 983:Drivers/CMSIS/Include/cmsis_gcc.h **** 
 2301              		.loc 2 983 3 view .LVU666
 988:Drivers/CMSIS/Include/cmsis_gcc.h **** #else
 2302              		.loc 2 988 4 view .LVU667
 2303 0030 0F21     		movs	r1, #15
 2304              		.syntax unified
 2305              	@ 988 "Drivers/CMSIS/Include/cmsis_gcc.h" 1
 2306 0032 91FAA1F1 		rbit r1, r1
 2307              	@ 0 "" 2
 2308              	.LVL171:
 2309              		.loc 2 1001 3 view .LVU668
 2310              		.loc 2 1001 3 is_stmt 0 view .LVU669
 2311              		.thumb
 2312              		.syntax unified
 2313              	.LBE268:
 2314              	.LBE267:
 983:Drivers/STM32F3xx_HAL_Driver/Src/stm32f3xx_hal_rcc.c **** #if defined(RCC_CFGR_PLLSRC_HSI_DIV2)
 2315              		.loc 1 983 77 view .LVU670
 2316 0036 B1FA81F1 		clz	r1, r1
 2317 003a CA40     		lsrs	r2, r2, r1
 983:Drivers/STM32F3xx_HAL_Driver/Src/stm32f3xx_hal_rcc.c **** #if defined(RCC_CFGR_PLLSRC_HSI_DIV2)
 2318              		.loc 1 983 34 view .LVU671
 2319 003c 0A49     		ldr	r1, .L149+12
 2320 003e 8A5C     		ldrb	r2, [r1, r2]	@ zero_extendqisi2
 2321              	.LVL172:
 985:Drivers/STM32F3xx_HAL_Driver/Src/stm32f3xx_hal_rcc.c ****       {
ARM GAS  /var/folders/jw/jcj5j9_530958b2rm5vp9wn00000gn/T//cceMbtLF.s 			page 83


 2322              		.loc 1 985 7 is_stmt 1 view .LVU672
 985:Drivers/STM32F3xx_HAL_Driver/Src/stm32f3xx_hal_rcc.c ****       {
 2323              		.loc 1 985 10 is_stmt 0 view .LVU673
 2324 0040 13F4803F 		tst	r3, #65536
 2325 0044 05D0     		beq	.L146
 988:Drivers/STM32F3xx_HAL_Driver/Src/stm32f3xx_hal_rcc.c ****       }
 2326              		.loc 1 988 9 is_stmt 1 view .LVU674
 988:Drivers/STM32F3xx_HAL_Driver/Src/stm32f3xx_hal_rcc.c ****       }
 2327              		.loc 1 988 18 is_stmt 0 view .LVU675
 2328 0046 064B     		ldr	r3, .L149+4
 2329              	.LVL173:
 988:Drivers/STM32F3xx_HAL_Driver/Src/stm32f3xx_hal_rcc.c ****       }
 2330              		.loc 1 988 18 view .LVU676
 2331 0048 B3FBF2F3 		udiv	r3, r3, r2
 988:Drivers/STM32F3xx_HAL_Driver/Src/stm32f3xx_hal_rcc.c ****       }
 2332              		.loc 1 988 16 view .LVU677
 2333 004c 00FB03F0 		mul	r0, r0, r3
 2334              	.LVL174:
 988:Drivers/STM32F3xx_HAL_Driver/Src/stm32f3xx_hal_rcc.c ****       }
 2335              		.loc 1 988 16 view .LVU678
 2336 0050 7047     		bx	lr
 2337              	.LVL175:
 2338              	.L146:
 993:Drivers/STM32F3xx_HAL_Driver/Src/stm32f3xx_hal_rcc.c ****       }
 2339              		.loc 1 993 9 is_stmt 1 view .LVU679
 993:Drivers/STM32F3xx_HAL_Driver/Src/stm32f3xx_hal_rcc.c ****       }
 2340              		.loc 1 993 16 is_stmt 0 view .LVU680
 2341 0052 064B     		ldr	r3, .L149+16
 2342              	.LVL176:
 993:Drivers/STM32F3xx_HAL_Driver/Src/stm32f3xx_hal_rcc.c ****       }
 2343              		.loc 1 993 16 view .LVU681
 2344 0054 03FB00F0 		mul	r0, r3, r0
 2345              	.LVL177:
 993:Drivers/STM32F3xx_HAL_Driver/Src/stm32f3xx_hal_rcc.c ****       }
 2346              		.loc 1 993 16 view .LVU682
 2347 0058 7047     		bx	lr
 2348              	.L150:
 2349 005a 00BF     		.align	2
 2350              	.L149:
 2351 005c 00100240 		.word	1073876992
 2352 0060 00127A00 		.word	8000000
 2353 0064 00000000 		.word	.LANCHOR0
 2354 0068 00000000 		.word	.LANCHOR1
 2355 006c 00093D00 		.word	4000000
 2356              		.cfi_endproc
 2357              	.LFE136:
 2359              		.section	.text.HAL_RCC_ClockConfig,"ax",%progbits
 2360              		.align	1
 2361              		.global	HAL_RCC_ClockConfig
 2362              		.syntax unified
 2363              		.thumb
 2364              		.thumb_func
 2365              		.fpu fpv4-sp-d16
 2367              	HAL_RCC_ClockConfig:
 2368              	.LVL178:
 2369              	.LFB132:
 697:Drivers/STM32F3xx_HAL_Driver/Src/stm32f3xx_hal_rcc.c ****   uint32_t tickstart = 0U;
ARM GAS  /var/folders/jw/jcj5j9_530958b2rm5vp9wn00000gn/T//cceMbtLF.s 			page 84


 2370              		.loc 1 697 1 is_stmt 1 view -0
 2371              		.cfi_startproc
 2372              		@ args = 0, pretend = 0, frame = 0
 2373              		@ frame_needed = 0, uses_anonymous_args = 0
 698:Drivers/STM32F3xx_HAL_Driver/Src/stm32f3xx_hal_rcc.c **** 
 2374              		.loc 1 698 3 view .LVU684
 701:Drivers/STM32F3xx_HAL_Driver/Src/stm32f3xx_hal_rcc.c ****   {
 2375              		.loc 1 701 3 view .LVU685
 701:Drivers/STM32F3xx_HAL_Driver/Src/stm32f3xx_hal_rcc.c ****   {
 2376              		.loc 1 701 5 is_stmt 0 view .LVU686
 2377 0000 0028     		cmp	r0, #0
 2378 0002 00F0BE80 		beq	.L170
 697:Drivers/STM32F3xx_HAL_Driver/Src/stm32f3xx_hal_rcc.c ****   uint32_t tickstart = 0U;
 2379              		.loc 1 697 1 view .LVU687
 2380 0006 70B5     		push	{r4, r5, r6, lr}
 2381              	.LCFI10:
 2382              		.cfi_def_cfa_offset 16
 2383              		.cfi_offset 4, -16
 2384              		.cfi_offset 5, -12
 2385              		.cfi_offset 6, -8
 2386              		.cfi_offset 14, -4
 2387 0008 0D46     		mov	r5, r1
 2388 000a 0446     		mov	r4, r0
 707:Drivers/STM32F3xx_HAL_Driver/Src/stm32f3xx_hal_rcc.c ****   assert_param(IS_FLASH_LATENCY(FLatency));
 2389              		.loc 1 707 3 is_stmt 1 view .LVU688
 708:Drivers/STM32F3xx_HAL_Driver/Src/stm32f3xx_hal_rcc.c **** 
 2390              		.loc 1 708 3 view .LVU689
 715:Drivers/STM32F3xx_HAL_Driver/Src/stm32f3xx_hal_rcc.c ****   {    
 2391              		.loc 1 715 3 view .LVU690
 715:Drivers/STM32F3xx_HAL_Driver/Src/stm32f3xx_hal_rcc.c ****   {    
 2392              		.loc 1 715 17 is_stmt 0 view .LVU691
 2393 000c 614B     		ldr	r3, .L183
 2394 000e 1B68     		ldr	r3, [r3]
 2395 0010 03F00703 		and	r3, r3, #7
 715:Drivers/STM32F3xx_HAL_Driver/Src/stm32f3xx_hal_rcc.c ****   {    
 2396              		.loc 1 715 5 view .LVU692
 2397 0014 8B42     		cmp	r3, r1
 2398 0016 0BD2     		bcs	.L153
 718:Drivers/STM32F3xx_HAL_Driver/Src/stm32f3xx_hal_rcc.c ****     
 2399              		.loc 1 718 5 is_stmt 1 view .LVU693
 2400 0018 5E4A     		ldr	r2, .L183
 2401 001a 1368     		ldr	r3, [r2]
 2402 001c 23F00703 		bic	r3, r3, #7
 2403 0020 0B43     		orrs	r3, r3, r1
 2404 0022 1360     		str	r3, [r2]
 722:Drivers/STM32F3xx_HAL_Driver/Src/stm32f3xx_hal_rcc.c ****     {
 2405              		.loc 1 722 5 view .LVU694
 722:Drivers/STM32F3xx_HAL_Driver/Src/stm32f3xx_hal_rcc.c ****     {
 2406              		.loc 1 722 8 is_stmt 0 view .LVU695
 2407 0024 1368     		ldr	r3, [r2]
 2408 0026 03F00703 		and	r3, r3, #7
 722:Drivers/STM32F3xx_HAL_Driver/Src/stm32f3xx_hal_rcc.c ****     {
 2409              		.loc 1 722 7 view .LVU696
 2410 002a 8B42     		cmp	r3, r1
 2411 002c 40F0AB80 		bne	.L171
 2412              	.L153:
 729:Drivers/STM32F3xx_HAL_Driver/Src/stm32f3xx_hal_rcc.c ****   {
ARM GAS  /var/folders/jw/jcj5j9_530958b2rm5vp9wn00000gn/T//cceMbtLF.s 			page 85


 2413              		.loc 1 729 3 is_stmt 1 view .LVU697
 729:Drivers/STM32F3xx_HAL_Driver/Src/stm32f3xx_hal_rcc.c ****   {
 2414              		.loc 1 729 25 is_stmt 0 view .LVU698
 2415 0030 2368     		ldr	r3, [r4]
 729:Drivers/STM32F3xx_HAL_Driver/Src/stm32f3xx_hal_rcc.c ****   {
 2416              		.loc 1 729 5 view .LVU699
 2417 0032 13F0020F 		tst	r3, #2
 2418 0036 06D0     		beq	.L154
 731:Drivers/STM32F3xx_HAL_Driver/Src/stm32f3xx_hal_rcc.c ****     MODIFY_REG(RCC->CFGR, RCC_CFGR_HPRE, RCC_ClkInitStruct->AHBCLKDivider);
 2419              		.loc 1 731 5 is_stmt 1 view .LVU700
 732:Drivers/STM32F3xx_HAL_Driver/Src/stm32f3xx_hal_rcc.c ****   }
 2420              		.loc 1 732 5 view .LVU701
 2421 0038 574A     		ldr	r2, .L183+4
 2422 003a 5368     		ldr	r3, [r2, #4]
 2423 003c 23F0F003 		bic	r3, r3, #240
 2424 0040 A168     		ldr	r1, [r4, #8]
 2425              	.LVL179:
 732:Drivers/STM32F3xx_HAL_Driver/Src/stm32f3xx_hal_rcc.c ****   }
 2426              		.loc 1 732 5 is_stmt 0 view .LVU702
 2427 0042 0B43     		orrs	r3, r3, r1
 2428 0044 5360     		str	r3, [r2, #4]
 2429              	.L154:
 736:Drivers/STM32F3xx_HAL_Driver/Src/stm32f3xx_hal_rcc.c ****   {    
 2430              		.loc 1 736 3 is_stmt 1 view .LVU703
 736:Drivers/STM32F3xx_HAL_Driver/Src/stm32f3xx_hal_rcc.c ****   {    
 2431              		.loc 1 736 25 is_stmt 0 view .LVU704
 2432 0046 2368     		ldr	r3, [r4]
 736:Drivers/STM32F3xx_HAL_Driver/Src/stm32f3xx_hal_rcc.c ****   {    
 2433              		.loc 1 736 5 view .LVU705
 2434 0048 13F0010F 		tst	r3, #1
 2435 004c 5AD0     		beq	.L155
 738:Drivers/STM32F3xx_HAL_Driver/Src/stm32f3xx_hal_rcc.c ****     
 2436              		.loc 1 738 5 is_stmt 1 view .LVU706
 741:Drivers/STM32F3xx_HAL_Driver/Src/stm32f3xx_hal_rcc.c ****     {
 2437              		.loc 1 741 5 view .LVU707
 741:Drivers/STM32F3xx_HAL_Driver/Src/stm32f3xx_hal_rcc.c ****     {
 2438              		.loc 1 741 25 is_stmt 0 view .LVU708
 2439 004e 6368     		ldr	r3, [r4, #4]
 741:Drivers/STM32F3xx_HAL_Driver/Src/stm32f3xx_hal_rcc.c ****     {
 2440              		.loc 1 741 7 view .LVU709
 2441 0050 012B     		cmp	r3, #1
 2442 0052 2DD0     		beq	.L181
 750:Drivers/STM32F3xx_HAL_Driver/Src/stm32f3xx_hal_rcc.c ****     {
 2443              		.loc 1 750 10 is_stmt 1 view .LVU710
 750:Drivers/STM32F3xx_HAL_Driver/Src/stm32f3xx_hal_rcc.c ****     {
 2444              		.loc 1 750 12 is_stmt 0 view .LVU711
 2445 0054 022B     		cmp	r3, #2
 2446 0056 40D0     		beq	.L182
 762:Drivers/STM32F3xx_HAL_Driver/Src/stm32f3xx_hal_rcc.c ****       {
 2447              		.loc 1 762 7 is_stmt 1 view .LVU712
 2448              	.LVL180:
 2449              	.LBB269:
 2450              	.LBI269:
 981:Drivers/CMSIS/Include/cmsis_gcc.h **** {
 2451              		.loc 2 981 31 view .LVU713
 2452              	.LBB270:
 983:Drivers/CMSIS/Include/cmsis_gcc.h **** 
ARM GAS  /var/folders/jw/jcj5j9_530958b2rm5vp9wn00000gn/T//cceMbtLF.s 			page 86


 2453              		.loc 2 983 3 view .LVU714
 988:Drivers/CMSIS/Include/cmsis_gcc.h **** #else
 2454              		.loc 2 988 4 view .LVU715
 2455 0058 0222     		movs	r2, #2
 2456              		.syntax unified
 2457              	@ 988 "Drivers/CMSIS/Include/cmsis_gcc.h" 1
 2458 005a 92FAA2F2 		rbit r2, r2
 2459              	@ 0 "" 2
 2460              		.loc 2 1001 3 view .LVU716
 2461              	.LVL181:
 2462              		.loc 2 1001 3 is_stmt 0 view .LVU717
 2463              		.thumb
 2464              		.syntax unified
 2465              	.LBE270:
 2466              	.LBE269:
 762:Drivers/STM32F3xx_HAL_Driver/Src/stm32f3xx_hal_rcc.c ****       {
 2467              		.loc 1 762 10 view .LVU718
 2468 005e 4E4A     		ldr	r2, .L183+4
 2469 0060 1068     		ldr	r0, [r2]
 2470              	.LVL182:
 2471              	.LBB271:
 2472              	.LBI271:
 981:Drivers/CMSIS/Include/cmsis_gcc.h **** {
 2473              		.loc 2 981 31 is_stmt 1 view .LVU719
 2474              	.LBB272:
 983:Drivers/CMSIS/Include/cmsis_gcc.h **** 
 2475              		.loc 2 983 3 view .LVU720
 988:Drivers/CMSIS/Include/cmsis_gcc.h **** #else
 2476              		.loc 2 988 4 view .LVU721
 2477 0062 0222     		movs	r2, #2
 2478              		.syntax unified
 2479              	@ 988 "Drivers/CMSIS/Include/cmsis_gcc.h" 1
 2480 0064 92FAA2F2 		rbit r2, r2
 2481              	@ 0 "" 2
 2482              	.LVL183:
 2483              		.loc 2 1001 3 view .LVU722
 2484              		.loc 2 1001 3 is_stmt 0 view .LVU723
 2485              		.thumb
 2486              		.syntax unified
 2487              	.LBE272:
 2488              	.LBE271:
 762:Drivers/STM32F3xx_HAL_Driver/Src/stm32f3xx_hal_rcc.c ****       {
 2489              		.loc 1 762 10 view .LVU724
 2490 0068 B2FA82F2 		clz	r2, r2
 2491 006c 02F01F02 		and	r2, r2, #31
 2492 0070 0121     		movs	r1, #1
 2493 0072 01FA02F2 		lsl	r2, r1, r2
 762:Drivers/STM32F3xx_HAL_Driver/Src/stm32f3xx_hal_rcc.c ****       {
 2494              		.loc 1 762 9 view .LVU725
 2495 0076 1042     		tst	r0, r2
 2496 0078 00F08780 		beq	.L174
 2497              	.L159:
 768:Drivers/STM32F3xx_HAL_Driver/Src/stm32f3xx_hal_rcc.c **** 
 2498              		.loc 1 768 5 is_stmt 1 view .LVU726
 2499 007c 4649     		ldr	r1, .L183+4
 2500 007e 4A68     		ldr	r2, [r1, #4]
 2501 0080 22F00302 		bic	r2, r2, #3
ARM GAS  /var/folders/jw/jcj5j9_530958b2rm5vp9wn00000gn/T//cceMbtLF.s 			page 87


 2502 0084 1343     		orrs	r3, r3, r2
 2503 0086 4B60     		str	r3, [r1, #4]
 771:Drivers/STM32F3xx_HAL_Driver/Src/stm32f3xx_hal_rcc.c ****     
 2504              		.loc 1 771 5 view .LVU727
 771:Drivers/STM32F3xx_HAL_Driver/Src/stm32f3xx_hal_rcc.c ****     
 2505              		.loc 1 771 17 is_stmt 0 view .LVU728
 2506 0088 FFF7FEFF 		bl	HAL_GetTick
 2507              	.LVL184:
 2508 008c 0646     		mov	r6, r0
 2509              	.LVL185:
 773:Drivers/STM32F3xx_HAL_Driver/Src/stm32f3xx_hal_rcc.c ****     {
 2510              		.loc 1 773 5 is_stmt 1 view .LVU729
 2511              	.L165:
 773:Drivers/STM32F3xx_HAL_Driver/Src/stm32f3xx_hal_rcc.c ****     {
 2512              		.loc 1 773 11 view .LVU730
 773:Drivers/STM32F3xx_HAL_Driver/Src/stm32f3xx_hal_rcc.c ****     {
 2513              		.loc 1 773 12 is_stmt 0 view .LVU731
 2514 008e 424B     		ldr	r3, .L183+4
 2515 0090 5B68     		ldr	r3, [r3, #4]
 2516 0092 03F00C03 		and	r3, r3, #12
 773:Drivers/STM32F3xx_HAL_Driver/Src/stm32f3xx_hal_rcc.c ****     {
 2517              		.loc 1 773 63 view .LVU732
 2518 0096 6268     		ldr	r2, [r4, #4]
 773:Drivers/STM32F3xx_HAL_Driver/Src/stm32f3xx_hal_rcc.c ****     {
 2519              		.loc 1 773 11 view .LVU733
 2520 0098 B3EB820F 		cmp	r3, r2, lsl #2
 2521 009c 32D0     		beq	.L155
 775:Drivers/STM32F3xx_HAL_Driver/Src/stm32f3xx_hal_rcc.c ****       {
 2522              		.loc 1 775 7 is_stmt 1 view .LVU734
 775:Drivers/STM32F3xx_HAL_Driver/Src/stm32f3xx_hal_rcc.c ****       {
 2523              		.loc 1 775 12 is_stmt 0 view .LVU735
 2524 009e FFF7FEFF 		bl	HAL_GetTick
 2525              	.LVL186:
 775:Drivers/STM32F3xx_HAL_Driver/Src/stm32f3xx_hal_rcc.c ****       {
 2526              		.loc 1 775 26 view .LVU736
 2527 00a2 801B     		subs	r0, r0, r6
 775:Drivers/STM32F3xx_HAL_Driver/Src/stm32f3xx_hal_rcc.c ****       {
 2528              		.loc 1 775 10 view .LVU737
 2529 00a4 41F28833 		movw	r3, #5000
 2530 00a8 9842     		cmp	r0, r3
 2531 00aa F0D9     		bls	.L165
 777:Drivers/STM32F3xx_HAL_Driver/Src/stm32f3xx_hal_rcc.c ****       }
 2532              		.loc 1 777 16 view .LVU738
 2533 00ac 0320     		movs	r0, #3
 2534 00ae 67E0     		b	.L152
 2535              	.LVL187:
 2536              	.L181:
 744:Drivers/STM32F3xx_HAL_Driver/Src/stm32f3xx_hal_rcc.c ****       {
 2537              		.loc 1 744 7 is_stmt 1 view .LVU739
 2538              	.LBB273:
 2539              	.LBI273:
 981:Drivers/CMSIS/Include/cmsis_gcc.h **** {
 2540              		.loc 2 981 31 view .LVU740
 2541              	.LBB274:
 983:Drivers/CMSIS/Include/cmsis_gcc.h **** 
 2542              		.loc 2 983 3 view .LVU741
 988:Drivers/CMSIS/Include/cmsis_gcc.h **** #else
ARM GAS  /var/folders/jw/jcj5j9_530958b2rm5vp9wn00000gn/T//cceMbtLF.s 			page 88


 2543              		.loc 2 988 4 view .LVU742
 2544 00b0 4FF40032 		mov	r2, #131072
 2545              		.syntax unified
 2546              	@ 988 "Drivers/CMSIS/Include/cmsis_gcc.h" 1
 2547 00b4 92FAA2F2 		rbit r2, r2
 2548              	@ 0 "" 2
 2549              		.loc 2 1001 3 view .LVU743
 2550              	.LVL188:
 2551              		.loc 2 1001 3 is_stmt 0 view .LVU744
 2552              		.thumb
 2553              		.syntax unified
 2554              	.LBE274:
 2555              	.LBE273:
 744:Drivers/STM32F3xx_HAL_Driver/Src/stm32f3xx_hal_rcc.c ****       {
 2556              		.loc 1 744 10 view .LVU745
 2557 00b8 374A     		ldr	r2, .L183+4
 2558 00ba 1068     		ldr	r0, [r2]
 2559              	.LVL189:
 2560              	.LBB275:
 2561              	.LBI275:
 981:Drivers/CMSIS/Include/cmsis_gcc.h **** {
 2562              		.loc 2 981 31 is_stmt 1 view .LVU746
 2563              	.LBB276:
 983:Drivers/CMSIS/Include/cmsis_gcc.h **** 
 2564              		.loc 2 983 3 view .LVU747
 988:Drivers/CMSIS/Include/cmsis_gcc.h **** #else
 2565              		.loc 2 988 4 view .LVU748
 2566 00bc 4FF40032 		mov	r2, #131072
 2567              		.syntax unified
 2568              	@ 988 "Drivers/CMSIS/Include/cmsis_gcc.h" 1
 2569 00c0 92FAA2F2 		rbit r2, r2
 2570              	@ 0 "" 2
 2571              	.LVL190:
 2572              		.loc 2 1001 3 view .LVU749
 2573              		.loc 2 1001 3 is_stmt 0 view .LVU750
 2574              		.thumb
 2575              		.syntax unified
 2576              	.LBE276:
 2577              	.LBE275:
 744:Drivers/STM32F3xx_HAL_Driver/Src/stm32f3xx_hal_rcc.c ****       {
 2578              		.loc 1 744 10 view .LVU751
 2579 00c4 B2FA82F2 		clz	r2, r2
 2580 00c8 02F01F02 		and	r2, r2, #31
 2581 00cc 0121     		movs	r1, #1
 2582 00ce 01FA02F2 		lsl	r2, r1, r2
 744:Drivers/STM32F3xx_HAL_Driver/Src/stm32f3xx_hal_rcc.c ****       {
 2583              		.loc 1 744 9 view .LVU752
 2584 00d2 0242     		tst	r2, r0
 2585 00d4 D2D1     		bne	.L159
 746:Drivers/STM32F3xx_HAL_Driver/Src/stm32f3xx_hal_rcc.c ****       }
 2586              		.loc 1 746 16 view .LVU753
 2587 00d6 0120     		movs	r0, #1
 2588 00d8 52E0     		b	.L152
 2589              	.LVL191:
 2590              	.L182:
 753:Drivers/STM32F3xx_HAL_Driver/Src/stm32f3xx_hal_rcc.c ****       {
 2591              		.loc 1 753 7 is_stmt 1 view .LVU754
ARM GAS  /var/folders/jw/jcj5j9_530958b2rm5vp9wn00000gn/T//cceMbtLF.s 			page 89


 2592              	.LBB277:
 2593              	.LBI277:
 981:Drivers/CMSIS/Include/cmsis_gcc.h **** {
 2594              		.loc 2 981 31 view .LVU755
 2595              	.LBB278:
 983:Drivers/CMSIS/Include/cmsis_gcc.h **** 
 2596              		.loc 2 983 3 view .LVU756
 988:Drivers/CMSIS/Include/cmsis_gcc.h **** #else
 2597              		.loc 2 988 4 view .LVU757
 2598 00da 4FF00072 		mov	r2, #33554432
 2599              		.syntax unified
 2600              	@ 988 "Drivers/CMSIS/Include/cmsis_gcc.h" 1
 2601 00de 92FAA2F2 		rbit r2, r2
 2602              	@ 0 "" 2
 2603              		.loc 2 1001 3 view .LVU758
 2604              	.LVL192:
 2605              		.loc 2 1001 3 is_stmt 0 view .LVU759
 2606              		.thumb
 2607              		.syntax unified
 2608              	.LBE278:
 2609              	.LBE277:
 753:Drivers/STM32F3xx_HAL_Driver/Src/stm32f3xx_hal_rcc.c ****       {
 2610              		.loc 1 753 10 view .LVU760
 2611 00e2 2D4A     		ldr	r2, .L183+4
 2612 00e4 1068     		ldr	r0, [r2]
 2613              	.LVL193:
 2614              	.LBB279:
 2615              	.LBI279:
 981:Drivers/CMSIS/Include/cmsis_gcc.h **** {
 2616              		.loc 2 981 31 is_stmt 1 view .LVU761
 2617              	.LBB280:
 983:Drivers/CMSIS/Include/cmsis_gcc.h **** 
 2618              		.loc 2 983 3 view .LVU762
 988:Drivers/CMSIS/Include/cmsis_gcc.h **** #else
 2619              		.loc 2 988 4 view .LVU763
 2620 00e6 4FF00072 		mov	r2, #33554432
 2621              		.syntax unified
 2622              	@ 988 "Drivers/CMSIS/Include/cmsis_gcc.h" 1
 2623 00ea 92FAA2F2 		rbit r2, r2
 2624              	@ 0 "" 2
 2625              	.LVL194:
 2626              		.loc 2 1001 3 view .LVU764
 2627              		.loc 2 1001 3 is_stmt 0 view .LVU765
 2628              		.thumb
 2629              		.syntax unified
 2630              	.LBE280:
 2631              	.LBE279:
 753:Drivers/STM32F3xx_HAL_Driver/Src/stm32f3xx_hal_rcc.c ****       {
 2632              		.loc 1 753 10 view .LVU766
 2633 00ee B2FA82F2 		clz	r2, r2
 2634 00f2 02F01F02 		and	r2, r2, #31
 2635 00f6 0121     		movs	r1, #1
 2636 00f8 01FA02F2 		lsl	r2, r1, r2
 753:Drivers/STM32F3xx_HAL_Driver/Src/stm32f3xx_hal_rcc.c ****       {
 2637              		.loc 1 753 9 view .LVU767
 2638 00fc 1042     		tst	r0, r2
 2639 00fe BDD1     		bne	.L159
ARM GAS  /var/folders/jw/jcj5j9_530958b2rm5vp9wn00000gn/T//cceMbtLF.s 			page 90


 755:Drivers/STM32F3xx_HAL_Driver/Src/stm32f3xx_hal_rcc.c ****       }
 2640              		.loc 1 755 16 view .LVU768
 2641 0100 0120     		movs	r0, #1
 2642 0102 3DE0     		b	.L152
 2643              	.LVL195:
 2644              	.L155:
 782:Drivers/STM32F3xx_HAL_Driver/Src/stm32f3xx_hal_rcc.c ****   {    
 2645              		.loc 1 782 3 is_stmt 1 view .LVU769
 782:Drivers/STM32F3xx_HAL_Driver/Src/stm32f3xx_hal_rcc.c ****   {    
 2646              		.loc 1 782 17 is_stmt 0 view .LVU770
 2647 0104 234B     		ldr	r3, .L183
 2648 0106 1B68     		ldr	r3, [r3]
 2649 0108 03F00703 		and	r3, r3, #7
 782:Drivers/STM32F3xx_HAL_Driver/Src/stm32f3xx_hal_rcc.c ****   {    
 2650              		.loc 1 782 5 view .LVU771
 2651 010c AB42     		cmp	r3, r5
 2652 010e 0AD9     		bls	.L167
 785:Drivers/STM32F3xx_HAL_Driver/Src/stm32f3xx_hal_rcc.c ****     
 2653              		.loc 1 785 5 is_stmt 1 view .LVU772
 2654 0110 204A     		ldr	r2, .L183
 2655 0112 1368     		ldr	r3, [r2]
 2656 0114 23F00703 		bic	r3, r3, #7
 2657 0118 2B43     		orrs	r3, r3, r5
 2658 011a 1360     		str	r3, [r2]
 789:Drivers/STM32F3xx_HAL_Driver/Src/stm32f3xx_hal_rcc.c ****     {
 2659              		.loc 1 789 5 view .LVU773
 789:Drivers/STM32F3xx_HAL_Driver/Src/stm32f3xx_hal_rcc.c ****     {
 2660              		.loc 1 789 8 is_stmt 0 view .LVU774
 2661 011c 1368     		ldr	r3, [r2]
 2662 011e 03F00703 		and	r3, r3, #7
 789:Drivers/STM32F3xx_HAL_Driver/Src/stm32f3xx_hal_rcc.c ****     {
 2663              		.loc 1 789 7 view .LVU775
 2664 0122 AB42     		cmp	r3, r5
 2665 0124 33D1     		bne	.L176
 2666              	.L167:
 796:Drivers/STM32F3xx_HAL_Driver/Src/stm32f3xx_hal_rcc.c ****   {
 2667              		.loc 1 796 3 is_stmt 1 view .LVU776
 796:Drivers/STM32F3xx_HAL_Driver/Src/stm32f3xx_hal_rcc.c ****   {
 2668              		.loc 1 796 25 is_stmt 0 view .LVU777
 2669 0126 2368     		ldr	r3, [r4]
 796:Drivers/STM32F3xx_HAL_Driver/Src/stm32f3xx_hal_rcc.c ****   {
 2670              		.loc 1 796 5 view .LVU778
 2671 0128 13F0040F 		tst	r3, #4
 2672 012c 06D0     		beq	.L168
 798:Drivers/STM32F3xx_HAL_Driver/Src/stm32f3xx_hal_rcc.c ****     MODIFY_REG(RCC->CFGR, RCC_CFGR_PPRE1, RCC_ClkInitStruct->APB1CLKDivider);
 2673              		.loc 1 798 5 is_stmt 1 view .LVU779
 799:Drivers/STM32F3xx_HAL_Driver/Src/stm32f3xx_hal_rcc.c ****   }
 2674              		.loc 1 799 5 view .LVU780
 2675 012e 1A4A     		ldr	r2, .L183+4
 2676 0130 5368     		ldr	r3, [r2, #4]
 2677 0132 23F4E063 		bic	r3, r3, #1792
 2678 0136 E168     		ldr	r1, [r4, #12]
 2679 0138 0B43     		orrs	r3, r3, r1
 2680 013a 5360     		str	r3, [r2, #4]
 2681              	.L168:
 803:Drivers/STM32F3xx_HAL_Driver/Src/stm32f3xx_hal_rcc.c ****   {
 2682              		.loc 1 803 3 view .LVU781
ARM GAS  /var/folders/jw/jcj5j9_530958b2rm5vp9wn00000gn/T//cceMbtLF.s 			page 91


 803:Drivers/STM32F3xx_HAL_Driver/Src/stm32f3xx_hal_rcc.c ****   {
 2683              		.loc 1 803 25 is_stmt 0 view .LVU782
 2684 013c 2368     		ldr	r3, [r4]
 803:Drivers/STM32F3xx_HAL_Driver/Src/stm32f3xx_hal_rcc.c ****   {
 2685              		.loc 1 803 5 view .LVU783
 2686 013e 13F0080F 		tst	r3, #8
 2687 0142 07D0     		beq	.L169
 805:Drivers/STM32F3xx_HAL_Driver/Src/stm32f3xx_hal_rcc.c ****     MODIFY_REG(RCC->CFGR, RCC_CFGR_PPRE2, ((RCC_ClkInitStruct->APB2CLKDivider) << 3U));
 2688              		.loc 1 805 5 is_stmt 1 view .LVU784
 806:Drivers/STM32F3xx_HAL_Driver/Src/stm32f3xx_hal_rcc.c ****   }
 2689              		.loc 1 806 5 view .LVU785
 2690 0144 144A     		ldr	r2, .L183+4
 2691 0146 5368     		ldr	r3, [r2, #4]
 2692 0148 23F46053 		bic	r3, r3, #14336
 2693 014c 2169     		ldr	r1, [r4, #16]
 2694 014e 43EAC103 		orr	r3, r3, r1, lsl #3
 2695 0152 5360     		str	r3, [r2, #4]
 2696              	.L169:
 810:Drivers/STM32F3xx_HAL_Driver/Src/stm32f3xx_hal_rcc.c **** 
 2697              		.loc 1 810 3 view .LVU786
 810:Drivers/STM32F3xx_HAL_Driver/Src/stm32f3xx_hal_rcc.c **** 
 2698              		.loc 1 810 21 is_stmt 0 view .LVU787
 2699 0154 FFF7FEFF 		bl	HAL_RCC_GetSysClockFreq
 2700              	.LVL196:
 810:Drivers/STM32F3xx_HAL_Driver/Src/stm32f3xx_hal_rcc.c **** 
 2701              		.loc 1 810 68 view .LVU788
 2702 0158 0F4B     		ldr	r3, .L183+4
 2703 015a 5B68     		ldr	r3, [r3, #4]
 810:Drivers/STM32F3xx_HAL_Driver/Src/stm32f3xx_hal_rcc.c **** 
 2704              		.loc 1 810 75 view .LVU789
 2705 015c 03F0F003 		and	r3, r3, #240
 2706              	.LVL197:
 2707              	.LBB281:
 2708              	.LBI281:
 981:Drivers/CMSIS/Include/cmsis_gcc.h **** {
 2709              		.loc 2 981 31 is_stmt 1 view .LVU790
 2710              	.LBB282:
 983:Drivers/CMSIS/Include/cmsis_gcc.h **** 
 2711              		.loc 2 983 3 view .LVU791
 988:Drivers/CMSIS/Include/cmsis_gcc.h **** #else
 2712              		.loc 2 988 4 view .LVU792
 2713 0160 F022     		movs	r2, #240
 2714              		.syntax unified
 2715              	@ 988 "Drivers/CMSIS/Include/cmsis_gcc.h" 1
 2716 0162 92FAA2F2 		rbit r2, r2
 2717              	@ 0 "" 2
 2718              	.LVL198:
 2719              		.loc 2 1001 3 view .LVU793
 2720              		.loc 2 1001 3 is_stmt 0 view .LVU794
 2721              		.thumb
 2722              		.syntax unified
 2723              	.LBE282:
 2724              	.LBE281:
 810:Drivers/STM32F3xx_HAL_Driver/Src/stm32f3xx_hal_rcc.c **** 
 2725              		.loc 1 810 91 view .LVU795
 2726 0166 B2FA82F2 		clz	r2, r2
 2727 016a D340     		lsrs	r3, r3, r2
ARM GAS  /var/folders/jw/jcj5j9_530958b2rm5vp9wn00000gn/T//cceMbtLF.s 			page 92


 810:Drivers/STM32F3xx_HAL_Driver/Src/stm32f3xx_hal_rcc.c **** 
 2728              		.loc 1 810 63 view .LVU796
 2729 016c 0B4A     		ldr	r2, .L183+8
 2730 016e D35C     		ldrb	r3, [r2, r3]	@ zero_extendqisi2
 810:Drivers/STM32F3xx_HAL_Driver/Src/stm32f3xx_hal_rcc.c **** 
 2731              		.loc 1 810 47 view .LVU797
 2732 0170 D840     		lsrs	r0, r0, r3
 810:Drivers/STM32F3xx_HAL_Driver/Src/stm32f3xx_hal_rcc.c **** 
 2733              		.loc 1 810 19 view .LVU798
 2734 0172 0B4B     		ldr	r3, .L183+12
 2735 0174 1860     		str	r0, [r3]
 813:Drivers/STM32F3xx_HAL_Driver/Src/stm32f3xx_hal_rcc.c ****   
 2736              		.loc 1 813 3 is_stmt 1 view .LVU799
 2737 0176 0B4B     		ldr	r3, .L183+16
 2738 0178 1868     		ldr	r0, [r3]
 2739 017a FFF7FEFF 		bl	HAL_InitTick
 2740              	.LVL199:
 815:Drivers/STM32F3xx_HAL_Driver/Src/stm32f3xx_hal_rcc.c **** }
 2741              		.loc 1 815 3 view .LVU800
 815:Drivers/STM32F3xx_HAL_Driver/Src/stm32f3xx_hal_rcc.c **** }
 2742              		.loc 1 815 10 is_stmt 0 view .LVU801
 2743 017e 0020     		movs	r0, #0
 2744              	.L152:
 816:Drivers/STM32F3xx_HAL_Driver/Src/stm32f3xx_hal_rcc.c **** 
 2745              		.loc 1 816 1 view .LVU802
 2746 0180 70BD     		pop	{r4, r5, r6, pc}
 2747              	.LVL200:
 2748              	.L170:
 2749              	.LCFI11:
 2750              		.cfi_def_cfa_offset 0
 2751              		.cfi_restore 4
 2752              		.cfi_restore 5
 2753              		.cfi_restore 6
 2754              		.cfi_restore 14
 703:Drivers/STM32F3xx_HAL_Driver/Src/stm32f3xx_hal_rcc.c ****   }
 2755              		.loc 1 703 12 view .LVU803
 2756 0182 0120     		movs	r0, #1
 2757              	.LVL201:
 816:Drivers/STM32F3xx_HAL_Driver/Src/stm32f3xx_hal_rcc.c **** 
 2758              		.loc 1 816 1 view .LVU804
 2759 0184 7047     		bx	lr
 2760              	.LVL202:
 2761              	.L171:
 2762              	.LCFI12:
 2763              		.cfi_def_cfa_offset 16
 2764              		.cfi_offset 4, -16
 2765              		.cfi_offset 5, -12
 2766              		.cfi_offset 6, -8
 2767              		.cfi_offset 14, -4
 724:Drivers/STM32F3xx_HAL_Driver/Src/stm32f3xx_hal_rcc.c ****     }
 2768              		.loc 1 724 14 view .LVU805
 2769 0186 0120     		movs	r0, #1
 2770              	.LVL203:
 724:Drivers/STM32F3xx_HAL_Driver/Src/stm32f3xx_hal_rcc.c ****     }
 2771              		.loc 1 724 14 view .LVU806
 2772 0188 FAE7     		b	.L152
 2773              	.LVL204:
ARM GAS  /var/folders/jw/jcj5j9_530958b2rm5vp9wn00000gn/T//cceMbtLF.s 			page 93


 2774              	.L174:
 764:Drivers/STM32F3xx_HAL_Driver/Src/stm32f3xx_hal_rcc.c ****       }
 2775              		.loc 1 764 16 view .LVU807
 2776 018a 0120     		movs	r0, #1
 2777 018c F8E7     		b	.L152
 2778              	.LVL205:
 2779              	.L176:
 791:Drivers/STM32F3xx_HAL_Driver/Src/stm32f3xx_hal_rcc.c ****     }
 2780              		.loc 1 791 14 view .LVU808
 2781 018e 0120     		movs	r0, #1
 2782 0190 F6E7     		b	.L152
 2783              	.L184:
 2784 0192 00BF     		.align	2
 2785              	.L183:
 2786 0194 00200240 		.word	1073881088
 2787 0198 00100240 		.word	1073876992
 2788 019c 00000000 		.word	AHBPrescTable
 2789 01a0 00000000 		.word	SystemCoreClock
 2790 01a4 00000000 		.word	uwTickPrio
 2791              		.cfi_endproc
 2792              	.LFE132:
 2794              		.section	.text.HAL_RCC_GetHCLKFreq,"ax",%progbits
 2795              		.align	1
 2796              		.global	HAL_RCC_GetHCLKFreq
 2797              		.syntax unified
 2798              		.thumb
 2799              		.thumb_func
 2800              		.fpu fpv4-sp-d16
 2802              	HAL_RCC_GetHCLKFreq:
 2803              	.LFB137:
1019:Drivers/STM32F3xx_HAL_Driver/Src/stm32f3xx_hal_rcc.c **** 
1020:Drivers/STM32F3xx_HAL_Driver/Src/stm32f3xx_hal_rcc.c **** /**
1021:Drivers/STM32F3xx_HAL_Driver/Src/stm32f3xx_hal_rcc.c ****   * @brief  Returns the HCLK frequency     
1022:Drivers/STM32F3xx_HAL_Driver/Src/stm32f3xx_hal_rcc.c ****   * @note   Each time HCLK changes, this function must be called to update the
1023:Drivers/STM32F3xx_HAL_Driver/Src/stm32f3xx_hal_rcc.c ****   *         right HCLK value. Otherwise, any configuration based on this function will be incorrect
1024:Drivers/STM32F3xx_HAL_Driver/Src/stm32f3xx_hal_rcc.c ****   * 
1025:Drivers/STM32F3xx_HAL_Driver/Src/stm32f3xx_hal_rcc.c ****   * @note   The SystemCoreClock CMSIS variable is used to store System Clock Frequency 
1026:Drivers/STM32F3xx_HAL_Driver/Src/stm32f3xx_hal_rcc.c ****   *         and updated within this function
1027:Drivers/STM32F3xx_HAL_Driver/Src/stm32f3xx_hal_rcc.c ****   * @retval HCLK frequency
1028:Drivers/STM32F3xx_HAL_Driver/Src/stm32f3xx_hal_rcc.c ****   */
1029:Drivers/STM32F3xx_HAL_Driver/Src/stm32f3xx_hal_rcc.c **** uint32_t HAL_RCC_GetHCLKFreq(void)
1030:Drivers/STM32F3xx_HAL_Driver/Src/stm32f3xx_hal_rcc.c **** {
 2804              		.loc 1 1030 1 is_stmt 1 view -0
 2805              		.cfi_startproc
 2806              		@ args = 0, pretend = 0, frame = 0
 2807              		@ frame_needed = 0, uses_anonymous_args = 0
 2808              		@ link register save eliminated.
1031:Drivers/STM32F3xx_HAL_Driver/Src/stm32f3xx_hal_rcc.c ****   return SystemCoreClock;
 2809              		.loc 1 1031 3 view .LVU810
1032:Drivers/STM32F3xx_HAL_Driver/Src/stm32f3xx_hal_rcc.c **** }
 2810              		.loc 1 1032 1 is_stmt 0 view .LVU811
 2811 0000 014B     		ldr	r3, .L186
 2812 0002 1868     		ldr	r0, [r3]
 2813 0004 7047     		bx	lr
 2814              	.L187:
 2815 0006 00BF     		.align	2
 2816              	.L186:
ARM GAS  /var/folders/jw/jcj5j9_530958b2rm5vp9wn00000gn/T//cceMbtLF.s 			page 94


 2817 0008 00000000 		.word	SystemCoreClock
 2818              		.cfi_endproc
 2819              	.LFE137:
 2821              		.section	.text.HAL_RCC_GetPCLK1Freq,"ax",%progbits
 2822              		.align	1
 2823              		.global	HAL_RCC_GetPCLK1Freq
 2824              		.syntax unified
 2825              		.thumb
 2826              		.thumb_func
 2827              		.fpu fpv4-sp-d16
 2829              	HAL_RCC_GetPCLK1Freq:
 2830              	.LFB138:
1033:Drivers/STM32F3xx_HAL_Driver/Src/stm32f3xx_hal_rcc.c **** 
1034:Drivers/STM32F3xx_HAL_Driver/Src/stm32f3xx_hal_rcc.c **** /**
1035:Drivers/STM32F3xx_HAL_Driver/Src/stm32f3xx_hal_rcc.c ****   * @brief  Returns the PCLK1 frequency     
1036:Drivers/STM32F3xx_HAL_Driver/Src/stm32f3xx_hal_rcc.c ****   * @note   Each time PCLK1 changes, this function must be called to update the
1037:Drivers/STM32F3xx_HAL_Driver/Src/stm32f3xx_hal_rcc.c ****   *         right PCLK1 value. Otherwise, any configuration based on this function will be incorrec
1038:Drivers/STM32F3xx_HAL_Driver/Src/stm32f3xx_hal_rcc.c ****   * @retval PCLK1 frequency
1039:Drivers/STM32F3xx_HAL_Driver/Src/stm32f3xx_hal_rcc.c ****   */
1040:Drivers/STM32F3xx_HAL_Driver/Src/stm32f3xx_hal_rcc.c **** uint32_t HAL_RCC_GetPCLK1Freq(void)
1041:Drivers/STM32F3xx_HAL_Driver/Src/stm32f3xx_hal_rcc.c **** {
 2831              		.loc 1 1041 1 is_stmt 1 view -0
 2832              		.cfi_startproc
 2833              		@ args = 0, pretend = 0, frame = 0
 2834              		@ frame_needed = 0, uses_anonymous_args = 0
 2835 0000 08B5     		push	{r3, lr}
 2836              	.LCFI13:
 2837              		.cfi_def_cfa_offset 8
 2838              		.cfi_offset 3, -8
 2839              		.cfi_offset 14, -4
1042:Drivers/STM32F3xx_HAL_Driver/Src/stm32f3xx_hal_rcc.c ****   /* Get HCLK source and Compute PCLK1 frequency ---------------------------*/
1043:Drivers/STM32F3xx_HAL_Driver/Src/stm32f3xx_hal_rcc.c ****   return (HAL_RCC_GetHCLKFreq() >> APBPrescTable[(RCC->CFGR & RCC_CFGR_PPRE1) >> RCC_CFGR_PPRE1_BIT
 2840              		.loc 1 1043 3 view .LVU813
 2841              		.loc 1 1043 11 is_stmt 0 view .LVU814
 2842 0002 FFF7FEFF 		bl	HAL_RCC_GetHCLKFreq
 2843              	.LVL206:
 2844              		.loc 1 1043 54 view .LVU815
 2845 0006 074B     		ldr	r3, .L190
 2846 0008 5B68     		ldr	r3, [r3, #4]
 2847              		.loc 1 1043 61 view .LVU816
 2848 000a 03F4E063 		and	r3, r3, #1792
 2849              	.LVL207:
 2850              	.LBB283:
 2851              	.LBI283:
 981:Drivers/CMSIS/Include/cmsis_gcc.h **** {
 2852              		.loc 2 981 31 is_stmt 1 view .LVU817
 2853              	.LBB284:
 983:Drivers/CMSIS/Include/cmsis_gcc.h **** 
 2854              		.loc 2 983 3 view .LVU818
 988:Drivers/CMSIS/Include/cmsis_gcc.h **** #else
 2855              		.loc 2 988 4 view .LVU819
 2856 000e 4FF4E062 		mov	r2, #1792
 2857              		.syntax unified
 2858              	@ 988 "Drivers/CMSIS/Include/cmsis_gcc.h" 1
 2859 0012 92FAA2F2 		rbit r2, r2
 2860              	@ 0 "" 2
 2861              	.LVL208:
ARM GAS  /var/folders/jw/jcj5j9_530958b2rm5vp9wn00000gn/T//cceMbtLF.s 			page 95


 2862              		.loc 2 1001 3 view .LVU820
 2863              		.loc 2 1001 3 is_stmt 0 view .LVU821
 2864              		.thumb
 2865              		.syntax unified
 2866              	.LBE284:
 2867              	.LBE283:
 2868              		.loc 1 1043 79 view .LVU822
 2869 0016 B2FA82F2 		clz	r2, r2
 2870 001a D340     		lsrs	r3, r3, r2
 2871              		.loc 1 1043 49 view .LVU823
 2872 001c 024A     		ldr	r2, .L190+4
 2873 001e D35C     		ldrb	r3, [r2, r3]	@ zero_extendqisi2
1044:Drivers/STM32F3xx_HAL_Driver/Src/stm32f3xx_hal_rcc.c **** }    
 2874              		.loc 1 1044 1 view .LVU824
 2875 0020 D840     		lsrs	r0, r0, r3
 2876 0022 08BD     		pop	{r3, pc}
 2877              	.L191:
 2878              		.align	2
 2879              	.L190:
 2880 0024 00100240 		.word	1073876992
 2881 0028 00000000 		.word	APBPrescTable
 2882              		.cfi_endproc
 2883              	.LFE138:
 2885              		.section	.text.HAL_RCC_GetPCLK2Freq,"ax",%progbits
 2886              		.align	1
 2887              		.global	HAL_RCC_GetPCLK2Freq
 2888              		.syntax unified
 2889              		.thumb
 2890              		.thumb_func
 2891              		.fpu fpv4-sp-d16
 2893              	HAL_RCC_GetPCLK2Freq:
 2894              	.LFB139:
1045:Drivers/STM32F3xx_HAL_Driver/Src/stm32f3xx_hal_rcc.c **** 
1046:Drivers/STM32F3xx_HAL_Driver/Src/stm32f3xx_hal_rcc.c **** /**
1047:Drivers/STM32F3xx_HAL_Driver/Src/stm32f3xx_hal_rcc.c ****   * @brief  Returns the PCLK2 frequency     
1048:Drivers/STM32F3xx_HAL_Driver/Src/stm32f3xx_hal_rcc.c ****   * @note   Each time PCLK2 changes, this function must be called to update the
1049:Drivers/STM32F3xx_HAL_Driver/Src/stm32f3xx_hal_rcc.c ****   *         right PCLK2 value. Otherwise, any configuration based on this function will be incorrec
1050:Drivers/STM32F3xx_HAL_Driver/Src/stm32f3xx_hal_rcc.c ****   * @retval PCLK2 frequency
1051:Drivers/STM32F3xx_HAL_Driver/Src/stm32f3xx_hal_rcc.c ****   */
1052:Drivers/STM32F3xx_HAL_Driver/Src/stm32f3xx_hal_rcc.c **** uint32_t HAL_RCC_GetPCLK2Freq(void)
1053:Drivers/STM32F3xx_HAL_Driver/Src/stm32f3xx_hal_rcc.c **** {
 2895              		.loc 1 1053 1 is_stmt 1 view -0
 2896              		.cfi_startproc
 2897              		@ args = 0, pretend = 0, frame = 0
 2898              		@ frame_needed = 0, uses_anonymous_args = 0
 2899 0000 08B5     		push	{r3, lr}
 2900              	.LCFI14:
 2901              		.cfi_def_cfa_offset 8
 2902              		.cfi_offset 3, -8
 2903              		.cfi_offset 14, -4
1054:Drivers/STM32F3xx_HAL_Driver/Src/stm32f3xx_hal_rcc.c ****   /* Get HCLK source and Compute PCLK2 frequency ---------------------------*/
1055:Drivers/STM32F3xx_HAL_Driver/Src/stm32f3xx_hal_rcc.c ****   return (HAL_RCC_GetHCLKFreq()>> APBPrescTable[(RCC->CFGR & RCC_CFGR_PPRE2) >> RCC_CFGR_PPRE2_BITN
 2904              		.loc 1 1055 3 view .LVU826
 2905              		.loc 1 1055 11 is_stmt 0 view .LVU827
 2906 0002 FFF7FEFF 		bl	HAL_RCC_GetHCLKFreq
 2907              	.LVL209:
 2908              		.loc 1 1055 53 view .LVU828
ARM GAS  /var/folders/jw/jcj5j9_530958b2rm5vp9wn00000gn/T//cceMbtLF.s 			page 96


 2909 0006 074B     		ldr	r3, .L194
 2910 0008 5B68     		ldr	r3, [r3, #4]
 2911              		.loc 1 1055 60 view .LVU829
 2912 000a 03F46053 		and	r3, r3, #14336
 2913              	.LVL210:
 2914              	.LBB285:
 2915              	.LBI285:
 981:Drivers/CMSIS/Include/cmsis_gcc.h **** {
 2916              		.loc 2 981 31 is_stmt 1 view .LVU830
 2917              	.LBB286:
 983:Drivers/CMSIS/Include/cmsis_gcc.h **** 
 2918              		.loc 2 983 3 view .LVU831
 988:Drivers/CMSIS/Include/cmsis_gcc.h **** #else
 2919              		.loc 2 988 4 view .LVU832
 2920 000e 4FF46052 		mov	r2, #14336
 2921              		.syntax unified
 2922              	@ 988 "Drivers/CMSIS/Include/cmsis_gcc.h" 1
 2923 0012 92FAA2F2 		rbit r2, r2
 2924              	@ 0 "" 2
 2925              	.LVL211:
 2926              		.loc 2 1001 3 view .LVU833
 2927              		.loc 2 1001 3 is_stmt 0 view .LVU834
 2928              		.thumb
 2929              		.syntax unified
 2930              	.LBE286:
 2931              	.LBE285:
 2932              		.loc 1 1055 78 view .LVU835
 2933 0016 B2FA82F2 		clz	r2, r2
 2934 001a D340     		lsrs	r3, r3, r2
 2935              		.loc 1 1055 48 view .LVU836
 2936 001c 024A     		ldr	r2, .L194+4
 2937 001e D35C     		ldrb	r3, [r2, r3]	@ zero_extendqisi2
1056:Drivers/STM32F3xx_HAL_Driver/Src/stm32f3xx_hal_rcc.c **** } 
 2938              		.loc 1 1056 1 view .LVU837
 2939 0020 D840     		lsrs	r0, r0, r3
 2940 0022 08BD     		pop	{r3, pc}
 2941              	.L195:
 2942              		.align	2
 2943              	.L194:
 2944 0024 00100240 		.word	1073876992
 2945 0028 00000000 		.word	APBPrescTable
 2946              		.cfi_endproc
 2947              	.LFE139:
 2949              		.section	.text.HAL_RCC_GetOscConfig,"ax",%progbits
 2950              		.align	1
 2951              		.global	HAL_RCC_GetOscConfig
 2952              		.syntax unified
 2953              		.thumb
 2954              		.thumb_func
 2955              		.fpu fpv4-sp-d16
 2957              	HAL_RCC_GetOscConfig:
 2958              	.LVL212:
 2959              	.LFB140:
1057:Drivers/STM32F3xx_HAL_Driver/Src/stm32f3xx_hal_rcc.c **** 
1058:Drivers/STM32F3xx_HAL_Driver/Src/stm32f3xx_hal_rcc.c **** /**
1059:Drivers/STM32F3xx_HAL_Driver/Src/stm32f3xx_hal_rcc.c ****   * @brief  Configures the RCC_OscInitStruct according to the internal 
1060:Drivers/STM32F3xx_HAL_Driver/Src/stm32f3xx_hal_rcc.c ****   * RCC configuration registers.
ARM GAS  /var/folders/jw/jcj5j9_530958b2rm5vp9wn00000gn/T//cceMbtLF.s 			page 97


1061:Drivers/STM32F3xx_HAL_Driver/Src/stm32f3xx_hal_rcc.c ****   * @param  RCC_OscInitStruct pointer to an RCC_OscInitTypeDef structure that 
1062:Drivers/STM32F3xx_HAL_Driver/Src/stm32f3xx_hal_rcc.c ****   * will be configured.
1063:Drivers/STM32F3xx_HAL_Driver/Src/stm32f3xx_hal_rcc.c ****   * @retval None
1064:Drivers/STM32F3xx_HAL_Driver/Src/stm32f3xx_hal_rcc.c ****   */
1065:Drivers/STM32F3xx_HAL_Driver/Src/stm32f3xx_hal_rcc.c **** void HAL_RCC_GetOscConfig(RCC_OscInitTypeDef  *RCC_OscInitStruct)
1066:Drivers/STM32F3xx_HAL_Driver/Src/stm32f3xx_hal_rcc.c **** {
 2960              		.loc 1 1066 1 is_stmt 1 view -0
 2961              		.cfi_startproc
 2962              		@ args = 0, pretend = 0, frame = 0
 2963              		@ frame_needed = 0, uses_anonymous_args = 0
 2964              		@ link register save eliminated.
1067:Drivers/STM32F3xx_HAL_Driver/Src/stm32f3xx_hal_rcc.c ****   /* Check the parameters */
1068:Drivers/STM32F3xx_HAL_Driver/Src/stm32f3xx_hal_rcc.c ****   assert_param(RCC_OscInitStruct != NULL);
 2965              		.loc 1 1068 3 view .LVU839
1069:Drivers/STM32F3xx_HAL_Driver/Src/stm32f3xx_hal_rcc.c **** 
1070:Drivers/STM32F3xx_HAL_Driver/Src/stm32f3xx_hal_rcc.c ****   /* Set all possible values for the Oscillator type parameter ---------------*/
1071:Drivers/STM32F3xx_HAL_Driver/Src/stm32f3xx_hal_rcc.c ****   RCC_OscInitStruct->OscillatorType = RCC_OSCILLATORTYPE_HSE | RCC_OSCILLATORTYPE_HSI  \
 2966              		.loc 1 1071 3 view .LVU840
 2967              		.loc 1 1071 37 is_stmt 0 view .LVU841
 2968 0000 0F23     		movs	r3, #15
 2969 0002 0360     		str	r3, [r0]
1072:Drivers/STM32F3xx_HAL_Driver/Src/stm32f3xx_hal_rcc.c ****                   | RCC_OSCILLATORTYPE_LSE | RCC_OSCILLATORTYPE_LSI;
1073:Drivers/STM32F3xx_HAL_Driver/Src/stm32f3xx_hal_rcc.c **** 
1074:Drivers/STM32F3xx_HAL_Driver/Src/stm32f3xx_hal_rcc.c **** 
1075:Drivers/STM32F3xx_HAL_Driver/Src/stm32f3xx_hal_rcc.c ****   /* Get the HSE configuration -----------------------------------------------*/
1076:Drivers/STM32F3xx_HAL_Driver/Src/stm32f3xx_hal_rcc.c ****   if((RCC->CR &RCC_CR_HSEBYP) == RCC_CR_HSEBYP)
 2970              		.loc 1 1076 3 is_stmt 1 view .LVU842
 2971              		.loc 1 1076 10 is_stmt 0 view .LVU843
 2972 0004 2D4B     		ldr	r3, .L209
 2973 0006 1B68     		ldr	r3, [r3]
 2974              		.loc 1 1076 5 view .LVU844
 2975 0008 13F4802F 		tst	r3, #262144
 2976 000c 36D0     		beq	.L197
1077:Drivers/STM32F3xx_HAL_Driver/Src/stm32f3xx_hal_rcc.c ****   {
1078:Drivers/STM32F3xx_HAL_Driver/Src/stm32f3xx_hal_rcc.c ****     RCC_OscInitStruct->HSEState = RCC_HSE_BYPASS;
 2977              		.loc 1 1078 5 is_stmt 1 view .LVU845
 2978              		.loc 1 1078 33 is_stmt 0 view .LVU846
 2979 000e 4FF4A023 		mov	r3, #327680
 2980 0012 4360     		str	r3, [r0, #4]
 2981              	.L198:
1079:Drivers/STM32F3xx_HAL_Driver/Src/stm32f3xx_hal_rcc.c ****   }
1080:Drivers/STM32F3xx_HAL_Driver/Src/stm32f3xx_hal_rcc.c ****   else if((RCC->CR &RCC_CR_HSEON) == RCC_CR_HSEON)
1081:Drivers/STM32F3xx_HAL_Driver/Src/stm32f3xx_hal_rcc.c ****   {
1082:Drivers/STM32F3xx_HAL_Driver/Src/stm32f3xx_hal_rcc.c ****     RCC_OscInitStruct->HSEState = RCC_HSE_ON;
1083:Drivers/STM32F3xx_HAL_Driver/Src/stm32f3xx_hal_rcc.c ****   }
1084:Drivers/STM32F3xx_HAL_Driver/Src/stm32f3xx_hal_rcc.c ****   else
1085:Drivers/STM32F3xx_HAL_Driver/Src/stm32f3xx_hal_rcc.c ****   {
1086:Drivers/STM32F3xx_HAL_Driver/Src/stm32f3xx_hal_rcc.c ****     RCC_OscInitStruct->HSEState = RCC_HSE_OFF;
1087:Drivers/STM32F3xx_HAL_Driver/Src/stm32f3xx_hal_rcc.c ****   }
1088:Drivers/STM32F3xx_HAL_Driver/Src/stm32f3xx_hal_rcc.c **** #if defined(RCC_CFGR_PLLSRC_HSI_DIV2)
1089:Drivers/STM32F3xx_HAL_Driver/Src/stm32f3xx_hal_rcc.c ****   RCC_OscInitStruct->HSEPredivValue = __HAL_RCC_HSE_GET_PREDIV();
 2982              		.loc 1 1089 3 is_stmt 1 view .LVU847
 2983              		.loc 1 1089 39 is_stmt 0 view .LVU848
 2984 0014 294A     		ldr	r2, .L209
 2985 0016 D36A     		ldr	r3, [r2, #44]
 2986 0018 03F00F03 		and	r3, r3, #15
 2987              		.loc 1 1089 37 view .LVU849
ARM GAS  /var/folders/jw/jcj5j9_530958b2rm5vp9wn00000gn/T//cceMbtLF.s 			page 98


 2988 001c 8360     		str	r3, [r0, #8]
1090:Drivers/STM32F3xx_HAL_Driver/Src/stm32f3xx_hal_rcc.c **** #endif
1091:Drivers/STM32F3xx_HAL_Driver/Src/stm32f3xx_hal_rcc.c **** 
1092:Drivers/STM32F3xx_HAL_Driver/Src/stm32f3xx_hal_rcc.c ****   /* Get the HSI configuration -----------------------------------------------*/
1093:Drivers/STM32F3xx_HAL_Driver/Src/stm32f3xx_hal_rcc.c ****   if((RCC->CR &RCC_CR_HSION) == RCC_CR_HSION)
 2989              		.loc 1 1093 3 is_stmt 1 view .LVU850
 2990              		.loc 1 1093 10 is_stmt 0 view .LVU851
 2991 001e 1368     		ldr	r3, [r2]
 2992              		.loc 1 1093 5 view .LVU852
 2993 0020 13F0010F 		tst	r3, #1
 2994 0024 36D0     		beq	.L200
1094:Drivers/STM32F3xx_HAL_Driver/Src/stm32f3xx_hal_rcc.c ****   {
1095:Drivers/STM32F3xx_HAL_Driver/Src/stm32f3xx_hal_rcc.c ****     RCC_OscInitStruct->HSIState = RCC_HSI_ON;
 2995              		.loc 1 1095 5 is_stmt 1 view .LVU853
 2996              		.loc 1 1095 33 is_stmt 0 view .LVU854
 2997 0026 0123     		movs	r3, #1
 2998 0028 0361     		str	r3, [r0, #16]
 2999              	.L201:
1096:Drivers/STM32F3xx_HAL_Driver/Src/stm32f3xx_hal_rcc.c ****   }
1097:Drivers/STM32F3xx_HAL_Driver/Src/stm32f3xx_hal_rcc.c ****   else
1098:Drivers/STM32F3xx_HAL_Driver/Src/stm32f3xx_hal_rcc.c ****   {
1099:Drivers/STM32F3xx_HAL_Driver/Src/stm32f3xx_hal_rcc.c ****     RCC_OscInitStruct->HSIState = RCC_HSI_OFF;
1100:Drivers/STM32F3xx_HAL_Driver/Src/stm32f3xx_hal_rcc.c ****   }
1101:Drivers/STM32F3xx_HAL_Driver/Src/stm32f3xx_hal_rcc.c ****   
1102:Drivers/STM32F3xx_HAL_Driver/Src/stm32f3xx_hal_rcc.c ****   RCC_OscInitStruct->HSICalibrationValue = (uint32_t)((RCC->CR & RCC_CR_HSITRIM) >> POSITION_VAL(RC
 3000              		.loc 1 1102 3 is_stmt 1 view .LVU855
 3001              		.loc 1 1102 59 is_stmt 0 view .LVU856
 3002 002a 2449     		ldr	r1, .L209
 3003 002c 0B68     		ldr	r3, [r1]
 3004              		.loc 1 1102 64 view .LVU857
 3005 002e 03F0F803 		and	r3, r3, #248
 3006              	.LVL213:
 3007              	.LBB287:
 3008              	.LBI287:
 981:Drivers/CMSIS/Include/cmsis_gcc.h **** {
 3009              		.loc 2 981 31 is_stmt 1 view .LVU858
 3010              	.LBB288:
 983:Drivers/CMSIS/Include/cmsis_gcc.h **** 
 3011              		.loc 2 983 3 view .LVU859
 988:Drivers/CMSIS/Include/cmsis_gcc.h **** #else
 3012              		.loc 2 988 4 view .LVU860
 3013 0032 F822     		movs	r2, #248
 3014              		.syntax unified
 3015              	@ 988 "Drivers/CMSIS/Include/cmsis_gcc.h" 1
 3016 0034 92FAA2F2 		rbit r2, r2
 3017              	@ 0 "" 2
 3018              	.LVL214:
 3019              		.loc 2 1001 3 view .LVU861
 3020              		.loc 2 1001 3 is_stmt 0 view .LVU862
 3021              		.thumb
 3022              		.syntax unified
 3023              	.LBE288:
 3024              	.LBE287:
 3025              		.loc 1 1102 44 view .LVU863
 3026 0038 B2FA82F2 		clz	r2, r2
 3027 003c D340     		lsrs	r3, r3, r2
 3028              		.loc 1 1102 42 view .LVU864
ARM GAS  /var/folders/jw/jcj5j9_530958b2rm5vp9wn00000gn/T//cceMbtLF.s 			page 99


 3029 003e 4361     		str	r3, [r0, #20]
1103:Drivers/STM32F3xx_HAL_Driver/Src/stm32f3xx_hal_rcc.c ****   
1104:Drivers/STM32F3xx_HAL_Driver/Src/stm32f3xx_hal_rcc.c ****   /* Get the LSE configuration -----------------------------------------------*/
1105:Drivers/STM32F3xx_HAL_Driver/Src/stm32f3xx_hal_rcc.c ****   if((RCC->BDCR &RCC_BDCR_LSEBYP) == RCC_BDCR_LSEBYP)
 3030              		.loc 1 1105 3 is_stmt 1 view .LVU865
 3031              		.loc 1 1105 10 is_stmt 0 view .LVU866
 3032 0040 0B6A     		ldr	r3, [r1, #32]
 3033              		.loc 1 1105 5 view .LVU867
 3034 0042 13F0040F 		tst	r3, #4
 3035 0046 28D0     		beq	.L202
1106:Drivers/STM32F3xx_HAL_Driver/Src/stm32f3xx_hal_rcc.c ****   {
1107:Drivers/STM32F3xx_HAL_Driver/Src/stm32f3xx_hal_rcc.c ****     RCC_OscInitStruct->LSEState = RCC_LSE_BYPASS;
 3036              		.loc 1 1107 5 is_stmt 1 view .LVU868
 3037              		.loc 1 1107 33 is_stmt 0 view .LVU869
 3038 0048 0523     		movs	r3, #5
 3039 004a C360     		str	r3, [r0, #12]
 3040              	.L203:
1108:Drivers/STM32F3xx_HAL_Driver/Src/stm32f3xx_hal_rcc.c ****   }
1109:Drivers/STM32F3xx_HAL_Driver/Src/stm32f3xx_hal_rcc.c ****   else if((RCC->BDCR &RCC_BDCR_LSEON) == RCC_BDCR_LSEON)
1110:Drivers/STM32F3xx_HAL_Driver/Src/stm32f3xx_hal_rcc.c ****   {
1111:Drivers/STM32F3xx_HAL_Driver/Src/stm32f3xx_hal_rcc.c ****     RCC_OscInitStruct->LSEState = RCC_LSE_ON;
1112:Drivers/STM32F3xx_HAL_Driver/Src/stm32f3xx_hal_rcc.c ****   }
1113:Drivers/STM32F3xx_HAL_Driver/Src/stm32f3xx_hal_rcc.c ****   else
1114:Drivers/STM32F3xx_HAL_Driver/Src/stm32f3xx_hal_rcc.c ****   {
1115:Drivers/STM32F3xx_HAL_Driver/Src/stm32f3xx_hal_rcc.c ****     RCC_OscInitStruct->LSEState = RCC_LSE_OFF;
1116:Drivers/STM32F3xx_HAL_Driver/Src/stm32f3xx_hal_rcc.c ****   }
1117:Drivers/STM32F3xx_HAL_Driver/Src/stm32f3xx_hal_rcc.c ****   
1118:Drivers/STM32F3xx_HAL_Driver/Src/stm32f3xx_hal_rcc.c ****   /* Get the LSI configuration -----------------------------------------------*/
1119:Drivers/STM32F3xx_HAL_Driver/Src/stm32f3xx_hal_rcc.c ****   if((RCC->CSR &RCC_CSR_LSION) == RCC_CSR_LSION)
 3041              		.loc 1 1119 3 is_stmt 1 view .LVU870
 3042              		.loc 1 1119 10 is_stmt 0 view .LVU871
 3043 004c 1B4B     		ldr	r3, .L209
 3044 004e 5B6A     		ldr	r3, [r3, #36]
 3045              		.loc 1 1119 5 view .LVU872
 3046 0050 13F0010F 		tst	r3, #1
 3047 0054 2CD0     		beq	.L205
1120:Drivers/STM32F3xx_HAL_Driver/Src/stm32f3xx_hal_rcc.c ****   {
1121:Drivers/STM32F3xx_HAL_Driver/Src/stm32f3xx_hal_rcc.c ****     RCC_OscInitStruct->LSIState = RCC_LSI_ON;
 3048              		.loc 1 1121 5 is_stmt 1 view .LVU873
 3049              		.loc 1 1121 33 is_stmt 0 view .LVU874
 3050 0056 0123     		movs	r3, #1
 3051 0058 8361     		str	r3, [r0, #24]
 3052              	.L206:
1122:Drivers/STM32F3xx_HAL_Driver/Src/stm32f3xx_hal_rcc.c ****   }
1123:Drivers/STM32F3xx_HAL_Driver/Src/stm32f3xx_hal_rcc.c ****   else
1124:Drivers/STM32F3xx_HAL_Driver/Src/stm32f3xx_hal_rcc.c ****   {
1125:Drivers/STM32F3xx_HAL_Driver/Src/stm32f3xx_hal_rcc.c ****     RCC_OscInitStruct->LSIState = RCC_LSI_OFF;
1126:Drivers/STM32F3xx_HAL_Driver/Src/stm32f3xx_hal_rcc.c ****   }
1127:Drivers/STM32F3xx_HAL_Driver/Src/stm32f3xx_hal_rcc.c ****   
1128:Drivers/STM32F3xx_HAL_Driver/Src/stm32f3xx_hal_rcc.c **** 
1129:Drivers/STM32F3xx_HAL_Driver/Src/stm32f3xx_hal_rcc.c ****   /* Get the PLL configuration -----------------------------------------------*/
1130:Drivers/STM32F3xx_HAL_Driver/Src/stm32f3xx_hal_rcc.c ****   if((RCC->CR &RCC_CR_PLLON) == RCC_CR_PLLON)
 3053              		.loc 1 1130 3 is_stmt 1 view .LVU875
 3054              		.loc 1 1130 10 is_stmt 0 view .LVU876
 3055 005a 184B     		ldr	r3, .L209
 3056 005c 1B68     		ldr	r3, [r3]
 3057              		.loc 1 1130 5 view .LVU877
ARM GAS  /var/folders/jw/jcj5j9_530958b2rm5vp9wn00000gn/T//cceMbtLF.s 			page 100


 3058 005e 13F0807F 		tst	r3, #16777216
 3059 0062 28D0     		beq	.L207
1131:Drivers/STM32F3xx_HAL_Driver/Src/stm32f3xx_hal_rcc.c ****   {
1132:Drivers/STM32F3xx_HAL_Driver/Src/stm32f3xx_hal_rcc.c ****     RCC_OscInitStruct->PLL.PLLState = RCC_PLL_ON;
 3060              		.loc 1 1132 5 is_stmt 1 view .LVU878
 3061              		.loc 1 1132 37 is_stmt 0 view .LVU879
 3062 0064 0223     		movs	r3, #2
 3063 0066 C361     		str	r3, [r0, #28]
 3064              	.L208:
1133:Drivers/STM32F3xx_HAL_Driver/Src/stm32f3xx_hal_rcc.c ****   }
1134:Drivers/STM32F3xx_HAL_Driver/Src/stm32f3xx_hal_rcc.c ****   else
1135:Drivers/STM32F3xx_HAL_Driver/Src/stm32f3xx_hal_rcc.c ****   {
1136:Drivers/STM32F3xx_HAL_Driver/Src/stm32f3xx_hal_rcc.c ****     RCC_OscInitStruct->PLL.PLLState = RCC_PLL_OFF;
1137:Drivers/STM32F3xx_HAL_Driver/Src/stm32f3xx_hal_rcc.c ****   }
1138:Drivers/STM32F3xx_HAL_Driver/Src/stm32f3xx_hal_rcc.c ****   RCC_OscInitStruct->PLL.PLLSource = (uint32_t)(RCC->CFGR & RCC_CFGR_PLLSRC);
 3065              		.loc 1 1138 3 is_stmt 1 view .LVU880
 3066              		.loc 1 1138 52 is_stmt 0 view .LVU881
 3067 0068 144A     		ldr	r2, .L209
 3068 006a 5368     		ldr	r3, [r2, #4]
 3069              		.loc 1 1138 38 view .LVU882
 3070 006c 03F48033 		and	r3, r3, #65536
 3071              		.loc 1 1138 36 view .LVU883
 3072 0070 0362     		str	r3, [r0, #32]
1139:Drivers/STM32F3xx_HAL_Driver/Src/stm32f3xx_hal_rcc.c ****   RCC_OscInitStruct->PLL.PLLMUL = (uint32_t)(RCC->CFGR & RCC_CFGR_PLLMUL);
 3073              		.loc 1 1139 3 is_stmt 1 view .LVU884
 3074              		.loc 1 1139 49 is_stmt 0 view .LVU885
 3075 0072 5368     		ldr	r3, [r2, #4]
 3076              		.loc 1 1139 35 view .LVU886
 3077 0074 03F47013 		and	r3, r3, #3932160
 3078              		.loc 1 1139 33 view .LVU887
 3079 0078 4362     		str	r3, [r0, #36]
1140:Drivers/STM32F3xx_HAL_Driver/Src/stm32f3xx_hal_rcc.c **** #if defined(RCC_CFGR_PLLSRC_HSI_PREDIV)
1141:Drivers/STM32F3xx_HAL_Driver/Src/stm32f3xx_hal_rcc.c ****   RCC_OscInitStruct->PLL.PREDIV = (uint32_t)(RCC->CFGR2 & RCC_CFGR2_PREDIV);
1142:Drivers/STM32F3xx_HAL_Driver/Src/stm32f3xx_hal_rcc.c **** #endif /* RCC_CFGR_PLLSRC_HSI_PREDIV */
1143:Drivers/STM32F3xx_HAL_Driver/Src/stm32f3xx_hal_rcc.c **** }
 3080              		.loc 1 1143 1 view .LVU888
 3081 007a 7047     		bx	lr
 3082              	.L197:
1080:Drivers/STM32F3xx_HAL_Driver/Src/stm32f3xx_hal_rcc.c ****   {
 3083              		.loc 1 1080 8 is_stmt 1 view .LVU889
1080:Drivers/STM32F3xx_HAL_Driver/Src/stm32f3xx_hal_rcc.c ****   {
 3084              		.loc 1 1080 15 is_stmt 0 view .LVU890
 3085 007c 0F4B     		ldr	r3, .L209
 3086 007e 1B68     		ldr	r3, [r3]
1080:Drivers/STM32F3xx_HAL_Driver/Src/stm32f3xx_hal_rcc.c ****   {
 3087              		.loc 1 1080 10 view .LVU891
 3088 0080 13F4803F 		tst	r3, #65536
 3089 0084 03D0     		beq	.L199
1082:Drivers/STM32F3xx_HAL_Driver/Src/stm32f3xx_hal_rcc.c ****   }
 3090              		.loc 1 1082 5 is_stmt 1 view .LVU892
1082:Drivers/STM32F3xx_HAL_Driver/Src/stm32f3xx_hal_rcc.c ****   }
 3091              		.loc 1 1082 33 is_stmt 0 view .LVU893
 3092 0086 4FF48033 		mov	r3, #65536
 3093 008a 4360     		str	r3, [r0, #4]
 3094 008c C2E7     		b	.L198
 3095              	.L199:
1086:Drivers/STM32F3xx_HAL_Driver/Src/stm32f3xx_hal_rcc.c ****   }
ARM GAS  /var/folders/jw/jcj5j9_530958b2rm5vp9wn00000gn/T//cceMbtLF.s 			page 101


 3096              		.loc 1 1086 5 is_stmt 1 view .LVU894
1086:Drivers/STM32F3xx_HAL_Driver/Src/stm32f3xx_hal_rcc.c ****   }
 3097              		.loc 1 1086 33 is_stmt 0 view .LVU895
 3098 008e 0023     		movs	r3, #0
 3099 0090 4360     		str	r3, [r0, #4]
 3100 0092 BFE7     		b	.L198
 3101              	.L200:
1099:Drivers/STM32F3xx_HAL_Driver/Src/stm32f3xx_hal_rcc.c ****   }
 3102              		.loc 1 1099 5 is_stmt 1 view .LVU896
1099:Drivers/STM32F3xx_HAL_Driver/Src/stm32f3xx_hal_rcc.c ****   }
 3103              		.loc 1 1099 33 is_stmt 0 view .LVU897
 3104 0094 0023     		movs	r3, #0
 3105 0096 0361     		str	r3, [r0, #16]
 3106 0098 C7E7     		b	.L201
 3107              	.L202:
1109:Drivers/STM32F3xx_HAL_Driver/Src/stm32f3xx_hal_rcc.c ****   {
 3108              		.loc 1 1109 8 is_stmt 1 view .LVU898
1109:Drivers/STM32F3xx_HAL_Driver/Src/stm32f3xx_hal_rcc.c ****   {
 3109              		.loc 1 1109 15 is_stmt 0 view .LVU899
 3110 009a 084B     		ldr	r3, .L209
 3111 009c 1B6A     		ldr	r3, [r3, #32]
1109:Drivers/STM32F3xx_HAL_Driver/Src/stm32f3xx_hal_rcc.c ****   {
 3112              		.loc 1 1109 10 view .LVU900
 3113 009e 13F0010F 		tst	r3, #1
 3114 00a2 02D0     		beq	.L204
1111:Drivers/STM32F3xx_HAL_Driver/Src/stm32f3xx_hal_rcc.c ****   }
 3115              		.loc 1 1111 5 is_stmt 1 view .LVU901
1111:Drivers/STM32F3xx_HAL_Driver/Src/stm32f3xx_hal_rcc.c ****   }
 3116              		.loc 1 1111 33 is_stmt 0 view .LVU902
 3117 00a4 0123     		movs	r3, #1
 3118 00a6 C360     		str	r3, [r0, #12]
 3119 00a8 D0E7     		b	.L203
 3120              	.L204:
1115:Drivers/STM32F3xx_HAL_Driver/Src/stm32f3xx_hal_rcc.c ****   }
 3121              		.loc 1 1115 5 is_stmt 1 view .LVU903
1115:Drivers/STM32F3xx_HAL_Driver/Src/stm32f3xx_hal_rcc.c ****   }
 3122              		.loc 1 1115 33 is_stmt 0 view .LVU904
 3123 00aa 0023     		movs	r3, #0
 3124 00ac C360     		str	r3, [r0, #12]
 3125 00ae CDE7     		b	.L203
 3126              	.L205:
1125:Drivers/STM32F3xx_HAL_Driver/Src/stm32f3xx_hal_rcc.c ****   }
 3127              		.loc 1 1125 5 is_stmt 1 view .LVU905
1125:Drivers/STM32F3xx_HAL_Driver/Src/stm32f3xx_hal_rcc.c ****   }
 3128              		.loc 1 1125 33 is_stmt 0 view .LVU906
 3129 00b0 0023     		movs	r3, #0
 3130 00b2 8361     		str	r3, [r0, #24]
 3131 00b4 D1E7     		b	.L206
 3132              	.L207:
1136:Drivers/STM32F3xx_HAL_Driver/Src/stm32f3xx_hal_rcc.c ****   }
 3133              		.loc 1 1136 5 is_stmt 1 view .LVU907
1136:Drivers/STM32F3xx_HAL_Driver/Src/stm32f3xx_hal_rcc.c ****   }
 3134              		.loc 1 1136 37 is_stmt 0 view .LVU908
 3135 00b6 0123     		movs	r3, #1
 3136 00b8 C361     		str	r3, [r0, #28]
 3137 00ba D5E7     		b	.L208
 3138              	.L210:
ARM GAS  /var/folders/jw/jcj5j9_530958b2rm5vp9wn00000gn/T//cceMbtLF.s 			page 102


 3139              		.align	2
 3140              	.L209:
 3141 00bc 00100240 		.word	1073876992
 3142              		.cfi_endproc
 3143              	.LFE140:
 3145              		.section	.text.HAL_RCC_GetClockConfig,"ax",%progbits
 3146              		.align	1
 3147              		.global	HAL_RCC_GetClockConfig
 3148              		.syntax unified
 3149              		.thumb
 3150              		.thumb_func
 3151              		.fpu fpv4-sp-d16
 3153              	HAL_RCC_GetClockConfig:
 3154              	.LVL215:
 3155              	.LFB141:
1144:Drivers/STM32F3xx_HAL_Driver/Src/stm32f3xx_hal_rcc.c **** 
1145:Drivers/STM32F3xx_HAL_Driver/Src/stm32f3xx_hal_rcc.c **** /**
1146:Drivers/STM32F3xx_HAL_Driver/Src/stm32f3xx_hal_rcc.c ****   * @brief  Get the RCC_ClkInitStruct according to the internal 
1147:Drivers/STM32F3xx_HAL_Driver/Src/stm32f3xx_hal_rcc.c ****   * RCC configuration registers.
1148:Drivers/STM32F3xx_HAL_Driver/Src/stm32f3xx_hal_rcc.c ****   * @param  RCC_ClkInitStruct pointer to an RCC_ClkInitTypeDef structure that 
1149:Drivers/STM32F3xx_HAL_Driver/Src/stm32f3xx_hal_rcc.c ****   * contains the current clock configuration.
1150:Drivers/STM32F3xx_HAL_Driver/Src/stm32f3xx_hal_rcc.c ****   * @param  pFLatency Pointer on the Flash Latency.
1151:Drivers/STM32F3xx_HAL_Driver/Src/stm32f3xx_hal_rcc.c ****   * @retval None
1152:Drivers/STM32F3xx_HAL_Driver/Src/stm32f3xx_hal_rcc.c ****   */
1153:Drivers/STM32F3xx_HAL_Driver/Src/stm32f3xx_hal_rcc.c **** void HAL_RCC_GetClockConfig(RCC_ClkInitTypeDef  *RCC_ClkInitStruct, uint32_t *pFLatency)
1154:Drivers/STM32F3xx_HAL_Driver/Src/stm32f3xx_hal_rcc.c **** {
 3156              		.loc 1 1154 1 is_stmt 1 view -0
 3157              		.cfi_startproc
 3158              		@ args = 0, pretend = 0, frame = 0
 3159              		@ frame_needed = 0, uses_anonymous_args = 0
 3160              		@ link register save eliminated.
1155:Drivers/STM32F3xx_HAL_Driver/Src/stm32f3xx_hal_rcc.c ****   /* Check the parameters */
1156:Drivers/STM32F3xx_HAL_Driver/Src/stm32f3xx_hal_rcc.c ****   assert_param(RCC_ClkInitStruct != NULL);
 3161              		.loc 1 1156 3 view .LVU910
1157:Drivers/STM32F3xx_HAL_Driver/Src/stm32f3xx_hal_rcc.c ****   assert_param(pFLatency != NULL);
 3162              		.loc 1 1157 3 view .LVU911
1158:Drivers/STM32F3xx_HAL_Driver/Src/stm32f3xx_hal_rcc.c **** 
1159:Drivers/STM32F3xx_HAL_Driver/Src/stm32f3xx_hal_rcc.c ****   /* Set all possible values for the Clock type parameter --------------------*/
1160:Drivers/STM32F3xx_HAL_Driver/Src/stm32f3xx_hal_rcc.c ****   RCC_ClkInitStruct->ClockType = RCC_CLOCKTYPE_SYSCLK | RCC_CLOCKTYPE_HCLK | RCC_CLOCKTYPE_PCLK1 | 
 3163              		.loc 1 1160 3 view .LVU912
 3164              		.loc 1 1160 32 is_stmt 0 view .LVU913
 3165 0000 0F23     		movs	r3, #15
 3166 0002 0360     		str	r3, [r0]
1161:Drivers/STM32F3xx_HAL_Driver/Src/stm32f3xx_hal_rcc.c ****   
1162:Drivers/STM32F3xx_HAL_Driver/Src/stm32f3xx_hal_rcc.c ****   /* Get the SYSCLK configuration --------------------------------------------*/ 
1163:Drivers/STM32F3xx_HAL_Driver/Src/stm32f3xx_hal_rcc.c ****   RCC_ClkInitStruct->SYSCLKSource = (uint32_t)(RCC->CFGR & RCC_CFGR_SW);
 3167              		.loc 1 1163 3 is_stmt 1 view .LVU914
 3168              		.loc 1 1163 51 is_stmt 0 view .LVU915
 3169 0004 0B4B     		ldr	r3, .L212
 3170 0006 5A68     		ldr	r2, [r3, #4]
 3171              		.loc 1 1163 37 view .LVU916
 3172 0008 02F00302 		and	r2, r2, #3
 3173              		.loc 1 1163 35 view .LVU917
 3174 000c 4260     		str	r2, [r0, #4]
1164:Drivers/STM32F3xx_HAL_Driver/Src/stm32f3xx_hal_rcc.c ****   
1165:Drivers/STM32F3xx_HAL_Driver/Src/stm32f3xx_hal_rcc.c ****   /* Get the HCLK configuration ----------------------------------------------*/ 
1166:Drivers/STM32F3xx_HAL_Driver/Src/stm32f3xx_hal_rcc.c ****   RCC_ClkInitStruct->AHBCLKDivider = (uint32_t)(RCC->CFGR & RCC_CFGR_HPRE); 
ARM GAS  /var/folders/jw/jcj5j9_530958b2rm5vp9wn00000gn/T//cceMbtLF.s 			page 103


 3175              		.loc 1 1166 3 is_stmt 1 view .LVU918
 3176              		.loc 1 1166 52 is_stmt 0 view .LVU919
 3177 000e 5A68     		ldr	r2, [r3, #4]
 3178              		.loc 1 1166 38 view .LVU920
 3179 0010 02F0F002 		and	r2, r2, #240
 3180              		.loc 1 1166 36 view .LVU921
 3181 0014 8260     		str	r2, [r0, #8]
1167:Drivers/STM32F3xx_HAL_Driver/Src/stm32f3xx_hal_rcc.c ****   
1168:Drivers/STM32F3xx_HAL_Driver/Src/stm32f3xx_hal_rcc.c ****   /* Get the APB1 configuration ----------------------------------------------*/ 
1169:Drivers/STM32F3xx_HAL_Driver/Src/stm32f3xx_hal_rcc.c ****   RCC_ClkInitStruct->APB1CLKDivider = (uint32_t)(RCC->CFGR & RCC_CFGR_PPRE1);   
 3182              		.loc 1 1169 3 is_stmt 1 view .LVU922
 3183              		.loc 1 1169 53 is_stmt 0 view .LVU923
 3184 0016 5A68     		ldr	r2, [r3, #4]
 3185              		.loc 1 1169 39 view .LVU924
 3186 0018 02F4E062 		and	r2, r2, #1792
 3187              		.loc 1 1169 37 view .LVU925
 3188 001c C260     		str	r2, [r0, #12]
1170:Drivers/STM32F3xx_HAL_Driver/Src/stm32f3xx_hal_rcc.c ****   
1171:Drivers/STM32F3xx_HAL_Driver/Src/stm32f3xx_hal_rcc.c ****   /* Get the APB2 configuration ----------------------------------------------*/ 
1172:Drivers/STM32F3xx_HAL_Driver/Src/stm32f3xx_hal_rcc.c ****   RCC_ClkInitStruct->APB2CLKDivider = (uint32_t)((RCC->CFGR & RCC_CFGR_PPRE2) >> 3U);
 3189              		.loc 1 1172 3 is_stmt 1 view .LVU926
 3190              		.loc 1 1172 54 is_stmt 0 view .LVU927
 3191 001e 5B68     		ldr	r3, [r3, #4]
 3192              		.loc 1 1172 39 view .LVU928
 3193 0020 DB08     		lsrs	r3, r3, #3
 3194 0022 03F4E063 		and	r3, r3, #1792
 3195              		.loc 1 1172 37 view .LVU929
 3196 0026 0361     		str	r3, [r0, #16]
1173:Drivers/STM32F3xx_HAL_Driver/Src/stm32f3xx_hal_rcc.c ****   
1174:Drivers/STM32F3xx_HAL_Driver/Src/stm32f3xx_hal_rcc.c ****   /* Get the Flash Wait State (Latency) configuration ------------------------*/   
1175:Drivers/STM32F3xx_HAL_Driver/Src/stm32f3xx_hal_rcc.c ****   *pFLatency = (uint32_t)(FLASH->ACR & FLASH_ACR_LATENCY); 
 3197              		.loc 1 1175 3 is_stmt 1 view .LVU930
 3198              		.loc 1 1175 32 is_stmt 0 view .LVU931
 3199 0028 034B     		ldr	r3, .L212+4
 3200 002a 1B68     		ldr	r3, [r3]
 3201              		.loc 1 1175 16 view .LVU932
 3202 002c 03F00703 		and	r3, r3, #7
 3203              		.loc 1 1175 14 view .LVU933
 3204 0030 0B60     		str	r3, [r1]
1176:Drivers/STM32F3xx_HAL_Driver/Src/stm32f3xx_hal_rcc.c **** }
 3205              		.loc 1 1176 1 view .LVU934
 3206 0032 7047     		bx	lr
 3207              	.L213:
 3208              		.align	2
 3209              	.L212:
 3210 0034 00100240 		.word	1073876992
 3211 0038 00200240 		.word	1073881088
 3212              		.cfi_endproc
 3213              	.LFE141:
 3215              		.section	.text.HAL_RCC_CSSCallback,"ax",%progbits
 3216              		.align	1
 3217              		.weak	HAL_RCC_CSSCallback
 3218              		.syntax unified
 3219              		.thumb
 3220              		.thumb_func
 3221              		.fpu fpv4-sp-d16
 3223              	HAL_RCC_CSSCallback:
ARM GAS  /var/folders/jw/jcj5j9_530958b2rm5vp9wn00000gn/T//cceMbtLF.s 			page 104


 3224              	.LFB143:
1177:Drivers/STM32F3xx_HAL_Driver/Src/stm32f3xx_hal_rcc.c **** 
1178:Drivers/STM32F3xx_HAL_Driver/Src/stm32f3xx_hal_rcc.c **** /**
1179:Drivers/STM32F3xx_HAL_Driver/Src/stm32f3xx_hal_rcc.c ****   * @brief This function handles the RCC CSS interrupt request.
1180:Drivers/STM32F3xx_HAL_Driver/Src/stm32f3xx_hal_rcc.c ****   * @note This API should be called under the NMI_Handler().
1181:Drivers/STM32F3xx_HAL_Driver/Src/stm32f3xx_hal_rcc.c ****   * @retval None
1182:Drivers/STM32F3xx_HAL_Driver/Src/stm32f3xx_hal_rcc.c ****   */
1183:Drivers/STM32F3xx_HAL_Driver/Src/stm32f3xx_hal_rcc.c **** void HAL_RCC_NMI_IRQHandler(void)
1184:Drivers/STM32F3xx_HAL_Driver/Src/stm32f3xx_hal_rcc.c **** {
1185:Drivers/STM32F3xx_HAL_Driver/Src/stm32f3xx_hal_rcc.c ****   /* Check RCC CSSF flag  */
1186:Drivers/STM32F3xx_HAL_Driver/Src/stm32f3xx_hal_rcc.c ****   if(__HAL_RCC_GET_IT(RCC_IT_CSS))
1187:Drivers/STM32F3xx_HAL_Driver/Src/stm32f3xx_hal_rcc.c ****   {
1188:Drivers/STM32F3xx_HAL_Driver/Src/stm32f3xx_hal_rcc.c ****     /* RCC Clock Security System interrupt user callback */
1189:Drivers/STM32F3xx_HAL_Driver/Src/stm32f3xx_hal_rcc.c ****     HAL_RCC_CSSCallback();
1190:Drivers/STM32F3xx_HAL_Driver/Src/stm32f3xx_hal_rcc.c ****     
1191:Drivers/STM32F3xx_HAL_Driver/Src/stm32f3xx_hal_rcc.c ****     /* Clear RCC CSS pending bit */
1192:Drivers/STM32F3xx_HAL_Driver/Src/stm32f3xx_hal_rcc.c ****     __HAL_RCC_CLEAR_IT(RCC_IT_CSS);
1193:Drivers/STM32F3xx_HAL_Driver/Src/stm32f3xx_hal_rcc.c ****   }
1194:Drivers/STM32F3xx_HAL_Driver/Src/stm32f3xx_hal_rcc.c **** }
1195:Drivers/STM32F3xx_HAL_Driver/Src/stm32f3xx_hal_rcc.c **** 
1196:Drivers/STM32F3xx_HAL_Driver/Src/stm32f3xx_hal_rcc.c **** /**
1197:Drivers/STM32F3xx_HAL_Driver/Src/stm32f3xx_hal_rcc.c ****   * @brief  RCC Clock Security System interrupt callback
1198:Drivers/STM32F3xx_HAL_Driver/Src/stm32f3xx_hal_rcc.c ****   * @retval none
1199:Drivers/STM32F3xx_HAL_Driver/Src/stm32f3xx_hal_rcc.c ****   */
1200:Drivers/STM32F3xx_HAL_Driver/Src/stm32f3xx_hal_rcc.c **** __weak void HAL_RCC_CSSCallback(void)
1201:Drivers/STM32F3xx_HAL_Driver/Src/stm32f3xx_hal_rcc.c **** {
 3225              		.loc 1 1201 1 is_stmt 1 view -0
 3226              		.cfi_startproc
 3227              		@ args = 0, pretend = 0, frame = 0
 3228              		@ frame_needed = 0, uses_anonymous_args = 0
 3229              		@ link register save eliminated.
1202:Drivers/STM32F3xx_HAL_Driver/Src/stm32f3xx_hal_rcc.c ****   /* NOTE : This function Should not be modified, when the callback is needed,
1203:Drivers/STM32F3xx_HAL_Driver/Src/stm32f3xx_hal_rcc.c ****     the HAL_RCC_CSSCallback could be implemented in the user file
1204:Drivers/STM32F3xx_HAL_Driver/Src/stm32f3xx_hal_rcc.c ****     */ 
1205:Drivers/STM32F3xx_HAL_Driver/Src/stm32f3xx_hal_rcc.c **** }
 3230              		.loc 1 1205 1 view .LVU936
 3231 0000 7047     		bx	lr
 3232              		.cfi_endproc
 3233              	.LFE143:
 3235              		.section	.text.HAL_RCC_NMI_IRQHandler,"ax",%progbits
 3236              		.align	1
 3237              		.global	HAL_RCC_NMI_IRQHandler
 3238              		.syntax unified
 3239              		.thumb
 3240              		.thumb_func
 3241              		.fpu fpv4-sp-d16
 3243              	HAL_RCC_NMI_IRQHandler:
 3244              	.LFB142:
1184:Drivers/STM32F3xx_HAL_Driver/Src/stm32f3xx_hal_rcc.c ****   /* Check RCC CSSF flag  */
 3245              		.loc 1 1184 1 view -0
 3246              		.cfi_startproc
 3247              		@ args = 0, pretend = 0, frame = 0
 3248              		@ frame_needed = 0, uses_anonymous_args = 0
 3249 0000 08B5     		push	{r3, lr}
 3250              	.LCFI15:
 3251              		.cfi_def_cfa_offset 8
 3252              		.cfi_offset 3, -8
ARM GAS  /var/folders/jw/jcj5j9_530958b2rm5vp9wn00000gn/T//cceMbtLF.s 			page 105


 3253              		.cfi_offset 14, -4
1186:Drivers/STM32F3xx_HAL_Driver/Src/stm32f3xx_hal_rcc.c ****   {
 3254              		.loc 1 1186 3 view .LVU938
1186:Drivers/STM32F3xx_HAL_Driver/Src/stm32f3xx_hal_rcc.c ****   {
 3255              		.loc 1 1186 6 is_stmt 0 view .LVU939
 3256 0002 064B     		ldr	r3, .L219
 3257 0004 9B68     		ldr	r3, [r3, #8]
1186:Drivers/STM32F3xx_HAL_Driver/Src/stm32f3xx_hal_rcc.c ****   {
 3258              		.loc 1 1186 5 view .LVU940
 3259 0006 13F0800F 		tst	r3, #128
 3260 000a 00D1     		bne	.L218
 3261              	.L215:
1194:Drivers/STM32F3xx_HAL_Driver/Src/stm32f3xx_hal_rcc.c **** 
 3262              		.loc 1 1194 1 view .LVU941
 3263 000c 08BD     		pop	{r3, pc}
 3264              	.L218:
1189:Drivers/STM32F3xx_HAL_Driver/Src/stm32f3xx_hal_rcc.c ****     
 3265              		.loc 1 1189 5 is_stmt 1 view .LVU942
 3266 000e FFF7FEFF 		bl	HAL_RCC_CSSCallback
 3267              	.LVL216:
1192:Drivers/STM32F3xx_HAL_Driver/Src/stm32f3xx_hal_rcc.c ****   }
 3268              		.loc 1 1192 5 view .LVU943
 3269 0012 034B     		ldr	r3, .L219+4
 3270 0014 8022     		movs	r2, #128
 3271 0016 1A70     		strb	r2, [r3]
1194:Drivers/STM32F3xx_HAL_Driver/Src/stm32f3xx_hal_rcc.c **** 
 3272              		.loc 1 1194 1 is_stmt 0 view .LVU944
 3273 0018 F8E7     		b	.L215
 3274              	.L220:
 3275 001a 00BF     		.align	2
 3276              	.L219:
 3277 001c 00100240 		.word	1073876992
 3278 0020 0A100240 		.word	1073877002
 3279              		.cfi_endproc
 3280              	.LFE142:
 3282              		.global	aPredivFactorTable
 3283              		.global	aPLLMULFactorTable
 3284              		.section	.rodata.aPLLMULFactorTable,"a"
 3285              		.align	2
 3286              		.set	.LANCHOR0,. + 0
 3289              	aPLLMULFactorTable:
 3290 0000 02030405 		.ascii	"\002\003\004\005\006\007\010\011\012\013\014\015\016"
 3290      06070809 
 3290      0A0B0C0D 
 3290      0E
 3291 000d 0F1010   		.ascii	"\017\020\020"
 3292              		.section	.rodata.aPredivFactorTable,"a"
 3293              		.align	2
 3294              		.set	.LANCHOR1,. + 0
 3297              	aPredivFactorTable:
 3298 0000 01020304 		.ascii	"\001\002\003\004\005\006\007\010\011\012\013\014\015"
 3298      05060708 
 3298      090A0B0C 
 3298      0D
 3299 000d 0E0F10   		.ascii	"\016\017\020"
 3300              		.text
 3301              	.Letext0:
ARM GAS  /var/folders/jw/jcj5j9_530958b2rm5vp9wn00000gn/T//cceMbtLF.s 			page 106


 3302              		.file 3 "/Users/javier/Library/xPacks/@xpack-dev-tools/arm-none-eabi-gcc/9.3.1-1.4.1/.content/arm-
 3303              		.file 4 "/Users/javier/Library/xPacks/@xpack-dev-tools/arm-none-eabi-gcc/9.3.1-1.4.1/.content/arm-
 3304              		.file 5 "Drivers/CMSIS/Include/core_cm4.h"
 3305              		.file 6 "Drivers/CMSIS/Device/ST/STM32F3xx/Include/system_stm32f3xx.h"
 3306              		.file 7 "Drivers/CMSIS/Device/ST/STM32F3xx/Include/stm32f373xc.h"
 3307              		.file 8 "Drivers/CMSIS/Device/ST/STM32F3xx/Include/stm32f3xx.h"
 3308              		.file 9 "Drivers/STM32F3xx_HAL_Driver/Inc/stm32f3xx_hal_def.h"
 3309              		.file 10 "Drivers/STM32F3xx_HAL_Driver/Inc/stm32f3xx_hal_rcc.h"
 3310              		.file 11 "Drivers/STM32F3xx_HAL_Driver/Inc/stm32f3xx_hal_gpio.h"
 3311              		.file 12 "Drivers/STM32F3xx_HAL_Driver/Inc/stm32f3xx_hal.h"
ARM GAS  /var/folders/jw/jcj5j9_530958b2rm5vp9wn00000gn/T//cceMbtLF.s 			page 107


DEFINED SYMBOLS
                            *ABS*:0000000000000000 stm32f3xx_hal_rcc.c
/var/folders/jw/jcj5j9_530958b2rm5vp9wn00000gn/T//cceMbtLF.s:18     .text.HAL_RCC_DeInit:0000000000000000 $t
/var/folders/jw/jcj5j9_530958b2rm5vp9wn00000gn/T//cceMbtLF.s:26     .text.HAL_RCC_DeInit:0000000000000000 HAL_RCC_DeInit
/var/folders/jw/jcj5j9_530958b2rm5vp9wn00000gn/T//cceMbtLF.s:229    .text.HAL_RCC_DeInit:00000000000000dc $d
/var/folders/jw/jcj5j9_530958b2rm5vp9wn00000gn/T//cceMbtLF.s:239    .text.HAL_RCC_OscConfig:0000000000000000 $t
/var/folders/jw/jcj5j9_530958b2rm5vp9wn00000gn/T//cceMbtLF.s:246    .text.HAL_RCC_OscConfig:0000000000000000 HAL_RCC_OscConfig
/var/folders/jw/jcj5j9_530958b2rm5vp9wn00000gn/T//cceMbtLF.s:1060   .text.HAL_RCC_OscConfig:00000000000002ec $d
/var/folders/jw/jcj5j9_530958b2rm5vp9wn00000gn/T//cceMbtLF.s:1071   .text.HAL_RCC_OscConfig:00000000000002f4 $t
/var/folders/jw/jcj5j9_530958b2rm5vp9wn00000gn/T//cceMbtLF.s:1920   .text.HAL_RCC_OscConfig:00000000000005dc $d
/var/folders/jw/jcj5j9_530958b2rm5vp9wn00000gn/T//cceMbtLF.s:1927   .text.HAL_RCC_OscConfig:00000000000005e8 $t
/var/folders/jw/jcj5j9_530958b2rm5vp9wn00000gn/T//cceMbtLF.s:2028   .text.HAL_RCC_OscConfig:0000000000000630 $d
/var/folders/jw/jcj5j9_530958b2rm5vp9wn00000gn/T//cceMbtLF.s:2033   .text.HAL_RCC_MCOConfig:0000000000000000 $t
/var/folders/jw/jcj5j9_530958b2rm5vp9wn00000gn/T//cceMbtLF.s:2040   .text.HAL_RCC_MCOConfig:0000000000000000 HAL_RCC_MCOConfig
/var/folders/jw/jcj5j9_530958b2rm5vp9wn00000gn/T//cceMbtLF.s:2124   .text.HAL_RCC_MCOConfig:0000000000000048 $d
/var/folders/jw/jcj5j9_530958b2rm5vp9wn00000gn/T//cceMbtLF.s:2129   .text.HAL_RCC_EnableCSS:0000000000000000 $t
/var/folders/jw/jcj5j9_530958b2rm5vp9wn00000gn/T//cceMbtLF.s:2136   .text.HAL_RCC_EnableCSS:0000000000000000 HAL_RCC_EnableCSS
/var/folders/jw/jcj5j9_530958b2rm5vp9wn00000gn/T//cceMbtLF.s:2177   .text.HAL_RCC_DisableCSS:0000000000000000 $t
/var/folders/jw/jcj5j9_530958b2rm5vp9wn00000gn/T//cceMbtLF.s:2184   .text.HAL_RCC_DisableCSS:0000000000000000 HAL_RCC_DisableCSS
/var/folders/jw/jcj5j9_530958b2rm5vp9wn00000gn/T//cceMbtLF.s:2225   .text.HAL_RCC_GetSysClockFreq:0000000000000000 $t
/var/folders/jw/jcj5j9_530958b2rm5vp9wn00000gn/T//cceMbtLF.s:2232   .text.HAL_RCC_GetSysClockFreq:0000000000000000 HAL_RCC_GetSysClockFreq
/var/folders/jw/jcj5j9_530958b2rm5vp9wn00000gn/T//cceMbtLF.s:2351   .text.HAL_RCC_GetSysClockFreq:000000000000005c $d
/var/folders/jw/jcj5j9_530958b2rm5vp9wn00000gn/T//cceMbtLF.s:2360   .text.HAL_RCC_ClockConfig:0000000000000000 $t
/var/folders/jw/jcj5j9_530958b2rm5vp9wn00000gn/T//cceMbtLF.s:2367   .text.HAL_RCC_ClockConfig:0000000000000000 HAL_RCC_ClockConfig
/var/folders/jw/jcj5j9_530958b2rm5vp9wn00000gn/T//cceMbtLF.s:2786   .text.HAL_RCC_ClockConfig:0000000000000194 $d
/var/folders/jw/jcj5j9_530958b2rm5vp9wn00000gn/T//cceMbtLF.s:2795   .text.HAL_RCC_GetHCLKFreq:0000000000000000 $t
/var/folders/jw/jcj5j9_530958b2rm5vp9wn00000gn/T//cceMbtLF.s:2802   .text.HAL_RCC_GetHCLKFreq:0000000000000000 HAL_RCC_GetHCLKFreq
/var/folders/jw/jcj5j9_530958b2rm5vp9wn00000gn/T//cceMbtLF.s:2817   .text.HAL_RCC_GetHCLKFreq:0000000000000008 $d
/var/folders/jw/jcj5j9_530958b2rm5vp9wn00000gn/T//cceMbtLF.s:2822   .text.HAL_RCC_GetPCLK1Freq:0000000000000000 $t
/var/folders/jw/jcj5j9_530958b2rm5vp9wn00000gn/T//cceMbtLF.s:2829   .text.HAL_RCC_GetPCLK1Freq:0000000000000000 HAL_RCC_GetPCLK1Freq
/var/folders/jw/jcj5j9_530958b2rm5vp9wn00000gn/T//cceMbtLF.s:2880   .text.HAL_RCC_GetPCLK1Freq:0000000000000024 $d
/var/folders/jw/jcj5j9_530958b2rm5vp9wn00000gn/T//cceMbtLF.s:2886   .text.HAL_RCC_GetPCLK2Freq:0000000000000000 $t
/var/folders/jw/jcj5j9_530958b2rm5vp9wn00000gn/T//cceMbtLF.s:2893   .text.HAL_RCC_GetPCLK2Freq:0000000000000000 HAL_RCC_GetPCLK2Freq
/var/folders/jw/jcj5j9_530958b2rm5vp9wn00000gn/T//cceMbtLF.s:2944   .text.HAL_RCC_GetPCLK2Freq:0000000000000024 $d
/var/folders/jw/jcj5j9_530958b2rm5vp9wn00000gn/T//cceMbtLF.s:2950   .text.HAL_RCC_GetOscConfig:0000000000000000 $t
/var/folders/jw/jcj5j9_530958b2rm5vp9wn00000gn/T//cceMbtLF.s:2957   .text.HAL_RCC_GetOscConfig:0000000000000000 HAL_RCC_GetOscConfig
/var/folders/jw/jcj5j9_530958b2rm5vp9wn00000gn/T//cceMbtLF.s:3141   .text.HAL_RCC_GetOscConfig:00000000000000bc $d
/var/folders/jw/jcj5j9_530958b2rm5vp9wn00000gn/T//cceMbtLF.s:3146   .text.HAL_RCC_GetClockConfig:0000000000000000 $t
/var/folders/jw/jcj5j9_530958b2rm5vp9wn00000gn/T//cceMbtLF.s:3153   .text.HAL_RCC_GetClockConfig:0000000000000000 HAL_RCC_GetClockConfig
/var/folders/jw/jcj5j9_530958b2rm5vp9wn00000gn/T//cceMbtLF.s:3210   .text.HAL_RCC_GetClockConfig:0000000000000034 $d
/var/folders/jw/jcj5j9_530958b2rm5vp9wn00000gn/T//cceMbtLF.s:3216   .text.HAL_RCC_CSSCallback:0000000000000000 $t
/var/folders/jw/jcj5j9_530958b2rm5vp9wn00000gn/T//cceMbtLF.s:3223   .text.HAL_RCC_CSSCallback:0000000000000000 HAL_RCC_CSSCallback
/var/folders/jw/jcj5j9_530958b2rm5vp9wn00000gn/T//cceMbtLF.s:3236   .text.HAL_RCC_NMI_IRQHandler:0000000000000000 $t
/var/folders/jw/jcj5j9_530958b2rm5vp9wn00000gn/T//cceMbtLF.s:3243   .text.HAL_RCC_NMI_IRQHandler:0000000000000000 HAL_RCC_NMI_IRQHandler
/var/folders/jw/jcj5j9_530958b2rm5vp9wn00000gn/T//cceMbtLF.s:3277   .text.HAL_RCC_NMI_IRQHandler:000000000000001c $d
/var/folders/jw/jcj5j9_530958b2rm5vp9wn00000gn/T//cceMbtLF.s:3297   .rodata.aPredivFactorTable:0000000000000000 aPredivFactorTable
/var/folders/jw/jcj5j9_530958b2rm5vp9wn00000gn/T//cceMbtLF.s:3289   .rodata.aPLLMULFactorTable:0000000000000000 aPLLMULFactorTable
/var/folders/jw/jcj5j9_530958b2rm5vp9wn00000gn/T//cceMbtLF.s:3285   .rodata.aPLLMULFactorTable:0000000000000000 $d
/var/folders/jw/jcj5j9_530958b2rm5vp9wn00000gn/T//cceMbtLF.s:3293   .rodata.aPredivFactorTable:0000000000000000 $d

UNDEFINED SYMBOLS
HAL_GetTick
HAL_InitTick
SystemCoreClock
uwTickPrio
HAL_GPIO_Init
AHBPrescTable
ARM GAS  /var/folders/jw/jcj5j9_530958b2rm5vp9wn00000gn/T//cceMbtLF.s 			page 108


APBPrescTable
