ARM GAS  /var/folders/jw/jcj5j9_530958b2rm5vp9wn00000gn/T//ccXbzXq2.s 			page 1


   1              		.cpu cortex-m4
   2              		.eabi_attribute 27, 1
   3              		.eabi_attribute 28, 1
   4              		.eabi_attribute 20, 1
   5              		.eabi_attribute 21, 1
   6              		.eabi_attribute 23, 3
   7              		.eabi_attribute 24, 1
   8              		.eabi_attribute 25, 1
   9              		.eabi_attribute 26, 1
  10              		.eabi_attribute 30, 1
  11              		.eabi_attribute 34, 1
  12              		.eabi_attribute 18, 4
  13              		.file	"stm32f3xx_hal_dac_ex.c"
  14              		.text
  15              	.Ltext0:
  16              		.cfi_sections	.debug_frame
  17              		.section	.text.DAC_DMAErrorCh1,"ax",%progbits
  18              		.align	1
  19              		.arch armv7e-m
  20              		.syntax unified
  21              		.thumb
  22              		.thumb_func
  23              		.fpu fpv4-sp-d16
  25              	DAC_DMAErrorCh1:
  26              	.LVL0:
  27              	.LFB146:
  28              		.file 1 "Drivers/STM32F3xx_HAL_Driver/Src/stm32f3xx_hal_dac_ex.c"
   1:Drivers/STM32F3xx_HAL_Driver/Src/stm32f3xx_hal_dac_ex.c **** /**
   2:Drivers/STM32F3xx_HAL_Driver/Src/stm32f3xx_hal_dac_ex.c ****   ******************************************************************************
   3:Drivers/STM32F3xx_HAL_Driver/Src/stm32f3xx_hal_dac_ex.c ****   * @file    stm32f3xx_hal_dac_ex.c
   4:Drivers/STM32F3xx_HAL_Driver/Src/stm32f3xx_hal_dac_ex.c ****   * @author  MCD Application Team
   5:Drivers/STM32F3xx_HAL_Driver/Src/stm32f3xx_hal_dac_ex.c ****   * @brief   DACEx HAL module driver.
   6:Drivers/STM32F3xx_HAL_Driver/Src/stm32f3xx_hal_dac_ex.c ****   *          This file provides firmware functions to manage the extended 
   7:Drivers/STM32F3xx_HAL_Driver/Src/stm32f3xx_hal_dac_ex.c ****   *          functionalities of the DAC peripheral.  
   8:Drivers/STM32F3xx_HAL_Driver/Src/stm32f3xx_hal_dac_ex.c ****   *     
   9:Drivers/STM32F3xx_HAL_Driver/Src/stm32f3xx_hal_dac_ex.c ****   *
  10:Drivers/STM32F3xx_HAL_Driver/Src/stm32f3xx_hal_dac_ex.c ****   @verbatim   
  11:Drivers/STM32F3xx_HAL_Driver/Src/stm32f3xx_hal_dac_ex.c ****   ==============================================================================
  12:Drivers/STM32F3xx_HAL_Driver/Src/stm32f3xx_hal_dac_ex.c ****                       ##### How to use this driver #####
  13:Drivers/STM32F3xx_HAL_Driver/Src/stm32f3xx_hal_dac_ex.c ****   ==============================================================================
  14:Drivers/STM32F3xx_HAL_Driver/Src/stm32f3xx_hal_dac_ex.c ****     [..]          
  15:Drivers/STM32F3xx_HAL_Driver/Src/stm32f3xx_hal_dac_ex.c ****       (+) When Dual mode is enabled (i.e. DAC Channel1 and Channel2 are used simultaneously) :
  16:Drivers/STM32F3xx_HAL_Driver/Src/stm32f3xx_hal_dac_ex.c ****           Use HAL_DACEx_DualGetValue() to get digital data to be converted and use
  17:Drivers/STM32F3xx_HAL_Driver/Src/stm32f3xx_hal_dac_ex.c ****           HAL_DACEx_DualSetValue() to set digital value to converted simultaneously in Channel 1 an
  18:Drivers/STM32F3xx_HAL_Driver/Src/stm32f3xx_hal_dac_ex.c ****       (+) Use HAL_DACEx_TriangleWaveGenerate() to generate Triangle signal.
  19:Drivers/STM32F3xx_HAL_Driver/Src/stm32f3xx_hal_dac_ex.c ****       (+) Use HAL_DACEx_NoiseWaveGenerate() to generate Noise signal.
  20:Drivers/STM32F3xx_HAL_Driver/Src/stm32f3xx_hal_dac_ex.c **** 
  21:Drivers/STM32F3xx_HAL_Driver/Src/stm32f3xx_hal_dac_ex.c ****  @endverbatim    
  22:Drivers/STM32F3xx_HAL_Driver/Src/stm32f3xx_hal_dac_ex.c ****   ******************************************************************************
  23:Drivers/STM32F3xx_HAL_Driver/Src/stm32f3xx_hal_dac_ex.c ****   * @attention
  24:Drivers/STM32F3xx_HAL_Driver/Src/stm32f3xx_hal_dac_ex.c ****   *
  25:Drivers/STM32F3xx_HAL_Driver/Src/stm32f3xx_hal_dac_ex.c ****   * <h2><center>&copy; Copyright (c) 2016 STMicroelectronics.
  26:Drivers/STM32F3xx_HAL_Driver/Src/stm32f3xx_hal_dac_ex.c ****   * All rights reserved.</center></h2>
  27:Drivers/STM32F3xx_HAL_Driver/Src/stm32f3xx_hal_dac_ex.c ****   *
  28:Drivers/STM32F3xx_HAL_Driver/Src/stm32f3xx_hal_dac_ex.c ****   * This software component is licensed by ST under BSD 3-Clause license,
  29:Drivers/STM32F3xx_HAL_Driver/Src/stm32f3xx_hal_dac_ex.c ****   * the "License"; You may not use this file except in compliance with the
  30:Drivers/STM32F3xx_HAL_Driver/Src/stm32f3xx_hal_dac_ex.c ****   * License. You may obtain a copy of the License at:
ARM GAS  /var/folders/jw/jcj5j9_530958b2rm5vp9wn00000gn/T//ccXbzXq2.s 			page 2


  31:Drivers/STM32F3xx_HAL_Driver/Src/stm32f3xx_hal_dac_ex.c ****   *                        opensource.org/licenses/BSD-3-Clause
  32:Drivers/STM32F3xx_HAL_Driver/Src/stm32f3xx_hal_dac_ex.c ****   *
  33:Drivers/STM32F3xx_HAL_Driver/Src/stm32f3xx_hal_dac_ex.c ****   ******************************************************************************
  34:Drivers/STM32F3xx_HAL_Driver/Src/stm32f3xx_hal_dac_ex.c ****   */
  35:Drivers/STM32F3xx_HAL_Driver/Src/stm32f3xx_hal_dac_ex.c **** 
  36:Drivers/STM32F3xx_HAL_Driver/Src/stm32f3xx_hal_dac_ex.c **** /* Includes ------------------------------------------------------------------*/
  37:Drivers/STM32F3xx_HAL_Driver/Src/stm32f3xx_hal_dac_ex.c **** #include "stm32f3xx_hal.h"
  38:Drivers/STM32F3xx_HAL_Driver/Src/stm32f3xx_hal_dac_ex.c **** 
  39:Drivers/STM32F3xx_HAL_Driver/Src/stm32f3xx_hal_dac_ex.c **** /** @addtogroup STM32F3xx_HAL_Driver
  40:Drivers/STM32F3xx_HAL_Driver/Src/stm32f3xx_hal_dac_ex.c ****   * @{
  41:Drivers/STM32F3xx_HAL_Driver/Src/stm32f3xx_hal_dac_ex.c ****   */
  42:Drivers/STM32F3xx_HAL_Driver/Src/stm32f3xx_hal_dac_ex.c **** 
  43:Drivers/STM32F3xx_HAL_Driver/Src/stm32f3xx_hal_dac_ex.c **** #ifdef HAL_DAC_MODULE_ENABLED
  44:Drivers/STM32F3xx_HAL_Driver/Src/stm32f3xx_hal_dac_ex.c **** 
  45:Drivers/STM32F3xx_HAL_Driver/Src/stm32f3xx_hal_dac_ex.c **** /** @defgroup DACEx DACEx
  46:Drivers/STM32F3xx_HAL_Driver/Src/stm32f3xx_hal_dac_ex.c ****   * @brief DAC HAL module driver
  47:Drivers/STM32F3xx_HAL_Driver/Src/stm32f3xx_hal_dac_ex.c ****   * @{
  48:Drivers/STM32F3xx_HAL_Driver/Src/stm32f3xx_hal_dac_ex.c ****   */
  49:Drivers/STM32F3xx_HAL_Driver/Src/stm32f3xx_hal_dac_ex.c **** 
  50:Drivers/STM32F3xx_HAL_Driver/Src/stm32f3xx_hal_dac_ex.c **** /* Private typedef -----------------------------------------------------------*/
  51:Drivers/STM32F3xx_HAL_Driver/Src/stm32f3xx_hal_dac_ex.c **** /* Private define ------------------------------------------------------------*/
  52:Drivers/STM32F3xx_HAL_Driver/Src/stm32f3xx_hal_dac_ex.c **** /* Private macro -------------------------------------------------------------*/
  53:Drivers/STM32F3xx_HAL_Driver/Src/stm32f3xx_hal_dac_ex.c **** /* Private variables ---------------------------------------------------------*/
  54:Drivers/STM32F3xx_HAL_Driver/Src/stm32f3xx_hal_dac_ex.c **** /* Private function prototypes -----------------------------------------------*/
  55:Drivers/STM32F3xx_HAL_Driver/Src/stm32f3xx_hal_dac_ex.c **** /** @defgroup DACEx_Private_Functions DACEx Private Functions
  56:Drivers/STM32F3xx_HAL_Driver/Src/stm32f3xx_hal_dac_ex.c ****   * @{
  57:Drivers/STM32F3xx_HAL_Driver/Src/stm32f3xx_hal_dac_ex.c ****   */
  58:Drivers/STM32F3xx_HAL_Driver/Src/stm32f3xx_hal_dac_ex.c **** static void DAC_DMAConvCpltCh1(DMA_HandleTypeDef *hdma);
  59:Drivers/STM32F3xx_HAL_Driver/Src/stm32f3xx_hal_dac_ex.c **** static void DAC_DMAErrorCh1(DMA_HandleTypeDef *hdma);
  60:Drivers/STM32F3xx_HAL_Driver/Src/stm32f3xx_hal_dac_ex.c **** static void DAC_DMAHalfConvCpltCh1(DMA_HandleTypeDef *hdma); 
  61:Drivers/STM32F3xx_HAL_Driver/Src/stm32f3xx_hal_dac_ex.c **** 
  62:Drivers/STM32F3xx_HAL_Driver/Src/stm32f3xx_hal_dac_ex.c **** #if defined(STM32F303xE) || defined(STM32F398xx)                         || \
  63:Drivers/STM32F3xx_HAL_Driver/Src/stm32f3xx_hal_dac_ex.c ****     defined(STM32F303xC) || defined(STM32F358xx)                         || \
  64:Drivers/STM32F3xx_HAL_Driver/Src/stm32f3xx_hal_dac_ex.c ****     defined(STM32F303x8) || defined(STM32F334x8) || defined(STM32F328xx) || \
  65:Drivers/STM32F3xx_HAL_Driver/Src/stm32f3xx_hal_dac_ex.c ****     defined(STM32F373xC) || defined(STM32F378xx) 
  66:Drivers/STM32F3xx_HAL_Driver/Src/stm32f3xx_hal_dac_ex.c **** /* DAC channel 2 is available on top of DAC channel 1U */
  67:Drivers/STM32F3xx_HAL_Driver/Src/stm32f3xx_hal_dac_ex.c **** static void DAC_DMAConvCpltCh2(DMA_HandleTypeDef *hdma);
  68:Drivers/STM32F3xx_HAL_Driver/Src/stm32f3xx_hal_dac_ex.c **** static void DAC_DMAErrorCh2(DMA_HandleTypeDef *hdma);
  69:Drivers/STM32F3xx_HAL_Driver/Src/stm32f3xx_hal_dac_ex.c **** static void DAC_DMAHalfConvCpltCh2(DMA_HandleTypeDef *hdma); 
  70:Drivers/STM32F3xx_HAL_Driver/Src/stm32f3xx_hal_dac_ex.c **** #endif /* STM32F303xE || STM32F398xx                || */
  71:Drivers/STM32F3xx_HAL_Driver/Src/stm32f3xx_hal_dac_ex.c ****        /* STM32F303xC || STM32F358xx                || */
  72:Drivers/STM32F3xx_HAL_Driver/Src/stm32f3xx_hal_dac_ex.c ****        /* STM32F303x8 || STM32F334x8 || STM32F328xx || */
  73:Drivers/STM32F3xx_HAL_Driver/Src/stm32f3xx_hal_dac_ex.c ****        /* STM32F373xC || STM32F378xx                   */
  74:Drivers/STM32F3xx_HAL_Driver/Src/stm32f3xx_hal_dac_ex.c **** /**
  75:Drivers/STM32F3xx_HAL_Driver/Src/stm32f3xx_hal_dac_ex.c ****   * @}
  76:Drivers/STM32F3xx_HAL_Driver/Src/stm32f3xx_hal_dac_ex.c ****   */
  77:Drivers/STM32F3xx_HAL_Driver/Src/stm32f3xx_hal_dac_ex.c **** 
  78:Drivers/STM32F3xx_HAL_Driver/Src/stm32f3xx_hal_dac_ex.c **** /* Exported functions ---------------------------------------------------------*/
  79:Drivers/STM32F3xx_HAL_Driver/Src/stm32f3xx_hal_dac_ex.c **** /** @defgroup DACEx_Exported_Functions DACEx Exported Functions
  80:Drivers/STM32F3xx_HAL_Driver/Src/stm32f3xx_hal_dac_ex.c ****   * @{
  81:Drivers/STM32F3xx_HAL_Driver/Src/stm32f3xx_hal_dac_ex.c ****   */
  82:Drivers/STM32F3xx_HAL_Driver/Src/stm32f3xx_hal_dac_ex.c **** 
  83:Drivers/STM32F3xx_HAL_Driver/Src/stm32f3xx_hal_dac_ex.c **** /** @defgroup DACEx_Exported_Functions_Group3 DACEx Peripheral Control functions
  84:Drivers/STM32F3xx_HAL_Driver/Src/stm32f3xx_hal_dac_ex.c ****  *  @brief   	Peripheral Control functions 
  85:Drivers/STM32F3xx_HAL_Driver/Src/stm32f3xx_hal_dac_ex.c ****  *
  86:Drivers/STM32F3xx_HAL_Driver/Src/stm32f3xx_hal_dac_ex.c **** @verbatim   
  87:Drivers/STM32F3xx_HAL_Driver/Src/stm32f3xx_hal_dac_ex.c ****   ==============================================================================
ARM GAS  /var/folders/jw/jcj5j9_530958b2rm5vp9wn00000gn/T//ccXbzXq2.s 			page 3


  88:Drivers/STM32F3xx_HAL_Driver/Src/stm32f3xx_hal_dac_ex.c ****              ##### Peripheral Control functions #####
  89:Drivers/STM32F3xx_HAL_Driver/Src/stm32f3xx_hal_dac_ex.c ****   ==============================================================================  
  90:Drivers/STM32F3xx_HAL_Driver/Src/stm32f3xx_hal_dac_ex.c ****     [..]  This section provides functions allowing to:
  91:Drivers/STM32F3xx_HAL_Driver/Src/stm32f3xx_hal_dac_ex.c ****       (+) Set the specified data holding register value for DAC channel.
  92:Drivers/STM32F3xx_HAL_Driver/Src/stm32f3xx_hal_dac_ex.c ****       (+) Set the specified data holding register value for dual DAC channel
  93:Drivers/STM32F3xx_HAL_Driver/Src/stm32f3xx_hal_dac_ex.c **** 	      (when DAC channel 2 is present in DAC 1U)
  94:Drivers/STM32F3xx_HAL_Driver/Src/stm32f3xx_hal_dac_ex.c ****       
  95:Drivers/STM32F3xx_HAL_Driver/Src/stm32f3xx_hal_dac_ex.c **** @endverbatim
  96:Drivers/STM32F3xx_HAL_Driver/Src/stm32f3xx_hal_dac_ex.c ****   * @{
  97:Drivers/STM32F3xx_HAL_Driver/Src/stm32f3xx_hal_dac_ex.c ****   */
  98:Drivers/STM32F3xx_HAL_Driver/Src/stm32f3xx_hal_dac_ex.c **** 
  99:Drivers/STM32F3xx_HAL_Driver/Src/stm32f3xx_hal_dac_ex.c **** /**
 100:Drivers/STM32F3xx_HAL_Driver/Src/stm32f3xx_hal_dac_ex.c ****   * @brief  Set the specified data holding register value for DAC channel.
 101:Drivers/STM32F3xx_HAL_Driver/Src/stm32f3xx_hal_dac_ex.c ****   * @param  hdac pointer to a DAC_HandleTypeDef structure that contains
 102:Drivers/STM32F3xx_HAL_Driver/Src/stm32f3xx_hal_dac_ex.c ****   *         the configuration information for the specified DAC.
 103:Drivers/STM32F3xx_HAL_Driver/Src/stm32f3xx_hal_dac_ex.c ****   * @param  Channel The selected DAC channel. 
 104:Drivers/STM32F3xx_HAL_Driver/Src/stm32f3xx_hal_dac_ex.c ****   * @param  Alignment Specifies the data alignment for DAC channel.
 105:Drivers/STM32F3xx_HAL_Driver/Src/stm32f3xx_hal_dac_ex.c ****   *          This parameter can be one of the following values:
 106:Drivers/STM32F3xx_HAL_Driver/Src/stm32f3xx_hal_dac_ex.c ****   *            @arg DAC_ALIGN_8B_R: 8bit right data alignment selected
 107:Drivers/STM32F3xx_HAL_Driver/Src/stm32f3xx_hal_dac_ex.c ****   *            @arg DAC_ALIGN_12B_L: 12bit left data alignment selected
 108:Drivers/STM32F3xx_HAL_Driver/Src/stm32f3xx_hal_dac_ex.c ****   *            @arg DAC_ALIGN_12B_R: 12bit right data alignment selected
 109:Drivers/STM32F3xx_HAL_Driver/Src/stm32f3xx_hal_dac_ex.c ****   * @param  Data Data to be loaded in the selected data holding register.
 110:Drivers/STM32F3xx_HAL_Driver/Src/stm32f3xx_hal_dac_ex.c ****   * @retval HAL status
 111:Drivers/STM32F3xx_HAL_Driver/Src/stm32f3xx_hal_dac_ex.c ****   */
 112:Drivers/STM32F3xx_HAL_Driver/Src/stm32f3xx_hal_dac_ex.c **** HAL_StatusTypeDef HAL_DAC_SetValue(DAC_HandleTypeDef* hdac, uint32_t Channel, uint32_t Alignment, u
 113:Drivers/STM32F3xx_HAL_Driver/Src/stm32f3xx_hal_dac_ex.c **** {  
 114:Drivers/STM32F3xx_HAL_Driver/Src/stm32f3xx_hal_dac_ex.c ****   __IO uint32_t tmp = 0U;
 115:Drivers/STM32F3xx_HAL_Driver/Src/stm32f3xx_hal_dac_ex.c ****   
 116:Drivers/STM32F3xx_HAL_Driver/Src/stm32f3xx_hal_dac_ex.c ****   /* Check the parameters */
 117:Drivers/STM32F3xx_HAL_Driver/Src/stm32f3xx_hal_dac_ex.c ****   assert_param(IS_DAC_CHANNEL(Channel));
 118:Drivers/STM32F3xx_HAL_Driver/Src/stm32f3xx_hal_dac_ex.c ****   assert_param(IS_DAC_ALIGN(Alignment));
 119:Drivers/STM32F3xx_HAL_Driver/Src/stm32f3xx_hal_dac_ex.c ****   assert_param(IS_DAC_DATA(Data));
 120:Drivers/STM32F3xx_HAL_Driver/Src/stm32f3xx_hal_dac_ex.c ****    
 121:Drivers/STM32F3xx_HAL_Driver/Src/stm32f3xx_hal_dac_ex.c ****   tmp = (uint32_t) (hdac->Instance);
 122:Drivers/STM32F3xx_HAL_Driver/Src/stm32f3xx_hal_dac_ex.c **** 
 123:Drivers/STM32F3xx_HAL_Driver/Src/stm32f3xx_hal_dac_ex.c **** /* DAC 1 has 1 or 2 channels - no DAC2 */
 124:Drivers/STM32F3xx_HAL_Driver/Src/stm32f3xx_hal_dac_ex.c **** /* DAC 1 has 2 channels 1U & 2U - DAC 2 has one channel 1U */
 125:Drivers/STM32F3xx_HAL_Driver/Src/stm32f3xx_hal_dac_ex.c **** 
 126:Drivers/STM32F3xx_HAL_Driver/Src/stm32f3xx_hal_dac_ex.c ****   if(Channel == DAC_CHANNEL_1)
 127:Drivers/STM32F3xx_HAL_Driver/Src/stm32f3xx_hal_dac_ex.c ****   {
 128:Drivers/STM32F3xx_HAL_Driver/Src/stm32f3xx_hal_dac_ex.c ****     tmp += DAC_DHR12R1_ALIGNMENT(Alignment);
 129:Drivers/STM32F3xx_HAL_Driver/Src/stm32f3xx_hal_dac_ex.c ****   }
 130:Drivers/STM32F3xx_HAL_Driver/Src/stm32f3xx_hal_dac_ex.c **** #if defined(STM32F303xE) || defined(STM32F398xx)                         || \
 131:Drivers/STM32F3xx_HAL_Driver/Src/stm32f3xx_hal_dac_ex.c ****     defined(STM32F303xC) || defined(STM32F358xx)                         || \
 132:Drivers/STM32F3xx_HAL_Driver/Src/stm32f3xx_hal_dac_ex.c ****     defined(STM32F303x8) || defined(STM32F334x8) || defined(STM32F328xx) || \
 133:Drivers/STM32F3xx_HAL_Driver/Src/stm32f3xx_hal_dac_ex.c ****     defined(STM32F373xC) || defined(STM32F378xx)
 134:Drivers/STM32F3xx_HAL_Driver/Src/stm32f3xx_hal_dac_ex.c ****   else /* channel = DAC_CHANNEL_2  */
 135:Drivers/STM32F3xx_HAL_Driver/Src/stm32f3xx_hal_dac_ex.c ****   {
 136:Drivers/STM32F3xx_HAL_Driver/Src/stm32f3xx_hal_dac_ex.c ****     tmp += DAC_DHR12R2_ALIGNMENT(Alignment);
 137:Drivers/STM32F3xx_HAL_Driver/Src/stm32f3xx_hal_dac_ex.c ****   }
 138:Drivers/STM32F3xx_HAL_Driver/Src/stm32f3xx_hal_dac_ex.c **** #endif /* STM32F303xE || STM32F398xx                || */
 139:Drivers/STM32F3xx_HAL_Driver/Src/stm32f3xx_hal_dac_ex.c ****        /* STM32F303xC || STM32F358xx                || */
 140:Drivers/STM32F3xx_HAL_Driver/Src/stm32f3xx_hal_dac_ex.c ****        /* STM32F303x8 || STM32F334x8 || STM32F328xx || */
 141:Drivers/STM32F3xx_HAL_Driver/Src/stm32f3xx_hal_dac_ex.c ****        /* STM32F373xC || STM32F378xx                   */
 142:Drivers/STM32F3xx_HAL_Driver/Src/stm32f3xx_hal_dac_ex.c **** 
 143:Drivers/STM32F3xx_HAL_Driver/Src/stm32f3xx_hal_dac_ex.c ****   /* Set the DAC channel1 selected data holding register */
 144:Drivers/STM32F3xx_HAL_Driver/Src/stm32f3xx_hal_dac_ex.c ****   *(__IO uint32_t *) tmp = Data;
ARM GAS  /var/folders/jw/jcj5j9_530958b2rm5vp9wn00000gn/T//ccXbzXq2.s 			page 4


 145:Drivers/STM32F3xx_HAL_Driver/Src/stm32f3xx_hal_dac_ex.c ****   
 146:Drivers/STM32F3xx_HAL_Driver/Src/stm32f3xx_hal_dac_ex.c ****   /* Return function status */
 147:Drivers/STM32F3xx_HAL_Driver/Src/stm32f3xx_hal_dac_ex.c ****   return HAL_OK;
 148:Drivers/STM32F3xx_HAL_Driver/Src/stm32f3xx_hal_dac_ex.c **** }
 149:Drivers/STM32F3xx_HAL_Driver/Src/stm32f3xx_hal_dac_ex.c **** 
 150:Drivers/STM32F3xx_HAL_Driver/Src/stm32f3xx_hal_dac_ex.c **** #if  defined(STM32F303xE) || defined(STM32F398xx)                         || \
 151:Drivers/STM32F3xx_HAL_Driver/Src/stm32f3xx_hal_dac_ex.c ****      defined(STM32F303xC) || defined(STM32F358xx)                         || \
 152:Drivers/STM32F3xx_HAL_Driver/Src/stm32f3xx_hal_dac_ex.c ****      defined(STM32F303x8) || defined(STM32F334x8) || defined(STM32F328xx) || \
 153:Drivers/STM32F3xx_HAL_Driver/Src/stm32f3xx_hal_dac_ex.c ****      defined(STM32F373xC) || defined(STM32F378xx)
 154:Drivers/STM32F3xx_HAL_Driver/Src/stm32f3xx_hal_dac_ex.c **** /* DAC channel 2 is present in DAC 1U */
 155:Drivers/STM32F3xx_HAL_Driver/Src/stm32f3xx_hal_dac_ex.c **** /**
 156:Drivers/STM32F3xx_HAL_Driver/Src/stm32f3xx_hal_dac_ex.c ****   * @brief  Set the specified data holding register value for dual DAC channel.
 157:Drivers/STM32F3xx_HAL_Driver/Src/stm32f3xx_hal_dac_ex.c ****   * @param  hdac pointer to a DAC_HandleTypeDef structure that contains
 158:Drivers/STM32F3xx_HAL_Driver/Src/stm32f3xx_hal_dac_ex.c ****   *         the configuration information for the specified DAC.
 159:Drivers/STM32F3xx_HAL_Driver/Src/stm32f3xx_hal_dac_ex.c ****   * @param  Alignment Specifies the data alignment for dual channel DAC.
 160:Drivers/STM32F3xx_HAL_Driver/Src/stm32f3xx_hal_dac_ex.c ****   *          This parameter can be one of the following values:
 161:Drivers/STM32F3xx_HAL_Driver/Src/stm32f3xx_hal_dac_ex.c ****   *            @arg DAC_ALIGN_8B_R: 8bit right data alignment selected
 162:Drivers/STM32F3xx_HAL_Driver/Src/stm32f3xx_hal_dac_ex.c ****   *            @arg DAC_ALIGN_12B_L: 12bit left data alignment selected
 163:Drivers/STM32F3xx_HAL_Driver/Src/stm32f3xx_hal_dac_ex.c ****   *            @arg DAC_ALIGN_12B_R: 12bit right data alignment selected
 164:Drivers/STM32F3xx_HAL_Driver/Src/stm32f3xx_hal_dac_ex.c ****   * @param  Data2: Data for DAC Channel2 to be loaded in the selected data holding register.
 165:Drivers/STM32F3xx_HAL_Driver/Src/stm32f3xx_hal_dac_ex.c ****   * @param  Data1: Data for DAC Channel1 to be loaded in the selected data  holding register.
 166:Drivers/STM32F3xx_HAL_Driver/Src/stm32f3xx_hal_dac_ex.c ****   * @note   In dual mode, a unique register access is required to write in both
 167:Drivers/STM32F3xx_HAL_Driver/Src/stm32f3xx_hal_dac_ex.c ****   *          DAC channels at the same time.
 168:Drivers/STM32F3xx_HAL_Driver/Src/stm32f3xx_hal_dac_ex.c ****   * @retval HAL status
 169:Drivers/STM32F3xx_HAL_Driver/Src/stm32f3xx_hal_dac_ex.c ****   */
 170:Drivers/STM32F3xx_HAL_Driver/Src/stm32f3xx_hal_dac_ex.c **** HAL_StatusTypeDef HAL_DACEx_DualSetValue(DAC_HandleTypeDef* hdac, uint32_t Alignment, uint32_t Data
 171:Drivers/STM32F3xx_HAL_Driver/Src/stm32f3xx_hal_dac_ex.c **** {
 172:Drivers/STM32F3xx_HAL_Driver/Src/stm32f3xx_hal_dac_ex.c ****   uint32_t data = 0U, tmp = 0U;
 173:Drivers/STM32F3xx_HAL_Driver/Src/stm32f3xx_hal_dac_ex.c **** 
 174:Drivers/STM32F3xx_HAL_Driver/Src/stm32f3xx_hal_dac_ex.c ****   /* Check the parameters */
 175:Drivers/STM32F3xx_HAL_Driver/Src/stm32f3xx_hal_dac_ex.c ****   assert_param(IS_DAC_ALIGN(Alignment));
 176:Drivers/STM32F3xx_HAL_Driver/Src/stm32f3xx_hal_dac_ex.c ****   assert_param(IS_DAC_DATA(Data1));
 177:Drivers/STM32F3xx_HAL_Driver/Src/stm32f3xx_hal_dac_ex.c ****   assert_param(IS_DAC_DATA(Data2));
 178:Drivers/STM32F3xx_HAL_Driver/Src/stm32f3xx_hal_dac_ex.c **** 
 179:Drivers/STM32F3xx_HAL_Driver/Src/stm32f3xx_hal_dac_ex.c ****   /* Calculate and set dual DAC data holding register value */
 180:Drivers/STM32F3xx_HAL_Driver/Src/stm32f3xx_hal_dac_ex.c ****   if (Alignment == DAC_ALIGN_8B_R)
 181:Drivers/STM32F3xx_HAL_Driver/Src/stm32f3xx_hal_dac_ex.c ****   {
 182:Drivers/STM32F3xx_HAL_Driver/Src/stm32f3xx_hal_dac_ex.c ****     data = ((uint32_t)Data2 << 8U) | Data1;
 183:Drivers/STM32F3xx_HAL_Driver/Src/stm32f3xx_hal_dac_ex.c ****   }
 184:Drivers/STM32F3xx_HAL_Driver/Src/stm32f3xx_hal_dac_ex.c ****   else
 185:Drivers/STM32F3xx_HAL_Driver/Src/stm32f3xx_hal_dac_ex.c ****   {
 186:Drivers/STM32F3xx_HAL_Driver/Src/stm32f3xx_hal_dac_ex.c ****     data = ((uint32_t)Data2 << 16U) | Data1;
 187:Drivers/STM32F3xx_HAL_Driver/Src/stm32f3xx_hal_dac_ex.c ****   }
 188:Drivers/STM32F3xx_HAL_Driver/Src/stm32f3xx_hal_dac_ex.c **** 
 189:Drivers/STM32F3xx_HAL_Driver/Src/stm32f3xx_hal_dac_ex.c ****     tmp = (uint32_t) (hdac->Instance);
 190:Drivers/STM32F3xx_HAL_Driver/Src/stm32f3xx_hal_dac_ex.c ****     tmp += DAC_DHR12RD_ALIGNMENT(Alignment);
 191:Drivers/STM32F3xx_HAL_Driver/Src/stm32f3xx_hal_dac_ex.c **** 
 192:Drivers/STM32F3xx_HAL_Driver/Src/stm32f3xx_hal_dac_ex.c ****   /* Set the dual DAC selected data holding register */
 193:Drivers/STM32F3xx_HAL_Driver/Src/stm32f3xx_hal_dac_ex.c ****   *(__IO uint32_t *)tmp = data;
 194:Drivers/STM32F3xx_HAL_Driver/Src/stm32f3xx_hal_dac_ex.c **** 
 195:Drivers/STM32F3xx_HAL_Driver/Src/stm32f3xx_hal_dac_ex.c ****   /* Return function status */
 196:Drivers/STM32F3xx_HAL_Driver/Src/stm32f3xx_hal_dac_ex.c ****   return HAL_OK;
 197:Drivers/STM32F3xx_HAL_Driver/Src/stm32f3xx_hal_dac_ex.c **** }
 198:Drivers/STM32F3xx_HAL_Driver/Src/stm32f3xx_hal_dac_ex.c **** #endif /* STM32F303xE || STM32F398xx                || */
 199:Drivers/STM32F3xx_HAL_Driver/Src/stm32f3xx_hal_dac_ex.c ****        /* STM32F303xC || STM32F358xx                || */
 200:Drivers/STM32F3xx_HAL_Driver/Src/stm32f3xx_hal_dac_ex.c ****        /* STM32F303x8 || STM32F334x8 || STM32F328xx || */
 201:Drivers/STM32F3xx_HAL_Driver/Src/stm32f3xx_hal_dac_ex.c ****        /* STM32F373xC || STM32F378xx                   */
ARM GAS  /var/folders/jw/jcj5j9_530958b2rm5vp9wn00000gn/T//ccXbzXq2.s 			page 5


 202:Drivers/STM32F3xx_HAL_Driver/Src/stm32f3xx_hal_dac_ex.c **** 
 203:Drivers/STM32F3xx_HAL_Driver/Src/stm32f3xx_hal_dac_ex.c **** /**
 204:Drivers/STM32F3xx_HAL_Driver/Src/stm32f3xx_hal_dac_ex.c ****   * @}
 205:Drivers/STM32F3xx_HAL_Driver/Src/stm32f3xx_hal_dac_ex.c ****   */
 206:Drivers/STM32F3xx_HAL_Driver/Src/stm32f3xx_hal_dac_ex.c **** 
 207:Drivers/STM32F3xx_HAL_Driver/Src/stm32f3xx_hal_dac_ex.c **** /** @defgroup DACEx_Exported_Functions_Group2 DACEx Input and Output operation functions
 208:Drivers/STM32F3xx_HAL_Driver/Src/stm32f3xx_hal_dac_ex.c ****  *  @brief    IO operation functions 
 209:Drivers/STM32F3xx_HAL_Driver/Src/stm32f3xx_hal_dac_ex.c ****  *
 210:Drivers/STM32F3xx_HAL_Driver/Src/stm32f3xx_hal_dac_ex.c **** @verbatim   
 211:Drivers/STM32F3xx_HAL_Driver/Src/stm32f3xx_hal_dac_ex.c ****   ==============================================================================
 212:Drivers/STM32F3xx_HAL_Driver/Src/stm32f3xx_hal_dac_ex.c ****              ##### IO operation functions #####
 213:Drivers/STM32F3xx_HAL_Driver/Src/stm32f3xx_hal_dac_ex.c ****   ==============================================================================  
 214:Drivers/STM32F3xx_HAL_Driver/Src/stm32f3xx_hal_dac_ex.c ****     [..]  This section provides functions allowing to:
 215:Drivers/STM32F3xx_HAL_Driver/Src/stm32f3xx_hal_dac_ex.c ****       (+) Start conversion.
 216:Drivers/STM32F3xx_HAL_Driver/Src/stm32f3xx_hal_dac_ex.c ****       (+) Start conversion and enable DMA transfer.
 217:Drivers/STM32F3xx_HAL_Driver/Src/stm32f3xx_hal_dac_ex.c ****       (+) Get result of conversion.
 218:Drivers/STM32F3xx_HAL_Driver/Src/stm32f3xx_hal_dac_ex.c ****       (+) Handle DAC IRQ's.
 219:Drivers/STM32F3xx_HAL_Driver/Src/stm32f3xx_hal_dac_ex.c ****       (+) Generate triangular-wave                   
 220:Drivers/STM32F3xx_HAL_Driver/Src/stm32f3xx_hal_dac_ex.c ****       (+) Generate noise-wave
 221:Drivers/STM32F3xx_HAL_Driver/Src/stm32f3xx_hal_dac_ex.c **** 	  (+) Callback functions for DAC1 Channel2 (when supported)
 222:Drivers/STM32F3xx_HAL_Driver/Src/stm32f3xx_hal_dac_ex.c **** @endverbatim
 223:Drivers/STM32F3xx_HAL_Driver/Src/stm32f3xx_hal_dac_ex.c ****   * @{
 224:Drivers/STM32F3xx_HAL_Driver/Src/stm32f3xx_hal_dac_ex.c ****   */
 225:Drivers/STM32F3xx_HAL_Driver/Src/stm32f3xx_hal_dac_ex.c **** 
 226:Drivers/STM32F3xx_HAL_Driver/Src/stm32f3xx_hal_dac_ex.c **** #if  defined(STM32F303xE) || defined(STM32F398xx)                         || \
 227:Drivers/STM32F3xx_HAL_Driver/Src/stm32f3xx_hal_dac_ex.c ****      defined(STM32F303xC) || defined(STM32F358xx)                         || \
 228:Drivers/STM32F3xx_HAL_Driver/Src/stm32f3xx_hal_dac_ex.c ****      defined(STM32F303x8) || defined(STM32F334x8) || defined(STM32F328xx) || \
 229:Drivers/STM32F3xx_HAL_Driver/Src/stm32f3xx_hal_dac_ex.c ****      defined(STM32F373xC) || defined(STM32F378xx)
 230:Drivers/STM32F3xx_HAL_Driver/Src/stm32f3xx_hal_dac_ex.c **** 
 231:Drivers/STM32F3xx_HAL_Driver/Src/stm32f3xx_hal_dac_ex.c **** /* DAC 1 has 2 channels 1U & 2U - DAC 2 has one channel 1U */
 232:Drivers/STM32F3xx_HAL_Driver/Src/stm32f3xx_hal_dac_ex.c **** /**
 233:Drivers/STM32F3xx_HAL_Driver/Src/stm32f3xx_hal_dac_ex.c ****   * @brief  Enables DAC and starts conversion of channel.
 234:Drivers/STM32F3xx_HAL_Driver/Src/stm32f3xx_hal_dac_ex.c ****   * @param  hdac pointer to a DAC_HandleTypeDef structure that contains
 235:Drivers/STM32F3xx_HAL_Driver/Src/stm32f3xx_hal_dac_ex.c ****   *         the configuration information for the specified DAC.
 236:Drivers/STM32F3xx_HAL_Driver/Src/stm32f3xx_hal_dac_ex.c ****   * @param  Channel The selected DAC channel. 
 237:Drivers/STM32F3xx_HAL_Driver/Src/stm32f3xx_hal_dac_ex.c ****   *          This parameter can be one of the following values:
 238:Drivers/STM32F3xx_HAL_Driver/Src/stm32f3xx_hal_dac_ex.c ****   *            @arg DAC_CHANNEL_1: DAC1 Channel1 or DAC2 Channel1 selected
 239:Drivers/STM32F3xx_HAL_Driver/Src/stm32f3xx_hal_dac_ex.c ****   *            @arg DAC_CHANNEL_2: DAC1 Channel2 selected
 240:Drivers/STM32F3xx_HAL_Driver/Src/stm32f3xx_hal_dac_ex.c ****   * @retval HAL status
 241:Drivers/STM32F3xx_HAL_Driver/Src/stm32f3xx_hal_dac_ex.c ****   */
 242:Drivers/STM32F3xx_HAL_Driver/Src/stm32f3xx_hal_dac_ex.c **** HAL_StatusTypeDef HAL_DAC_Start(DAC_HandleTypeDef* hdac, uint32_t Channel)
 243:Drivers/STM32F3xx_HAL_Driver/Src/stm32f3xx_hal_dac_ex.c **** {
 244:Drivers/STM32F3xx_HAL_Driver/Src/stm32f3xx_hal_dac_ex.c ****   /* Check the parameters */
 245:Drivers/STM32F3xx_HAL_Driver/Src/stm32f3xx_hal_dac_ex.c ****   assert_param(IS_DAC_CHANNEL_INSTANCE(hdac->Instance, Channel));
 246:Drivers/STM32F3xx_HAL_Driver/Src/stm32f3xx_hal_dac_ex.c ****   
 247:Drivers/STM32F3xx_HAL_Driver/Src/stm32f3xx_hal_dac_ex.c ****   /* Process locked */
 248:Drivers/STM32F3xx_HAL_Driver/Src/stm32f3xx_hal_dac_ex.c ****   __HAL_LOCK(hdac);
 249:Drivers/STM32F3xx_HAL_Driver/Src/stm32f3xx_hal_dac_ex.c ****   
 250:Drivers/STM32F3xx_HAL_Driver/Src/stm32f3xx_hal_dac_ex.c ****   /* Change DAC state */
 251:Drivers/STM32F3xx_HAL_Driver/Src/stm32f3xx_hal_dac_ex.c ****   hdac->State = HAL_DAC_STATE_BUSY;
 252:Drivers/STM32F3xx_HAL_Driver/Src/stm32f3xx_hal_dac_ex.c ****   
 253:Drivers/STM32F3xx_HAL_Driver/Src/stm32f3xx_hal_dac_ex.c ****   /* Enable the Peripheral */
 254:Drivers/STM32F3xx_HAL_Driver/Src/stm32f3xx_hal_dac_ex.c ****   __HAL_DAC_ENABLE(hdac, Channel);
 255:Drivers/STM32F3xx_HAL_Driver/Src/stm32f3xx_hal_dac_ex.c ****   
 256:Drivers/STM32F3xx_HAL_Driver/Src/stm32f3xx_hal_dac_ex.c ****   if(Channel == DAC_CHANNEL_1)
 257:Drivers/STM32F3xx_HAL_Driver/Src/stm32f3xx_hal_dac_ex.c ****   {
 258:Drivers/STM32F3xx_HAL_Driver/Src/stm32f3xx_hal_dac_ex.c ****     /* Check if software trigger enabled */
ARM GAS  /var/folders/jw/jcj5j9_530958b2rm5vp9wn00000gn/T//ccXbzXq2.s 			page 6


 259:Drivers/STM32F3xx_HAL_Driver/Src/stm32f3xx_hal_dac_ex.c ****     if((hdac->Instance->CR & (DAC_CR_TEN1 | DAC_CR_TSEL1)) == (DAC_CR_TEN1 | DAC_CR_TSEL1))
 260:Drivers/STM32F3xx_HAL_Driver/Src/stm32f3xx_hal_dac_ex.c ****     {
 261:Drivers/STM32F3xx_HAL_Driver/Src/stm32f3xx_hal_dac_ex.c ****       /* Enable the selected DAC software conversion */
 262:Drivers/STM32F3xx_HAL_Driver/Src/stm32f3xx_hal_dac_ex.c ****       SET_BIT(hdac->Instance->SWTRIGR, DAC_SWTRIGR_SWTRIG1);
 263:Drivers/STM32F3xx_HAL_Driver/Src/stm32f3xx_hal_dac_ex.c ****     }
 264:Drivers/STM32F3xx_HAL_Driver/Src/stm32f3xx_hal_dac_ex.c ****   }
 265:Drivers/STM32F3xx_HAL_Driver/Src/stm32f3xx_hal_dac_ex.c ****   else
 266:Drivers/STM32F3xx_HAL_Driver/Src/stm32f3xx_hal_dac_ex.c ****   {
 267:Drivers/STM32F3xx_HAL_Driver/Src/stm32f3xx_hal_dac_ex.c ****     /* Check if software trigger enabled */
 268:Drivers/STM32F3xx_HAL_Driver/Src/stm32f3xx_hal_dac_ex.c ****     if((hdac->Instance->CR & (DAC_CR_TEN2 | DAC_CR_TSEL2)) == (DAC_CR_TEN2 | DAC_CR_TSEL2))
 269:Drivers/STM32F3xx_HAL_Driver/Src/stm32f3xx_hal_dac_ex.c ****     {
 270:Drivers/STM32F3xx_HAL_Driver/Src/stm32f3xx_hal_dac_ex.c ****       /* Enable the selected DAC software conversion */
 271:Drivers/STM32F3xx_HAL_Driver/Src/stm32f3xx_hal_dac_ex.c ****       SET_BIT(hdac->Instance->SWTRIGR, DAC_SWTRIGR_SWTRIG2);
 272:Drivers/STM32F3xx_HAL_Driver/Src/stm32f3xx_hal_dac_ex.c ****     }
 273:Drivers/STM32F3xx_HAL_Driver/Src/stm32f3xx_hal_dac_ex.c ****   }
 274:Drivers/STM32F3xx_HAL_Driver/Src/stm32f3xx_hal_dac_ex.c ****   
 275:Drivers/STM32F3xx_HAL_Driver/Src/stm32f3xx_hal_dac_ex.c ****   /* Change DAC state */
 276:Drivers/STM32F3xx_HAL_Driver/Src/stm32f3xx_hal_dac_ex.c ****   hdac->State = HAL_DAC_STATE_READY;
 277:Drivers/STM32F3xx_HAL_Driver/Src/stm32f3xx_hal_dac_ex.c ****   
 278:Drivers/STM32F3xx_HAL_Driver/Src/stm32f3xx_hal_dac_ex.c ****   /* Process unlocked */
 279:Drivers/STM32F3xx_HAL_Driver/Src/stm32f3xx_hal_dac_ex.c ****   __HAL_UNLOCK(hdac);
 280:Drivers/STM32F3xx_HAL_Driver/Src/stm32f3xx_hal_dac_ex.c ****     
 281:Drivers/STM32F3xx_HAL_Driver/Src/stm32f3xx_hal_dac_ex.c ****   /* Return function status */
 282:Drivers/STM32F3xx_HAL_Driver/Src/stm32f3xx_hal_dac_ex.c ****   return HAL_OK;
 283:Drivers/STM32F3xx_HAL_Driver/Src/stm32f3xx_hal_dac_ex.c **** }
 284:Drivers/STM32F3xx_HAL_Driver/Src/stm32f3xx_hal_dac_ex.c **** #endif /* STM32F303xE || STM32F398xx                || */
 285:Drivers/STM32F3xx_HAL_Driver/Src/stm32f3xx_hal_dac_ex.c ****        /* STM32F303xC || STM32F358xx                || */
 286:Drivers/STM32F3xx_HAL_Driver/Src/stm32f3xx_hal_dac_ex.c ****        /* STM32F303x8 || STM32F334x8 || STM32F328xx || */
 287:Drivers/STM32F3xx_HAL_Driver/Src/stm32f3xx_hal_dac_ex.c ****        /* STM32F373xC || STM32F378xx                   */
 288:Drivers/STM32F3xx_HAL_Driver/Src/stm32f3xx_hal_dac_ex.c **** 
 289:Drivers/STM32F3xx_HAL_Driver/Src/stm32f3xx_hal_dac_ex.c **** #if defined(STM32F302xE) || \
 290:Drivers/STM32F3xx_HAL_Driver/Src/stm32f3xx_hal_dac_ex.c ****     defined(STM32F302xC) || \
 291:Drivers/STM32F3xx_HAL_Driver/Src/stm32f3xx_hal_dac_ex.c ****     defined(STM32F301x8) || defined(STM32F302x8) || defined(STM32F318xx)
 292:Drivers/STM32F3xx_HAL_Driver/Src/stm32f3xx_hal_dac_ex.c **** /* DAC 1 has 1 channels 1U */
 293:Drivers/STM32F3xx_HAL_Driver/Src/stm32f3xx_hal_dac_ex.c **** /**
 294:Drivers/STM32F3xx_HAL_Driver/Src/stm32f3xx_hal_dac_ex.c ****   * @brief  Enables DAC and starts conversion of channel.
 295:Drivers/STM32F3xx_HAL_Driver/Src/stm32f3xx_hal_dac_ex.c ****   * @param  hdac pointer to a DAC_HandleTypeDef structure that contains
 296:Drivers/STM32F3xx_HAL_Driver/Src/stm32f3xx_hal_dac_ex.c ****   *         the configuration information for the specified DAC.
 297:Drivers/STM32F3xx_HAL_Driver/Src/stm32f3xx_hal_dac_ex.c ****   * @param  Channel The selected DAC channel. 
 298:Drivers/STM32F3xx_HAL_Driver/Src/stm32f3xx_hal_dac_ex.c ****   *          This parameter can be one of the following values:
 299:Drivers/STM32F3xx_HAL_Driver/Src/stm32f3xx_hal_dac_ex.c ****   *            @arg DAC_CHANNEL_1: DAC1 Channel1 selected
 300:Drivers/STM32F3xx_HAL_Driver/Src/stm32f3xx_hal_dac_ex.c ****   * @retval HAL status 
 301:Drivers/STM32F3xx_HAL_Driver/Src/stm32f3xx_hal_dac_ex.c ****   */
 302:Drivers/STM32F3xx_HAL_Driver/Src/stm32f3xx_hal_dac_ex.c **** 
 303:Drivers/STM32F3xx_HAL_Driver/Src/stm32f3xx_hal_dac_ex.c **** HAL_StatusTypeDef HAL_DAC_Start(DAC_HandleTypeDef* hdac, uint32_t Channel)
 304:Drivers/STM32F3xx_HAL_Driver/Src/stm32f3xx_hal_dac_ex.c **** {
 305:Drivers/STM32F3xx_HAL_Driver/Src/stm32f3xx_hal_dac_ex.c ****   /* Check the parameters */
 306:Drivers/STM32F3xx_HAL_Driver/Src/stm32f3xx_hal_dac_ex.c ****   assert_param(IS_DAC_CHANNEL_INSTANCE(hdac->Instance, Channel));
 307:Drivers/STM32F3xx_HAL_Driver/Src/stm32f3xx_hal_dac_ex.c ****   
 308:Drivers/STM32F3xx_HAL_Driver/Src/stm32f3xx_hal_dac_ex.c ****   /* Process locked */
 309:Drivers/STM32F3xx_HAL_Driver/Src/stm32f3xx_hal_dac_ex.c ****   __HAL_LOCK(hdac);
 310:Drivers/STM32F3xx_HAL_Driver/Src/stm32f3xx_hal_dac_ex.c ****   
 311:Drivers/STM32F3xx_HAL_Driver/Src/stm32f3xx_hal_dac_ex.c ****   /* Change DAC state */
 312:Drivers/STM32F3xx_HAL_Driver/Src/stm32f3xx_hal_dac_ex.c ****   hdac->State = HAL_DAC_STATE_BUSY;
 313:Drivers/STM32F3xx_HAL_Driver/Src/stm32f3xx_hal_dac_ex.c ****   
 314:Drivers/STM32F3xx_HAL_Driver/Src/stm32f3xx_hal_dac_ex.c ****   /* Enable the Peripheral */
 315:Drivers/STM32F3xx_HAL_Driver/Src/stm32f3xx_hal_dac_ex.c ****   __HAL_DAC_ENABLE(hdac, Channel);
ARM GAS  /var/folders/jw/jcj5j9_530958b2rm5vp9wn00000gn/T//ccXbzXq2.s 			page 7


 316:Drivers/STM32F3xx_HAL_Driver/Src/stm32f3xx_hal_dac_ex.c ****   
 317:Drivers/STM32F3xx_HAL_Driver/Src/stm32f3xx_hal_dac_ex.c ****   /* Check if software trigger enabled */
 318:Drivers/STM32F3xx_HAL_Driver/Src/stm32f3xx_hal_dac_ex.c ****   if((hdac->Instance->CR & (DAC_CR_TEN1 | DAC_CR_TSEL1)) == (DAC_CR_TEN1 | DAC_CR_TSEL1))
 319:Drivers/STM32F3xx_HAL_Driver/Src/stm32f3xx_hal_dac_ex.c ****   {
 320:Drivers/STM32F3xx_HAL_Driver/Src/stm32f3xx_hal_dac_ex.c ****     /* Enable the selected DAC software conversion */
 321:Drivers/STM32F3xx_HAL_Driver/Src/stm32f3xx_hal_dac_ex.c ****     SET_BIT(hdac->Instance->SWTRIGR, DAC_SWTRIGR_SWTRIG1);
 322:Drivers/STM32F3xx_HAL_Driver/Src/stm32f3xx_hal_dac_ex.c ****   }
 323:Drivers/STM32F3xx_HAL_Driver/Src/stm32f3xx_hal_dac_ex.c ****   
 324:Drivers/STM32F3xx_HAL_Driver/Src/stm32f3xx_hal_dac_ex.c ****   /* Change DAC state */
 325:Drivers/STM32F3xx_HAL_Driver/Src/stm32f3xx_hal_dac_ex.c ****   hdac->State = HAL_DAC_STATE_READY;
 326:Drivers/STM32F3xx_HAL_Driver/Src/stm32f3xx_hal_dac_ex.c ****   
 327:Drivers/STM32F3xx_HAL_Driver/Src/stm32f3xx_hal_dac_ex.c ****   /* Process unlocked */
 328:Drivers/STM32F3xx_HAL_Driver/Src/stm32f3xx_hal_dac_ex.c ****   __HAL_UNLOCK(hdac);
 329:Drivers/STM32F3xx_HAL_Driver/Src/stm32f3xx_hal_dac_ex.c ****     
 330:Drivers/STM32F3xx_HAL_Driver/Src/stm32f3xx_hal_dac_ex.c ****   /* Return function status */
 331:Drivers/STM32F3xx_HAL_Driver/Src/stm32f3xx_hal_dac_ex.c ****   return HAL_OK;
 332:Drivers/STM32F3xx_HAL_Driver/Src/stm32f3xx_hal_dac_ex.c **** }
 333:Drivers/STM32F3xx_HAL_Driver/Src/stm32f3xx_hal_dac_ex.c **** #endif /* STM32F302xE                               || */
 334:Drivers/STM32F3xx_HAL_Driver/Src/stm32f3xx_hal_dac_ex.c ****        /* STM32F302xC                               || */
 335:Drivers/STM32F3xx_HAL_Driver/Src/stm32f3xx_hal_dac_ex.c ****        /* STM32F301x8 || STM32F302x8 || STM32F318xx    */
 336:Drivers/STM32F3xx_HAL_Driver/Src/stm32f3xx_hal_dac_ex.c **** 
 337:Drivers/STM32F3xx_HAL_Driver/Src/stm32f3xx_hal_dac_ex.c **** /* DAC 1 has 2 channels 1U & 2U - DAC 2 has one channel 1U */
 338:Drivers/STM32F3xx_HAL_Driver/Src/stm32f3xx_hal_dac_ex.c **** #if defined(STM32F303xE) || defined(STM32F398xx)                         || \
 339:Drivers/STM32F3xx_HAL_Driver/Src/stm32f3xx_hal_dac_ex.c ****     defined(STM32F303xC) || defined(STM32F358xx)                         || \
 340:Drivers/STM32F3xx_HAL_Driver/Src/stm32f3xx_hal_dac_ex.c ****     defined(STM32F303x8) || defined(STM32F334x8) || defined(STM32F328xx) || \
 341:Drivers/STM32F3xx_HAL_Driver/Src/stm32f3xx_hal_dac_ex.c ****     defined(STM32F373xC) || defined(STM32F378xx)
 342:Drivers/STM32F3xx_HAL_Driver/Src/stm32f3xx_hal_dac_ex.c **** /* DAC 1 has 2 channels 1U & 2U */
 343:Drivers/STM32F3xx_HAL_Driver/Src/stm32f3xx_hal_dac_ex.c **** /**
 344:Drivers/STM32F3xx_HAL_Driver/Src/stm32f3xx_hal_dac_ex.c ****   * @brief  Enables DAC and starts conversion of channel.
 345:Drivers/STM32F3xx_HAL_Driver/Src/stm32f3xx_hal_dac_ex.c ****   * @param  hdac pointer to a DAC_HandleTypeDef structure that contains
 346:Drivers/STM32F3xx_HAL_Driver/Src/stm32f3xx_hal_dac_ex.c ****   *         the configuration information for the specified DAC.
 347:Drivers/STM32F3xx_HAL_Driver/Src/stm32f3xx_hal_dac_ex.c ****   * @param  Channel The selected DAC channel. 
 348:Drivers/STM32F3xx_HAL_Driver/Src/stm32f3xx_hal_dac_ex.c ****   *          This parameter can be one of the following values:
 349:Drivers/STM32F3xx_HAL_Driver/Src/stm32f3xx_hal_dac_ex.c ****   *            @arg DAC_CHANNEL_1: DAC1 Channel1 selected
 350:Drivers/STM32F3xx_HAL_Driver/Src/stm32f3xx_hal_dac_ex.c ****   *            @arg DAC_CHANNEL_2: DAC1 Channel2 selected
 351:Drivers/STM32F3xx_HAL_Driver/Src/stm32f3xx_hal_dac_ex.c ****   * @param  pData The destination peripheral Buffer address.
 352:Drivers/STM32F3xx_HAL_Driver/Src/stm32f3xx_hal_dac_ex.c ****   * @param  Length The length of data to be transferred from memory to DAC peripheral
 353:Drivers/STM32F3xx_HAL_Driver/Src/stm32f3xx_hal_dac_ex.c ****   * @param  Alignment Specifies the data alignment for DAC channel.
 354:Drivers/STM32F3xx_HAL_Driver/Src/stm32f3xx_hal_dac_ex.c ****   *          This parameter can be one of the following values:
 355:Drivers/STM32F3xx_HAL_Driver/Src/stm32f3xx_hal_dac_ex.c ****   *            @arg DAC_ALIGN_8B_R: 8bit right data alignment selected
 356:Drivers/STM32F3xx_HAL_Driver/Src/stm32f3xx_hal_dac_ex.c ****   *            @arg DAC_ALIGN_12B_L: 12bit left data alignment selected
 357:Drivers/STM32F3xx_HAL_Driver/Src/stm32f3xx_hal_dac_ex.c ****   *            @arg DAC_ALIGN_12B_R: 12bit right data alignment selected
 358:Drivers/STM32F3xx_HAL_Driver/Src/stm32f3xx_hal_dac_ex.c ****   * @retval HAL status
 359:Drivers/STM32F3xx_HAL_Driver/Src/stm32f3xx_hal_dac_ex.c ****   */
 360:Drivers/STM32F3xx_HAL_Driver/Src/stm32f3xx_hal_dac_ex.c **** HAL_StatusTypeDef HAL_DAC_Start_DMA(DAC_HandleTypeDef* hdac, uint32_t Channel, uint32_t* pData, uin
 361:Drivers/STM32F3xx_HAL_Driver/Src/stm32f3xx_hal_dac_ex.c **** {
 362:Drivers/STM32F3xx_HAL_Driver/Src/stm32f3xx_hal_dac_ex.c ****   uint32_t tmpreg = 0U;
 363:Drivers/STM32F3xx_HAL_Driver/Src/stm32f3xx_hal_dac_ex.c ****     
 364:Drivers/STM32F3xx_HAL_Driver/Src/stm32f3xx_hal_dac_ex.c ****   /* Check the parameters */
 365:Drivers/STM32F3xx_HAL_Driver/Src/stm32f3xx_hal_dac_ex.c ****   assert_param(IS_DAC_CHANNEL_INSTANCE(hdac->Instance, Channel));
 366:Drivers/STM32F3xx_HAL_Driver/Src/stm32f3xx_hal_dac_ex.c ****   assert_param(IS_DAC_ALIGN(Alignment));
 367:Drivers/STM32F3xx_HAL_Driver/Src/stm32f3xx_hal_dac_ex.c ****   
 368:Drivers/STM32F3xx_HAL_Driver/Src/stm32f3xx_hal_dac_ex.c ****   /* Process locked */
 369:Drivers/STM32F3xx_HAL_Driver/Src/stm32f3xx_hal_dac_ex.c ****   __HAL_LOCK(hdac);
 370:Drivers/STM32F3xx_HAL_Driver/Src/stm32f3xx_hal_dac_ex.c ****   
 371:Drivers/STM32F3xx_HAL_Driver/Src/stm32f3xx_hal_dac_ex.c ****   /* Change DAC state */
 372:Drivers/STM32F3xx_HAL_Driver/Src/stm32f3xx_hal_dac_ex.c ****   hdac->State = HAL_DAC_STATE_BUSY;
ARM GAS  /var/folders/jw/jcj5j9_530958b2rm5vp9wn00000gn/T//ccXbzXq2.s 			page 8


 373:Drivers/STM32F3xx_HAL_Driver/Src/stm32f3xx_hal_dac_ex.c **** 
 374:Drivers/STM32F3xx_HAL_Driver/Src/stm32f3xx_hal_dac_ex.c ****   if(Channel == DAC_CHANNEL_1)
 375:Drivers/STM32F3xx_HAL_Driver/Src/stm32f3xx_hal_dac_ex.c ****   {
 376:Drivers/STM32F3xx_HAL_Driver/Src/stm32f3xx_hal_dac_ex.c ****     /* Set the DMA transfer complete callback for channel1 */
 377:Drivers/STM32F3xx_HAL_Driver/Src/stm32f3xx_hal_dac_ex.c ****     hdac->DMA_Handle1->XferCpltCallback = DAC_DMAConvCpltCh1;
 378:Drivers/STM32F3xx_HAL_Driver/Src/stm32f3xx_hal_dac_ex.c ****     
 379:Drivers/STM32F3xx_HAL_Driver/Src/stm32f3xx_hal_dac_ex.c ****     /* Set the DMA half transfer complete callback for channel1 */
 380:Drivers/STM32F3xx_HAL_Driver/Src/stm32f3xx_hal_dac_ex.c ****     hdac->DMA_Handle1->XferHalfCpltCallback = DAC_DMAHalfConvCpltCh1;
 381:Drivers/STM32F3xx_HAL_Driver/Src/stm32f3xx_hal_dac_ex.c ****       
 382:Drivers/STM32F3xx_HAL_Driver/Src/stm32f3xx_hal_dac_ex.c ****     /* Set the DMA error callback for channel1 */
 383:Drivers/STM32F3xx_HAL_Driver/Src/stm32f3xx_hal_dac_ex.c ****     hdac->DMA_Handle1->XferErrorCallback = DAC_DMAErrorCh1;
 384:Drivers/STM32F3xx_HAL_Driver/Src/stm32f3xx_hal_dac_ex.c **** 
 385:Drivers/STM32F3xx_HAL_Driver/Src/stm32f3xx_hal_dac_ex.c ****     /* Enable the selected DAC channel1 DMA request */
 386:Drivers/STM32F3xx_HAL_Driver/Src/stm32f3xx_hal_dac_ex.c ****     SET_BIT(hdac->Instance->CR, DAC_CR_DMAEN1);   
 387:Drivers/STM32F3xx_HAL_Driver/Src/stm32f3xx_hal_dac_ex.c **** 
 388:Drivers/STM32F3xx_HAL_Driver/Src/stm32f3xx_hal_dac_ex.c ****     /* Case of use of channel 1U */
 389:Drivers/STM32F3xx_HAL_Driver/Src/stm32f3xx_hal_dac_ex.c ****     switch(Alignment)
 390:Drivers/STM32F3xx_HAL_Driver/Src/stm32f3xx_hal_dac_ex.c ****     {
 391:Drivers/STM32F3xx_HAL_Driver/Src/stm32f3xx_hal_dac_ex.c ****       case DAC_ALIGN_12B_R:
 392:Drivers/STM32F3xx_HAL_Driver/Src/stm32f3xx_hal_dac_ex.c ****         /* Get DHR12R1 address */
 393:Drivers/STM32F3xx_HAL_Driver/Src/stm32f3xx_hal_dac_ex.c ****         tmpreg = (uint32_t)&hdac->Instance->DHR12R1;
 394:Drivers/STM32F3xx_HAL_Driver/Src/stm32f3xx_hal_dac_ex.c ****         break;
 395:Drivers/STM32F3xx_HAL_Driver/Src/stm32f3xx_hal_dac_ex.c ****       case DAC_ALIGN_12B_L:
 396:Drivers/STM32F3xx_HAL_Driver/Src/stm32f3xx_hal_dac_ex.c ****         /* Get DHR12L1 address */
 397:Drivers/STM32F3xx_HAL_Driver/Src/stm32f3xx_hal_dac_ex.c ****         tmpreg = (uint32_t)&hdac->Instance->DHR12L1;
 398:Drivers/STM32F3xx_HAL_Driver/Src/stm32f3xx_hal_dac_ex.c ****         break;
 399:Drivers/STM32F3xx_HAL_Driver/Src/stm32f3xx_hal_dac_ex.c ****       case DAC_ALIGN_8B_R:
 400:Drivers/STM32F3xx_HAL_Driver/Src/stm32f3xx_hal_dac_ex.c ****         /* Get DHR8R1 address */
 401:Drivers/STM32F3xx_HAL_Driver/Src/stm32f3xx_hal_dac_ex.c ****         tmpreg = (uint32_t)&hdac->Instance->DHR8R1;
 402:Drivers/STM32F3xx_HAL_Driver/Src/stm32f3xx_hal_dac_ex.c ****         break;
 403:Drivers/STM32F3xx_HAL_Driver/Src/stm32f3xx_hal_dac_ex.c ****       default:
 404:Drivers/STM32F3xx_HAL_Driver/Src/stm32f3xx_hal_dac_ex.c ****         break;
 405:Drivers/STM32F3xx_HAL_Driver/Src/stm32f3xx_hal_dac_ex.c ****     }
 406:Drivers/STM32F3xx_HAL_Driver/Src/stm32f3xx_hal_dac_ex.c ****   }
 407:Drivers/STM32F3xx_HAL_Driver/Src/stm32f3xx_hal_dac_ex.c ****   else
 408:Drivers/STM32F3xx_HAL_Driver/Src/stm32f3xx_hal_dac_ex.c ****   {
 409:Drivers/STM32F3xx_HAL_Driver/Src/stm32f3xx_hal_dac_ex.c ****     /* Set the DMA transfer complete callback for channel2 */
 410:Drivers/STM32F3xx_HAL_Driver/Src/stm32f3xx_hal_dac_ex.c ****     hdac->DMA_Handle2->XferCpltCallback = DAC_DMAConvCpltCh2;
 411:Drivers/STM32F3xx_HAL_Driver/Src/stm32f3xx_hal_dac_ex.c ****     
 412:Drivers/STM32F3xx_HAL_Driver/Src/stm32f3xx_hal_dac_ex.c ****     /* Set the DMA half transfer complete callback for channel2 */
 413:Drivers/STM32F3xx_HAL_Driver/Src/stm32f3xx_hal_dac_ex.c ****     hdac->DMA_Handle2->XferHalfCpltCallback = DAC_DMAHalfConvCpltCh2;
 414:Drivers/STM32F3xx_HAL_Driver/Src/stm32f3xx_hal_dac_ex.c ****        
 415:Drivers/STM32F3xx_HAL_Driver/Src/stm32f3xx_hal_dac_ex.c ****     /* Set the DMA error callback for channel2 */
 416:Drivers/STM32F3xx_HAL_Driver/Src/stm32f3xx_hal_dac_ex.c ****     hdac->DMA_Handle2->XferErrorCallback = DAC_DMAErrorCh2;
 417:Drivers/STM32F3xx_HAL_Driver/Src/stm32f3xx_hal_dac_ex.c ****  
 418:Drivers/STM32F3xx_HAL_Driver/Src/stm32f3xx_hal_dac_ex.c ****     /* Enable the selected DAC channel2 DMA request */
 419:Drivers/STM32F3xx_HAL_Driver/Src/stm32f3xx_hal_dac_ex.c ****     SET_BIT(hdac->Instance->CR, DAC_CR_DMAEN2); 
 420:Drivers/STM32F3xx_HAL_Driver/Src/stm32f3xx_hal_dac_ex.c ****    
 421:Drivers/STM32F3xx_HAL_Driver/Src/stm32f3xx_hal_dac_ex.c ****     /* Case of use of channel 2U */
 422:Drivers/STM32F3xx_HAL_Driver/Src/stm32f3xx_hal_dac_ex.c ****     switch(Alignment)
 423:Drivers/STM32F3xx_HAL_Driver/Src/stm32f3xx_hal_dac_ex.c ****     {
 424:Drivers/STM32F3xx_HAL_Driver/Src/stm32f3xx_hal_dac_ex.c ****       case DAC_ALIGN_12B_R:
 425:Drivers/STM32F3xx_HAL_Driver/Src/stm32f3xx_hal_dac_ex.c ****         /* Get DHR12R2 address */
 426:Drivers/STM32F3xx_HAL_Driver/Src/stm32f3xx_hal_dac_ex.c ****         tmpreg = (uint32_t)&hdac->Instance->DHR12R2;
 427:Drivers/STM32F3xx_HAL_Driver/Src/stm32f3xx_hal_dac_ex.c ****         break;
 428:Drivers/STM32F3xx_HAL_Driver/Src/stm32f3xx_hal_dac_ex.c ****       case DAC_ALIGN_12B_L:
 429:Drivers/STM32F3xx_HAL_Driver/Src/stm32f3xx_hal_dac_ex.c ****         /* Get DHR12L2 address */
ARM GAS  /var/folders/jw/jcj5j9_530958b2rm5vp9wn00000gn/T//ccXbzXq2.s 			page 9


 430:Drivers/STM32F3xx_HAL_Driver/Src/stm32f3xx_hal_dac_ex.c ****         tmpreg = (uint32_t)&hdac->Instance->DHR12L2;
 431:Drivers/STM32F3xx_HAL_Driver/Src/stm32f3xx_hal_dac_ex.c ****         break;
 432:Drivers/STM32F3xx_HAL_Driver/Src/stm32f3xx_hal_dac_ex.c ****       case DAC_ALIGN_8B_R:
 433:Drivers/STM32F3xx_HAL_Driver/Src/stm32f3xx_hal_dac_ex.c ****         /* Get DHR8R2 address */
 434:Drivers/STM32F3xx_HAL_Driver/Src/stm32f3xx_hal_dac_ex.c ****         tmpreg = (uint32_t)&hdac->Instance->DHR8R2;
 435:Drivers/STM32F3xx_HAL_Driver/Src/stm32f3xx_hal_dac_ex.c ****         break;
 436:Drivers/STM32F3xx_HAL_Driver/Src/stm32f3xx_hal_dac_ex.c ****       default:
 437:Drivers/STM32F3xx_HAL_Driver/Src/stm32f3xx_hal_dac_ex.c ****         break;
 438:Drivers/STM32F3xx_HAL_Driver/Src/stm32f3xx_hal_dac_ex.c ****     }
 439:Drivers/STM32F3xx_HAL_Driver/Src/stm32f3xx_hal_dac_ex.c ****   }
 440:Drivers/STM32F3xx_HAL_Driver/Src/stm32f3xx_hal_dac_ex.c ****  
 441:Drivers/STM32F3xx_HAL_Driver/Src/stm32f3xx_hal_dac_ex.c ****   /* Enable the DMA Channel */
 442:Drivers/STM32F3xx_HAL_Driver/Src/stm32f3xx_hal_dac_ex.c ****   if(Channel == DAC_CHANNEL_1)
 443:Drivers/STM32F3xx_HAL_Driver/Src/stm32f3xx_hal_dac_ex.c ****   {
 444:Drivers/STM32F3xx_HAL_Driver/Src/stm32f3xx_hal_dac_ex.c ****     /* Enable the DAC DMA underrun interrupt */
 445:Drivers/STM32F3xx_HAL_Driver/Src/stm32f3xx_hal_dac_ex.c ****     __HAL_DAC_ENABLE_IT(hdac, DAC_IT_DMAUDR1);
 446:Drivers/STM32F3xx_HAL_Driver/Src/stm32f3xx_hal_dac_ex.c **** 
 447:Drivers/STM32F3xx_HAL_Driver/Src/stm32f3xx_hal_dac_ex.c ****     /* Enable the DMA Channel */
 448:Drivers/STM32F3xx_HAL_Driver/Src/stm32f3xx_hal_dac_ex.c ****     HAL_DMA_Start_IT(hdac->DMA_Handle1, (uint32_t)pData, tmpreg, Length);
 449:Drivers/STM32F3xx_HAL_Driver/Src/stm32f3xx_hal_dac_ex.c ****   } 
 450:Drivers/STM32F3xx_HAL_Driver/Src/stm32f3xx_hal_dac_ex.c ****   else
 451:Drivers/STM32F3xx_HAL_Driver/Src/stm32f3xx_hal_dac_ex.c ****   {
 452:Drivers/STM32F3xx_HAL_Driver/Src/stm32f3xx_hal_dac_ex.c ****     /* Enable the DAC DMA underrun interrupt */
 453:Drivers/STM32F3xx_HAL_Driver/Src/stm32f3xx_hal_dac_ex.c ****     __HAL_DAC_ENABLE_IT(hdac, DAC_IT_DMAUDR2);
 454:Drivers/STM32F3xx_HAL_Driver/Src/stm32f3xx_hal_dac_ex.c **** 
 455:Drivers/STM32F3xx_HAL_Driver/Src/stm32f3xx_hal_dac_ex.c ****     /* Enable the DMA Channel */
 456:Drivers/STM32F3xx_HAL_Driver/Src/stm32f3xx_hal_dac_ex.c ****     HAL_DMA_Start_IT(hdac->DMA_Handle2, (uint32_t)pData, tmpreg, Length);
 457:Drivers/STM32F3xx_HAL_Driver/Src/stm32f3xx_hal_dac_ex.c ****   }
 458:Drivers/STM32F3xx_HAL_Driver/Src/stm32f3xx_hal_dac_ex.c ****  
 459:Drivers/STM32F3xx_HAL_Driver/Src/stm32f3xx_hal_dac_ex.c ****   /* Process Unlocked */
 460:Drivers/STM32F3xx_HAL_Driver/Src/stm32f3xx_hal_dac_ex.c ****   __HAL_UNLOCK(hdac);
 461:Drivers/STM32F3xx_HAL_Driver/Src/stm32f3xx_hal_dac_ex.c **** 
 462:Drivers/STM32F3xx_HAL_Driver/Src/stm32f3xx_hal_dac_ex.c ****   /* Enable the Peripheral */
 463:Drivers/STM32F3xx_HAL_Driver/Src/stm32f3xx_hal_dac_ex.c ****   __HAL_DAC_ENABLE(hdac, Channel);
 464:Drivers/STM32F3xx_HAL_Driver/Src/stm32f3xx_hal_dac_ex.c ****   
 465:Drivers/STM32F3xx_HAL_Driver/Src/stm32f3xx_hal_dac_ex.c ****   /* Return function status */
 466:Drivers/STM32F3xx_HAL_Driver/Src/stm32f3xx_hal_dac_ex.c ****   return HAL_OK;
 467:Drivers/STM32F3xx_HAL_Driver/Src/stm32f3xx_hal_dac_ex.c **** }
 468:Drivers/STM32F3xx_HAL_Driver/Src/stm32f3xx_hal_dac_ex.c **** #endif /* STM32F303xE || STM32F398xx                || */
 469:Drivers/STM32F3xx_HAL_Driver/Src/stm32f3xx_hal_dac_ex.c ****        /* STM32F303xC || STM32F358xx                || */
 470:Drivers/STM32F3xx_HAL_Driver/Src/stm32f3xx_hal_dac_ex.c ****        /* STM32F303x8 || STM32F334x8 || STM32F328xx || */
 471:Drivers/STM32F3xx_HAL_Driver/Src/stm32f3xx_hal_dac_ex.c ****        /* STM32F373xC || STM32F378xx                   */
 472:Drivers/STM32F3xx_HAL_Driver/Src/stm32f3xx_hal_dac_ex.c **** 
 473:Drivers/STM32F3xx_HAL_Driver/Src/stm32f3xx_hal_dac_ex.c **** #if defined(STM32F302xE) || \
 474:Drivers/STM32F3xx_HAL_Driver/Src/stm32f3xx_hal_dac_ex.c ****     defined(STM32F302xC) || \
 475:Drivers/STM32F3xx_HAL_Driver/Src/stm32f3xx_hal_dac_ex.c ****     defined(STM32F301x8) || defined(STM32F302x8) || defined(STM32F318xx)
 476:Drivers/STM32F3xx_HAL_Driver/Src/stm32f3xx_hal_dac_ex.c **** /* DAC 1 has 1 channel (channel 1U)  */
 477:Drivers/STM32F3xx_HAL_Driver/Src/stm32f3xx_hal_dac_ex.c **** /**
 478:Drivers/STM32F3xx_HAL_Driver/Src/stm32f3xx_hal_dac_ex.c ****   * @brief  Enables DAC and starts conversion of channel.
 479:Drivers/STM32F3xx_HAL_Driver/Src/stm32f3xx_hal_dac_ex.c ****   * @param  hdac pointer to a DAC_HandleTypeDef structure that contains
 480:Drivers/STM32F3xx_HAL_Driver/Src/stm32f3xx_hal_dac_ex.c ****   *         the configuration information for the specified DAC.
 481:Drivers/STM32F3xx_HAL_Driver/Src/stm32f3xx_hal_dac_ex.c ****   * @param  Channel The selected DAC channel. 
 482:Drivers/STM32F3xx_HAL_Driver/Src/stm32f3xx_hal_dac_ex.c ****   *          This parameter can be one of the following values:
 483:Drivers/STM32F3xx_HAL_Driver/Src/stm32f3xx_hal_dac_ex.c ****   *            @arg DAC_CHANNEL_1: DAC1 Channel1 selected
 484:Drivers/STM32F3xx_HAL_Driver/Src/stm32f3xx_hal_dac_ex.c ****   * @param  pData The destination peripheral Buffer address.
 485:Drivers/STM32F3xx_HAL_Driver/Src/stm32f3xx_hal_dac_ex.c ****   * @param  Length The length of data to be transferred from memory to DAC peripheral
 486:Drivers/STM32F3xx_HAL_Driver/Src/stm32f3xx_hal_dac_ex.c ****   * @param  Alignment Specifies the data alignment for DAC channel.
ARM GAS  /var/folders/jw/jcj5j9_530958b2rm5vp9wn00000gn/T//ccXbzXq2.s 			page 10


 487:Drivers/STM32F3xx_HAL_Driver/Src/stm32f3xx_hal_dac_ex.c ****   *          This parameter can be one of the following values:
 488:Drivers/STM32F3xx_HAL_Driver/Src/stm32f3xx_hal_dac_ex.c ****   *            @arg DAC_ALIGN_8B_R: 8bit right data alignment selected
 489:Drivers/STM32F3xx_HAL_Driver/Src/stm32f3xx_hal_dac_ex.c ****   *            @arg DAC_ALIGN_12B_L: 12bit left data alignment selected
 490:Drivers/STM32F3xx_HAL_Driver/Src/stm32f3xx_hal_dac_ex.c ****   *            @arg DAC_ALIGN_12B_R: 12bit right data alignment selected
 491:Drivers/STM32F3xx_HAL_Driver/Src/stm32f3xx_hal_dac_ex.c ****   * @retval HAL status
 492:Drivers/STM32F3xx_HAL_Driver/Src/stm32f3xx_hal_dac_ex.c ****   */
 493:Drivers/STM32F3xx_HAL_Driver/Src/stm32f3xx_hal_dac_ex.c **** HAL_StatusTypeDef HAL_DAC_Start_DMA(DAC_HandleTypeDef* hdac, uint32_t Channel, uint32_t* pData, uin
 494:Drivers/STM32F3xx_HAL_Driver/Src/stm32f3xx_hal_dac_ex.c **** {
 495:Drivers/STM32F3xx_HAL_Driver/Src/stm32f3xx_hal_dac_ex.c ****   uint32_t tmpreg = 0U;
 496:Drivers/STM32F3xx_HAL_Driver/Src/stm32f3xx_hal_dac_ex.c ****     
 497:Drivers/STM32F3xx_HAL_Driver/Src/stm32f3xx_hal_dac_ex.c ****   /* Check the parameters */
 498:Drivers/STM32F3xx_HAL_Driver/Src/stm32f3xx_hal_dac_ex.c ****   assert_param(IS_DAC_CHANNEL_INSTANCE(hdac->Instance, Channel));
 499:Drivers/STM32F3xx_HAL_Driver/Src/stm32f3xx_hal_dac_ex.c ****   assert_param(IS_DAC_ALIGN(Alignment));
 500:Drivers/STM32F3xx_HAL_Driver/Src/stm32f3xx_hal_dac_ex.c ****   
 501:Drivers/STM32F3xx_HAL_Driver/Src/stm32f3xx_hal_dac_ex.c ****   /* Process locked */
 502:Drivers/STM32F3xx_HAL_Driver/Src/stm32f3xx_hal_dac_ex.c ****   __HAL_LOCK(hdac);
 503:Drivers/STM32F3xx_HAL_Driver/Src/stm32f3xx_hal_dac_ex.c ****   
 504:Drivers/STM32F3xx_HAL_Driver/Src/stm32f3xx_hal_dac_ex.c ****   /* Change DAC state */
 505:Drivers/STM32F3xx_HAL_Driver/Src/stm32f3xx_hal_dac_ex.c ****   hdac->State = HAL_DAC_STATE_BUSY;
 506:Drivers/STM32F3xx_HAL_Driver/Src/stm32f3xx_hal_dac_ex.c ****     
 507:Drivers/STM32F3xx_HAL_Driver/Src/stm32f3xx_hal_dac_ex.c ****   /* Set the DMA transfer complete callback for channel1 */
 508:Drivers/STM32F3xx_HAL_Driver/Src/stm32f3xx_hal_dac_ex.c ****   hdac->DMA_Handle1->XferCpltCallback = DAC_DMAConvCpltCh1;
 509:Drivers/STM32F3xx_HAL_Driver/Src/stm32f3xx_hal_dac_ex.c ****   
 510:Drivers/STM32F3xx_HAL_Driver/Src/stm32f3xx_hal_dac_ex.c ****   /* Set the DMA half transfer complete callback for channel1 */
 511:Drivers/STM32F3xx_HAL_Driver/Src/stm32f3xx_hal_dac_ex.c ****   hdac->DMA_Handle1->XferHalfCpltCallback = DAC_DMAHalfConvCpltCh1;
 512:Drivers/STM32F3xx_HAL_Driver/Src/stm32f3xx_hal_dac_ex.c ****     
 513:Drivers/STM32F3xx_HAL_Driver/Src/stm32f3xx_hal_dac_ex.c ****   /* Set the DMA error callback for channel1 */
 514:Drivers/STM32F3xx_HAL_Driver/Src/stm32f3xx_hal_dac_ex.c ****   hdac->DMA_Handle1->XferErrorCallback = DAC_DMAErrorCh1;
 515:Drivers/STM32F3xx_HAL_Driver/Src/stm32f3xx_hal_dac_ex.c **** 
 516:Drivers/STM32F3xx_HAL_Driver/Src/stm32f3xx_hal_dac_ex.c ****   /* Enable the selected DAC channel1 DMA request */
 517:Drivers/STM32F3xx_HAL_Driver/Src/stm32f3xx_hal_dac_ex.c ****   SET_BIT(hdac->Instance->CR, DAC_CR_DMAEN1);
 518:Drivers/STM32F3xx_HAL_Driver/Src/stm32f3xx_hal_dac_ex.c ****     
 519:Drivers/STM32F3xx_HAL_Driver/Src/stm32f3xx_hal_dac_ex.c ****   /* Case of use of channel 1U */
 520:Drivers/STM32F3xx_HAL_Driver/Src/stm32f3xx_hal_dac_ex.c ****   switch(Alignment)
 521:Drivers/STM32F3xx_HAL_Driver/Src/stm32f3xx_hal_dac_ex.c ****   {
 522:Drivers/STM32F3xx_HAL_Driver/Src/stm32f3xx_hal_dac_ex.c ****     case DAC_ALIGN_12B_R:
 523:Drivers/STM32F3xx_HAL_Driver/Src/stm32f3xx_hal_dac_ex.c ****       /* Get DHR12R1 address */
 524:Drivers/STM32F3xx_HAL_Driver/Src/stm32f3xx_hal_dac_ex.c ****       tmpreg = (uint32_t)&hdac->Instance->DHR12R1;
 525:Drivers/STM32F3xx_HAL_Driver/Src/stm32f3xx_hal_dac_ex.c ****       break;
 526:Drivers/STM32F3xx_HAL_Driver/Src/stm32f3xx_hal_dac_ex.c ****     case DAC_ALIGN_12B_L:
 527:Drivers/STM32F3xx_HAL_Driver/Src/stm32f3xx_hal_dac_ex.c ****       /* Get DHR12L1 address */
 528:Drivers/STM32F3xx_HAL_Driver/Src/stm32f3xx_hal_dac_ex.c ****       tmpreg = (uint32_t)&hdac->Instance->DHR12L1;
 529:Drivers/STM32F3xx_HAL_Driver/Src/stm32f3xx_hal_dac_ex.c ****       break;
 530:Drivers/STM32F3xx_HAL_Driver/Src/stm32f3xx_hal_dac_ex.c ****     case DAC_ALIGN_8B_R:
 531:Drivers/STM32F3xx_HAL_Driver/Src/stm32f3xx_hal_dac_ex.c ****       /* Get DHR8R1 address */
 532:Drivers/STM32F3xx_HAL_Driver/Src/stm32f3xx_hal_dac_ex.c ****       tmpreg = (uint32_t)&hdac->Instance->DHR8R1;
 533:Drivers/STM32F3xx_HAL_Driver/Src/stm32f3xx_hal_dac_ex.c ****       break;
 534:Drivers/STM32F3xx_HAL_Driver/Src/stm32f3xx_hal_dac_ex.c ****     default:
 535:Drivers/STM32F3xx_HAL_Driver/Src/stm32f3xx_hal_dac_ex.c ****       break;
 536:Drivers/STM32F3xx_HAL_Driver/Src/stm32f3xx_hal_dac_ex.c ****   }
 537:Drivers/STM32F3xx_HAL_Driver/Src/stm32f3xx_hal_dac_ex.c ****   
 538:Drivers/STM32F3xx_HAL_Driver/Src/stm32f3xx_hal_dac_ex.c ****   /* Enable the DMA Channel */
 539:Drivers/STM32F3xx_HAL_Driver/Src/stm32f3xx_hal_dac_ex.c ****   /* Enable the DAC DMA underrun interrupt */
 540:Drivers/STM32F3xx_HAL_Driver/Src/stm32f3xx_hal_dac_ex.c ****   __HAL_DAC_ENABLE_IT(hdac, DAC_IT_DMAUDR1);
 541:Drivers/STM32F3xx_HAL_Driver/Src/stm32f3xx_hal_dac_ex.c **** 
 542:Drivers/STM32F3xx_HAL_Driver/Src/stm32f3xx_hal_dac_ex.c ****   /* Enable the DMA Channel */
 543:Drivers/STM32F3xx_HAL_Driver/Src/stm32f3xx_hal_dac_ex.c ****   HAL_DMA_Start_IT(hdac->DMA_Handle1, (uint32_t)pData, tmpreg, Length);
ARM GAS  /var/folders/jw/jcj5j9_530958b2rm5vp9wn00000gn/T//ccXbzXq2.s 			page 11


 544:Drivers/STM32F3xx_HAL_Driver/Src/stm32f3xx_hal_dac_ex.c ****  
 545:Drivers/STM32F3xx_HAL_Driver/Src/stm32f3xx_hal_dac_ex.c ****   /* Process Unlocked */
 546:Drivers/STM32F3xx_HAL_Driver/Src/stm32f3xx_hal_dac_ex.c ****   __HAL_UNLOCK(hdac);
 547:Drivers/STM32F3xx_HAL_Driver/Src/stm32f3xx_hal_dac_ex.c **** 
 548:Drivers/STM32F3xx_HAL_Driver/Src/stm32f3xx_hal_dac_ex.c ****   /* Enable the Peripheral */
 549:Drivers/STM32F3xx_HAL_Driver/Src/stm32f3xx_hal_dac_ex.c ****   __HAL_DAC_ENABLE(hdac, Channel); 
 550:Drivers/STM32F3xx_HAL_Driver/Src/stm32f3xx_hal_dac_ex.c ****  
 551:Drivers/STM32F3xx_HAL_Driver/Src/stm32f3xx_hal_dac_ex.c ****   /* Return function status */
 552:Drivers/STM32F3xx_HAL_Driver/Src/stm32f3xx_hal_dac_ex.c ****   return HAL_OK;
 553:Drivers/STM32F3xx_HAL_Driver/Src/stm32f3xx_hal_dac_ex.c **** }
 554:Drivers/STM32F3xx_HAL_Driver/Src/stm32f3xx_hal_dac_ex.c **** #endif /* STM32F302xE                               || */
 555:Drivers/STM32F3xx_HAL_Driver/Src/stm32f3xx_hal_dac_ex.c ****        /* STM32F302xC                               || */
 556:Drivers/STM32F3xx_HAL_Driver/Src/stm32f3xx_hal_dac_ex.c ****        /* STM32F301x8 || STM32F302x8 || STM32F318xx    */
 557:Drivers/STM32F3xx_HAL_Driver/Src/stm32f3xx_hal_dac_ex.c **** 
 558:Drivers/STM32F3xx_HAL_Driver/Src/stm32f3xx_hal_dac_ex.c **** /* DAC 1 has 2 channels 1U & 2U - DAC 2 has one channel 1U */
 559:Drivers/STM32F3xx_HAL_Driver/Src/stm32f3xx_hal_dac_ex.c **** #if  defined(STM32F303xE) || defined(STM32F398xx)                         || \
 560:Drivers/STM32F3xx_HAL_Driver/Src/stm32f3xx_hal_dac_ex.c ****      defined(STM32F303xC) || defined(STM32F358xx)                         || \
 561:Drivers/STM32F3xx_HAL_Driver/Src/stm32f3xx_hal_dac_ex.c ****      defined(STM32F303x8) || defined(STM32F334x8) || defined(STM32F328xx) || \
 562:Drivers/STM32F3xx_HAL_Driver/Src/stm32f3xx_hal_dac_ex.c ****      defined(STM32F373xC) || defined(STM32F378xx)
 563:Drivers/STM32F3xx_HAL_Driver/Src/stm32f3xx_hal_dac_ex.c **** /* DAC 1 has 2 channels 1U & 2U */
 564:Drivers/STM32F3xx_HAL_Driver/Src/stm32f3xx_hal_dac_ex.c **** /**
 565:Drivers/STM32F3xx_HAL_Driver/Src/stm32f3xx_hal_dac_ex.c ****   * @brief  Returns the last data output value of the selected DAC channel.
 566:Drivers/STM32F3xx_HAL_Driver/Src/stm32f3xx_hal_dac_ex.c ****   * @param  hdac pointer to a DAC_HandleTypeDef structure that contains
 567:Drivers/STM32F3xx_HAL_Driver/Src/stm32f3xx_hal_dac_ex.c ****   *         the configuration information for the specified DAC.
 568:Drivers/STM32F3xx_HAL_Driver/Src/stm32f3xx_hal_dac_ex.c ****   * @param  Channel The selected DAC channel. 
 569:Drivers/STM32F3xx_HAL_Driver/Src/stm32f3xx_hal_dac_ex.c ****   *          This parameter can be one of the following values:
 570:Drivers/STM32F3xx_HAL_Driver/Src/stm32f3xx_hal_dac_ex.c ****   *            @arg DAC_CHANNEL_1: DAC1 Channel1 selected
 571:Drivers/STM32F3xx_HAL_Driver/Src/stm32f3xx_hal_dac_ex.c ****   *            @arg DAC_CHANNEL_2: DAC1 Channel2 selected
 572:Drivers/STM32F3xx_HAL_Driver/Src/stm32f3xx_hal_dac_ex.c ****   * @retval The selected DAC channel data output value.
 573:Drivers/STM32F3xx_HAL_Driver/Src/stm32f3xx_hal_dac_ex.c ****   */
 574:Drivers/STM32F3xx_HAL_Driver/Src/stm32f3xx_hal_dac_ex.c **** uint32_t HAL_DAC_GetValue(DAC_HandleTypeDef* hdac, uint32_t Channel)
 575:Drivers/STM32F3xx_HAL_Driver/Src/stm32f3xx_hal_dac_ex.c **** {
 576:Drivers/STM32F3xx_HAL_Driver/Src/stm32f3xx_hal_dac_ex.c ****   /* Check the parameters */
 577:Drivers/STM32F3xx_HAL_Driver/Src/stm32f3xx_hal_dac_ex.c ****   assert_param(IS_DAC_CHANNEL_INSTANCE(hdac->Instance, Channel));
 578:Drivers/STM32F3xx_HAL_Driver/Src/stm32f3xx_hal_dac_ex.c ****   
 579:Drivers/STM32F3xx_HAL_Driver/Src/stm32f3xx_hal_dac_ex.c ****   /* Returns the DAC channel data output register value */
 580:Drivers/STM32F3xx_HAL_Driver/Src/stm32f3xx_hal_dac_ex.c ****   if(Channel == DAC_CHANNEL_1) 
 581:Drivers/STM32F3xx_HAL_Driver/Src/stm32f3xx_hal_dac_ex.c ****   {
 582:Drivers/STM32F3xx_HAL_Driver/Src/stm32f3xx_hal_dac_ex.c ****     return hdac->Instance->DOR1;
 583:Drivers/STM32F3xx_HAL_Driver/Src/stm32f3xx_hal_dac_ex.c ****   }
 584:Drivers/STM32F3xx_HAL_Driver/Src/stm32f3xx_hal_dac_ex.c ****   else /* channel = DAC_CHANNEL_2  */
 585:Drivers/STM32F3xx_HAL_Driver/Src/stm32f3xx_hal_dac_ex.c ****   {
 586:Drivers/STM32F3xx_HAL_Driver/Src/stm32f3xx_hal_dac_ex.c ****     return hdac->Instance->DOR2;
 587:Drivers/STM32F3xx_HAL_Driver/Src/stm32f3xx_hal_dac_ex.c ****   }
 588:Drivers/STM32F3xx_HAL_Driver/Src/stm32f3xx_hal_dac_ex.c **** }
 589:Drivers/STM32F3xx_HAL_Driver/Src/stm32f3xx_hal_dac_ex.c **** #endif /* STM32F303xE || STM32F398xx                || */
 590:Drivers/STM32F3xx_HAL_Driver/Src/stm32f3xx_hal_dac_ex.c ****        /* STM32F303xC || STM32F358xx                || */
 591:Drivers/STM32F3xx_HAL_Driver/Src/stm32f3xx_hal_dac_ex.c ****        /* STM32F303x8 || STM32F334x8 || STM32F328xx || */
 592:Drivers/STM32F3xx_HAL_Driver/Src/stm32f3xx_hal_dac_ex.c ****        /* STM32F373xC || STM32F378xx                   */
 593:Drivers/STM32F3xx_HAL_Driver/Src/stm32f3xx_hal_dac_ex.c **** 
 594:Drivers/STM32F3xx_HAL_Driver/Src/stm32f3xx_hal_dac_ex.c **** #if defined(STM32F302xE) || \
 595:Drivers/STM32F3xx_HAL_Driver/Src/stm32f3xx_hal_dac_ex.c ****     defined(STM32F302xC) || \
 596:Drivers/STM32F3xx_HAL_Driver/Src/stm32f3xx_hal_dac_ex.c ****     defined(STM32F301x8) || defined(STM32F302x8) || defined(STM32F318xx)
 597:Drivers/STM32F3xx_HAL_Driver/Src/stm32f3xx_hal_dac_ex.c **** /* DAC 1 has 1 channel (channel 1U)  */
 598:Drivers/STM32F3xx_HAL_Driver/Src/stm32f3xx_hal_dac_ex.c **** /**
 599:Drivers/STM32F3xx_HAL_Driver/Src/stm32f3xx_hal_dac_ex.c ****   * @brief  Returns the last data output value of the selected DAC channel.
 600:Drivers/STM32F3xx_HAL_Driver/Src/stm32f3xx_hal_dac_ex.c ****   * @param  hdac pointer to a DAC_HandleTypeDef structure that contains
ARM GAS  /var/folders/jw/jcj5j9_530958b2rm5vp9wn00000gn/T//ccXbzXq2.s 			page 12


 601:Drivers/STM32F3xx_HAL_Driver/Src/stm32f3xx_hal_dac_ex.c ****   *         the configuration information for the specified DAC.
 602:Drivers/STM32F3xx_HAL_Driver/Src/stm32f3xx_hal_dac_ex.c ****   * @param  channel The selected DAC channel. 
 603:Drivers/STM32F3xx_HAL_Driver/Src/stm32f3xx_hal_dac_ex.c ****   *          This parameter can be one of the following values:
 604:Drivers/STM32F3xx_HAL_Driver/Src/stm32f3xx_hal_dac_ex.c ****   *            @arg DAC_CHANNEL_1: DAC1 Channel1 selected
 605:Drivers/STM32F3xx_HAL_Driver/Src/stm32f3xx_hal_dac_ex.c ****   * @retval The selected DAC channel data output value.
 606:Drivers/STM32F3xx_HAL_Driver/Src/stm32f3xx_hal_dac_ex.c ****   */
 607:Drivers/STM32F3xx_HAL_Driver/Src/stm32f3xx_hal_dac_ex.c **** uint32_t HAL_DAC_GetValue(DAC_HandleTypeDef* hdac, uint32_t Channel)
 608:Drivers/STM32F3xx_HAL_Driver/Src/stm32f3xx_hal_dac_ex.c **** {
 609:Drivers/STM32F3xx_HAL_Driver/Src/stm32f3xx_hal_dac_ex.c ****   /* Check the parameters */
 610:Drivers/STM32F3xx_HAL_Driver/Src/stm32f3xx_hal_dac_ex.c ****   assert_param(IS_DAC_CHANNEL_INSTANCE(hdac->Instance, Channel));
 611:Drivers/STM32F3xx_HAL_Driver/Src/stm32f3xx_hal_dac_ex.c ****   
 612:Drivers/STM32F3xx_HAL_Driver/Src/stm32f3xx_hal_dac_ex.c ****   /* Returns the DAC channel data output register value */
 613:Drivers/STM32F3xx_HAL_Driver/Src/stm32f3xx_hal_dac_ex.c ****   return hdac->Instance->DOR1;
 614:Drivers/STM32F3xx_HAL_Driver/Src/stm32f3xx_hal_dac_ex.c **** }
 615:Drivers/STM32F3xx_HAL_Driver/Src/stm32f3xx_hal_dac_ex.c **** #endif /* STM32F302xE                               || */
 616:Drivers/STM32F3xx_HAL_Driver/Src/stm32f3xx_hal_dac_ex.c ****        /* STM32F302xC                               || */
 617:Drivers/STM32F3xx_HAL_Driver/Src/stm32f3xx_hal_dac_ex.c ****        /* STM32F301x8 || STM32F302x8 || STM32F318xx    */
 618:Drivers/STM32F3xx_HAL_Driver/Src/stm32f3xx_hal_dac_ex.c **** 
 619:Drivers/STM32F3xx_HAL_Driver/Src/stm32f3xx_hal_dac_ex.c **** /**
 620:Drivers/STM32F3xx_HAL_Driver/Src/stm32f3xx_hal_dac_ex.c ****   * @brief  Return the last data output value of the selected DAC channel.
 621:Drivers/STM32F3xx_HAL_Driver/Src/stm32f3xx_hal_dac_ex.c ****   * @param  hdac pointer to a DAC_HandleTypeDef structure that contains
 622:Drivers/STM32F3xx_HAL_Driver/Src/stm32f3xx_hal_dac_ex.c ****   *         the configuration information for the specified DAC.
 623:Drivers/STM32F3xx_HAL_Driver/Src/stm32f3xx_hal_dac_ex.c ****   * @retval The selected DAC channel data output value.
 624:Drivers/STM32F3xx_HAL_Driver/Src/stm32f3xx_hal_dac_ex.c ****   */
 625:Drivers/STM32F3xx_HAL_Driver/Src/stm32f3xx_hal_dac_ex.c **** uint32_t HAL_DACEx_DualGetValue(DAC_HandleTypeDef* hdac)
 626:Drivers/STM32F3xx_HAL_Driver/Src/stm32f3xx_hal_dac_ex.c **** {
 627:Drivers/STM32F3xx_HAL_Driver/Src/stm32f3xx_hal_dac_ex.c ****   uint32_t tmp = 0U;
 628:Drivers/STM32F3xx_HAL_Driver/Src/stm32f3xx_hal_dac_ex.c **** 
 629:Drivers/STM32F3xx_HAL_Driver/Src/stm32f3xx_hal_dac_ex.c ****   tmp |= hdac->Instance->DOR1;
 630:Drivers/STM32F3xx_HAL_Driver/Src/stm32f3xx_hal_dac_ex.c **** 
 631:Drivers/STM32F3xx_HAL_Driver/Src/stm32f3xx_hal_dac_ex.c **** #if  defined(STM32F303xE) || defined(STM32F398xx)                         || \
 632:Drivers/STM32F3xx_HAL_Driver/Src/stm32f3xx_hal_dac_ex.c ****      defined(STM32F303xC) || defined(STM32F358xx)                         || \
 633:Drivers/STM32F3xx_HAL_Driver/Src/stm32f3xx_hal_dac_ex.c ****      defined(STM32F303x8) || defined(STM32F334x8) || defined(STM32F328xx) || \
 634:Drivers/STM32F3xx_HAL_Driver/Src/stm32f3xx_hal_dac_ex.c ****      defined(STM32F373xC) || defined(STM32F378xx)
 635:Drivers/STM32F3xx_HAL_Driver/Src/stm32f3xx_hal_dac_ex.c **** /* DAC channel 2 is present in DAC 1U */
 636:Drivers/STM32F3xx_HAL_Driver/Src/stm32f3xx_hal_dac_ex.c ****   tmp |= hdac->Instance->DOR2 << 16U;
 637:Drivers/STM32F3xx_HAL_Driver/Src/stm32f3xx_hal_dac_ex.c **** #endif /* STM32F303xE || STM32F398xx                || */
 638:Drivers/STM32F3xx_HAL_Driver/Src/stm32f3xx_hal_dac_ex.c ****        /* STM32F303xC || STM32F358xx                || */
 639:Drivers/STM32F3xx_HAL_Driver/Src/stm32f3xx_hal_dac_ex.c ****        /* STM32F303x8 || STM32F334x8 || STM32F328xx || */
 640:Drivers/STM32F3xx_HAL_Driver/Src/stm32f3xx_hal_dac_ex.c ****        /* STM32F373xC || STM32F378xx                   */
 641:Drivers/STM32F3xx_HAL_Driver/Src/stm32f3xx_hal_dac_ex.c **** 
 642:Drivers/STM32F3xx_HAL_Driver/Src/stm32f3xx_hal_dac_ex.c ****   /* Returns the DAC channel data output register value */
 643:Drivers/STM32F3xx_HAL_Driver/Src/stm32f3xx_hal_dac_ex.c ****   return tmp;
 644:Drivers/STM32F3xx_HAL_Driver/Src/stm32f3xx_hal_dac_ex.c **** }
 645:Drivers/STM32F3xx_HAL_Driver/Src/stm32f3xx_hal_dac_ex.c **** 
 646:Drivers/STM32F3xx_HAL_Driver/Src/stm32f3xx_hal_dac_ex.c **** #if  defined(STM32F303xE) || defined(STM32F398xx)                         || \
 647:Drivers/STM32F3xx_HAL_Driver/Src/stm32f3xx_hal_dac_ex.c ****      defined(STM32F303xC) || defined(STM32F358xx)                         || \
 648:Drivers/STM32F3xx_HAL_Driver/Src/stm32f3xx_hal_dac_ex.c ****      defined(STM32F303x8) || defined(STM32F334x8) || defined(STM32F328xx) || \
 649:Drivers/STM32F3xx_HAL_Driver/Src/stm32f3xx_hal_dac_ex.c ****      defined(STM32F373xC) || defined(STM32F378xx)
 650:Drivers/STM32F3xx_HAL_Driver/Src/stm32f3xx_hal_dac_ex.c **** /* DAC channel 2 is available on top of DAC channel 1U */
 651:Drivers/STM32F3xx_HAL_Driver/Src/stm32f3xx_hal_dac_ex.c **** /**
 652:Drivers/STM32F3xx_HAL_Driver/Src/stm32f3xx_hal_dac_ex.c ****   * @brief  Handles DAC interrupt request
 653:Drivers/STM32F3xx_HAL_Driver/Src/stm32f3xx_hal_dac_ex.c ****   *         This function uses the interruption of DMA
 654:Drivers/STM32F3xx_HAL_Driver/Src/stm32f3xx_hal_dac_ex.c ****   *         underrun.  
 655:Drivers/STM32F3xx_HAL_Driver/Src/stm32f3xx_hal_dac_ex.c ****   * @param  hdac pointer to a DAC_HandleTypeDef structure that contains
 656:Drivers/STM32F3xx_HAL_Driver/Src/stm32f3xx_hal_dac_ex.c ****   *         the configuration information for the specified DAC.
 657:Drivers/STM32F3xx_HAL_Driver/Src/stm32f3xx_hal_dac_ex.c ****   * @retval None
ARM GAS  /var/folders/jw/jcj5j9_530958b2rm5vp9wn00000gn/T//ccXbzXq2.s 			page 13


 658:Drivers/STM32F3xx_HAL_Driver/Src/stm32f3xx_hal_dac_ex.c ****   */
 659:Drivers/STM32F3xx_HAL_Driver/Src/stm32f3xx_hal_dac_ex.c **** void HAL_DAC_IRQHandler(struct __DAC_HandleTypeDef* hdac)
 660:Drivers/STM32F3xx_HAL_Driver/Src/stm32f3xx_hal_dac_ex.c **** {
 661:Drivers/STM32F3xx_HAL_Driver/Src/stm32f3xx_hal_dac_ex.c ****   if(__HAL_DAC_GET_IT_SOURCE(hdac, DAC_IT_DMAUDR1))
 662:Drivers/STM32F3xx_HAL_Driver/Src/stm32f3xx_hal_dac_ex.c ****   { 
 663:Drivers/STM32F3xx_HAL_Driver/Src/stm32f3xx_hal_dac_ex.c ****     /* Check underrun flag of DAC channel 1U */
 664:Drivers/STM32F3xx_HAL_Driver/Src/stm32f3xx_hal_dac_ex.c ****     if(__HAL_DAC_GET_FLAG(hdac, DAC_FLAG_DMAUDR1))
 665:Drivers/STM32F3xx_HAL_Driver/Src/stm32f3xx_hal_dac_ex.c ****     {
 666:Drivers/STM32F3xx_HAL_Driver/Src/stm32f3xx_hal_dac_ex.c ****       /* Change DAC state to error state */
 667:Drivers/STM32F3xx_HAL_Driver/Src/stm32f3xx_hal_dac_ex.c ****       hdac->State = HAL_DAC_STATE_ERROR;
 668:Drivers/STM32F3xx_HAL_Driver/Src/stm32f3xx_hal_dac_ex.c ****     
 669:Drivers/STM32F3xx_HAL_Driver/Src/stm32f3xx_hal_dac_ex.c ****       /* Set DAC error code to chanel1 DMA underrun error */
 670:Drivers/STM32F3xx_HAL_Driver/Src/stm32f3xx_hal_dac_ex.c ****       SET_BIT(hdac->ErrorCode, HAL_DAC_ERROR_DMAUNDERRUNCH1);
 671:Drivers/STM32F3xx_HAL_Driver/Src/stm32f3xx_hal_dac_ex.c ****           
 672:Drivers/STM32F3xx_HAL_Driver/Src/stm32f3xx_hal_dac_ex.c ****       /* Clear the underrun flag */
 673:Drivers/STM32F3xx_HAL_Driver/Src/stm32f3xx_hal_dac_ex.c ****       __HAL_DAC_CLEAR_FLAG(hdac,DAC_FLAG_DMAUDR1);
 674:Drivers/STM32F3xx_HAL_Driver/Src/stm32f3xx_hal_dac_ex.c ****     
 675:Drivers/STM32F3xx_HAL_Driver/Src/stm32f3xx_hal_dac_ex.c ****       /* Disable the selected DAC channel1 DMA request */
 676:Drivers/STM32F3xx_HAL_Driver/Src/stm32f3xx_hal_dac_ex.c ****       CLEAR_BIT(hdac->Instance->CR, DAC_CR_DMAEN1);
 677:Drivers/STM32F3xx_HAL_Driver/Src/stm32f3xx_hal_dac_ex.c ****     
 678:Drivers/STM32F3xx_HAL_Driver/Src/stm32f3xx_hal_dac_ex.c ****       /* Error callback */ 
 679:Drivers/STM32F3xx_HAL_Driver/Src/stm32f3xx_hal_dac_ex.c **** #if (USE_HAL_DAC_REGISTER_CALLBACKS == 1)
 680:Drivers/STM32F3xx_HAL_Driver/Src/stm32f3xx_hal_dac_ex.c ****       hdac->DMAUnderrunCallbackCh1(hdac);
 681:Drivers/STM32F3xx_HAL_Driver/Src/stm32f3xx_hal_dac_ex.c **** #else
 682:Drivers/STM32F3xx_HAL_Driver/Src/stm32f3xx_hal_dac_ex.c ****       HAL_DAC_DMAUnderrunCallbackCh1(hdac);
 683:Drivers/STM32F3xx_HAL_Driver/Src/stm32f3xx_hal_dac_ex.c **** #endif
 684:Drivers/STM32F3xx_HAL_Driver/Src/stm32f3xx_hal_dac_ex.c ****     }
 685:Drivers/STM32F3xx_HAL_Driver/Src/stm32f3xx_hal_dac_ex.c ****   }
 686:Drivers/STM32F3xx_HAL_Driver/Src/stm32f3xx_hal_dac_ex.c ****   
 687:Drivers/STM32F3xx_HAL_Driver/Src/stm32f3xx_hal_dac_ex.c ****   if(__HAL_DAC_GET_IT_SOURCE(hdac, DAC_IT_DMAUDR2))
 688:Drivers/STM32F3xx_HAL_Driver/Src/stm32f3xx_hal_dac_ex.c ****   {
 689:Drivers/STM32F3xx_HAL_Driver/Src/stm32f3xx_hal_dac_ex.c ****     /* Check underrun flag of DAC channel 2 */
 690:Drivers/STM32F3xx_HAL_Driver/Src/stm32f3xx_hal_dac_ex.c ****     if (__HAL_DAC_GET_FLAG(hdac, DAC_FLAG_DMAUDR2))
 691:Drivers/STM32F3xx_HAL_Driver/Src/stm32f3xx_hal_dac_ex.c ****     {
 692:Drivers/STM32F3xx_HAL_Driver/Src/stm32f3xx_hal_dac_ex.c ****       /* Change DAC state to error state */
 693:Drivers/STM32F3xx_HAL_Driver/Src/stm32f3xx_hal_dac_ex.c ****       hdac->State = HAL_DAC_STATE_ERROR;
 694:Drivers/STM32F3xx_HAL_Driver/Src/stm32f3xx_hal_dac_ex.c ****     
 695:Drivers/STM32F3xx_HAL_Driver/Src/stm32f3xx_hal_dac_ex.c ****       /* Set DAC error code to channel2 DMA underrun error */
 696:Drivers/STM32F3xx_HAL_Driver/Src/stm32f3xx_hal_dac_ex.c ****       SET_BIT(hdac->ErrorCode, HAL_DAC_ERROR_DMAUNDERRUNCH2);
 697:Drivers/STM32F3xx_HAL_Driver/Src/stm32f3xx_hal_dac_ex.c ****     
 698:Drivers/STM32F3xx_HAL_Driver/Src/stm32f3xx_hal_dac_ex.c ****       /* Clear the underrun flag */
 699:Drivers/STM32F3xx_HAL_Driver/Src/stm32f3xx_hal_dac_ex.c ****       __HAL_DAC_CLEAR_FLAG(hdac,DAC_FLAG_DMAUDR2);
 700:Drivers/STM32F3xx_HAL_Driver/Src/stm32f3xx_hal_dac_ex.c ****     
 701:Drivers/STM32F3xx_HAL_Driver/Src/stm32f3xx_hal_dac_ex.c ****       /* Disable the selected DAC channel1 DMA request */
 702:Drivers/STM32F3xx_HAL_Driver/Src/stm32f3xx_hal_dac_ex.c ****       CLEAR_BIT(hdac->Instance->CR, DAC_CR_DMAEN2);
 703:Drivers/STM32F3xx_HAL_Driver/Src/stm32f3xx_hal_dac_ex.c ****    
 704:Drivers/STM32F3xx_HAL_Driver/Src/stm32f3xx_hal_dac_ex.c ****       /* Error callback */
 705:Drivers/STM32F3xx_HAL_Driver/Src/stm32f3xx_hal_dac_ex.c **** #if (USE_HAL_DAC_REGISTER_CALLBACKS == 1)
 706:Drivers/STM32F3xx_HAL_Driver/Src/stm32f3xx_hal_dac_ex.c ****       hdac->DMAUnderrunCallbackCh2(hdac);
 707:Drivers/STM32F3xx_HAL_Driver/Src/stm32f3xx_hal_dac_ex.c **** #else
 708:Drivers/STM32F3xx_HAL_Driver/Src/stm32f3xx_hal_dac_ex.c ****       HAL_DACEx_DMAUnderrunCallbackCh2(hdac);
 709:Drivers/STM32F3xx_HAL_Driver/Src/stm32f3xx_hal_dac_ex.c **** #endif
 710:Drivers/STM32F3xx_HAL_Driver/Src/stm32f3xx_hal_dac_ex.c ****     }
 711:Drivers/STM32F3xx_HAL_Driver/Src/stm32f3xx_hal_dac_ex.c ****   }
 712:Drivers/STM32F3xx_HAL_Driver/Src/stm32f3xx_hal_dac_ex.c **** }
 713:Drivers/STM32F3xx_HAL_Driver/Src/stm32f3xx_hal_dac_ex.c **** #endif /* STM32F303xE || STM32F398xx                || */
 714:Drivers/STM32F3xx_HAL_Driver/Src/stm32f3xx_hal_dac_ex.c ****        /* STM32F303xC || STM32F358xx                || */
ARM GAS  /var/folders/jw/jcj5j9_530958b2rm5vp9wn00000gn/T//ccXbzXq2.s 			page 14


 715:Drivers/STM32F3xx_HAL_Driver/Src/stm32f3xx_hal_dac_ex.c ****        /* STM32F303x8 || STM32F334x8 || STM32F328xx || */
 716:Drivers/STM32F3xx_HAL_Driver/Src/stm32f3xx_hal_dac_ex.c ****        /* STM32F373xC || STM32F378xx                   */
 717:Drivers/STM32F3xx_HAL_Driver/Src/stm32f3xx_hal_dac_ex.c **** 
 718:Drivers/STM32F3xx_HAL_Driver/Src/stm32f3xx_hal_dac_ex.c **** #if defined(STM32F302xE) || \
 719:Drivers/STM32F3xx_HAL_Driver/Src/stm32f3xx_hal_dac_ex.c ****     defined(STM32F302xC) || \
 720:Drivers/STM32F3xx_HAL_Driver/Src/stm32f3xx_hal_dac_ex.c ****     defined(STM32F301x8) || defined(STM32F302x8) || defined(STM32F318xx)
 721:Drivers/STM32F3xx_HAL_Driver/Src/stm32f3xx_hal_dac_ex.c **** /* DAC channel 2 is NOT available. Only DAC channel 1 is available */
 722:Drivers/STM32F3xx_HAL_Driver/Src/stm32f3xx_hal_dac_ex.c **** /**
 723:Drivers/STM32F3xx_HAL_Driver/Src/stm32f3xx_hal_dac_ex.c ****   * @brief  Handles DAC interrupt request
 724:Drivers/STM32F3xx_HAL_Driver/Src/stm32f3xx_hal_dac_ex.c ****   *         This function uses the interruption of DMA
 725:Drivers/STM32F3xx_HAL_Driver/Src/stm32f3xx_hal_dac_ex.c ****   *         underrun.  
 726:Drivers/STM32F3xx_HAL_Driver/Src/stm32f3xx_hal_dac_ex.c ****   * @param  hdac pointer to a DAC_HandleTypeDef structure that contains
 727:Drivers/STM32F3xx_HAL_Driver/Src/stm32f3xx_hal_dac_ex.c ****   *         the configuration information for the specified DAC.
 728:Drivers/STM32F3xx_HAL_Driver/Src/stm32f3xx_hal_dac_ex.c ****   * @retval None
 729:Drivers/STM32F3xx_HAL_Driver/Src/stm32f3xx_hal_dac_ex.c ****   */
 730:Drivers/STM32F3xx_HAL_Driver/Src/stm32f3xx_hal_dac_ex.c **** void HAL_DAC_IRQHandler(struct __DAC_HandleTypeDef* hdac)
 731:Drivers/STM32F3xx_HAL_Driver/Src/stm32f3xx_hal_dac_ex.c **** {
 732:Drivers/STM32F3xx_HAL_Driver/Src/stm32f3xx_hal_dac_ex.c ****   if(__HAL_DAC_GET_IT_SOURCE(hdac, DAC_IT_DMAUDR1))
 733:Drivers/STM32F3xx_HAL_Driver/Src/stm32f3xx_hal_dac_ex.c ****   {  
 734:Drivers/STM32F3xx_HAL_Driver/Src/stm32f3xx_hal_dac_ex.c ****     /* Check underrun flag of DAC channel 1U */
 735:Drivers/STM32F3xx_HAL_Driver/Src/stm32f3xx_hal_dac_ex.c ****     if(__HAL_DAC_GET_FLAG(hdac, DAC_FLAG_DMAUDR1))
 736:Drivers/STM32F3xx_HAL_Driver/Src/stm32f3xx_hal_dac_ex.c ****     {
 737:Drivers/STM32F3xx_HAL_Driver/Src/stm32f3xx_hal_dac_ex.c ****       /* Change DAC state to error state */
 738:Drivers/STM32F3xx_HAL_Driver/Src/stm32f3xx_hal_dac_ex.c ****       hdac->State = HAL_DAC_STATE_ERROR;
 739:Drivers/STM32F3xx_HAL_Driver/Src/stm32f3xx_hal_dac_ex.c ****     
 740:Drivers/STM32F3xx_HAL_Driver/Src/stm32f3xx_hal_dac_ex.c ****       /* Set DAC error code to chanel1 DMA underrun error */
 741:Drivers/STM32F3xx_HAL_Driver/Src/stm32f3xx_hal_dac_ex.c ****       SET_BIT(hdac->ErrorCode, HAL_DAC_ERROR_DMAUNDERRUNCH1);
 742:Drivers/STM32F3xx_HAL_Driver/Src/stm32f3xx_hal_dac_ex.c ****     
 743:Drivers/STM32F3xx_HAL_Driver/Src/stm32f3xx_hal_dac_ex.c ****       /* Clear the underrun flag */
 744:Drivers/STM32F3xx_HAL_Driver/Src/stm32f3xx_hal_dac_ex.c ****       __HAL_DAC_CLEAR_FLAG(hdac,DAC_FLAG_DMAUDR1);
 745:Drivers/STM32F3xx_HAL_Driver/Src/stm32f3xx_hal_dac_ex.c ****     
 746:Drivers/STM32F3xx_HAL_Driver/Src/stm32f3xx_hal_dac_ex.c ****       /* Disable the selected DAC channel1 DMA request */
 747:Drivers/STM32F3xx_HAL_Driver/Src/stm32f3xx_hal_dac_ex.c ****       CLEAR_BIT(hdac->Instance->CR, DAC_CR_DMAEN1);
 748:Drivers/STM32F3xx_HAL_Driver/Src/stm32f3xx_hal_dac_ex.c ****     
 749:Drivers/STM32F3xx_HAL_Driver/Src/stm32f3xx_hal_dac_ex.c ****       /* Error callback */ 
 750:Drivers/STM32F3xx_HAL_Driver/Src/stm32f3xx_hal_dac_ex.c ****       HAL_DAC_DMAUnderrunCallbackCh1(hdac);
 751:Drivers/STM32F3xx_HAL_Driver/Src/stm32f3xx_hal_dac_ex.c ****     }
 752:Drivers/STM32F3xx_HAL_Driver/Src/stm32f3xx_hal_dac_ex.c ****   }
 753:Drivers/STM32F3xx_HAL_Driver/Src/stm32f3xx_hal_dac_ex.c **** }
 754:Drivers/STM32F3xx_HAL_Driver/Src/stm32f3xx_hal_dac_ex.c **** #endif /* STM32F302xE                               || */
 755:Drivers/STM32F3xx_HAL_Driver/Src/stm32f3xx_hal_dac_ex.c ****        /* STM32F302xC                               || */
 756:Drivers/STM32F3xx_HAL_Driver/Src/stm32f3xx_hal_dac_ex.c ****        /* STM32F301x8 || STM32F302x8 || STM32F318xx    */
 757:Drivers/STM32F3xx_HAL_Driver/Src/stm32f3xx_hal_dac_ex.c **** 
 758:Drivers/STM32F3xx_HAL_Driver/Src/stm32f3xx_hal_dac_ex.c **** /**
 759:Drivers/STM32F3xx_HAL_Driver/Src/stm32f3xx_hal_dac_ex.c ****   * @brief  Configures the selected DAC channel.
 760:Drivers/STM32F3xx_HAL_Driver/Src/stm32f3xx_hal_dac_ex.c ****   * @param  hdac pointer to a DAC_HandleTypeDef structure that contains
 761:Drivers/STM32F3xx_HAL_Driver/Src/stm32f3xx_hal_dac_ex.c ****   *         the configuration information for the specified DAC.
 762:Drivers/STM32F3xx_HAL_Driver/Src/stm32f3xx_hal_dac_ex.c ****   * @param  sConfig DAC configuration structure.
 763:Drivers/STM32F3xx_HAL_Driver/Src/stm32f3xx_hal_dac_ex.c ****   * @param  Channel The selected DAC channel. 
 764:Drivers/STM32F3xx_HAL_Driver/Src/stm32f3xx_hal_dac_ex.c ****   *          This parameter can be one of the following values:
 765:Drivers/STM32F3xx_HAL_Driver/Src/stm32f3xx_hal_dac_ex.c ****   *            @arg DAC_CHANNEL_1: DAC1 Channel1 selected
 766:Drivers/STM32F3xx_HAL_Driver/Src/stm32f3xx_hal_dac_ex.c ****   *            @arg DAC_CHANNEL_2: DAC1 Channel2 selected  
 767:Drivers/STM32F3xx_HAL_Driver/Src/stm32f3xx_hal_dac_ex.c ****   *            @arg DAC_CHANNEL_1: DAC2 Channel1 selected 
 768:Drivers/STM32F3xx_HAL_Driver/Src/stm32f3xx_hal_dac_ex.c ****   * @retval HAL status
 769:Drivers/STM32F3xx_HAL_Driver/Src/stm32f3xx_hal_dac_ex.c ****   */
 770:Drivers/STM32F3xx_HAL_Driver/Src/stm32f3xx_hal_dac_ex.c **** 
 771:Drivers/STM32F3xx_HAL_Driver/Src/stm32f3xx_hal_dac_ex.c **** HAL_StatusTypeDef HAL_DAC_ConfigChannel(DAC_HandleTypeDef* hdac, DAC_ChannelConfTypeDef* sConfig, u
ARM GAS  /var/folders/jw/jcj5j9_530958b2rm5vp9wn00000gn/T//ccXbzXq2.s 			page 15


 772:Drivers/STM32F3xx_HAL_Driver/Src/stm32f3xx_hal_dac_ex.c **** {
 773:Drivers/STM32F3xx_HAL_Driver/Src/stm32f3xx_hal_dac_ex.c ****   uint32_t tmpreg1 = 0U, tmpreg2 = 0U;
 774:Drivers/STM32F3xx_HAL_Driver/Src/stm32f3xx_hal_dac_ex.c **** 
 775:Drivers/STM32F3xx_HAL_Driver/Src/stm32f3xx_hal_dac_ex.c ****   /* Check the DAC parameters */
 776:Drivers/STM32F3xx_HAL_Driver/Src/stm32f3xx_hal_dac_ex.c ****   assert_param(IS_DAC_TRIGGER(sConfig->DAC_Trigger));
 777:Drivers/STM32F3xx_HAL_Driver/Src/stm32f3xx_hal_dac_ex.c **** 
 778:Drivers/STM32F3xx_HAL_Driver/Src/stm32f3xx_hal_dac_ex.c **** #if defined(STM32F303x8) || defined(STM32F334x8) || defined(STM32F328xx)
 779:Drivers/STM32F3xx_HAL_Driver/Src/stm32f3xx_hal_dac_ex.c ****   if ((hdac->Instance == DAC1) && (Channel == DAC_CHANNEL_1)) 
 780:Drivers/STM32F3xx_HAL_Driver/Src/stm32f3xx_hal_dac_ex.c ****   {
 781:Drivers/STM32F3xx_HAL_Driver/Src/stm32f3xx_hal_dac_ex.c ****     /* Output Buffer (BOFF1) control */
 782:Drivers/STM32F3xx_HAL_Driver/Src/stm32f3xx_hal_dac_ex.c ****     assert_param(IS_DAC_OUTPUT_BUFFER_STATE(sConfig->DAC_OutputBuffer));    
 783:Drivers/STM32F3xx_HAL_Driver/Src/stm32f3xx_hal_dac_ex.c ****   }
 784:Drivers/STM32F3xx_HAL_Driver/Src/stm32f3xx_hal_dac_ex.c ****   else /* DAC1 channel 2U & DAC2 channel 1U */
 785:Drivers/STM32F3xx_HAL_Driver/Src/stm32f3xx_hal_dac_ex.c ****   {
 786:Drivers/STM32F3xx_HAL_Driver/Src/stm32f3xx_hal_dac_ex.c ****     /* Output Switch (OUTEN) control */
 787:Drivers/STM32F3xx_HAL_Driver/Src/stm32f3xx_hal_dac_ex.c ****     assert_param(IS_DAC_OUTPUT_SWITCH_STATE(sConfig->DAC_OutputSwitch));    
 788:Drivers/STM32F3xx_HAL_Driver/Src/stm32f3xx_hal_dac_ex.c ****   }    
 789:Drivers/STM32F3xx_HAL_Driver/Src/stm32f3xx_hal_dac_ex.c **** #else
 790:Drivers/STM32F3xx_HAL_Driver/Src/stm32f3xx_hal_dac_ex.c ****   assert_param(IS_DAC_OUTPUT_BUFFER_STATE(sConfig->DAC_OutputBuffer));    
 791:Drivers/STM32F3xx_HAL_Driver/Src/stm32f3xx_hal_dac_ex.c **** #endif /* STM32F303x8 || STM32F334x8 || STM32F328xx || */
 792:Drivers/STM32F3xx_HAL_Driver/Src/stm32f3xx_hal_dac_ex.c ****   assert_param(IS_DAC_CHANNEL(Channel));   
 793:Drivers/STM32F3xx_HAL_Driver/Src/stm32f3xx_hal_dac_ex.c ****  
 794:Drivers/STM32F3xx_HAL_Driver/Src/stm32f3xx_hal_dac_ex.c ****   /* Process locked */
 795:Drivers/STM32F3xx_HAL_Driver/Src/stm32f3xx_hal_dac_ex.c ****   __HAL_LOCK(hdac);
 796:Drivers/STM32F3xx_HAL_Driver/Src/stm32f3xx_hal_dac_ex.c ****   
 797:Drivers/STM32F3xx_HAL_Driver/Src/stm32f3xx_hal_dac_ex.c ****   /* Change DAC state */
 798:Drivers/STM32F3xx_HAL_Driver/Src/stm32f3xx_hal_dac_ex.c ****   hdac->State = HAL_DAC_STATE_BUSY;
 799:Drivers/STM32F3xx_HAL_Driver/Src/stm32f3xx_hal_dac_ex.c ****   
 800:Drivers/STM32F3xx_HAL_Driver/Src/stm32f3xx_hal_dac_ex.c ****   /* Get the DAC CR value */
 801:Drivers/STM32F3xx_HAL_Driver/Src/stm32f3xx_hal_dac_ex.c ****   tmpreg1 = hdac->Instance->CR;
 802:Drivers/STM32F3xx_HAL_Driver/Src/stm32f3xx_hal_dac_ex.c ****   
 803:Drivers/STM32F3xx_HAL_Driver/Src/stm32f3xx_hal_dac_ex.c ****   /* Clear BOFFx-OUTENx, TENx, TSELx, WAVEx and MAMPx bits */
 804:Drivers/STM32F3xx_HAL_Driver/Src/stm32f3xx_hal_dac_ex.c ****   
 805:Drivers/STM32F3xx_HAL_Driver/Src/stm32f3xx_hal_dac_ex.c ****   /* Configure for the selected DAC channel: buffer output or switch output, trigger */
 806:Drivers/STM32F3xx_HAL_Driver/Src/stm32f3xx_hal_dac_ex.c ****   /* Set TSELx and TENx bits according to DAC_Trigger value */
 807:Drivers/STM32F3xx_HAL_Driver/Src/stm32f3xx_hal_dac_ex.c ****   /* Set BOFFx bit according to DAC_OutputBuffer value OR */   
 808:Drivers/STM32F3xx_HAL_Driver/Src/stm32f3xx_hal_dac_ex.c ****   /* Set OUTEN bit according to DAC_OutputSwitch value */   
 809:Drivers/STM32F3xx_HAL_Driver/Src/stm32f3xx_hal_dac_ex.c **** #if defined(STM32F303x8) || defined(STM32F334x8) || defined(STM32F328xx)
 810:Drivers/STM32F3xx_HAL_Driver/Src/stm32f3xx_hal_dac_ex.c ****   if ((hdac->Instance == DAC1) && (Channel == DAC_CHANNEL_1)) 
 811:Drivers/STM32F3xx_HAL_Driver/Src/stm32f3xx_hal_dac_ex.c ****   {
 812:Drivers/STM32F3xx_HAL_Driver/Src/stm32f3xx_hal_dac_ex.c ****     /* Output Buffer (BOFF1) control */
 813:Drivers/STM32F3xx_HAL_Driver/Src/stm32f3xx_hal_dac_ex.c ****     tmpreg1 &= ~(((uint32_t)(DAC_CR_MAMP1 | DAC_CR_WAVE1 | DAC_CR_TSEL1 | DAC_CR_TEN1 | DAC_CR_BOFF
 814:Drivers/STM32F3xx_HAL_Driver/Src/stm32f3xx_hal_dac_ex.c ****     tmpreg2 = (sConfig->DAC_Trigger | sConfig->DAC_OutputBuffer);    
 815:Drivers/STM32F3xx_HAL_Driver/Src/stm32f3xx_hal_dac_ex.c ****   }
 816:Drivers/STM32F3xx_HAL_Driver/Src/stm32f3xx_hal_dac_ex.c ****   else /* DAC1 channel 2U & DAC2 channel 1U */
 817:Drivers/STM32F3xx_HAL_Driver/Src/stm32f3xx_hal_dac_ex.c ****   {
 818:Drivers/STM32F3xx_HAL_Driver/Src/stm32f3xx_hal_dac_ex.c ****     /* Output Switch (OUTEN) control */
 819:Drivers/STM32F3xx_HAL_Driver/Src/stm32f3xx_hal_dac_ex.c ****     tmpreg1 &= ~(((uint32_t)(DAC_CR_MAMP1 | DAC_CR_WAVE1 | DAC_CR_TSEL1 | DAC_CR_TEN1 | DAC_CR_OUTE
 820:Drivers/STM32F3xx_HAL_Driver/Src/stm32f3xx_hal_dac_ex.c ****     tmpreg2 = (sConfig->DAC_Trigger | sConfig->DAC_OutputSwitch);    
 821:Drivers/STM32F3xx_HAL_Driver/Src/stm32f3xx_hal_dac_ex.c ****   }    
 822:Drivers/STM32F3xx_HAL_Driver/Src/stm32f3xx_hal_dac_ex.c **** #else
 823:Drivers/STM32F3xx_HAL_Driver/Src/stm32f3xx_hal_dac_ex.c ****   tmpreg1 &= ~(((uint32_t)(DAC_CR_MAMP1 | DAC_CR_WAVE1 | DAC_CR_TSEL1 | DAC_CR_TEN1 | DAC_CR_BOFF1)
 824:Drivers/STM32F3xx_HAL_Driver/Src/stm32f3xx_hal_dac_ex.c ****   tmpreg2 = (sConfig->DAC_Trigger | sConfig->DAC_OutputBuffer);
 825:Drivers/STM32F3xx_HAL_Driver/Src/stm32f3xx_hal_dac_ex.c **** #endif  /* STM32F303x8 || STM32F334x8 || STM32F328xx || */
 826:Drivers/STM32F3xx_HAL_Driver/Src/stm32f3xx_hal_dac_ex.c ****   
 827:Drivers/STM32F3xx_HAL_Driver/Src/stm32f3xx_hal_dac_ex.c ****   /* Calculate CR register value depending on DAC_Channel */
 828:Drivers/STM32F3xx_HAL_Driver/Src/stm32f3xx_hal_dac_ex.c ****   tmpreg1 |= tmpreg2 << Channel;
ARM GAS  /var/folders/jw/jcj5j9_530958b2rm5vp9wn00000gn/T//ccXbzXq2.s 			page 16


 829:Drivers/STM32F3xx_HAL_Driver/Src/stm32f3xx_hal_dac_ex.c ****   /* Write to DAC CR */
 830:Drivers/STM32F3xx_HAL_Driver/Src/stm32f3xx_hal_dac_ex.c ****   hdac->Instance->CR = tmpreg1;
 831:Drivers/STM32F3xx_HAL_Driver/Src/stm32f3xx_hal_dac_ex.c ****   
 832:Drivers/STM32F3xx_HAL_Driver/Src/stm32f3xx_hal_dac_ex.c ****   /* Disable wave generation */
 833:Drivers/STM32F3xx_HAL_Driver/Src/stm32f3xx_hal_dac_ex.c ****   hdac->Instance->CR &= ~(DAC_CR_WAVE1 << Channel);
 834:Drivers/STM32F3xx_HAL_Driver/Src/stm32f3xx_hal_dac_ex.c **** 
 835:Drivers/STM32F3xx_HAL_Driver/Src/stm32f3xx_hal_dac_ex.c ****   /* Change DAC state */
 836:Drivers/STM32F3xx_HAL_Driver/Src/stm32f3xx_hal_dac_ex.c ****   hdac->State = HAL_DAC_STATE_READY;
 837:Drivers/STM32F3xx_HAL_Driver/Src/stm32f3xx_hal_dac_ex.c ****   
 838:Drivers/STM32F3xx_HAL_Driver/Src/stm32f3xx_hal_dac_ex.c ****   /* Process unlocked */
 839:Drivers/STM32F3xx_HAL_Driver/Src/stm32f3xx_hal_dac_ex.c ****   __HAL_UNLOCK(hdac);
 840:Drivers/STM32F3xx_HAL_Driver/Src/stm32f3xx_hal_dac_ex.c ****   
 841:Drivers/STM32F3xx_HAL_Driver/Src/stm32f3xx_hal_dac_ex.c ****   /* Return function status */
 842:Drivers/STM32F3xx_HAL_Driver/Src/stm32f3xx_hal_dac_ex.c ****   return HAL_OK;
 843:Drivers/STM32F3xx_HAL_Driver/Src/stm32f3xx_hal_dac_ex.c **** }
 844:Drivers/STM32F3xx_HAL_Driver/Src/stm32f3xx_hal_dac_ex.c **** 
 845:Drivers/STM32F3xx_HAL_Driver/Src/stm32f3xx_hal_dac_ex.c **** /**
 846:Drivers/STM32F3xx_HAL_Driver/Src/stm32f3xx_hal_dac_ex.c ****   * @brief  Enables or disables the selected DAC channel wave generation.
 847:Drivers/STM32F3xx_HAL_Driver/Src/stm32f3xx_hal_dac_ex.c ****   * @param  hdac pointer to a DAC_HandleTypeDef structure that contains
 848:Drivers/STM32F3xx_HAL_Driver/Src/stm32f3xx_hal_dac_ex.c ****   *         the configuration information for the specified DAC.
 849:Drivers/STM32F3xx_HAL_Driver/Src/stm32f3xx_hal_dac_ex.c ****   * @param  Channel The selected DAC channel.
 850:Drivers/STM32F3xx_HAL_Driver/Src/stm32f3xx_hal_dac_ex.c ****   *          This parameter can be one of the following values:
 851:Drivers/STM32F3xx_HAL_Driver/Src/stm32f3xx_hal_dac_ex.c ****   *            @arg DAC_CHANNEL_1: DAC1 Channel1 selected
 852:Drivers/STM32F3xx_HAL_Driver/Src/stm32f3xx_hal_dac_ex.c ****   *            @arg DAC_CHANNEL_2: DAC1 Channel2 selected
 853:Drivers/STM32F3xx_HAL_Driver/Src/stm32f3xx_hal_dac_ex.c ****   * @param  Amplitude Select max triangle amplitude.
 854:Drivers/STM32F3xx_HAL_Driver/Src/stm32f3xx_hal_dac_ex.c ****   *          This parameter can be one of the following values:
 855:Drivers/STM32F3xx_HAL_Driver/Src/stm32f3xx_hal_dac_ex.c ****   *            @arg DAC_TRIANGLEAMPLITUDE_1: Select max triangle amplitude of 1
 856:Drivers/STM32F3xx_HAL_Driver/Src/stm32f3xx_hal_dac_ex.c ****   *            @arg DAC_TRIANGLEAMPLITUDE_3: Select max triangle amplitude of 3
 857:Drivers/STM32F3xx_HAL_Driver/Src/stm32f3xx_hal_dac_ex.c ****   *            @arg DAC_TRIANGLEAMPLITUDE_7: Select max triangle amplitude of 7
 858:Drivers/STM32F3xx_HAL_Driver/Src/stm32f3xx_hal_dac_ex.c ****   *            @arg DAC_TRIANGLEAMPLITUDE_15: Select max triangle amplitude of 15
 859:Drivers/STM32F3xx_HAL_Driver/Src/stm32f3xx_hal_dac_ex.c ****   *            @arg DAC_TRIANGLEAMPLITUDE_31: Select max triangle amplitude of 31
 860:Drivers/STM32F3xx_HAL_Driver/Src/stm32f3xx_hal_dac_ex.c ****   *            @arg DAC_TRIANGLEAMPLITUDE_63: Select max triangle amplitude of 63
 861:Drivers/STM32F3xx_HAL_Driver/Src/stm32f3xx_hal_dac_ex.c ****   *            @arg DAC_TRIANGLEAMPLITUDE_127: Select max triangle amplitude of 127
 862:Drivers/STM32F3xx_HAL_Driver/Src/stm32f3xx_hal_dac_ex.c ****   *            @arg DAC_TRIANGLEAMPLITUDE_255: Select max triangle amplitude of 255
 863:Drivers/STM32F3xx_HAL_Driver/Src/stm32f3xx_hal_dac_ex.c ****   *            @arg DAC_TRIANGLEAMPLITUDE_511: Select max triangle amplitude of 511
 864:Drivers/STM32F3xx_HAL_Driver/Src/stm32f3xx_hal_dac_ex.c ****   *            @arg DAC_TRIANGLEAMPLITUDE_1023: Select max triangle amplitude of 1023
 865:Drivers/STM32F3xx_HAL_Driver/Src/stm32f3xx_hal_dac_ex.c ****   *            @arg DAC_TRIANGLEAMPLITUDE_2047: Select max triangle amplitude of 2047
 866:Drivers/STM32F3xx_HAL_Driver/Src/stm32f3xx_hal_dac_ex.c ****   *            @arg DAC_TRIANGLEAMPLITUDE_4095: Select max triangle amplitude of 4095
 867:Drivers/STM32F3xx_HAL_Driver/Src/stm32f3xx_hal_dac_ex.c ****   * @note   Wave generation is not available in DAC2.
 868:Drivers/STM32F3xx_HAL_Driver/Src/stm32f3xx_hal_dac_ex.c ****   * @retval HAL status
 869:Drivers/STM32F3xx_HAL_Driver/Src/stm32f3xx_hal_dac_ex.c ****   */
 870:Drivers/STM32F3xx_HAL_Driver/Src/stm32f3xx_hal_dac_ex.c **** HAL_StatusTypeDef HAL_DACEx_TriangleWaveGenerate(DAC_HandleTypeDef* hdac, uint32_t Channel, uint32_
 871:Drivers/STM32F3xx_HAL_Driver/Src/stm32f3xx_hal_dac_ex.c **** {
 872:Drivers/STM32F3xx_HAL_Driver/Src/stm32f3xx_hal_dac_ex.c ****   /* Check the parameters */
 873:Drivers/STM32F3xx_HAL_Driver/Src/stm32f3xx_hal_dac_ex.c ****   assert_param(IS_DAC_CHANNEL(Channel));
 874:Drivers/STM32F3xx_HAL_Driver/Src/stm32f3xx_hal_dac_ex.c ****   assert_param(IS_DAC_LFSR_UNMASK_TRIANGLE_AMPLITUDE(Amplitude));
 875:Drivers/STM32F3xx_HAL_Driver/Src/stm32f3xx_hal_dac_ex.c **** 
 876:Drivers/STM32F3xx_HAL_Driver/Src/stm32f3xx_hal_dac_ex.c ****   /* Process locked */
 877:Drivers/STM32F3xx_HAL_Driver/Src/stm32f3xx_hal_dac_ex.c ****   __HAL_LOCK(hdac);
 878:Drivers/STM32F3xx_HAL_Driver/Src/stm32f3xx_hal_dac_ex.c **** 
 879:Drivers/STM32F3xx_HAL_Driver/Src/stm32f3xx_hal_dac_ex.c ****   /* Change DAC state */
 880:Drivers/STM32F3xx_HAL_Driver/Src/stm32f3xx_hal_dac_ex.c ****   hdac->State = HAL_DAC_STATE_BUSY;
 881:Drivers/STM32F3xx_HAL_Driver/Src/stm32f3xx_hal_dac_ex.c **** 
 882:Drivers/STM32F3xx_HAL_Driver/Src/stm32f3xx_hal_dac_ex.c ****   /* Enable the selected wave generation for the selected DAC channel */
 883:Drivers/STM32F3xx_HAL_Driver/Src/stm32f3xx_hal_dac_ex.c ****   MODIFY_REG(hdac->Instance->CR, ((DAC_CR_WAVE1)|(DAC_CR_MAMP1))<<Channel, (DAC_CR_WAVE1_1 | Amplit
 884:Drivers/STM32F3xx_HAL_Driver/Src/stm32f3xx_hal_dac_ex.c **** 
 885:Drivers/STM32F3xx_HAL_Driver/Src/stm32f3xx_hal_dac_ex.c ****   /* Change DAC state */
ARM GAS  /var/folders/jw/jcj5j9_530958b2rm5vp9wn00000gn/T//ccXbzXq2.s 			page 17


 886:Drivers/STM32F3xx_HAL_Driver/Src/stm32f3xx_hal_dac_ex.c ****   hdac->State = HAL_DAC_STATE_READY;
 887:Drivers/STM32F3xx_HAL_Driver/Src/stm32f3xx_hal_dac_ex.c **** 
 888:Drivers/STM32F3xx_HAL_Driver/Src/stm32f3xx_hal_dac_ex.c ****   /* Process unlocked */
 889:Drivers/STM32F3xx_HAL_Driver/Src/stm32f3xx_hal_dac_ex.c ****   __HAL_UNLOCK(hdac);
 890:Drivers/STM32F3xx_HAL_Driver/Src/stm32f3xx_hal_dac_ex.c **** 
 891:Drivers/STM32F3xx_HAL_Driver/Src/stm32f3xx_hal_dac_ex.c ****   /* Return function status */
 892:Drivers/STM32F3xx_HAL_Driver/Src/stm32f3xx_hal_dac_ex.c ****   return HAL_OK;
 893:Drivers/STM32F3xx_HAL_Driver/Src/stm32f3xx_hal_dac_ex.c **** }
 894:Drivers/STM32F3xx_HAL_Driver/Src/stm32f3xx_hal_dac_ex.c **** 
 895:Drivers/STM32F3xx_HAL_Driver/Src/stm32f3xx_hal_dac_ex.c **** /**
 896:Drivers/STM32F3xx_HAL_Driver/Src/stm32f3xx_hal_dac_ex.c ****   * @brief  Enables or disables the selected DAC channel wave generation.
 897:Drivers/STM32F3xx_HAL_Driver/Src/stm32f3xx_hal_dac_ex.c ****   * @param  hdac pointer to a DAC_HandleTypeDef structure that contains
 898:Drivers/STM32F3xx_HAL_Driver/Src/stm32f3xx_hal_dac_ex.c ****   *         the configuration information for the specified DAC.
 899:Drivers/STM32F3xx_HAL_Driver/Src/stm32f3xx_hal_dac_ex.c ****   * @param  Channel The selected DAC channel.
 900:Drivers/STM32F3xx_HAL_Driver/Src/stm32f3xx_hal_dac_ex.c ****   *          This parameter can be one of the following values:
 901:Drivers/STM32F3xx_HAL_Driver/Src/stm32f3xx_hal_dac_ex.c ****   *            @arg DAC_CHANNEL_1: DAC1 Channel1 selected
 902:Drivers/STM32F3xx_HAL_Driver/Src/stm32f3xx_hal_dac_ex.c ****   *            @arg DAC_CHANNEL_2: DAC1 Channel2 selected
 903:Drivers/STM32F3xx_HAL_Driver/Src/stm32f3xx_hal_dac_ex.c ****   * @param  Amplitude Unmask DAC channel LFSR for noise wave generation.
 904:Drivers/STM32F3xx_HAL_Driver/Src/stm32f3xx_hal_dac_ex.c ****   *          This parameter can be one of the following values:
 905:Drivers/STM32F3xx_HAL_Driver/Src/stm32f3xx_hal_dac_ex.c ****   *            @arg DAC_LFSRUNMASK_BIT0: Unmask DAC channel LFSR bit0 for noise wave generation
 906:Drivers/STM32F3xx_HAL_Driver/Src/stm32f3xx_hal_dac_ex.c ****   *            @arg DAC_LFSRUNMASK_BITS1_0: Unmask DAC channel LFSR bit[1:0] for noise wave generat
 907:Drivers/STM32F3xx_HAL_Driver/Src/stm32f3xx_hal_dac_ex.c ****   *            @arg DAC_LFSRUNMASK_BITS2_0: Unmask DAC channel LFSR bit[2:0] for noise wave generat
 908:Drivers/STM32F3xx_HAL_Driver/Src/stm32f3xx_hal_dac_ex.c ****   *            @arg DAC_LFSRUNMASK_BITS3_0: Unmask DAC channel LFSR bit[3:0] for noise wave generat
 909:Drivers/STM32F3xx_HAL_Driver/Src/stm32f3xx_hal_dac_ex.c ****   *            @arg DAC_LFSRUNMASK_BITS4_0: Unmask DAC channel LFSR bit[4:0] for noise wave generat
 910:Drivers/STM32F3xx_HAL_Driver/Src/stm32f3xx_hal_dac_ex.c ****   *            @arg DAC_LFSRUNMASK_BITS5_0: Unmask DAC channel LFSR bit[5:0] for noise wave generat
 911:Drivers/STM32F3xx_HAL_Driver/Src/stm32f3xx_hal_dac_ex.c ****   *            @arg DAC_LFSRUNMASK_BITS6_0: Unmask DAC channel LFSR bit[6:0] for noise wave generat
 912:Drivers/STM32F3xx_HAL_Driver/Src/stm32f3xx_hal_dac_ex.c ****   *            @arg DAC_LFSRUNMASK_BITS7_0: Unmask DAC channel LFSR bit[7:0] for noise wave generat
 913:Drivers/STM32F3xx_HAL_Driver/Src/stm32f3xx_hal_dac_ex.c ****   *            @arg DAC_LFSRUNMASK_BITS8_0: Unmask DAC channel LFSR bit[8:0] for noise wave generat
 914:Drivers/STM32F3xx_HAL_Driver/Src/stm32f3xx_hal_dac_ex.c ****   *            @arg DAC_LFSRUNMASK_BITS9_0: Unmask DAC channel LFSR bit[9:0] for noise wave generat
 915:Drivers/STM32F3xx_HAL_Driver/Src/stm32f3xx_hal_dac_ex.c ****   *            @arg DAC_LFSRUNMASK_BITS10_0: Unmask DAC channel LFSR bit[10:0] for noise wave gener
 916:Drivers/STM32F3xx_HAL_Driver/Src/stm32f3xx_hal_dac_ex.c ****   *            @arg DAC_LFSRUNMASK_BITS11_0: Unmask DAC channel LFSR bit[11:0] for noise wave gener
 917:Drivers/STM32F3xx_HAL_Driver/Src/stm32f3xx_hal_dac_ex.c ****   * @retval HAL status
 918:Drivers/STM32F3xx_HAL_Driver/Src/stm32f3xx_hal_dac_ex.c ****   */
 919:Drivers/STM32F3xx_HAL_Driver/Src/stm32f3xx_hal_dac_ex.c **** HAL_StatusTypeDef HAL_DACEx_NoiseWaveGenerate(DAC_HandleTypeDef* hdac, uint32_t Channel, uint32_t A
 920:Drivers/STM32F3xx_HAL_Driver/Src/stm32f3xx_hal_dac_ex.c **** {
 921:Drivers/STM32F3xx_HAL_Driver/Src/stm32f3xx_hal_dac_ex.c ****   /* Check the parameters */
 922:Drivers/STM32F3xx_HAL_Driver/Src/stm32f3xx_hal_dac_ex.c ****   assert_param(IS_DAC_CHANNEL(Channel));
 923:Drivers/STM32F3xx_HAL_Driver/Src/stm32f3xx_hal_dac_ex.c ****   assert_param(IS_DAC_LFSR_UNMASK_TRIANGLE_AMPLITUDE(Amplitude));
 924:Drivers/STM32F3xx_HAL_Driver/Src/stm32f3xx_hal_dac_ex.c **** 
 925:Drivers/STM32F3xx_HAL_Driver/Src/stm32f3xx_hal_dac_ex.c ****   /* Process locked */
 926:Drivers/STM32F3xx_HAL_Driver/Src/stm32f3xx_hal_dac_ex.c ****   __HAL_LOCK(hdac);
 927:Drivers/STM32F3xx_HAL_Driver/Src/stm32f3xx_hal_dac_ex.c **** 
 928:Drivers/STM32F3xx_HAL_Driver/Src/stm32f3xx_hal_dac_ex.c ****   /* Change DAC state */
 929:Drivers/STM32F3xx_HAL_Driver/Src/stm32f3xx_hal_dac_ex.c ****   hdac->State = HAL_DAC_STATE_BUSY;
 930:Drivers/STM32F3xx_HAL_Driver/Src/stm32f3xx_hal_dac_ex.c **** 
 931:Drivers/STM32F3xx_HAL_Driver/Src/stm32f3xx_hal_dac_ex.c ****   /* Enable the selected wave generation for the selected DAC channel */
 932:Drivers/STM32F3xx_HAL_Driver/Src/stm32f3xx_hal_dac_ex.c ****   MODIFY_REG(hdac->Instance->CR, ((DAC_CR_WAVE1)|(DAC_CR_MAMP1))<<Channel, (DAC_CR_WAVE1_0 | Amplit
 933:Drivers/STM32F3xx_HAL_Driver/Src/stm32f3xx_hal_dac_ex.c ****   
 934:Drivers/STM32F3xx_HAL_Driver/Src/stm32f3xx_hal_dac_ex.c ****   /* Change DAC state */
 935:Drivers/STM32F3xx_HAL_Driver/Src/stm32f3xx_hal_dac_ex.c ****   hdac->State = HAL_DAC_STATE_READY;
 936:Drivers/STM32F3xx_HAL_Driver/Src/stm32f3xx_hal_dac_ex.c **** 
 937:Drivers/STM32F3xx_HAL_Driver/Src/stm32f3xx_hal_dac_ex.c ****   /* Process unlocked */
 938:Drivers/STM32F3xx_HAL_Driver/Src/stm32f3xx_hal_dac_ex.c ****   __HAL_UNLOCK(hdac);
 939:Drivers/STM32F3xx_HAL_Driver/Src/stm32f3xx_hal_dac_ex.c **** 
 940:Drivers/STM32F3xx_HAL_Driver/Src/stm32f3xx_hal_dac_ex.c ****   /* Return function status */
 941:Drivers/STM32F3xx_HAL_Driver/Src/stm32f3xx_hal_dac_ex.c ****   return HAL_OK;
 942:Drivers/STM32F3xx_HAL_Driver/Src/stm32f3xx_hal_dac_ex.c **** }
ARM GAS  /var/folders/jw/jcj5j9_530958b2rm5vp9wn00000gn/T//ccXbzXq2.s 			page 18


 943:Drivers/STM32F3xx_HAL_Driver/Src/stm32f3xx_hal_dac_ex.c **** 
 944:Drivers/STM32F3xx_HAL_Driver/Src/stm32f3xx_hal_dac_ex.c **** #if  defined(STM32F303xE) || defined(STM32F398xx)                         || \
 945:Drivers/STM32F3xx_HAL_Driver/Src/stm32f3xx_hal_dac_ex.c ****      defined(STM32F303xC) || defined(STM32F358xx)                         || \
 946:Drivers/STM32F3xx_HAL_Driver/Src/stm32f3xx_hal_dac_ex.c ****      defined(STM32F303x8) || defined(STM32F334x8) || defined(STM32F328xx) || \
 947:Drivers/STM32F3xx_HAL_Driver/Src/stm32f3xx_hal_dac_ex.c ****      defined(STM32F373xC) || defined(STM32F378xx)
 948:Drivers/STM32F3xx_HAL_Driver/Src/stm32f3xx_hal_dac_ex.c **** /* DAC channel 2 is available on top of DAC channel 1U */
 949:Drivers/STM32F3xx_HAL_Driver/Src/stm32f3xx_hal_dac_ex.c **** /**
 950:Drivers/STM32F3xx_HAL_Driver/Src/stm32f3xx_hal_dac_ex.c ****   * @brief  Conversion complete callback in non blocking mode for Channel2
 951:Drivers/STM32F3xx_HAL_Driver/Src/stm32f3xx_hal_dac_ex.c ****   * @param  hdac pointer to a DAC_HandleTypeDef structure that contains
 952:Drivers/STM32F3xx_HAL_Driver/Src/stm32f3xx_hal_dac_ex.c ****   *         the configuration information for the specified DAC.
 953:Drivers/STM32F3xx_HAL_Driver/Src/stm32f3xx_hal_dac_ex.c ****   * @retval None
 954:Drivers/STM32F3xx_HAL_Driver/Src/stm32f3xx_hal_dac_ex.c ****   */
 955:Drivers/STM32F3xx_HAL_Driver/Src/stm32f3xx_hal_dac_ex.c **** __weak void HAL_DACEx_ConvCpltCallbackCh2(DAC_HandleTypeDef* hdac)
 956:Drivers/STM32F3xx_HAL_Driver/Src/stm32f3xx_hal_dac_ex.c **** {
 957:Drivers/STM32F3xx_HAL_Driver/Src/stm32f3xx_hal_dac_ex.c ****   /* Prevent unused argument(s) compilation warning */
 958:Drivers/STM32F3xx_HAL_Driver/Src/stm32f3xx_hal_dac_ex.c ****   UNUSED(hdac);
 959:Drivers/STM32F3xx_HAL_Driver/Src/stm32f3xx_hal_dac_ex.c **** 
 960:Drivers/STM32F3xx_HAL_Driver/Src/stm32f3xx_hal_dac_ex.c ****   /* NOTE : This function Should not be modified, when the callback is needed,
 961:Drivers/STM32F3xx_HAL_Driver/Src/stm32f3xx_hal_dac_ex.c ****             the HAL_DACEx_ConvCpltCallbackCh2 could be implemented in the user file
 962:Drivers/STM32F3xx_HAL_Driver/Src/stm32f3xx_hal_dac_ex.c ****    */
 963:Drivers/STM32F3xx_HAL_Driver/Src/stm32f3xx_hal_dac_ex.c **** }
 964:Drivers/STM32F3xx_HAL_Driver/Src/stm32f3xx_hal_dac_ex.c **** 
 965:Drivers/STM32F3xx_HAL_Driver/Src/stm32f3xx_hal_dac_ex.c **** /**
 966:Drivers/STM32F3xx_HAL_Driver/Src/stm32f3xx_hal_dac_ex.c ****   * @brief  Conversion half DMA transfer callback in non blocking mode for Channel2
 967:Drivers/STM32F3xx_HAL_Driver/Src/stm32f3xx_hal_dac_ex.c ****   * @param  hdac pointer to a DAC_HandleTypeDef structure that contains
 968:Drivers/STM32F3xx_HAL_Driver/Src/stm32f3xx_hal_dac_ex.c ****   *         the configuration information for the specified DAC.
 969:Drivers/STM32F3xx_HAL_Driver/Src/stm32f3xx_hal_dac_ex.c ****   * @retval None
 970:Drivers/STM32F3xx_HAL_Driver/Src/stm32f3xx_hal_dac_ex.c ****   */
 971:Drivers/STM32F3xx_HAL_Driver/Src/stm32f3xx_hal_dac_ex.c **** __weak void HAL_DACEx_ConvHalfCpltCallbackCh2(DAC_HandleTypeDef* hdac)
 972:Drivers/STM32F3xx_HAL_Driver/Src/stm32f3xx_hal_dac_ex.c **** {
 973:Drivers/STM32F3xx_HAL_Driver/Src/stm32f3xx_hal_dac_ex.c ****   /* Prevent unused argument(s) compilation warning */
 974:Drivers/STM32F3xx_HAL_Driver/Src/stm32f3xx_hal_dac_ex.c ****   UNUSED(hdac);
 975:Drivers/STM32F3xx_HAL_Driver/Src/stm32f3xx_hal_dac_ex.c **** 
 976:Drivers/STM32F3xx_HAL_Driver/Src/stm32f3xx_hal_dac_ex.c ****   /* NOTE : This function Should not be modified, when the callback is needed,
 977:Drivers/STM32F3xx_HAL_Driver/Src/stm32f3xx_hal_dac_ex.c ****             the HAL_DACEx_ConvHalfCpltCallbackCh2 could be implemented in the user file
 978:Drivers/STM32F3xx_HAL_Driver/Src/stm32f3xx_hal_dac_ex.c ****    */
 979:Drivers/STM32F3xx_HAL_Driver/Src/stm32f3xx_hal_dac_ex.c **** }
 980:Drivers/STM32F3xx_HAL_Driver/Src/stm32f3xx_hal_dac_ex.c **** 
 981:Drivers/STM32F3xx_HAL_Driver/Src/stm32f3xx_hal_dac_ex.c **** /**
 982:Drivers/STM32F3xx_HAL_Driver/Src/stm32f3xx_hal_dac_ex.c ****   * @brief  Error DAC callback for Channel2.
 983:Drivers/STM32F3xx_HAL_Driver/Src/stm32f3xx_hal_dac_ex.c ****   * @param  hdac pointer to a DAC_HandleTypeDef structure that contains
 984:Drivers/STM32F3xx_HAL_Driver/Src/stm32f3xx_hal_dac_ex.c ****   *         the configuration information for the specified DAC.
 985:Drivers/STM32F3xx_HAL_Driver/Src/stm32f3xx_hal_dac_ex.c ****   * @retval None
 986:Drivers/STM32F3xx_HAL_Driver/Src/stm32f3xx_hal_dac_ex.c ****   */
 987:Drivers/STM32F3xx_HAL_Driver/Src/stm32f3xx_hal_dac_ex.c **** __weak void HAL_DACEx_ErrorCallbackCh2(DAC_HandleTypeDef *hdac)
 988:Drivers/STM32F3xx_HAL_Driver/Src/stm32f3xx_hal_dac_ex.c **** {
 989:Drivers/STM32F3xx_HAL_Driver/Src/stm32f3xx_hal_dac_ex.c ****   /* Prevent unused argument(s) compilation warning */
 990:Drivers/STM32F3xx_HAL_Driver/Src/stm32f3xx_hal_dac_ex.c ****   UNUSED(hdac);
 991:Drivers/STM32F3xx_HAL_Driver/Src/stm32f3xx_hal_dac_ex.c **** 
 992:Drivers/STM32F3xx_HAL_Driver/Src/stm32f3xx_hal_dac_ex.c ****   /* NOTE : This function Should not be modified, when the callback is needed,
 993:Drivers/STM32F3xx_HAL_Driver/Src/stm32f3xx_hal_dac_ex.c ****             the HAL_DACEx_ErrorCallbackCh2 could be implemented in the user file
 994:Drivers/STM32F3xx_HAL_Driver/Src/stm32f3xx_hal_dac_ex.c ****    */
 995:Drivers/STM32F3xx_HAL_Driver/Src/stm32f3xx_hal_dac_ex.c **** }
 996:Drivers/STM32F3xx_HAL_Driver/Src/stm32f3xx_hal_dac_ex.c **** 
 997:Drivers/STM32F3xx_HAL_Driver/Src/stm32f3xx_hal_dac_ex.c **** /**
 998:Drivers/STM32F3xx_HAL_Driver/Src/stm32f3xx_hal_dac_ex.c ****   * @brief  DMA underrun DAC callback for channel2.
 999:Drivers/STM32F3xx_HAL_Driver/Src/stm32f3xx_hal_dac_ex.c ****   * @param  hdac pointer to a DAC_HandleTypeDef structure that contains
ARM GAS  /var/folders/jw/jcj5j9_530958b2rm5vp9wn00000gn/T//ccXbzXq2.s 			page 19


1000:Drivers/STM32F3xx_HAL_Driver/Src/stm32f3xx_hal_dac_ex.c ****   *         the configuration information for the specified DAC.
1001:Drivers/STM32F3xx_HAL_Driver/Src/stm32f3xx_hal_dac_ex.c ****   * @retval None
1002:Drivers/STM32F3xx_HAL_Driver/Src/stm32f3xx_hal_dac_ex.c ****   */
1003:Drivers/STM32F3xx_HAL_Driver/Src/stm32f3xx_hal_dac_ex.c **** __weak void HAL_DACEx_DMAUnderrunCallbackCh2(DAC_HandleTypeDef *hdac)
1004:Drivers/STM32F3xx_HAL_Driver/Src/stm32f3xx_hal_dac_ex.c **** {
1005:Drivers/STM32F3xx_HAL_Driver/Src/stm32f3xx_hal_dac_ex.c ****   /* Prevent unused argument(s) compilation warning */
1006:Drivers/STM32F3xx_HAL_Driver/Src/stm32f3xx_hal_dac_ex.c ****   UNUSED(hdac);
1007:Drivers/STM32F3xx_HAL_Driver/Src/stm32f3xx_hal_dac_ex.c **** 
1008:Drivers/STM32F3xx_HAL_Driver/Src/stm32f3xx_hal_dac_ex.c ****   /* NOTE : This function Should not be modified, when the callback is needed,
1009:Drivers/STM32F3xx_HAL_Driver/Src/stm32f3xx_hal_dac_ex.c ****             the HAL_DACEx_DMAUnderrunCallbackCh2 could be implemented in the user file
1010:Drivers/STM32F3xx_HAL_Driver/Src/stm32f3xx_hal_dac_ex.c ****    */
1011:Drivers/STM32F3xx_HAL_Driver/Src/stm32f3xx_hal_dac_ex.c **** }
1012:Drivers/STM32F3xx_HAL_Driver/Src/stm32f3xx_hal_dac_ex.c **** #endif /* STM32F303xE || STM32F398xx                || */
1013:Drivers/STM32F3xx_HAL_Driver/Src/stm32f3xx_hal_dac_ex.c ****        /* STM32F303xC || STM32F358xx                || */
1014:Drivers/STM32F3xx_HAL_Driver/Src/stm32f3xx_hal_dac_ex.c ****        /* STM32F303x8 || STM32F334x8 || STM32F328xx || */
1015:Drivers/STM32F3xx_HAL_Driver/Src/stm32f3xx_hal_dac_ex.c ****        /* STM32F373xC || STM32F378xx                   */
1016:Drivers/STM32F3xx_HAL_Driver/Src/stm32f3xx_hal_dac_ex.c **** /**
1017:Drivers/STM32F3xx_HAL_Driver/Src/stm32f3xx_hal_dac_ex.c ****   * @}
1018:Drivers/STM32F3xx_HAL_Driver/Src/stm32f3xx_hal_dac_ex.c ****   */
1019:Drivers/STM32F3xx_HAL_Driver/Src/stm32f3xx_hal_dac_ex.c **** 
1020:Drivers/STM32F3xx_HAL_Driver/Src/stm32f3xx_hal_dac_ex.c **** /**
1021:Drivers/STM32F3xx_HAL_Driver/Src/stm32f3xx_hal_dac_ex.c ****   * @}
1022:Drivers/STM32F3xx_HAL_Driver/Src/stm32f3xx_hal_dac_ex.c ****   */
1023:Drivers/STM32F3xx_HAL_Driver/Src/stm32f3xx_hal_dac_ex.c **** 
1024:Drivers/STM32F3xx_HAL_Driver/Src/stm32f3xx_hal_dac_ex.c **** /** @addtogroup DACEx_Private_Functions
1025:Drivers/STM32F3xx_HAL_Driver/Src/stm32f3xx_hal_dac_ex.c ****   * @{
1026:Drivers/STM32F3xx_HAL_Driver/Src/stm32f3xx_hal_dac_ex.c ****   */
1027:Drivers/STM32F3xx_HAL_Driver/Src/stm32f3xx_hal_dac_ex.c ****   
1028:Drivers/STM32F3xx_HAL_Driver/Src/stm32f3xx_hal_dac_ex.c **** /**
1029:Drivers/STM32F3xx_HAL_Driver/Src/stm32f3xx_hal_dac_ex.c ****   * @brief  DMA conversion complete callback. 
1030:Drivers/STM32F3xx_HAL_Driver/Src/stm32f3xx_hal_dac_ex.c ****   * @param  hdma pointer to DMA handle.
1031:Drivers/STM32F3xx_HAL_Driver/Src/stm32f3xx_hal_dac_ex.c ****   * @retval None
1032:Drivers/STM32F3xx_HAL_Driver/Src/stm32f3xx_hal_dac_ex.c ****   */
1033:Drivers/STM32F3xx_HAL_Driver/Src/stm32f3xx_hal_dac_ex.c **** static void DAC_DMAConvCpltCh1(DMA_HandleTypeDef *hdma)   
1034:Drivers/STM32F3xx_HAL_Driver/Src/stm32f3xx_hal_dac_ex.c **** {
1035:Drivers/STM32F3xx_HAL_Driver/Src/stm32f3xx_hal_dac_ex.c ****   DAC_HandleTypeDef* hdac = ( DAC_HandleTypeDef* )((DMA_HandleTypeDef* )hdma)->Parent;
1036:Drivers/STM32F3xx_HAL_Driver/Src/stm32f3xx_hal_dac_ex.c ****   
1037:Drivers/STM32F3xx_HAL_Driver/Src/stm32f3xx_hal_dac_ex.c **** #if (USE_HAL_DAC_REGISTER_CALLBACKS == 1)
1038:Drivers/STM32F3xx_HAL_Driver/Src/stm32f3xx_hal_dac_ex.c ****   hdac->ConvCpltCallbackCh1(hdac);
1039:Drivers/STM32F3xx_HAL_Driver/Src/stm32f3xx_hal_dac_ex.c **** #else
1040:Drivers/STM32F3xx_HAL_Driver/Src/stm32f3xx_hal_dac_ex.c ****   HAL_DAC_ConvCpltCallbackCh1(hdac); 
1041:Drivers/STM32F3xx_HAL_Driver/Src/stm32f3xx_hal_dac_ex.c **** #endif 
1042:Drivers/STM32F3xx_HAL_Driver/Src/stm32f3xx_hal_dac_ex.c ****   
1043:Drivers/STM32F3xx_HAL_Driver/Src/stm32f3xx_hal_dac_ex.c ****   hdac->State= HAL_DAC_STATE_READY;
1044:Drivers/STM32F3xx_HAL_Driver/Src/stm32f3xx_hal_dac_ex.c **** }
1045:Drivers/STM32F3xx_HAL_Driver/Src/stm32f3xx_hal_dac_ex.c **** 
1046:Drivers/STM32F3xx_HAL_Driver/Src/stm32f3xx_hal_dac_ex.c **** /**
1047:Drivers/STM32F3xx_HAL_Driver/Src/stm32f3xx_hal_dac_ex.c ****   * @brief  DMA half transfer complete callback. 
1048:Drivers/STM32F3xx_HAL_Driver/Src/stm32f3xx_hal_dac_ex.c ****   * @param  hdma pointer to DMA handle.
1049:Drivers/STM32F3xx_HAL_Driver/Src/stm32f3xx_hal_dac_ex.c ****   * @retval None
1050:Drivers/STM32F3xx_HAL_Driver/Src/stm32f3xx_hal_dac_ex.c ****   */
1051:Drivers/STM32F3xx_HAL_Driver/Src/stm32f3xx_hal_dac_ex.c **** static void DAC_DMAHalfConvCpltCh1(DMA_HandleTypeDef *hdma)   
1052:Drivers/STM32F3xx_HAL_Driver/Src/stm32f3xx_hal_dac_ex.c **** {
1053:Drivers/STM32F3xx_HAL_Driver/Src/stm32f3xx_hal_dac_ex.c ****     DAC_HandleTypeDef* hdac = ( DAC_HandleTypeDef* )((DMA_HandleTypeDef* )hdma)->Parent;
1054:Drivers/STM32F3xx_HAL_Driver/Src/stm32f3xx_hal_dac_ex.c **** 
1055:Drivers/STM32F3xx_HAL_Driver/Src/stm32f3xx_hal_dac_ex.c ****     /* Conversion complete callback */
1056:Drivers/STM32F3xx_HAL_Driver/Src/stm32f3xx_hal_dac_ex.c **** #if (USE_HAL_DAC_REGISTER_CALLBACKS == 1)
ARM GAS  /var/folders/jw/jcj5j9_530958b2rm5vp9wn00000gn/T//ccXbzXq2.s 			page 20


1057:Drivers/STM32F3xx_HAL_Driver/Src/stm32f3xx_hal_dac_ex.c ****   hdac->ConvHalfCpltCallbackCh1(hdac);
1058:Drivers/STM32F3xx_HAL_Driver/Src/stm32f3xx_hal_dac_ex.c **** #else
1059:Drivers/STM32F3xx_HAL_Driver/Src/stm32f3xx_hal_dac_ex.c ****     HAL_DAC_ConvHalfCpltCallbackCh1(hdac); 
1060:Drivers/STM32F3xx_HAL_Driver/Src/stm32f3xx_hal_dac_ex.c **** #endif
1061:Drivers/STM32F3xx_HAL_Driver/Src/stm32f3xx_hal_dac_ex.c **** }
1062:Drivers/STM32F3xx_HAL_Driver/Src/stm32f3xx_hal_dac_ex.c **** 
1063:Drivers/STM32F3xx_HAL_Driver/Src/stm32f3xx_hal_dac_ex.c **** /**
1064:Drivers/STM32F3xx_HAL_Driver/Src/stm32f3xx_hal_dac_ex.c ****   * @brief  DMA error callback 
1065:Drivers/STM32F3xx_HAL_Driver/Src/stm32f3xx_hal_dac_ex.c ****   * @param  hdma pointer to DMA handle.
1066:Drivers/STM32F3xx_HAL_Driver/Src/stm32f3xx_hal_dac_ex.c ****   * @retval None
1067:Drivers/STM32F3xx_HAL_Driver/Src/stm32f3xx_hal_dac_ex.c ****   */
1068:Drivers/STM32F3xx_HAL_Driver/Src/stm32f3xx_hal_dac_ex.c **** static void DAC_DMAErrorCh1(DMA_HandleTypeDef *hdma)   
1069:Drivers/STM32F3xx_HAL_Driver/Src/stm32f3xx_hal_dac_ex.c **** {
  29              		.loc 1 1069 1 view -0
  30              		.cfi_startproc
  31              		@ args = 0, pretend = 0, frame = 0
  32              		@ frame_needed = 0, uses_anonymous_args = 0
  33              		.loc 1 1069 1 is_stmt 0 view .LVU1
  34 0000 10B5     		push	{r4, lr}
  35              	.LCFI0:
  36              		.cfi_def_cfa_offset 8
  37              		.cfi_offset 4, -8
  38              		.cfi_offset 14, -4
1070:Drivers/STM32F3xx_HAL_Driver/Src/stm32f3xx_hal_dac_ex.c ****   DAC_HandleTypeDef* hdac = ( DAC_HandleTypeDef* )((DMA_HandleTypeDef* )hdma)->Parent;
  39              		.loc 1 1070 3 is_stmt 1 view .LVU2
  40              		.loc 1 1070 22 is_stmt 0 view .LVU3
  41 0002 446A     		ldr	r4, [r0, #36]
  42              	.LVL1:
1071:Drivers/STM32F3xx_HAL_Driver/Src/stm32f3xx_hal_dac_ex.c ****     
1072:Drivers/STM32F3xx_HAL_Driver/Src/stm32f3xx_hal_dac_ex.c ****   /* Set DAC error code to DMA error */
1073:Drivers/STM32F3xx_HAL_Driver/Src/stm32f3xx_hal_dac_ex.c ****   hdac->ErrorCode |= HAL_DAC_ERROR_DMA;
  43              		.loc 1 1073 3 is_stmt 1 view .LVU4
  44              		.loc 1 1073 19 is_stmt 0 view .LVU5
  45 0004 2369     		ldr	r3, [r4, #16]
  46 0006 43F00403 		orr	r3, r3, #4
  47 000a 2361     		str	r3, [r4, #16]
1074:Drivers/STM32F3xx_HAL_Driver/Src/stm32f3xx_hal_dac_ex.c ****     
1075:Drivers/STM32F3xx_HAL_Driver/Src/stm32f3xx_hal_dac_ex.c **** #if (USE_HAL_DAC_REGISTER_CALLBACKS == 1)
1076:Drivers/STM32F3xx_HAL_Driver/Src/stm32f3xx_hal_dac_ex.c ****   hdac->ErrorCallbackCh1(hdac);
1077:Drivers/STM32F3xx_HAL_Driver/Src/stm32f3xx_hal_dac_ex.c **** #else  
1078:Drivers/STM32F3xx_HAL_Driver/Src/stm32f3xx_hal_dac_ex.c ****   HAL_DAC_ErrorCallbackCh1(hdac); 
  48              		.loc 1 1078 3 is_stmt 1 view .LVU6
  49 000c 2046     		mov	r0, r4
  50              	.LVL2:
  51              		.loc 1 1078 3 is_stmt 0 view .LVU7
  52 000e FFF7FEFF 		bl	HAL_DAC_ErrorCallbackCh1
  53              	.LVL3:
1079:Drivers/STM32F3xx_HAL_Driver/Src/stm32f3xx_hal_dac_ex.c **** #endif
1080:Drivers/STM32F3xx_HAL_Driver/Src/stm32f3xx_hal_dac_ex.c ****     
1081:Drivers/STM32F3xx_HAL_Driver/Src/stm32f3xx_hal_dac_ex.c ****   hdac->State= HAL_DAC_STATE_READY;
  54              		.loc 1 1081 3 is_stmt 1 view .LVU8
  55              		.loc 1 1081 14 is_stmt 0 view .LVU9
  56 0012 0123     		movs	r3, #1
  57 0014 2371     		strb	r3, [r4, #4]
1082:Drivers/STM32F3xx_HAL_Driver/Src/stm32f3xx_hal_dac_ex.c **** }
  58              		.loc 1 1082 1 view .LVU10
  59 0016 10BD     		pop	{r4, pc}
ARM GAS  /var/folders/jw/jcj5j9_530958b2rm5vp9wn00000gn/T//ccXbzXq2.s 			page 21


  60              		.loc 1 1082 1 view .LVU11
  61              		.cfi_endproc
  62              	.LFE146:
  64              		.section	.text.DAC_DMAHalfConvCpltCh1,"ax",%progbits
  65              		.align	1
  66              		.syntax unified
  67              		.thumb
  68              		.thumb_func
  69              		.fpu fpv4-sp-d16
  71              	DAC_DMAHalfConvCpltCh1:
  72              	.LVL4:
  73              	.LFB145:
1052:Drivers/STM32F3xx_HAL_Driver/Src/stm32f3xx_hal_dac_ex.c ****     DAC_HandleTypeDef* hdac = ( DAC_HandleTypeDef* )((DMA_HandleTypeDef* )hdma)->Parent;
  74              		.loc 1 1052 1 is_stmt 1 view -0
  75              		.cfi_startproc
  76              		@ args = 0, pretend = 0, frame = 0
  77              		@ frame_needed = 0, uses_anonymous_args = 0
1052:Drivers/STM32F3xx_HAL_Driver/Src/stm32f3xx_hal_dac_ex.c ****     DAC_HandleTypeDef* hdac = ( DAC_HandleTypeDef* )((DMA_HandleTypeDef* )hdma)->Parent;
  78              		.loc 1 1052 1 is_stmt 0 view .LVU13
  79 0000 08B5     		push	{r3, lr}
  80              	.LCFI1:
  81              		.cfi_def_cfa_offset 8
  82              		.cfi_offset 3, -8
  83              		.cfi_offset 14, -4
1053:Drivers/STM32F3xx_HAL_Driver/Src/stm32f3xx_hal_dac_ex.c **** 
  84              		.loc 1 1053 5 is_stmt 1 view .LVU14
  85              	.LVL5:
1059:Drivers/STM32F3xx_HAL_Driver/Src/stm32f3xx_hal_dac_ex.c **** #endif
  86              		.loc 1 1059 5 view .LVU15
  87 0002 406A     		ldr	r0, [r0, #36]
  88              	.LVL6:
1059:Drivers/STM32F3xx_HAL_Driver/Src/stm32f3xx_hal_dac_ex.c **** #endif
  89              		.loc 1 1059 5 is_stmt 0 view .LVU16
  90 0004 FFF7FEFF 		bl	HAL_DAC_ConvHalfCpltCallbackCh1
  91              	.LVL7:
1061:Drivers/STM32F3xx_HAL_Driver/Src/stm32f3xx_hal_dac_ex.c **** 
  92              		.loc 1 1061 1 view .LVU17
  93 0008 08BD     		pop	{r3, pc}
  94              		.cfi_endproc
  95              	.LFE145:
  97              		.section	.text.DAC_DMAConvCpltCh1,"ax",%progbits
  98              		.align	1
  99              		.syntax unified
 100              		.thumb
 101              		.thumb_func
 102              		.fpu fpv4-sp-d16
 104              	DAC_DMAConvCpltCh1:
 105              	.LVL8:
 106              	.LFB144:
1034:Drivers/STM32F3xx_HAL_Driver/Src/stm32f3xx_hal_dac_ex.c ****   DAC_HandleTypeDef* hdac = ( DAC_HandleTypeDef* )((DMA_HandleTypeDef* )hdma)->Parent;
 107              		.loc 1 1034 1 is_stmt 1 view -0
 108              		.cfi_startproc
 109              		@ args = 0, pretend = 0, frame = 0
 110              		@ frame_needed = 0, uses_anonymous_args = 0
1034:Drivers/STM32F3xx_HAL_Driver/Src/stm32f3xx_hal_dac_ex.c ****   DAC_HandleTypeDef* hdac = ( DAC_HandleTypeDef* )((DMA_HandleTypeDef* )hdma)->Parent;
 111              		.loc 1 1034 1 is_stmt 0 view .LVU19
 112 0000 10B5     		push	{r4, lr}
ARM GAS  /var/folders/jw/jcj5j9_530958b2rm5vp9wn00000gn/T//ccXbzXq2.s 			page 22


 113              	.LCFI2:
 114              		.cfi_def_cfa_offset 8
 115              		.cfi_offset 4, -8
 116              		.cfi_offset 14, -4
1035:Drivers/STM32F3xx_HAL_Driver/Src/stm32f3xx_hal_dac_ex.c ****   
 117              		.loc 1 1035 3 is_stmt 1 view .LVU20
1035:Drivers/STM32F3xx_HAL_Driver/Src/stm32f3xx_hal_dac_ex.c ****   
 118              		.loc 1 1035 22 is_stmt 0 view .LVU21
 119 0002 446A     		ldr	r4, [r0, #36]
 120              	.LVL9:
1040:Drivers/STM32F3xx_HAL_Driver/Src/stm32f3xx_hal_dac_ex.c **** #endif 
 121              		.loc 1 1040 3 is_stmt 1 view .LVU22
 122 0004 2046     		mov	r0, r4
 123              	.LVL10:
1040:Drivers/STM32F3xx_HAL_Driver/Src/stm32f3xx_hal_dac_ex.c **** #endif 
 124              		.loc 1 1040 3 is_stmt 0 view .LVU23
 125 0006 FFF7FEFF 		bl	HAL_DAC_ConvCpltCallbackCh1
 126              	.LVL11:
1043:Drivers/STM32F3xx_HAL_Driver/Src/stm32f3xx_hal_dac_ex.c **** }
 127              		.loc 1 1043 3 is_stmt 1 view .LVU24
1043:Drivers/STM32F3xx_HAL_Driver/Src/stm32f3xx_hal_dac_ex.c **** }
 128              		.loc 1 1043 14 is_stmt 0 view .LVU25
 129 000a 0123     		movs	r3, #1
 130 000c 2371     		strb	r3, [r4, #4]
1044:Drivers/STM32F3xx_HAL_Driver/Src/stm32f3xx_hal_dac_ex.c **** 
 131              		.loc 1 1044 1 view .LVU26
 132 000e 10BD     		pop	{r4, pc}
1044:Drivers/STM32F3xx_HAL_Driver/Src/stm32f3xx_hal_dac_ex.c **** 
 133              		.loc 1 1044 1 view .LVU27
 134              		.cfi_endproc
 135              	.LFE144:
 137              		.section	.text.HAL_DAC_SetValue,"ax",%progbits
 138              		.align	1
 139              		.global	HAL_DAC_SetValue
 140              		.syntax unified
 141              		.thumb
 142              		.thumb_func
 143              		.fpu fpv4-sp-d16
 145              	HAL_DAC_SetValue:
 146              	.LVL12:
 147              	.LFB130:
 113:Drivers/STM32F3xx_HAL_Driver/Src/stm32f3xx_hal_dac_ex.c ****   __IO uint32_t tmp = 0U;
 148              		.loc 1 113 1 is_stmt 1 view -0
 149              		.cfi_startproc
 150              		@ args = 0, pretend = 0, frame = 8
 151              		@ frame_needed = 0, uses_anonymous_args = 0
 152              		@ link register save eliminated.
 113:Drivers/STM32F3xx_HAL_Driver/Src/stm32f3xx_hal_dac_ex.c ****   __IO uint32_t tmp = 0U;
 153              		.loc 1 113 1 is_stmt 0 view .LVU29
 154 0000 10B4     		push	{r4}
 155              	.LCFI3:
 156              		.cfi_def_cfa_offset 4
 157              		.cfi_offset 4, -4
 158 0002 83B0     		sub	sp, sp, #12
 159              	.LCFI4:
 160              		.cfi_def_cfa_offset 16
 114:Drivers/STM32F3xx_HAL_Driver/Src/stm32f3xx_hal_dac_ex.c ****   
ARM GAS  /var/folders/jw/jcj5j9_530958b2rm5vp9wn00000gn/T//ccXbzXq2.s 			page 23


 161              		.loc 1 114 3 is_stmt 1 view .LVU30
 114:Drivers/STM32F3xx_HAL_Driver/Src/stm32f3xx_hal_dac_ex.c ****   
 162              		.loc 1 114 17 is_stmt 0 view .LVU31
 163 0004 0024     		movs	r4, #0
 164 0006 0194     		str	r4, [sp, #4]
 117:Drivers/STM32F3xx_HAL_Driver/Src/stm32f3xx_hal_dac_ex.c ****   assert_param(IS_DAC_ALIGN(Alignment));
 165              		.loc 1 117 3 is_stmt 1 view .LVU32
 118:Drivers/STM32F3xx_HAL_Driver/Src/stm32f3xx_hal_dac_ex.c ****   assert_param(IS_DAC_DATA(Data));
 166              		.loc 1 118 3 view .LVU33
 119:Drivers/STM32F3xx_HAL_Driver/Src/stm32f3xx_hal_dac_ex.c ****    
 167              		.loc 1 119 3 view .LVU34
 121:Drivers/STM32F3xx_HAL_Driver/Src/stm32f3xx_hal_dac_ex.c **** 
 168              		.loc 1 121 3 view .LVU35
 121:Drivers/STM32F3xx_HAL_Driver/Src/stm32f3xx_hal_dac_ex.c **** 
 169              		.loc 1 121 25 is_stmt 0 view .LVU36
 170 0008 0068     		ldr	r0, [r0]
 171              	.LVL13:
 121:Drivers/STM32F3xx_HAL_Driver/Src/stm32f3xx_hal_dac_ex.c **** 
 172              		.loc 1 121 7 view .LVU37
 173 000a 0190     		str	r0, [sp, #4]
 126:Drivers/STM32F3xx_HAL_Driver/Src/stm32f3xx_hal_dac_ex.c ****   {
 174              		.loc 1 126 3 is_stmt 1 view .LVU38
 126:Drivers/STM32F3xx_HAL_Driver/Src/stm32f3xx_hal_dac_ex.c ****   {
 175              		.loc 1 126 5 is_stmt 0 view .LVU39
 176 000c 51B9     		cbnz	r1, .L8
 128:Drivers/STM32F3xx_HAL_Driver/Src/stm32f3xx_hal_dac_ex.c ****   }
 177              		.loc 1 128 5 is_stmt 1 view .LVU40
 128:Drivers/STM32F3xx_HAL_Driver/Src/stm32f3xx_hal_dac_ex.c ****   }
 178              		.loc 1 128 9 is_stmt 0 view .LVU41
 179 000e 0199     		ldr	r1, [sp, #4]
 180              	.LVL14:
 128:Drivers/STM32F3xx_HAL_Driver/Src/stm32f3xx_hal_dac_ex.c ****   }
 181              		.loc 1 128 9 view .LVU42
 182 0010 0A44     		add	r2, r2, r1
 183              	.LVL15:
 128:Drivers/STM32F3xx_HAL_Driver/Src/stm32f3xx_hal_dac_ex.c ****   }
 184              		.loc 1 128 9 view .LVU43
 185 0012 0832     		adds	r2, r2, #8
 186 0014 0192     		str	r2, [sp, #4]
 187              	.L9:
 144:Drivers/STM32F3xx_HAL_Driver/Src/stm32f3xx_hal_dac_ex.c ****   
 188              		.loc 1 144 3 is_stmt 1 view .LVU44
 144:Drivers/STM32F3xx_HAL_Driver/Src/stm32f3xx_hal_dac_ex.c ****   
 189              		.loc 1 144 4 is_stmt 0 view .LVU45
 190 0016 019A     		ldr	r2, [sp, #4]
 144:Drivers/STM32F3xx_HAL_Driver/Src/stm32f3xx_hal_dac_ex.c ****   
 191              		.loc 1 144 26 view .LVU46
 192 0018 1360     		str	r3, [r2]
 147:Drivers/STM32F3xx_HAL_Driver/Src/stm32f3xx_hal_dac_ex.c **** }
 193              		.loc 1 147 3 is_stmt 1 view .LVU47
 148:Drivers/STM32F3xx_HAL_Driver/Src/stm32f3xx_hal_dac_ex.c **** 
 194              		.loc 1 148 1 is_stmt 0 view .LVU48
 195 001a 0020     		movs	r0, #0
 196 001c 03B0     		add	sp, sp, #12
 197              	.LCFI5:
 198              		.cfi_remember_state
 199              		.cfi_def_cfa_offset 4
ARM GAS  /var/folders/jw/jcj5j9_530958b2rm5vp9wn00000gn/T//ccXbzXq2.s 			page 24


 200              		@ sp needed
 201 001e 5DF8044B 		ldr	r4, [sp], #4
 202              	.LCFI6:
 203              		.cfi_restore 4
 204              		.cfi_def_cfa_offset 0
 205 0022 7047     		bx	lr
 206              	.LVL16:
 207              	.L8:
 208              	.LCFI7:
 209              		.cfi_restore_state
 136:Drivers/STM32F3xx_HAL_Driver/Src/stm32f3xx_hal_dac_ex.c ****   }
 210              		.loc 1 136 5 is_stmt 1 view .LVU49
 136:Drivers/STM32F3xx_HAL_Driver/Src/stm32f3xx_hal_dac_ex.c ****   }
 211              		.loc 1 136 9 is_stmt 0 view .LVU50
 212 0024 0199     		ldr	r1, [sp, #4]
 213              	.LVL17:
 136:Drivers/STM32F3xx_HAL_Driver/Src/stm32f3xx_hal_dac_ex.c ****   }
 214              		.loc 1 136 9 view .LVU51
 215 0026 0A44     		add	r2, r2, r1
 216              	.LVL18:
 136:Drivers/STM32F3xx_HAL_Driver/Src/stm32f3xx_hal_dac_ex.c ****   }
 217              		.loc 1 136 9 view .LVU52
 218 0028 1432     		adds	r2, r2, #20
 219 002a 0192     		str	r2, [sp, #4]
 220 002c F3E7     		b	.L9
 221              		.cfi_endproc
 222              	.LFE130:
 224              		.section	.text.HAL_DACEx_DualSetValue,"ax",%progbits
 225              		.align	1
 226              		.global	HAL_DACEx_DualSetValue
 227              		.syntax unified
 228              		.thumb
 229              		.thumb_func
 230              		.fpu fpv4-sp-d16
 232              	HAL_DACEx_DualSetValue:
 233              	.LVL19:
 234              	.LFB131:
 171:Drivers/STM32F3xx_HAL_Driver/Src/stm32f3xx_hal_dac_ex.c ****   uint32_t data = 0U, tmp = 0U;
 235              		.loc 1 171 1 is_stmt 1 view -0
 236              		.cfi_startproc
 237              		@ args = 0, pretend = 0, frame = 0
 238              		@ frame_needed = 0, uses_anonymous_args = 0
 239              		@ link register save eliminated.
 172:Drivers/STM32F3xx_HAL_Driver/Src/stm32f3xx_hal_dac_ex.c **** 
 240              		.loc 1 172 3 view .LVU54
 175:Drivers/STM32F3xx_HAL_Driver/Src/stm32f3xx_hal_dac_ex.c ****   assert_param(IS_DAC_DATA(Data1));
 241              		.loc 1 175 3 view .LVU55
 176:Drivers/STM32F3xx_HAL_Driver/Src/stm32f3xx_hal_dac_ex.c ****   assert_param(IS_DAC_DATA(Data2));
 242              		.loc 1 176 3 view .LVU56
 177:Drivers/STM32F3xx_HAL_Driver/Src/stm32f3xx_hal_dac_ex.c **** 
 243              		.loc 1 177 3 view .LVU57
 180:Drivers/STM32F3xx_HAL_Driver/Src/stm32f3xx_hal_dac_ex.c ****   {
 244              		.loc 1 180 3 view .LVU58
 180:Drivers/STM32F3xx_HAL_Driver/Src/stm32f3xx_hal_dac_ex.c ****   {
 245              		.loc 1 180 6 is_stmt 0 view .LVU59
 246 0000 0829     		cmp	r1, #8
 247 0002 06D0     		beq	.L14
ARM GAS  /var/folders/jw/jcj5j9_530958b2rm5vp9wn00000gn/T//ccXbzXq2.s 			page 25


 186:Drivers/STM32F3xx_HAL_Driver/Src/stm32f3xx_hal_dac_ex.c ****   }
 248              		.loc 1 186 5 is_stmt 1 view .LVU60
 186:Drivers/STM32F3xx_HAL_Driver/Src/stm32f3xx_hal_dac_ex.c ****   }
 249              		.loc 1 186 10 is_stmt 0 view .LVU61
 250 0004 42EA0342 		orr	r2, r2, r3, lsl #16
 251              	.LVL20:
 252              	.L13:
 189:Drivers/STM32F3xx_HAL_Driver/Src/stm32f3xx_hal_dac_ex.c ****     tmp += DAC_DHR12RD_ALIGNMENT(Alignment);
 253              		.loc 1 189 5 is_stmt 1 view .LVU62
 189:Drivers/STM32F3xx_HAL_Driver/Src/stm32f3xx_hal_dac_ex.c ****     tmp += DAC_DHR12RD_ALIGNMENT(Alignment);
 254              		.loc 1 189 27 is_stmt 0 view .LVU63
 255 0008 0368     		ldr	r3, [r0]
 256              	.LVL21:
 190:Drivers/STM32F3xx_HAL_Driver/Src/stm32f3xx_hal_dac_ex.c **** 
 257              		.loc 1 190 5 is_stmt 1 view .LVU64
 190:Drivers/STM32F3xx_HAL_Driver/Src/stm32f3xx_hal_dac_ex.c **** 
 258              		.loc 1 190 9 is_stmt 0 view .LVU65
 259 000a 1944     		add	r1, r1, r3
 260              	.LVL22:
 193:Drivers/STM32F3xx_HAL_Driver/Src/stm32f3xx_hal_dac_ex.c **** 
 261              		.loc 1 193 3 is_stmt 1 view .LVU66
 193:Drivers/STM32F3xx_HAL_Driver/Src/stm32f3xx_hal_dac_ex.c **** 
 262              		.loc 1 193 25 is_stmt 0 view .LVU67
 263 000c 0A62     		str	r2, [r1, #32]
 196:Drivers/STM32F3xx_HAL_Driver/Src/stm32f3xx_hal_dac_ex.c **** }
 264              		.loc 1 196 3 is_stmt 1 view .LVU68
 197:Drivers/STM32F3xx_HAL_Driver/Src/stm32f3xx_hal_dac_ex.c **** #endif /* STM32F303xE || STM32F398xx                || */
 265              		.loc 1 197 1 is_stmt 0 view .LVU69
 266 000e 0020     		movs	r0, #0
 267              	.LVL23:
 197:Drivers/STM32F3xx_HAL_Driver/Src/stm32f3xx_hal_dac_ex.c **** #endif /* STM32F303xE || STM32F398xx                || */
 268              		.loc 1 197 1 view .LVU70
 269 0010 7047     		bx	lr
 270              	.LVL24:
 271              	.L14:
 182:Drivers/STM32F3xx_HAL_Driver/Src/stm32f3xx_hal_dac_ex.c ****   }
 272              		.loc 1 182 5 is_stmt 1 view .LVU71
 182:Drivers/STM32F3xx_HAL_Driver/Src/stm32f3xx_hal_dac_ex.c ****   }
 273              		.loc 1 182 10 is_stmt 0 view .LVU72
 274 0012 42EA0322 		orr	r2, r2, r3, lsl #8
 275              	.LVL25:
 182:Drivers/STM32F3xx_HAL_Driver/Src/stm32f3xx_hal_dac_ex.c ****   }
 276              		.loc 1 182 10 view .LVU73
 277 0016 F7E7     		b	.L13
 278              		.cfi_endproc
 279              	.LFE131:
 281              		.section	.text.HAL_DAC_Start,"ax",%progbits
 282              		.align	1
 283              		.global	HAL_DAC_Start
 284              		.syntax unified
 285              		.thumb
 286              		.thumb_func
 287              		.fpu fpv4-sp-d16
 289              	HAL_DAC_Start:
 290              	.LVL26:
 291              	.LFB132:
 243:Drivers/STM32F3xx_HAL_Driver/Src/stm32f3xx_hal_dac_ex.c ****   /* Check the parameters */
ARM GAS  /var/folders/jw/jcj5j9_530958b2rm5vp9wn00000gn/T//ccXbzXq2.s 			page 26


 292              		.loc 1 243 1 is_stmt 1 view -0
 293              		.cfi_startproc
 294              		@ args = 0, pretend = 0, frame = 0
 295              		@ frame_needed = 0, uses_anonymous_args = 0
 296              		@ link register save eliminated.
 245:Drivers/STM32F3xx_HAL_Driver/Src/stm32f3xx_hal_dac_ex.c ****   
 297              		.loc 1 245 3 view .LVU75
 248:Drivers/STM32F3xx_HAL_Driver/Src/stm32f3xx_hal_dac_ex.c ****   
 298              		.loc 1 248 3 view .LVU76
 248:Drivers/STM32F3xx_HAL_Driver/Src/stm32f3xx_hal_dac_ex.c ****   
 299              		.loc 1 248 3 view .LVU77
 300 0000 4379     		ldrb	r3, [r0, #5]	@ zero_extendqisi2
 301 0002 012B     		cmp	r3, #1
 302 0004 29D0     		beq	.L19
 243:Drivers/STM32F3xx_HAL_Driver/Src/stm32f3xx_hal_dac_ex.c ****   /* Check the parameters */
 303              		.loc 1 243 1 is_stmt 0 discriminator 2 view .LVU78
 304 0006 10B4     		push	{r4}
 305              	.LCFI8:
 306              		.cfi_def_cfa_offset 4
 307              		.cfi_offset 4, -4
 248:Drivers/STM32F3xx_HAL_Driver/Src/stm32f3xx_hal_dac_ex.c ****   
 308              		.loc 1 248 3 is_stmt 1 discriminator 2 view .LVU79
 309 0008 0123     		movs	r3, #1
 310 000a 4371     		strb	r3, [r0, #5]
 248:Drivers/STM32F3xx_HAL_Driver/Src/stm32f3xx_hal_dac_ex.c ****   
 311              		.loc 1 248 3 discriminator 2 view .LVU80
 251:Drivers/STM32F3xx_HAL_Driver/Src/stm32f3xx_hal_dac_ex.c ****   
 312              		.loc 1 251 3 discriminator 2 view .LVU81
 251:Drivers/STM32F3xx_HAL_Driver/Src/stm32f3xx_hal_dac_ex.c ****   
 313              		.loc 1 251 15 is_stmt 0 discriminator 2 view .LVU82
 314 000c 0222     		movs	r2, #2
 315 000e 0271     		strb	r2, [r0, #4]
 254:Drivers/STM32F3xx_HAL_Driver/Src/stm32f3xx_hal_dac_ex.c ****   
 316              		.loc 1 254 3 is_stmt 1 discriminator 2 view .LVU83
 317 0010 0468     		ldr	r4, [r0]
 318 0012 2268     		ldr	r2, [r4]
 319 0014 8B40     		lsls	r3, r3, r1
 320 0016 1343     		orrs	r3, r3, r2
 321 0018 2360     		str	r3, [r4]
 256:Drivers/STM32F3xx_HAL_Driver/Src/stm32f3xx_hal_dac_ex.c ****   {
 322              		.loc 1 256 3 discriminator 2 view .LVU84
 256:Drivers/STM32F3xx_HAL_Driver/Src/stm32f3xx_hal_dac_ex.c ****   {
 323              		.loc 1 256 5 is_stmt 0 discriminator 2 view .LVU85
 324 001a 91B9     		cbnz	r1, .L17
 259:Drivers/STM32F3xx_HAL_Driver/Src/stm32f3xx_hal_dac_ex.c ****     {
 325              		.loc 1 259 5 is_stmt 1 view .LVU86
 259:Drivers/STM32F3xx_HAL_Driver/Src/stm32f3xx_hal_dac_ex.c ****     {
 326              		.loc 1 259 13 is_stmt 0 view .LVU87
 327 001c 0268     		ldr	r2, [r0]
 259:Drivers/STM32F3xx_HAL_Driver/Src/stm32f3xx_hal_dac_ex.c ****     {
 328              		.loc 1 259 23 view .LVU88
 329 001e 1368     		ldr	r3, [r2]
 259:Drivers/STM32F3xx_HAL_Driver/Src/stm32f3xx_hal_dac_ex.c ****     {
 330              		.loc 1 259 28 view .LVU89
 331 0020 03F03C03 		and	r3, r3, #60
 259:Drivers/STM32F3xx_HAL_Driver/Src/stm32f3xx_hal_dac_ex.c ****     {
 332              		.loc 1 259 7 view .LVU90
ARM GAS  /var/folders/jw/jcj5j9_530958b2rm5vp9wn00000gn/T//ccXbzXq2.s 			page 27


 333 0024 3C2B     		cmp	r3, #60
 334 0026 07D0     		beq	.L24
 335              	.L18:
 276:Drivers/STM32F3xx_HAL_Driver/Src/stm32f3xx_hal_dac_ex.c ****   
 336              		.loc 1 276 3 is_stmt 1 view .LVU91
 276:Drivers/STM32F3xx_HAL_Driver/Src/stm32f3xx_hal_dac_ex.c ****   
 337              		.loc 1 276 15 is_stmt 0 view .LVU92
 338 0028 0123     		movs	r3, #1
 339 002a 0371     		strb	r3, [r0, #4]
 279:Drivers/STM32F3xx_HAL_Driver/Src/stm32f3xx_hal_dac_ex.c ****     
 340              		.loc 1 279 3 is_stmt 1 view .LVU93
 279:Drivers/STM32F3xx_HAL_Driver/Src/stm32f3xx_hal_dac_ex.c ****     
 341              		.loc 1 279 3 view .LVU94
 342 002c 0023     		movs	r3, #0
 343 002e 4371     		strb	r3, [r0, #5]
 279:Drivers/STM32F3xx_HAL_Driver/Src/stm32f3xx_hal_dac_ex.c ****     
 344              		.loc 1 279 3 view .LVU95
 282:Drivers/STM32F3xx_HAL_Driver/Src/stm32f3xx_hal_dac_ex.c **** }
 345              		.loc 1 282 3 view .LVU96
 282:Drivers/STM32F3xx_HAL_Driver/Src/stm32f3xx_hal_dac_ex.c **** }
 346              		.loc 1 282 10 is_stmt 0 view .LVU97
 347 0030 1846     		mov	r0, r3
 348              	.LVL27:
 283:Drivers/STM32F3xx_HAL_Driver/Src/stm32f3xx_hal_dac_ex.c **** #endif /* STM32F303xE || STM32F398xx                || */
 349              		.loc 1 283 1 view .LVU98
 350 0032 5DF8044B 		ldr	r4, [sp], #4
 351              	.LCFI9:
 352              		.cfi_remember_state
 353              		.cfi_restore 4
 354              		.cfi_def_cfa_offset 0
 355 0036 7047     		bx	lr
 356              	.LVL28:
 357              	.L24:
 358              	.LCFI10:
 359              		.cfi_restore_state
 262:Drivers/STM32F3xx_HAL_Driver/Src/stm32f3xx_hal_dac_ex.c ****     }
 360              		.loc 1 262 7 is_stmt 1 view .LVU99
 361 0038 5368     		ldr	r3, [r2, #4]
 362 003a 43F00103 		orr	r3, r3, #1
 363 003e 5360     		str	r3, [r2, #4]
 364 0040 F2E7     		b	.L18
 365              	.L17:
 268:Drivers/STM32F3xx_HAL_Driver/Src/stm32f3xx_hal_dac_ex.c ****     {
 366              		.loc 1 268 5 view .LVU100
 268:Drivers/STM32F3xx_HAL_Driver/Src/stm32f3xx_hal_dac_ex.c ****     {
 367              		.loc 1 268 13 is_stmt 0 view .LVU101
 368 0042 0268     		ldr	r2, [r0]
 268:Drivers/STM32F3xx_HAL_Driver/Src/stm32f3xx_hal_dac_ex.c ****     {
 369              		.loc 1 268 23 view .LVU102
 370 0044 1368     		ldr	r3, [r2]
 268:Drivers/STM32F3xx_HAL_Driver/Src/stm32f3xx_hal_dac_ex.c ****     {
 371              		.loc 1 268 28 view .LVU103
 372 0046 03F47013 		and	r3, r3, #3932160
 268:Drivers/STM32F3xx_HAL_Driver/Src/stm32f3xx_hal_dac_ex.c ****     {
 373              		.loc 1 268 7 view .LVU104
 374 004a B3F5701F 		cmp	r3, #3932160
 375 004e EBD1     		bne	.L18
ARM GAS  /var/folders/jw/jcj5j9_530958b2rm5vp9wn00000gn/T//ccXbzXq2.s 			page 28


 271:Drivers/STM32F3xx_HAL_Driver/Src/stm32f3xx_hal_dac_ex.c ****     }
 376              		.loc 1 271 7 is_stmt 1 view .LVU105
 377 0050 5368     		ldr	r3, [r2, #4]
 378 0052 43F00203 		orr	r3, r3, #2
 379 0056 5360     		str	r3, [r2, #4]
 380 0058 E6E7     		b	.L18
 381              	.L19:
 382              	.LCFI11:
 383              		.cfi_def_cfa_offset 0
 384              		.cfi_restore 4
 248:Drivers/STM32F3xx_HAL_Driver/Src/stm32f3xx_hal_dac_ex.c ****   
 385              		.loc 1 248 3 is_stmt 0 view .LVU106
 386 005a 0220     		movs	r0, #2
 387              	.LVL29:
 283:Drivers/STM32F3xx_HAL_Driver/Src/stm32f3xx_hal_dac_ex.c **** #endif /* STM32F303xE || STM32F398xx                || */
 388              		.loc 1 283 1 view .LVU107
 389 005c 7047     		bx	lr
 390              		.cfi_endproc
 391              	.LFE132:
 393              		.section	.text.HAL_DAC_Start_DMA,"ax",%progbits
 394              		.align	1
 395              		.global	HAL_DAC_Start_DMA
 396              		.syntax unified
 397              		.thumb
 398              		.thumb_func
 399              		.fpu fpv4-sp-d16
 401              	HAL_DAC_Start_DMA:
 402              	.LVL30:
 403              	.LFB133:
 361:Drivers/STM32F3xx_HAL_Driver/Src/stm32f3xx_hal_dac_ex.c ****   uint32_t tmpreg = 0U;
 404              		.loc 1 361 1 is_stmt 1 view -0
 405              		.cfi_startproc
 406              		@ args = 4, pretend = 0, frame = 0
 407              		@ frame_needed = 0, uses_anonymous_args = 0
 361:Drivers/STM32F3xx_HAL_Driver/Src/stm32f3xx_hal_dac_ex.c ****   uint32_t tmpreg = 0U;
 408              		.loc 1 361 1 is_stmt 0 view .LVU109
 409 0000 70B5     		push	{r4, r5, r6, lr}
 410              	.LCFI12:
 411              		.cfi_def_cfa_offset 16
 412              		.cfi_offset 4, -16
 413              		.cfi_offset 5, -12
 414              		.cfi_offset 6, -8
 415              		.cfi_offset 14, -4
 416 0002 0446     		mov	r4, r0
 417 0004 0D46     		mov	r5, r1
 418 0006 1146     		mov	r1, r2
 419              	.LVL31:
 361:Drivers/STM32F3xx_HAL_Driver/Src/stm32f3xx_hal_dac_ex.c ****   uint32_t tmpreg = 0U;
 420              		.loc 1 361 1 view .LVU110
 421 0008 049A     		ldr	r2, [sp, #16]
 422              	.LVL32:
 362:Drivers/STM32F3xx_HAL_Driver/Src/stm32f3xx_hal_dac_ex.c ****     
 423              		.loc 1 362 3 is_stmt 1 view .LVU111
 365:Drivers/STM32F3xx_HAL_Driver/Src/stm32f3xx_hal_dac_ex.c ****   assert_param(IS_DAC_ALIGN(Alignment));
 424              		.loc 1 365 3 view .LVU112
 366:Drivers/STM32F3xx_HAL_Driver/Src/stm32f3xx_hal_dac_ex.c ****   
 425              		.loc 1 366 3 view .LVU113
ARM GAS  /var/folders/jw/jcj5j9_530958b2rm5vp9wn00000gn/T//ccXbzXq2.s 			page 29


 369:Drivers/STM32F3xx_HAL_Driver/Src/stm32f3xx_hal_dac_ex.c ****   
 426              		.loc 1 369 3 view .LVU114
 369:Drivers/STM32F3xx_HAL_Driver/Src/stm32f3xx_hal_dac_ex.c ****   
 427              		.loc 1 369 3 view .LVU115
 428 000a 4079     		ldrb	r0, [r0, #5]	@ zero_extendqisi2
 429              	.LVL33:
 369:Drivers/STM32F3xx_HAL_Driver/Src/stm32f3xx_hal_dac_ex.c ****   
 430              		.loc 1 369 3 is_stmt 0 view .LVU116
 431 000c 0128     		cmp	r0, #1
 432 000e 5DD0     		beq	.L35
 369:Drivers/STM32F3xx_HAL_Driver/Src/stm32f3xx_hal_dac_ex.c ****   
 433              		.loc 1 369 3 is_stmt 1 discriminator 2 view .LVU117
 434 0010 0120     		movs	r0, #1
 435 0012 6071     		strb	r0, [r4, #5]
 369:Drivers/STM32F3xx_HAL_Driver/Src/stm32f3xx_hal_dac_ex.c ****   
 436              		.loc 1 369 3 discriminator 2 view .LVU118
 372:Drivers/STM32F3xx_HAL_Driver/Src/stm32f3xx_hal_dac_ex.c **** 
 437              		.loc 1 372 3 discriminator 2 view .LVU119
 372:Drivers/STM32F3xx_HAL_Driver/Src/stm32f3xx_hal_dac_ex.c **** 
 438              		.loc 1 372 15 is_stmt 0 discriminator 2 view .LVU120
 439 0014 0220     		movs	r0, #2
 440 0016 2071     		strb	r0, [r4, #4]
 374:Drivers/STM32F3xx_HAL_Driver/Src/stm32f3xx_hal_dac_ex.c ****   {
 441              		.loc 1 374 3 is_stmt 1 discriminator 2 view .LVU121
 374:Drivers/STM32F3xx_HAL_Driver/Src/stm32f3xx_hal_dac_ex.c ****   {
 442              		.loc 1 374 5 is_stmt 0 discriminator 2 view .LVU122
 443 0018 002D     		cmp	r5, #0
 444 001a 30D1     		bne	.L27
 377:Drivers/STM32F3xx_HAL_Driver/Src/stm32f3xx_hal_dac_ex.c ****     
 445              		.loc 1 377 5 is_stmt 1 view .LVU123
 377:Drivers/STM32F3xx_HAL_Driver/Src/stm32f3xx_hal_dac_ex.c ****     
 446              		.loc 1 377 9 is_stmt 0 view .LVU124
 447 001c A068     		ldr	r0, [r4, #8]
 377:Drivers/STM32F3xx_HAL_Driver/Src/stm32f3xx_hal_dac_ex.c ****     
 448              		.loc 1 377 41 view .LVU125
 449 001e 2C4E     		ldr	r6, .L41
 450 0020 8662     		str	r6, [r0, #40]
 380:Drivers/STM32F3xx_HAL_Driver/Src/stm32f3xx_hal_dac_ex.c ****       
 451              		.loc 1 380 5 is_stmt 1 view .LVU126
 380:Drivers/STM32F3xx_HAL_Driver/Src/stm32f3xx_hal_dac_ex.c ****       
 452              		.loc 1 380 9 is_stmt 0 view .LVU127
 453 0022 A068     		ldr	r0, [r4, #8]
 380:Drivers/STM32F3xx_HAL_Driver/Src/stm32f3xx_hal_dac_ex.c ****       
 454              		.loc 1 380 45 view .LVU128
 455 0024 2B4E     		ldr	r6, .L41+4
 456 0026 C662     		str	r6, [r0, #44]
 383:Drivers/STM32F3xx_HAL_Driver/Src/stm32f3xx_hal_dac_ex.c **** 
 457              		.loc 1 383 5 is_stmt 1 view .LVU129
 383:Drivers/STM32F3xx_HAL_Driver/Src/stm32f3xx_hal_dac_ex.c **** 
 458              		.loc 1 383 9 is_stmt 0 view .LVU130
 459 0028 A068     		ldr	r0, [r4, #8]
 383:Drivers/STM32F3xx_HAL_Driver/Src/stm32f3xx_hal_dac_ex.c **** 
 460              		.loc 1 383 42 view .LVU131
 461 002a 2B4E     		ldr	r6, .L41+8
 462 002c 0663     		str	r6, [r0, #48]
 386:Drivers/STM32F3xx_HAL_Driver/Src/stm32f3xx_hal_dac_ex.c **** 
 463              		.loc 1 386 5 is_stmt 1 view .LVU132
ARM GAS  /var/folders/jw/jcj5j9_530958b2rm5vp9wn00000gn/T//ccXbzXq2.s 			page 30


 464 002e 2668     		ldr	r6, [r4]
 465 0030 3068     		ldr	r0, [r6]
 466 0032 40F48050 		orr	r0, r0, #4096
 467 0036 3060     		str	r0, [r6]
 389:Drivers/STM32F3xx_HAL_Driver/Src/stm32f3xx_hal_dac_ex.c ****     {
 468              		.loc 1 389 5 view .LVU133
 469 0038 042A     		cmp	r2, #4
 470 003a 1AD0     		beq	.L28
 471 003c 082A     		cmp	r2, #8
 472 003e 1BD0     		beq	.L29
 473 0040 A2B1     		cbz	r2, .L39
 474 0042 2A46     		mov	r2, r5
 475              	.LVL34:
 476              	.L30:
 442:Drivers/STM32F3xx_HAL_Driver/Src/stm32f3xx_hal_dac_ex.c ****   {
 477              		.loc 1 442 3 view .LVU134
 442:Drivers/STM32F3xx_HAL_Driver/Src/stm32f3xx_hal_dac_ex.c ****   {
 478              		.loc 1 442 5 is_stmt 0 view .LVU135
 479 0044 002D     		cmp	r5, #0
 480 0046 38D1     		bne	.L33
 445:Drivers/STM32F3xx_HAL_Driver/Src/stm32f3xx_hal_dac_ex.c **** 
 481              		.loc 1 445 5 is_stmt 1 view .LVU136
 482 0048 2668     		ldr	r6, [r4]
 483 004a 3068     		ldr	r0, [r6]
 484 004c 40F40050 		orr	r0, r0, #8192
 485 0050 3060     		str	r0, [r6]
 448:Drivers/STM32F3xx_HAL_Driver/Src/stm32f3xx_hal_dac_ex.c ****   } 
 486              		.loc 1 448 5 view .LVU137
 487 0052 A068     		ldr	r0, [r4, #8]
 488 0054 FFF7FEFF 		bl	HAL_DMA_Start_IT
 489              	.LVL35:
 490              	.L34:
 460:Drivers/STM32F3xx_HAL_Driver/Src/stm32f3xx_hal_dac_ex.c **** 
 491              		.loc 1 460 3 view .LVU138
 460:Drivers/STM32F3xx_HAL_Driver/Src/stm32f3xx_hal_dac_ex.c **** 
 492              		.loc 1 460 3 view .LVU139
 493 0058 0020     		movs	r0, #0
 494 005a 6071     		strb	r0, [r4, #5]
 460:Drivers/STM32F3xx_HAL_Driver/Src/stm32f3xx_hal_dac_ex.c **** 
 495              		.loc 1 460 3 view .LVU140
 463:Drivers/STM32F3xx_HAL_Driver/Src/stm32f3xx_hal_dac_ex.c ****   
 496              		.loc 1 463 3 view .LVU141
 497 005c 2268     		ldr	r2, [r4]
 498 005e 1368     		ldr	r3, [r2]
 499 0060 0121     		movs	r1, #1
 500 0062 01FA05F5 		lsl	r5, r1, r5
 501              	.LVL36:
 463:Drivers/STM32F3xx_HAL_Driver/Src/stm32f3xx_hal_dac_ex.c ****   
 502              		.loc 1 463 3 is_stmt 0 view .LVU142
 503 0066 1D43     		orrs	r5, r5, r3
 504 0068 1560     		str	r5, [r2]
 466:Drivers/STM32F3xx_HAL_Driver/Src/stm32f3xx_hal_dac_ex.c **** }
 505              		.loc 1 466 3 is_stmt 1 view .LVU143
 506              	.L26:
 467:Drivers/STM32F3xx_HAL_Driver/Src/stm32f3xx_hal_dac_ex.c **** #endif /* STM32F303xE || STM32F398xx                || */
 507              		.loc 1 467 1 is_stmt 0 view .LVU144
 508 006a 70BD     		pop	{r4, r5, r6, pc}
ARM GAS  /var/folders/jw/jcj5j9_530958b2rm5vp9wn00000gn/T//ccXbzXq2.s 			page 31


 509              	.LVL37:
 510              	.L39:
 393:Drivers/STM32F3xx_HAL_Driver/Src/stm32f3xx_hal_dac_ex.c ****         break;
 511              		.loc 1 393 9 is_stmt 1 view .LVU145
 393:Drivers/STM32F3xx_HAL_Driver/Src/stm32f3xx_hal_dac_ex.c ****         break;
 512              		.loc 1 393 33 is_stmt 0 view .LVU146
 513 006c 2268     		ldr	r2, [r4]
 393:Drivers/STM32F3xx_HAL_Driver/Src/stm32f3xx_hal_dac_ex.c ****         break;
 514              		.loc 1 393 28 view .LVU147
 515 006e 0832     		adds	r2, r2, #8
 516              	.LVL38:
 394:Drivers/STM32F3xx_HAL_Driver/Src/stm32f3xx_hal_dac_ex.c ****       case DAC_ALIGN_12B_L:
 517              		.loc 1 394 9 is_stmt 1 view .LVU148
 518 0070 E8E7     		b	.L30
 519              	.LVL39:
 520              	.L28:
 397:Drivers/STM32F3xx_HAL_Driver/Src/stm32f3xx_hal_dac_ex.c ****         break;
 521              		.loc 1 397 9 view .LVU149
 397:Drivers/STM32F3xx_HAL_Driver/Src/stm32f3xx_hal_dac_ex.c ****         break;
 522              		.loc 1 397 33 is_stmt 0 view .LVU150
 523 0072 2268     		ldr	r2, [r4]
 397:Drivers/STM32F3xx_HAL_Driver/Src/stm32f3xx_hal_dac_ex.c ****         break;
 524              		.loc 1 397 28 view .LVU151
 525 0074 0C32     		adds	r2, r2, #12
 526              	.LVL40:
 398:Drivers/STM32F3xx_HAL_Driver/Src/stm32f3xx_hal_dac_ex.c ****       case DAC_ALIGN_8B_R:
 527              		.loc 1 398 9 is_stmt 1 view .LVU152
 528 0076 E5E7     		b	.L30
 529              	.LVL41:
 530              	.L29:
 401:Drivers/STM32F3xx_HAL_Driver/Src/stm32f3xx_hal_dac_ex.c ****         break;
 531              		.loc 1 401 9 view .LVU153
 401:Drivers/STM32F3xx_HAL_Driver/Src/stm32f3xx_hal_dac_ex.c ****         break;
 532              		.loc 1 401 33 is_stmt 0 view .LVU154
 533 0078 2268     		ldr	r2, [r4]
 401:Drivers/STM32F3xx_HAL_Driver/Src/stm32f3xx_hal_dac_ex.c ****         break;
 534              		.loc 1 401 28 view .LVU155
 535 007a 1032     		adds	r2, r2, #16
 536              	.LVL42:
 402:Drivers/STM32F3xx_HAL_Driver/Src/stm32f3xx_hal_dac_ex.c ****       default:
 537              		.loc 1 402 9 is_stmt 1 view .LVU156
 538 007c E2E7     		b	.L30
 539              	.LVL43:
 540              	.L27:
 410:Drivers/STM32F3xx_HAL_Driver/Src/stm32f3xx_hal_dac_ex.c ****     
 541              		.loc 1 410 5 view .LVU157
 410:Drivers/STM32F3xx_HAL_Driver/Src/stm32f3xx_hal_dac_ex.c ****     
 542              		.loc 1 410 9 is_stmt 0 view .LVU158
 543 007e E068     		ldr	r0, [r4, #12]
 410:Drivers/STM32F3xx_HAL_Driver/Src/stm32f3xx_hal_dac_ex.c ****     
 544              		.loc 1 410 41 view .LVU159
 545 0080 164E     		ldr	r6, .L41+12
 546 0082 8662     		str	r6, [r0, #40]
 413:Drivers/STM32F3xx_HAL_Driver/Src/stm32f3xx_hal_dac_ex.c ****        
 547              		.loc 1 413 5 is_stmt 1 view .LVU160
 413:Drivers/STM32F3xx_HAL_Driver/Src/stm32f3xx_hal_dac_ex.c ****        
 548              		.loc 1 413 9 is_stmt 0 view .LVU161
ARM GAS  /var/folders/jw/jcj5j9_530958b2rm5vp9wn00000gn/T//ccXbzXq2.s 			page 32


 549 0084 E068     		ldr	r0, [r4, #12]
 413:Drivers/STM32F3xx_HAL_Driver/Src/stm32f3xx_hal_dac_ex.c ****        
 550              		.loc 1 413 45 view .LVU162
 551 0086 164E     		ldr	r6, .L41+16
 552 0088 C662     		str	r6, [r0, #44]
 416:Drivers/STM32F3xx_HAL_Driver/Src/stm32f3xx_hal_dac_ex.c ****  
 553              		.loc 1 416 5 is_stmt 1 view .LVU163
 416:Drivers/STM32F3xx_HAL_Driver/Src/stm32f3xx_hal_dac_ex.c ****  
 554              		.loc 1 416 9 is_stmt 0 view .LVU164
 555 008a E068     		ldr	r0, [r4, #12]
 416:Drivers/STM32F3xx_HAL_Driver/Src/stm32f3xx_hal_dac_ex.c ****  
 556              		.loc 1 416 42 view .LVU165
 557 008c 154E     		ldr	r6, .L41+20
 558 008e 0663     		str	r6, [r0, #48]
 419:Drivers/STM32F3xx_HAL_Driver/Src/stm32f3xx_hal_dac_ex.c ****    
 559              		.loc 1 419 5 is_stmt 1 view .LVU166
 560 0090 2668     		ldr	r6, [r4]
 561 0092 3068     		ldr	r0, [r6]
 562 0094 40F08050 		orr	r0, r0, #268435456
 563 0098 3060     		str	r0, [r6]
 422:Drivers/STM32F3xx_HAL_Driver/Src/stm32f3xx_hal_dac_ex.c ****     {
 564              		.loc 1 422 5 view .LVU167
 565 009a 042A     		cmp	r2, #4
 566 009c 07D0     		beq	.L31
 567 009e 082A     		cmp	r2, #8
 568 00a0 08D0     		beq	.L32
 569 00a2 0AB1     		cbz	r2, .L40
 570 00a4 0022     		movs	r2, #0
 571 00a6 CDE7     		b	.L30
 572              	.L40:
 426:Drivers/STM32F3xx_HAL_Driver/Src/stm32f3xx_hal_dac_ex.c ****         break;
 573              		.loc 1 426 9 view .LVU168
 426:Drivers/STM32F3xx_HAL_Driver/Src/stm32f3xx_hal_dac_ex.c ****         break;
 574              		.loc 1 426 33 is_stmt 0 view .LVU169
 575 00a8 2268     		ldr	r2, [r4]
 426:Drivers/STM32F3xx_HAL_Driver/Src/stm32f3xx_hal_dac_ex.c ****         break;
 576              		.loc 1 426 28 view .LVU170
 577 00aa 1432     		adds	r2, r2, #20
 578              	.LVL44:
 427:Drivers/STM32F3xx_HAL_Driver/Src/stm32f3xx_hal_dac_ex.c ****       case DAC_ALIGN_12B_L:
 579              		.loc 1 427 9 is_stmt 1 view .LVU171
 580 00ac CAE7     		b	.L30
 581              	.LVL45:
 582              	.L31:
 430:Drivers/STM32F3xx_HAL_Driver/Src/stm32f3xx_hal_dac_ex.c ****         break;
 583              		.loc 1 430 9 view .LVU172
 430:Drivers/STM32F3xx_HAL_Driver/Src/stm32f3xx_hal_dac_ex.c ****         break;
 584              		.loc 1 430 33 is_stmt 0 view .LVU173
 585 00ae 2268     		ldr	r2, [r4]
 430:Drivers/STM32F3xx_HAL_Driver/Src/stm32f3xx_hal_dac_ex.c ****         break;
 586              		.loc 1 430 28 view .LVU174
 587 00b0 1832     		adds	r2, r2, #24
 588              	.LVL46:
 431:Drivers/STM32F3xx_HAL_Driver/Src/stm32f3xx_hal_dac_ex.c ****       case DAC_ALIGN_8B_R:
 589              		.loc 1 431 9 is_stmt 1 view .LVU175
 590 00b2 C7E7     		b	.L30
 591              	.LVL47:
ARM GAS  /var/folders/jw/jcj5j9_530958b2rm5vp9wn00000gn/T//ccXbzXq2.s 			page 33


 592              	.L32:
 434:Drivers/STM32F3xx_HAL_Driver/Src/stm32f3xx_hal_dac_ex.c ****         break;
 593              		.loc 1 434 9 view .LVU176
 434:Drivers/STM32F3xx_HAL_Driver/Src/stm32f3xx_hal_dac_ex.c ****         break;
 594              		.loc 1 434 33 is_stmt 0 view .LVU177
 595 00b4 2268     		ldr	r2, [r4]
 434:Drivers/STM32F3xx_HAL_Driver/Src/stm32f3xx_hal_dac_ex.c ****         break;
 596              		.loc 1 434 28 view .LVU178
 597 00b6 1C32     		adds	r2, r2, #28
 598              	.LVL48:
 435:Drivers/STM32F3xx_HAL_Driver/Src/stm32f3xx_hal_dac_ex.c ****       default:
 599              		.loc 1 435 9 is_stmt 1 view .LVU179
 600 00b8 C4E7     		b	.L30
 601              	.L33:
 453:Drivers/STM32F3xx_HAL_Driver/Src/stm32f3xx_hal_dac_ex.c **** 
 602              		.loc 1 453 5 view .LVU180
 603 00ba 2668     		ldr	r6, [r4]
 604 00bc 3068     		ldr	r0, [r6]
 605 00be 40F00050 		orr	r0, r0, #536870912
 606 00c2 3060     		str	r0, [r6]
 456:Drivers/STM32F3xx_HAL_Driver/Src/stm32f3xx_hal_dac_ex.c ****   }
 607              		.loc 1 456 5 view .LVU181
 608 00c4 E068     		ldr	r0, [r4, #12]
 609 00c6 FFF7FEFF 		bl	HAL_DMA_Start_IT
 610              	.LVL49:
 456:Drivers/STM32F3xx_HAL_Driver/Src/stm32f3xx_hal_dac_ex.c ****   }
 611              		.loc 1 456 5 is_stmt 0 view .LVU182
 612 00ca C5E7     		b	.L34
 613              	.LVL50:
 614              	.L35:
 369:Drivers/STM32F3xx_HAL_Driver/Src/stm32f3xx_hal_dac_ex.c ****   
 615              		.loc 1 369 3 view .LVU183
 616 00cc 0220     		movs	r0, #2
 617 00ce CCE7     		b	.L26
 618              	.L42:
 619              		.align	2
 620              	.L41:
 621 00d0 00000000 		.word	DAC_DMAConvCpltCh1
 622 00d4 00000000 		.word	DAC_DMAHalfConvCpltCh1
 623 00d8 00000000 		.word	DAC_DMAErrorCh1
 624 00dc 00000000 		.word	DAC_DMAConvCpltCh2
 625 00e0 00000000 		.word	DAC_DMAHalfConvCpltCh2
 626 00e4 00000000 		.word	DAC_DMAErrorCh2
 627              		.cfi_endproc
 628              	.LFE133:
 630              		.section	.text.HAL_DAC_GetValue,"ax",%progbits
 631              		.align	1
 632              		.global	HAL_DAC_GetValue
 633              		.syntax unified
 634              		.thumb
 635              		.thumb_func
 636              		.fpu fpv4-sp-d16
 638              	HAL_DAC_GetValue:
 639              	.LVL51:
 640              	.LFB134:
 575:Drivers/STM32F3xx_HAL_Driver/Src/stm32f3xx_hal_dac_ex.c ****   /* Check the parameters */
 641              		.loc 1 575 1 is_stmt 1 view -0
ARM GAS  /var/folders/jw/jcj5j9_530958b2rm5vp9wn00000gn/T//ccXbzXq2.s 			page 34


 642              		.cfi_startproc
 643              		@ args = 0, pretend = 0, frame = 0
 644              		@ frame_needed = 0, uses_anonymous_args = 0
 645              		@ link register save eliminated.
 577:Drivers/STM32F3xx_HAL_Driver/Src/stm32f3xx_hal_dac_ex.c ****   
 646              		.loc 1 577 3 view .LVU185
 580:Drivers/STM32F3xx_HAL_Driver/Src/stm32f3xx_hal_dac_ex.c ****   {
 647              		.loc 1 580 3 view .LVU186
 580:Drivers/STM32F3xx_HAL_Driver/Src/stm32f3xx_hal_dac_ex.c ****   {
 648              		.loc 1 580 5 is_stmt 0 view .LVU187
 649 0000 11B9     		cbnz	r1, .L44
 582:Drivers/STM32F3xx_HAL_Driver/Src/stm32f3xx_hal_dac_ex.c ****   }
 650              		.loc 1 582 5 is_stmt 1 view .LVU188
 582:Drivers/STM32F3xx_HAL_Driver/Src/stm32f3xx_hal_dac_ex.c ****   }
 651              		.loc 1 582 16 is_stmt 0 view .LVU189
 652 0002 0368     		ldr	r3, [r0]
 582:Drivers/STM32F3xx_HAL_Driver/Src/stm32f3xx_hal_dac_ex.c ****   }
 653              		.loc 1 582 26 view .LVU190
 654 0004 D86A     		ldr	r0, [r3, #44]
 655              	.LVL52:
 582:Drivers/STM32F3xx_HAL_Driver/Src/stm32f3xx_hal_dac_ex.c ****   }
 656              		.loc 1 582 26 view .LVU191
 657 0006 7047     		bx	lr
 658              	.LVL53:
 659              	.L44:
 586:Drivers/STM32F3xx_HAL_Driver/Src/stm32f3xx_hal_dac_ex.c ****   }
 660              		.loc 1 586 5 is_stmt 1 view .LVU192
 586:Drivers/STM32F3xx_HAL_Driver/Src/stm32f3xx_hal_dac_ex.c ****   }
 661              		.loc 1 586 16 is_stmt 0 view .LVU193
 662 0008 0368     		ldr	r3, [r0]
 586:Drivers/STM32F3xx_HAL_Driver/Src/stm32f3xx_hal_dac_ex.c ****   }
 663              		.loc 1 586 26 view .LVU194
 664 000a 186B     		ldr	r0, [r3, #48]
 665              	.LVL54:
 588:Drivers/STM32F3xx_HAL_Driver/Src/stm32f3xx_hal_dac_ex.c **** #endif /* STM32F303xE || STM32F398xx                || */
 666              		.loc 1 588 1 view .LVU195
 667 000c 7047     		bx	lr
 668              		.cfi_endproc
 669              	.LFE134:
 671              		.section	.text.HAL_DACEx_DualGetValue,"ax",%progbits
 672              		.align	1
 673              		.global	HAL_DACEx_DualGetValue
 674              		.syntax unified
 675              		.thumb
 676              		.thumb_func
 677              		.fpu fpv4-sp-d16
 679              	HAL_DACEx_DualGetValue:
 680              	.LVL55:
 681              	.LFB135:
 626:Drivers/STM32F3xx_HAL_Driver/Src/stm32f3xx_hal_dac_ex.c ****   uint32_t tmp = 0U;
 682              		.loc 1 626 1 is_stmt 1 view -0
 683              		.cfi_startproc
 684              		@ args = 0, pretend = 0, frame = 0
 685              		@ frame_needed = 0, uses_anonymous_args = 0
 686              		@ link register save eliminated.
 627:Drivers/STM32F3xx_HAL_Driver/Src/stm32f3xx_hal_dac_ex.c **** 
 687              		.loc 1 627 3 view .LVU197
ARM GAS  /var/folders/jw/jcj5j9_530958b2rm5vp9wn00000gn/T//ccXbzXq2.s 			page 35


 629:Drivers/STM32F3xx_HAL_Driver/Src/stm32f3xx_hal_dac_ex.c **** 
 688              		.loc 1 629 3 view .LVU198
 629:Drivers/STM32F3xx_HAL_Driver/Src/stm32f3xx_hal_dac_ex.c **** 
 689              		.loc 1 629 14 is_stmt 0 view .LVU199
 690 0000 0368     		ldr	r3, [r0]
 629:Drivers/STM32F3xx_HAL_Driver/Src/stm32f3xx_hal_dac_ex.c **** 
 691              		.loc 1 629 24 view .LVU200
 692 0002 DA6A     		ldr	r2, [r3, #44]
 693              	.LVL56:
 636:Drivers/STM32F3xx_HAL_Driver/Src/stm32f3xx_hal_dac_ex.c **** #endif /* STM32F303xE || STM32F398xx                || */
 694              		.loc 1 636 3 is_stmt 1 view .LVU201
 636:Drivers/STM32F3xx_HAL_Driver/Src/stm32f3xx_hal_dac_ex.c **** #endif /* STM32F303xE || STM32F398xx                || */
 695              		.loc 1 636 24 is_stmt 0 view .LVU202
 696 0004 186B     		ldr	r0, [r3, #48]
 697              	.LVL57:
 643:Drivers/STM32F3xx_HAL_Driver/Src/stm32f3xx_hal_dac_ex.c **** }
 698              		.loc 1 643 3 is_stmt 1 view .LVU203
 644:Drivers/STM32F3xx_HAL_Driver/Src/stm32f3xx_hal_dac_ex.c **** 
 699              		.loc 1 644 1 is_stmt 0 view .LVU204
 700 0006 42EA0040 		orr	r0, r2, r0, lsl #16
 701              	.LVL58:
 644:Drivers/STM32F3xx_HAL_Driver/Src/stm32f3xx_hal_dac_ex.c **** 
 702              		.loc 1 644 1 view .LVU205
 703 000a 7047     		bx	lr
 704              		.cfi_endproc
 705              	.LFE135:
 707              		.section	.text.HAL_DAC_ConfigChannel,"ax",%progbits
 708              		.align	1
 709              		.global	HAL_DAC_ConfigChannel
 710              		.syntax unified
 711              		.thumb
 712              		.thumb_func
 713              		.fpu fpv4-sp-d16
 715              	HAL_DAC_ConfigChannel:
 716              	.LVL59:
 717              	.LFB137:
 772:Drivers/STM32F3xx_HAL_Driver/Src/stm32f3xx_hal_dac_ex.c ****   uint32_t tmpreg1 = 0U, tmpreg2 = 0U;
 718              		.loc 1 772 1 is_stmt 1 view -0
 719              		.cfi_startproc
 720              		@ args = 0, pretend = 0, frame = 0
 721              		@ frame_needed = 0, uses_anonymous_args = 0
 722              		@ link register save eliminated.
 773:Drivers/STM32F3xx_HAL_Driver/Src/stm32f3xx_hal_dac_ex.c **** 
 723              		.loc 1 773 3 view .LVU207
 776:Drivers/STM32F3xx_HAL_Driver/Src/stm32f3xx_hal_dac_ex.c **** 
 724              		.loc 1 776 3 view .LVU208
 790:Drivers/STM32F3xx_HAL_Driver/Src/stm32f3xx_hal_dac_ex.c **** #endif /* STM32F303x8 || STM32F334x8 || STM32F328xx || */
 725              		.loc 1 790 3 view .LVU209
 792:Drivers/STM32F3xx_HAL_Driver/Src/stm32f3xx_hal_dac_ex.c ****  
 726              		.loc 1 792 3 view .LVU210
 795:Drivers/STM32F3xx_HAL_Driver/Src/stm32f3xx_hal_dac_ex.c ****   
 727              		.loc 1 795 3 view .LVU211
 795:Drivers/STM32F3xx_HAL_Driver/Src/stm32f3xx_hal_dac_ex.c ****   
 728              		.loc 1 795 3 view .LVU212
 729 0000 4379     		ldrb	r3, [r0, #5]	@ zero_extendqisi2
 730 0002 012B     		cmp	r3, #1
 731 0004 1FD0     		beq	.L49
ARM GAS  /var/folders/jw/jcj5j9_530958b2rm5vp9wn00000gn/T//ccXbzXq2.s 			page 36


 772:Drivers/STM32F3xx_HAL_Driver/Src/stm32f3xx_hal_dac_ex.c ****   uint32_t tmpreg1 = 0U, tmpreg2 = 0U;
 732              		.loc 1 772 1 is_stmt 0 discriminator 2 view .LVU213
 733 0006 70B4     		push	{r4, r5, r6}
 734              	.LCFI13:
 735              		.cfi_def_cfa_offset 12
 736              		.cfi_offset 4, -12
 737              		.cfi_offset 5, -8
 738              		.cfi_offset 6, -4
 795:Drivers/STM32F3xx_HAL_Driver/Src/stm32f3xx_hal_dac_ex.c ****   
 739              		.loc 1 795 3 is_stmt 1 discriminator 2 view .LVU214
 740 0008 0125     		movs	r5, #1
 741 000a 4571     		strb	r5, [r0, #5]
 795:Drivers/STM32F3xx_HAL_Driver/Src/stm32f3xx_hal_dac_ex.c ****   
 742              		.loc 1 795 3 discriminator 2 view .LVU215
 798:Drivers/STM32F3xx_HAL_Driver/Src/stm32f3xx_hal_dac_ex.c ****   
 743              		.loc 1 798 3 discriminator 2 view .LVU216
 798:Drivers/STM32F3xx_HAL_Driver/Src/stm32f3xx_hal_dac_ex.c ****   
 744              		.loc 1 798 15 is_stmt 0 discriminator 2 view .LVU217
 745 000c 0223     		movs	r3, #2
 746 000e 0371     		strb	r3, [r0, #4]
 801:Drivers/STM32F3xx_HAL_Driver/Src/stm32f3xx_hal_dac_ex.c ****   
 747              		.loc 1 801 3 is_stmt 1 discriminator 2 view .LVU218
 801:Drivers/STM32F3xx_HAL_Driver/Src/stm32f3xx_hal_dac_ex.c ****   
 748              		.loc 1 801 17 is_stmt 0 discriminator 2 view .LVU219
 749 0010 0668     		ldr	r6, [r0]
 801:Drivers/STM32F3xx_HAL_Driver/Src/stm32f3xx_hal_dac_ex.c ****   
 750              		.loc 1 801 11 discriminator 2 view .LVU220
 751 0012 3368     		ldr	r3, [r6]
 752              	.LVL60:
 823:Drivers/STM32F3xx_HAL_Driver/Src/stm32f3xx_hal_dac_ex.c ****   tmpreg2 = (sConfig->DAC_Trigger | sConfig->DAC_OutputBuffer);
 753              		.loc 1 823 3 is_stmt 1 discriminator 2 view .LVU221
 823:Drivers/STM32F3xx_HAL_Driver/Src/stm32f3xx_hal_dac_ex.c ****   tmpreg2 = (sConfig->DAC_Trigger | sConfig->DAC_OutputBuffer);
 754              		.loc 1 823 102 is_stmt 0 discriminator 2 view .LVU222
 755 0014 40F6FE74 		movw	r4, #4094
 756 0018 9440     		lsls	r4, r4, r2
 823:Drivers/STM32F3xx_HAL_Driver/Src/stm32f3xx_hal_dac_ex.c ****   tmpreg2 = (sConfig->DAC_Trigger | sConfig->DAC_OutputBuffer);
 757              		.loc 1 823 11 discriminator 2 view .LVU223
 758 001a 23EA0404 		bic	r4, r3, r4
 759              	.LVL61:
 824:Drivers/STM32F3xx_HAL_Driver/Src/stm32f3xx_hal_dac_ex.c **** #endif  /* STM32F303x8 || STM32F334x8 || STM32F328xx || */
 760              		.loc 1 824 3 is_stmt 1 discriminator 2 view .LVU224
 824:Drivers/STM32F3xx_HAL_Driver/Src/stm32f3xx_hal_dac_ex.c **** #endif  /* STM32F303x8 || STM32F334x8 || STM32F328xx || */
 761              		.loc 1 824 21 is_stmt 0 discriminator 2 view .LVU225
 762 001e 0B68     		ldr	r3, [r1]
 824:Drivers/STM32F3xx_HAL_Driver/Src/stm32f3xx_hal_dac_ex.c **** #endif  /* STM32F303x8 || STM32F334x8 || STM32F328xx || */
 763              		.loc 1 824 44 discriminator 2 view .LVU226
 764 0020 4968     		ldr	r1, [r1, #4]
 765              	.LVL62:
 824:Drivers/STM32F3xx_HAL_Driver/Src/stm32f3xx_hal_dac_ex.c **** #endif  /* STM32F303x8 || STM32F334x8 || STM32F328xx || */
 766              		.loc 1 824 11 discriminator 2 view .LVU227
 767 0022 0B43     		orrs	r3, r3, r1
 768              	.LVL63:
 828:Drivers/STM32F3xx_HAL_Driver/Src/stm32f3xx_hal_dac_ex.c ****   /* Write to DAC CR */
 769              		.loc 1 828 3 is_stmt 1 discriminator 2 view .LVU228
 828:Drivers/STM32F3xx_HAL_Driver/Src/stm32f3xx_hal_dac_ex.c ****   /* Write to DAC CR */
 770              		.loc 1 828 22 is_stmt 0 discriminator 2 view .LVU229
 771 0024 9340     		lsls	r3, r3, r2
ARM GAS  /var/folders/jw/jcj5j9_530958b2rm5vp9wn00000gn/T//ccXbzXq2.s 			page 37


 772              	.LVL64:
 828:Drivers/STM32F3xx_HAL_Driver/Src/stm32f3xx_hal_dac_ex.c ****   /* Write to DAC CR */
 773              		.loc 1 828 11 discriminator 2 view .LVU230
 774 0026 2343     		orrs	r3, r3, r4
 775              	.LVL65:
 830:Drivers/STM32F3xx_HAL_Driver/Src/stm32f3xx_hal_dac_ex.c ****   
 776              		.loc 1 830 3 is_stmt 1 discriminator 2 view .LVU231
 830:Drivers/STM32F3xx_HAL_Driver/Src/stm32f3xx_hal_dac_ex.c ****   
 777              		.loc 1 830 22 is_stmt 0 discriminator 2 view .LVU232
 778 0028 3360     		str	r3, [r6]
 779              	.LVL66:
 833:Drivers/STM32F3xx_HAL_Driver/Src/stm32f3xx_hal_dac_ex.c **** 
 780              		.loc 1 833 3 is_stmt 1 discriminator 2 view .LVU233
 833:Drivers/STM32F3xx_HAL_Driver/Src/stm32f3xx_hal_dac_ex.c **** 
 781              		.loc 1 833 7 is_stmt 0 discriminator 2 view .LVU234
 782 002a 0468     		ldr	r4, [r0]
 833:Drivers/STM32F3xx_HAL_Driver/Src/stm32f3xx_hal_dac_ex.c **** 
 783              		.loc 1 833 22 discriminator 2 view .LVU235
 784 002c 2368     		ldr	r3, [r4]
 785              	.LVL67:
 833:Drivers/STM32F3xx_HAL_Driver/Src/stm32f3xx_hal_dac_ex.c **** 
 786              		.loc 1 833 40 discriminator 2 view .LVU236
 787 002e C021     		movs	r1, #192
 788 0030 01FA02F2 		lsl	r2, r1, r2
 789              	.LVL68:
 833:Drivers/STM32F3xx_HAL_Driver/Src/stm32f3xx_hal_dac_ex.c **** 
 790              		.loc 1 833 22 discriminator 2 view .LVU237
 791 0034 23EA0202 		bic	r2, r3, r2
 792 0038 2260     		str	r2, [r4]
 793              	.LVL69:
 836:Drivers/STM32F3xx_HAL_Driver/Src/stm32f3xx_hal_dac_ex.c ****   
 794              		.loc 1 836 3 is_stmt 1 discriminator 2 view .LVU238
 836:Drivers/STM32F3xx_HAL_Driver/Src/stm32f3xx_hal_dac_ex.c ****   
 795              		.loc 1 836 15 is_stmt 0 discriminator 2 view .LVU239
 796 003a 0571     		strb	r5, [r0, #4]
 839:Drivers/STM32F3xx_HAL_Driver/Src/stm32f3xx_hal_dac_ex.c ****   
 797              		.loc 1 839 3 is_stmt 1 discriminator 2 view .LVU240
 839:Drivers/STM32F3xx_HAL_Driver/Src/stm32f3xx_hal_dac_ex.c ****   
 798              		.loc 1 839 3 discriminator 2 view .LVU241
 799 003c 0023     		movs	r3, #0
 800 003e 4371     		strb	r3, [r0, #5]
 839:Drivers/STM32F3xx_HAL_Driver/Src/stm32f3xx_hal_dac_ex.c ****   
 801              		.loc 1 839 3 discriminator 2 view .LVU242
 842:Drivers/STM32F3xx_HAL_Driver/Src/stm32f3xx_hal_dac_ex.c **** }
 802              		.loc 1 842 3 discriminator 2 view .LVU243
 842:Drivers/STM32F3xx_HAL_Driver/Src/stm32f3xx_hal_dac_ex.c **** }
 803              		.loc 1 842 10 is_stmt 0 discriminator 2 view .LVU244
 804 0040 1846     		mov	r0, r3
 805              	.LVL70:
 843:Drivers/STM32F3xx_HAL_Driver/Src/stm32f3xx_hal_dac_ex.c **** 
 806              		.loc 1 843 1 discriminator 2 view .LVU245
 807 0042 70BC     		pop	{r4, r5, r6}
 808              	.LCFI14:
 809              		.cfi_restore 6
 810              		.cfi_restore 5
 811              		.cfi_restore 4
 812              		.cfi_def_cfa_offset 0
ARM GAS  /var/folders/jw/jcj5j9_530958b2rm5vp9wn00000gn/T//ccXbzXq2.s 			page 38


 813 0044 7047     		bx	lr
 814              	.LVL71:
 815              	.L49:
 795:Drivers/STM32F3xx_HAL_Driver/Src/stm32f3xx_hal_dac_ex.c ****   
 816              		.loc 1 795 3 view .LVU246
 817 0046 0220     		movs	r0, #2
 818              	.LVL72:
 843:Drivers/STM32F3xx_HAL_Driver/Src/stm32f3xx_hal_dac_ex.c **** 
 819              		.loc 1 843 1 view .LVU247
 820 0048 7047     		bx	lr
 821              		.cfi_endproc
 822              	.LFE137:
 824              		.section	.text.HAL_DACEx_TriangleWaveGenerate,"ax",%progbits
 825              		.align	1
 826              		.global	HAL_DACEx_TriangleWaveGenerate
 827              		.syntax unified
 828              		.thumb
 829              		.thumb_func
 830              		.fpu fpv4-sp-d16
 832              	HAL_DACEx_TriangleWaveGenerate:
 833              	.LVL73:
 834              	.LFB138:
 871:Drivers/STM32F3xx_HAL_Driver/Src/stm32f3xx_hal_dac_ex.c ****   /* Check the parameters */
 835              		.loc 1 871 1 is_stmt 1 view -0
 836              		.cfi_startproc
 837              		@ args = 0, pretend = 0, frame = 0
 838              		@ frame_needed = 0, uses_anonymous_args = 0
 839              		@ link register save eliminated.
 873:Drivers/STM32F3xx_HAL_Driver/Src/stm32f3xx_hal_dac_ex.c ****   assert_param(IS_DAC_LFSR_UNMASK_TRIANGLE_AMPLITUDE(Amplitude));
 840              		.loc 1 873 3 view .LVU249
 874:Drivers/STM32F3xx_HAL_Driver/Src/stm32f3xx_hal_dac_ex.c **** 
 841              		.loc 1 874 3 view .LVU250
 877:Drivers/STM32F3xx_HAL_Driver/Src/stm32f3xx_hal_dac_ex.c **** 
 842              		.loc 1 877 3 view .LVU251
 877:Drivers/STM32F3xx_HAL_Driver/Src/stm32f3xx_hal_dac_ex.c **** 
 843              		.loc 1 877 3 view .LVU252
 844 0000 4379     		ldrb	r3, [r0, #5]	@ zero_extendqisi2
 845 0002 012B     		cmp	r3, #1
 846 0004 17D0     		beq	.L56
 871:Drivers/STM32F3xx_HAL_Driver/Src/stm32f3xx_hal_dac_ex.c ****   /* Check the parameters */
 847              		.loc 1 871 1 is_stmt 0 discriminator 2 view .LVU253
 848 0006 70B4     		push	{r4, r5, r6}
 849              	.LCFI15:
 850              		.cfi_def_cfa_offset 12
 851              		.cfi_offset 4, -12
 852              		.cfi_offset 5, -8
 853              		.cfi_offset 6, -4
 877:Drivers/STM32F3xx_HAL_Driver/Src/stm32f3xx_hal_dac_ex.c **** 
 854              		.loc 1 877 3 is_stmt 1 discriminator 2 view .LVU254
 855 0008 0125     		movs	r5, #1
 856 000a 4571     		strb	r5, [r0, #5]
 877:Drivers/STM32F3xx_HAL_Driver/Src/stm32f3xx_hal_dac_ex.c **** 
 857              		.loc 1 877 3 discriminator 2 view .LVU255
 880:Drivers/STM32F3xx_HAL_Driver/Src/stm32f3xx_hal_dac_ex.c **** 
 858              		.loc 1 880 3 discriminator 2 view .LVU256
 880:Drivers/STM32F3xx_HAL_Driver/Src/stm32f3xx_hal_dac_ex.c **** 
 859              		.loc 1 880 15 is_stmt 0 discriminator 2 view .LVU257
ARM GAS  /var/folders/jw/jcj5j9_530958b2rm5vp9wn00000gn/T//ccXbzXq2.s 			page 39


 860 000c 0223     		movs	r3, #2
 861 000e 0371     		strb	r3, [r0, #4]
 883:Drivers/STM32F3xx_HAL_Driver/Src/stm32f3xx_hal_dac_ex.c **** 
 862              		.loc 1 883 3 is_stmt 1 discriminator 2 view .LVU258
 863 0010 0668     		ldr	r6, [r0]
 864 0012 3368     		ldr	r3, [r6]
 865 0014 4FF47C64 		mov	r4, #4032
 866 0018 8C40     		lsls	r4, r4, r1
 867 001a 23EA0403 		bic	r3, r3, r4
 868 001e 42F08002 		orr	r2, r2, #128
 869              	.LVL74:
 883:Drivers/STM32F3xx_HAL_Driver/Src/stm32f3xx_hal_dac_ex.c **** 
 870              		.loc 1 883 3 is_stmt 0 discriminator 2 view .LVU259
 871 0022 02FA01F1 		lsl	r1, r2, r1
 872              	.LVL75:
 883:Drivers/STM32F3xx_HAL_Driver/Src/stm32f3xx_hal_dac_ex.c **** 
 873              		.loc 1 883 3 discriminator 2 view .LVU260
 874 0026 1943     		orrs	r1, r1, r3
 875 0028 3160     		str	r1, [r6]
 886:Drivers/STM32F3xx_HAL_Driver/Src/stm32f3xx_hal_dac_ex.c **** 
 876              		.loc 1 886 3 is_stmt 1 discriminator 2 view .LVU261
 886:Drivers/STM32F3xx_HAL_Driver/Src/stm32f3xx_hal_dac_ex.c **** 
 877              		.loc 1 886 15 is_stmt 0 discriminator 2 view .LVU262
 878 002a 0571     		strb	r5, [r0, #4]
 889:Drivers/STM32F3xx_HAL_Driver/Src/stm32f3xx_hal_dac_ex.c **** 
 879              		.loc 1 889 3 is_stmt 1 discriminator 2 view .LVU263
 889:Drivers/STM32F3xx_HAL_Driver/Src/stm32f3xx_hal_dac_ex.c **** 
 880              		.loc 1 889 3 discriminator 2 view .LVU264
 881 002c 0023     		movs	r3, #0
 882 002e 4371     		strb	r3, [r0, #5]
 889:Drivers/STM32F3xx_HAL_Driver/Src/stm32f3xx_hal_dac_ex.c **** 
 883              		.loc 1 889 3 discriminator 2 view .LVU265
 892:Drivers/STM32F3xx_HAL_Driver/Src/stm32f3xx_hal_dac_ex.c **** }
 884              		.loc 1 892 3 discriminator 2 view .LVU266
 892:Drivers/STM32F3xx_HAL_Driver/Src/stm32f3xx_hal_dac_ex.c **** }
 885              		.loc 1 892 10 is_stmt 0 discriminator 2 view .LVU267
 886 0030 1846     		mov	r0, r3
 887              	.LVL76:
 893:Drivers/STM32F3xx_HAL_Driver/Src/stm32f3xx_hal_dac_ex.c **** 
 888              		.loc 1 893 1 discriminator 2 view .LVU268
 889 0032 70BC     		pop	{r4, r5, r6}
 890              	.LCFI16:
 891              		.cfi_restore 6
 892              		.cfi_restore 5
 893              		.cfi_restore 4
 894              		.cfi_def_cfa_offset 0
 895 0034 7047     		bx	lr
 896              	.LVL77:
 897              	.L56:
 877:Drivers/STM32F3xx_HAL_Driver/Src/stm32f3xx_hal_dac_ex.c **** 
 898              		.loc 1 877 3 view .LVU269
 899 0036 0220     		movs	r0, #2
 900              	.LVL78:
 893:Drivers/STM32F3xx_HAL_Driver/Src/stm32f3xx_hal_dac_ex.c **** 
 901              		.loc 1 893 1 view .LVU270
 902 0038 7047     		bx	lr
 903              		.cfi_endproc
ARM GAS  /var/folders/jw/jcj5j9_530958b2rm5vp9wn00000gn/T//ccXbzXq2.s 			page 40


 904              	.LFE138:
 906              		.section	.text.HAL_DACEx_NoiseWaveGenerate,"ax",%progbits
 907              		.align	1
 908              		.global	HAL_DACEx_NoiseWaveGenerate
 909              		.syntax unified
 910              		.thumb
 911              		.thumb_func
 912              		.fpu fpv4-sp-d16
 914              	HAL_DACEx_NoiseWaveGenerate:
 915              	.LVL79:
 916              	.LFB139:
 920:Drivers/STM32F3xx_HAL_Driver/Src/stm32f3xx_hal_dac_ex.c ****   /* Check the parameters */
 917              		.loc 1 920 1 is_stmt 1 view -0
 918              		.cfi_startproc
 919              		@ args = 0, pretend = 0, frame = 0
 920              		@ frame_needed = 0, uses_anonymous_args = 0
 921              		@ link register save eliminated.
 922:Drivers/STM32F3xx_HAL_Driver/Src/stm32f3xx_hal_dac_ex.c ****   assert_param(IS_DAC_LFSR_UNMASK_TRIANGLE_AMPLITUDE(Amplitude));
 922              		.loc 1 922 3 view .LVU272
 923:Drivers/STM32F3xx_HAL_Driver/Src/stm32f3xx_hal_dac_ex.c **** 
 923              		.loc 1 923 3 view .LVU273
 926:Drivers/STM32F3xx_HAL_Driver/Src/stm32f3xx_hal_dac_ex.c **** 
 924              		.loc 1 926 3 view .LVU274
 926:Drivers/STM32F3xx_HAL_Driver/Src/stm32f3xx_hal_dac_ex.c **** 
 925              		.loc 1 926 3 view .LVU275
 926 0000 4379     		ldrb	r3, [r0, #5]	@ zero_extendqisi2
 927 0002 012B     		cmp	r3, #1
 928 0004 17D0     		beq	.L63
 920:Drivers/STM32F3xx_HAL_Driver/Src/stm32f3xx_hal_dac_ex.c ****   /* Check the parameters */
 929              		.loc 1 920 1 is_stmt 0 discriminator 2 view .LVU276
 930 0006 70B4     		push	{r4, r5, r6}
 931              	.LCFI17:
 932              		.cfi_def_cfa_offset 12
 933              		.cfi_offset 4, -12
 934              		.cfi_offset 5, -8
 935              		.cfi_offset 6, -4
 926:Drivers/STM32F3xx_HAL_Driver/Src/stm32f3xx_hal_dac_ex.c **** 
 936              		.loc 1 926 3 is_stmt 1 discriminator 2 view .LVU277
 937 0008 0125     		movs	r5, #1
 938 000a 4571     		strb	r5, [r0, #5]
 926:Drivers/STM32F3xx_HAL_Driver/Src/stm32f3xx_hal_dac_ex.c **** 
 939              		.loc 1 926 3 discriminator 2 view .LVU278
 929:Drivers/STM32F3xx_HAL_Driver/Src/stm32f3xx_hal_dac_ex.c **** 
 940              		.loc 1 929 3 discriminator 2 view .LVU279
 929:Drivers/STM32F3xx_HAL_Driver/Src/stm32f3xx_hal_dac_ex.c **** 
 941              		.loc 1 929 15 is_stmt 0 discriminator 2 view .LVU280
 942 000c 0223     		movs	r3, #2
 943 000e 0371     		strb	r3, [r0, #4]
 932:Drivers/STM32F3xx_HAL_Driver/Src/stm32f3xx_hal_dac_ex.c ****   
 944              		.loc 1 932 3 is_stmt 1 discriminator 2 view .LVU281
 945 0010 0668     		ldr	r6, [r0]
 946 0012 3368     		ldr	r3, [r6]
 947 0014 4FF47C64 		mov	r4, #4032
 948 0018 8C40     		lsls	r4, r4, r1
 949 001a 23EA0403 		bic	r3, r3, r4
 950 001e 42F04002 		orr	r2, r2, #64
 951              	.LVL80:
ARM GAS  /var/folders/jw/jcj5j9_530958b2rm5vp9wn00000gn/T//ccXbzXq2.s 			page 41


 932:Drivers/STM32F3xx_HAL_Driver/Src/stm32f3xx_hal_dac_ex.c ****   
 952              		.loc 1 932 3 is_stmt 0 discriminator 2 view .LVU282
 953 0022 02FA01F1 		lsl	r1, r2, r1
 954              	.LVL81:
 932:Drivers/STM32F3xx_HAL_Driver/Src/stm32f3xx_hal_dac_ex.c ****   
 955              		.loc 1 932 3 discriminator 2 view .LVU283
 956 0026 1943     		orrs	r1, r1, r3
 957 0028 3160     		str	r1, [r6]
 935:Drivers/STM32F3xx_HAL_Driver/Src/stm32f3xx_hal_dac_ex.c **** 
 958              		.loc 1 935 3 is_stmt 1 discriminator 2 view .LVU284
 935:Drivers/STM32F3xx_HAL_Driver/Src/stm32f3xx_hal_dac_ex.c **** 
 959              		.loc 1 935 15 is_stmt 0 discriminator 2 view .LVU285
 960 002a 0571     		strb	r5, [r0, #4]
 938:Drivers/STM32F3xx_HAL_Driver/Src/stm32f3xx_hal_dac_ex.c **** 
 961              		.loc 1 938 3 is_stmt 1 discriminator 2 view .LVU286
 938:Drivers/STM32F3xx_HAL_Driver/Src/stm32f3xx_hal_dac_ex.c **** 
 962              		.loc 1 938 3 discriminator 2 view .LVU287
 963 002c 0023     		movs	r3, #0
 964 002e 4371     		strb	r3, [r0, #5]
 938:Drivers/STM32F3xx_HAL_Driver/Src/stm32f3xx_hal_dac_ex.c **** 
 965              		.loc 1 938 3 discriminator 2 view .LVU288
 941:Drivers/STM32F3xx_HAL_Driver/Src/stm32f3xx_hal_dac_ex.c **** }
 966              		.loc 1 941 3 discriminator 2 view .LVU289
 941:Drivers/STM32F3xx_HAL_Driver/Src/stm32f3xx_hal_dac_ex.c **** }
 967              		.loc 1 941 10 is_stmt 0 discriminator 2 view .LVU290
 968 0030 1846     		mov	r0, r3
 969              	.LVL82:
 942:Drivers/STM32F3xx_HAL_Driver/Src/stm32f3xx_hal_dac_ex.c **** 
 970              		.loc 1 942 1 discriminator 2 view .LVU291
 971 0032 70BC     		pop	{r4, r5, r6}
 972              	.LCFI18:
 973              		.cfi_restore 6
 974              		.cfi_restore 5
 975              		.cfi_restore 4
 976              		.cfi_def_cfa_offset 0
 977 0034 7047     		bx	lr
 978              	.LVL83:
 979              	.L63:
 926:Drivers/STM32F3xx_HAL_Driver/Src/stm32f3xx_hal_dac_ex.c **** 
 980              		.loc 1 926 3 view .LVU292
 981 0036 0220     		movs	r0, #2
 982              	.LVL84:
 942:Drivers/STM32F3xx_HAL_Driver/Src/stm32f3xx_hal_dac_ex.c **** 
 983              		.loc 1 942 1 view .LVU293
 984 0038 7047     		bx	lr
 985              		.cfi_endproc
 986              	.LFE139:
 988              		.section	.text.HAL_DACEx_ConvCpltCallbackCh2,"ax",%progbits
 989              		.align	1
 990              		.weak	HAL_DACEx_ConvCpltCallbackCh2
 991              		.syntax unified
 992              		.thumb
 993              		.thumb_func
 994              		.fpu fpv4-sp-d16
 996              	HAL_DACEx_ConvCpltCallbackCh2:
 997              	.LVL85:
 998              	.LFB140:
ARM GAS  /var/folders/jw/jcj5j9_530958b2rm5vp9wn00000gn/T//ccXbzXq2.s 			page 42


 956:Drivers/STM32F3xx_HAL_Driver/Src/stm32f3xx_hal_dac_ex.c ****   /* Prevent unused argument(s) compilation warning */
 999              		.loc 1 956 1 is_stmt 1 view -0
 1000              		.cfi_startproc
 1001              		@ args = 0, pretend = 0, frame = 0
 1002              		@ frame_needed = 0, uses_anonymous_args = 0
 1003              		@ link register save eliminated.
 958:Drivers/STM32F3xx_HAL_Driver/Src/stm32f3xx_hal_dac_ex.c **** 
 1004              		.loc 1 958 3 view .LVU295
 963:Drivers/STM32F3xx_HAL_Driver/Src/stm32f3xx_hal_dac_ex.c **** 
 1005              		.loc 1 963 1 is_stmt 0 view .LVU296
 1006 0000 7047     		bx	lr
 1007              		.cfi_endproc
 1008              	.LFE140:
 1010              		.section	.text.DAC_DMAConvCpltCh2,"ax",%progbits
 1011              		.align	1
 1012              		.syntax unified
 1013              		.thumb
 1014              		.thumb_func
 1015              		.fpu fpv4-sp-d16
 1017              	DAC_DMAConvCpltCh2:
 1018              	.LVL86:
 1019              	.LFB147:
1083:Drivers/STM32F3xx_HAL_Driver/Src/stm32f3xx_hal_dac_ex.c **** 
1084:Drivers/STM32F3xx_HAL_Driver/Src/stm32f3xx_hal_dac_ex.c **** #if  defined(STM32F303xE) || defined(STM32F398xx)                         || \
1085:Drivers/STM32F3xx_HAL_Driver/Src/stm32f3xx_hal_dac_ex.c ****      defined(STM32F303xC) || defined(STM32F358xx)                         || \
1086:Drivers/STM32F3xx_HAL_Driver/Src/stm32f3xx_hal_dac_ex.c ****      defined(STM32F303x8) || defined(STM32F334x8) || defined(STM32F328xx) || \
1087:Drivers/STM32F3xx_HAL_Driver/Src/stm32f3xx_hal_dac_ex.c ****      defined(STM32F373xC) || defined(STM32F378xx)
1088:Drivers/STM32F3xx_HAL_Driver/Src/stm32f3xx_hal_dac_ex.c **** /* DAC channel 2 is available on top of DAC channel 1U */
1089:Drivers/STM32F3xx_HAL_Driver/Src/stm32f3xx_hal_dac_ex.c **** /**
1090:Drivers/STM32F3xx_HAL_Driver/Src/stm32f3xx_hal_dac_ex.c ****   * @brief  DMA conversion complete callback. 
1091:Drivers/STM32F3xx_HAL_Driver/Src/stm32f3xx_hal_dac_ex.c ****   * @param  hdma pointer to DMA handle.
1092:Drivers/STM32F3xx_HAL_Driver/Src/stm32f3xx_hal_dac_ex.c ****   * @retval None
1093:Drivers/STM32F3xx_HAL_Driver/Src/stm32f3xx_hal_dac_ex.c ****   */
1094:Drivers/STM32F3xx_HAL_Driver/Src/stm32f3xx_hal_dac_ex.c **** static void DAC_DMAConvCpltCh2(DMA_HandleTypeDef *hdma)   
1095:Drivers/STM32F3xx_HAL_Driver/Src/stm32f3xx_hal_dac_ex.c **** {
 1020              		.loc 1 1095 1 is_stmt 1 view -0
 1021              		.cfi_startproc
 1022              		@ args = 0, pretend = 0, frame = 0
 1023              		@ frame_needed = 0, uses_anonymous_args = 0
 1024              		.loc 1 1095 1 is_stmt 0 view .LVU298
 1025 0000 10B5     		push	{r4, lr}
 1026              	.LCFI19:
 1027              		.cfi_def_cfa_offset 8
 1028              		.cfi_offset 4, -8
 1029              		.cfi_offset 14, -4
1096:Drivers/STM32F3xx_HAL_Driver/Src/stm32f3xx_hal_dac_ex.c ****   DAC_HandleTypeDef* hdac = ( DAC_HandleTypeDef* )((DMA_HandleTypeDef* )hdma)->Parent;
 1030              		.loc 1 1096 3 is_stmt 1 view .LVU299
 1031              		.loc 1 1096 22 is_stmt 0 view .LVU300
 1032 0002 446A     		ldr	r4, [r0, #36]
 1033              	.LVL87:
1097:Drivers/STM32F3xx_HAL_Driver/Src/stm32f3xx_hal_dac_ex.c ****   
1098:Drivers/STM32F3xx_HAL_Driver/Src/stm32f3xx_hal_dac_ex.c **** #if (USE_HAL_DAC_REGISTER_CALLBACKS == 1)  
1099:Drivers/STM32F3xx_HAL_Driver/Src/stm32f3xx_hal_dac_ex.c ****   hdac->ConvCpltCallbackCh2(hdac);
1100:Drivers/STM32F3xx_HAL_Driver/Src/stm32f3xx_hal_dac_ex.c **** #else
1101:Drivers/STM32F3xx_HAL_Driver/Src/stm32f3xx_hal_dac_ex.c ****   HAL_DACEx_ConvCpltCallbackCh2(hdac); 
 1034              		.loc 1 1101 3 is_stmt 1 view .LVU301
 1035 0004 2046     		mov	r0, r4
ARM GAS  /var/folders/jw/jcj5j9_530958b2rm5vp9wn00000gn/T//ccXbzXq2.s 			page 43


 1036              	.LVL88:
 1037              		.loc 1 1101 3 is_stmt 0 view .LVU302
 1038 0006 FFF7FEFF 		bl	HAL_DACEx_ConvCpltCallbackCh2
 1039              	.LVL89:
1102:Drivers/STM32F3xx_HAL_Driver/Src/stm32f3xx_hal_dac_ex.c **** #endif
1103:Drivers/STM32F3xx_HAL_Driver/Src/stm32f3xx_hal_dac_ex.c ****   
1104:Drivers/STM32F3xx_HAL_Driver/Src/stm32f3xx_hal_dac_ex.c ****   hdac->State= HAL_DAC_STATE_READY;
 1040              		.loc 1 1104 3 is_stmt 1 view .LVU303
 1041              		.loc 1 1104 14 is_stmt 0 view .LVU304
 1042 000a 0123     		movs	r3, #1
 1043 000c 2371     		strb	r3, [r4, #4]
1105:Drivers/STM32F3xx_HAL_Driver/Src/stm32f3xx_hal_dac_ex.c **** }
 1044              		.loc 1 1105 1 view .LVU305
 1045 000e 10BD     		pop	{r4, pc}
 1046              		.loc 1 1105 1 view .LVU306
 1047              		.cfi_endproc
 1048              	.LFE147:
 1050              		.section	.text.HAL_DACEx_ConvHalfCpltCallbackCh2,"ax",%progbits
 1051              		.align	1
 1052              		.weak	HAL_DACEx_ConvHalfCpltCallbackCh2
 1053              		.syntax unified
 1054              		.thumb
 1055              		.thumb_func
 1056              		.fpu fpv4-sp-d16
 1058              	HAL_DACEx_ConvHalfCpltCallbackCh2:
 1059              	.LVL90:
 1060              	.LFB141:
 972:Drivers/STM32F3xx_HAL_Driver/Src/stm32f3xx_hal_dac_ex.c ****   /* Prevent unused argument(s) compilation warning */
 1061              		.loc 1 972 1 is_stmt 1 view -0
 1062              		.cfi_startproc
 1063              		@ args = 0, pretend = 0, frame = 0
 1064              		@ frame_needed = 0, uses_anonymous_args = 0
 1065              		@ link register save eliminated.
 974:Drivers/STM32F3xx_HAL_Driver/Src/stm32f3xx_hal_dac_ex.c **** 
 1066              		.loc 1 974 3 view .LVU308
 979:Drivers/STM32F3xx_HAL_Driver/Src/stm32f3xx_hal_dac_ex.c **** 
 1067              		.loc 1 979 1 is_stmt 0 view .LVU309
 1068 0000 7047     		bx	lr
 1069              		.cfi_endproc
 1070              	.LFE141:
 1072              		.section	.text.DAC_DMAHalfConvCpltCh2,"ax",%progbits
 1073              		.align	1
 1074              		.syntax unified
 1075              		.thumb
 1076              		.thumb_func
 1077              		.fpu fpv4-sp-d16
 1079              	DAC_DMAHalfConvCpltCh2:
 1080              	.LVL91:
 1081              	.LFB148:
1106:Drivers/STM32F3xx_HAL_Driver/Src/stm32f3xx_hal_dac_ex.c **** 
1107:Drivers/STM32F3xx_HAL_Driver/Src/stm32f3xx_hal_dac_ex.c **** /**
1108:Drivers/STM32F3xx_HAL_Driver/Src/stm32f3xx_hal_dac_ex.c ****   * @brief  DMA half transfer complete callback. 
1109:Drivers/STM32F3xx_HAL_Driver/Src/stm32f3xx_hal_dac_ex.c ****   * @param  hdma pointer to DMA handle.
1110:Drivers/STM32F3xx_HAL_Driver/Src/stm32f3xx_hal_dac_ex.c ****   * @retval None
1111:Drivers/STM32F3xx_HAL_Driver/Src/stm32f3xx_hal_dac_ex.c ****   */
1112:Drivers/STM32F3xx_HAL_Driver/Src/stm32f3xx_hal_dac_ex.c **** static void DAC_DMAHalfConvCpltCh2(DMA_HandleTypeDef *hdma)   
1113:Drivers/STM32F3xx_HAL_Driver/Src/stm32f3xx_hal_dac_ex.c **** {
ARM GAS  /var/folders/jw/jcj5j9_530958b2rm5vp9wn00000gn/T//ccXbzXq2.s 			page 44


 1082              		.loc 1 1113 1 is_stmt 1 view -0
 1083              		.cfi_startproc
 1084              		@ args = 0, pretend = 0, frame = 0
 1085              		@ frame_needed = 0, uses_anonymous_args = 0
 1086              		.loc 1 1113 1 is_stmt 0 view .LVU311
 1087 0000 08B5     		push	{r3, lr}
 1088              	.LCFI20:
 1089              		.cfi_def_cfa_offset 8
 1090              		.cfi_offset 3, -8
 1091              		.cfi_offset 14, -4
1114:Drivers/STM32F3xx_HAL_Driver/Src/stm32f3xx_hal_dac_ex.c ****     DAC_HandleTypeDef* hdac = ( DAC_HandleTypeDef* )((DMA_HandleTypeDef* )hdma)->Parent;
 1092              		.loc 1 1114 5 is_stmt 1 view .LVU312
 1093              	.LVL92:
1115:Drivers/STM32F3xx_HAL_Driver/Src/stm32f3xx_hal_dac_ex.c **** 
1116:Drivers/STM32F3xx_HAL_Driver/Src/stm32f3xx_hal_dac_ex.c ****     /* Conversion complete callback */
1117:Drivers/STM32F3xx_HAL_Driver/Src/stm32f3xx_hal_dac_ex.c **** #if (USE_HAL_DAC_REGISTER_CALLBACKS == 1)  
1118:Drivers/STM32F3xx_HAL_Driver/Src/stm32f3xx_hal_dac_ex.c ****   hdac->ConvHalfCpltCallbackCh2(hdac);
1119:Drivers/STM32F3xx_HAL_Driver/Src/stm32f3xx_hal_dac_ex.c **** #else
1120:Drivers/STM32F3xx_HAL_Driver/Src/stm32f3xx_hal_dac_ex.c ****     HAL_DACEx_ConvHalfCpltCallbackCh2(hdac); 
 1094              		.loc 1 1120 5 view .LVU313
 1095 0002 406A     		ldr	r0, [r0, #36]
 1096              	.LVL93:
 1097              		.loc 1 1120 5 is_stmt 0 view .LVU314
 1098 0004 FFF7FEFF 		bl	HAL_DACEx_ConvHalfCpltCallbackCh2
 1099              	.LVL94:
1121:Drivers/STM32F3xx_HAL_Driver/Src/stm32f3xx_hal_dac_ex.c **** #endif
1122:Drivers/STM32F3xx_HAL_Driver/Src/stm32f3xx_hal_dac_ex.c **** }
 1100              		.loc 1 1122 1 view .LVU315
 1101 0008 08BD     		pop	{r3, pc}
 1102              		.cfi_endproc
 1103              	.LFE148:
 1105              		.section	.text.HAL_DACEx_ErrorCallbackCh2,"ax",%progbits
 1106              		.align	1
 1107              		.weak	HAL_DACEx_ErrorCallbackCh2
 1108              		.syntax unified
 1109              		.thumb
 1110              		.thumb_func
 1111              		.fpu fpv4-sp-d16
 1113              	HAL_DACEx_ErrorCallbackCh2:
 1114              	.LVL95:
 1115              	.LFB142:
 988:Drivers/STM32F3xx_HAL_Driver/Src/stm32f3xx_hal_dac_ex.c ****   /* Prevent unused argument(s) compilation warning */
 1116              		.loc 1 988 1 is_stmt 1 view -0
 1117              		.cfi_startproc
 1118              		@ args = 0, pretend = 0, frame = 0
 1119              		@ frame_needed = 0, uses_anonymous_args = 0
 1120              		@ link register save eliminated.
 990:Drivers/STM32F3xx_HAL_Driver/Src/stm32f3xx_hal_dac_ex.c **** 
 1121              		.loc 1 990 3 view .LVU317
 995:Drivers/STM32F3xx_HAL_Driver/Src/stm32f3xx_hal_dac_ex.c **** 
 1122              		.loc 1 995 1 is_stmt 0 view .LVU318
 1123 0000 7047     		bx	lr
 1124              		.cfi_endproc
 1125              	.LFE142:
 1127              		.section	.text.DAC_DMAErrorCh2,"ax",%progbits
 1128              		.align	1
 1129              		.syntax unified
ARM GAS  /var/folders/jw/jcj5j9_530958b2rm5vp9wn00000gn/T//ccXbzXq2.s 			page 45


 1130              		.thumb
 1131              		.thumb_func
 1132              		.fpu fpv4-sp-d16
 1134              	DAC_DMAErrorCh2:
 1135              	.LVL96:
 1136              	.LFB149:
1123:Drivers/STM32F3xx_HAL_Driver/Src/stm32f3xx_hal_dac_ex.c **** 
1124:Drivers/STM32F3xx_HAL_Driver/Src/stm32f3xx_hal_dac_ex.c **** /**
1125:Drivers/STM32F3xx_HAL_Driver/Src/stm32f3xx_hal_dac_ex.c ****   * @brief  DMA error callback 
1126:Drivers/STM32F3xx_HAL_Driver/Src/stm32f3xx_hal_dac_ex.c ****   * @param  hdma pointer to DMA handle.
1127:Drivers/STM32F3xx_HAL_Driver/Src/stm32f3xx_hal_dac_ex.c ****   * @retval None
1128:Drivers/STM32F3xx_HAL_Driver/Src/stm32f3xx_hal_dac_ex.c ****   */
1129:Drivers/STM32F3xx_HAL_Driver/Src/stm32f3xx_hal_dac_ex.c **** static void DAC_DMAErrorCh2(DMA_HandleTypeDef *hdma)   
1130:Drivers/STM32F3xx_HAL_Driver/Src/stm32f3xx_hal_dac_ex.c **** {
 1137              		.loc 1 1130 1 is_stmt 1 view -0
 1138              		.cfi_startproc
 1139              		@ args = 0, pretend = 0, frame = 0
 1140              		@ frame_needed = 0, uses_anonymous_args = 0
 1141              		.loc 1 1130 1 is_stmt 0 view .LVU320
 1142 0000 10B5     		push	{r4, lr}
 1143              	.LCFI21:
 1144              		.cfi_def_cfa_offset 8
 1145              		.cfi_offset 4, -8
 1146              		.cfi_offset 14, -4
1131:Drivers/STM32F3xx_HAL_Driver/Src/stm32f3xx_hal_dac_ex.c ****   DAC_HandleTypeDef* hdac = ( DAC_HandleTypeDef* )((DMA_HandleTypeDef* )hdma)->Parent;
 1147              		.loc 1 1131 3 is_stmt 1 view .LVU321
 1148              		.loc 1 1131 22 is_stmt 0 view .LVU322
 1149 0002 446A     		ldr	r4, [r0, #36]
 1150              	.LVL97:
1132:Drivers/STM32F3xx_HAL_Driver/Src/stm32f3xx_hal_dac_ex.c ****     
1133:Drivers/STM32F3xx_HAL_Driver/Src/stm32f3xx_hal_dac_ex.c ****   /* Set DAC error code to DMA error */
1134:Drivers/STM32F3xx_HAL_Driver/Src/stm32f3xx_hal_dac_ex.c ****   hdac->ErrorCode |= HAL_DAC_ERROR_DMA;
 1151              		.loc 1 1134 3 is_stmt 1 view .LVU323
 1152              		.loc 1 1134 19 is_stmt 0 view .LVU324
 1153 0004 2369     		ldr	r3, [r4, #16]
 1154 0006 43F00403 		orr	r3, r3, #4
 1155 000a 2361     		str	r3, [r4, #16]
1135:Drivers/STM32F3xx_HAL_Driver/Src/stm32f3xx_hal_dac_ex.c ****     
1136:Drivers/STM32F3xx_HAL_Driver/Src/stm32f3xx_hal_dac_ex.c **** #if (USE_HAL_DAC_REGISTER_CALLBACKS == 1)
1137:Drivers/STM32F3xx_HAL_Driver/Src/stm32f3xx_hal_dac_ex.c ****   hdac->ErrorCallbackCh2(hdac);
1138:Drivers/STM32F3xx_HAL_Driver/Src/stm32f3xx_hal_dac_ex.c **** #else 
1139:Drivers/STM32F3xx_HAL_Driver/Src/stm32f3xx_hal_dac_ex.c ****   HAL_DACEx_ErrorCallbackCh2(hdac); 
 1156              		.loc 1 1139 3 is_stmt 1 view .LVU325
 1157 000c 2046     		mov	r0, r4
 1158              	.LVL98:
 1159              		.loc 1 1139 3 is_stmt 0 view .LVU326
 1160 000e FFF7FEFF 		bl	HAL_DACEx_ErrorCallbackCh2
 1161              	.LVL99:
1140:Drivers/STM32F3xx_HAL_Driver/Src/stm32f3xx_hal_dac_ex.c **** #endif
1141:Drivers/STM32F3xx_HAL_Driver/Src/stm32f3xx_hal_dac_ex.c ****     
1142:Drivers/STM32F3xx_HAL_Driver/Src/stm32f3xx_hal_dac_ex.c ****   hdac->State= HAL_DAC_STATE_READY;
 1162              		.loc 1 1142 3 is_stmt 1 view .LVU327
 1163              		.loc 1 1142 14 is_stmt 0 view .LVU328
 1164 0012 0123     		movs	r3, #1
 1165 0014 2371     		strb	r3, [r4, #4]
1143:Drivers/STM32F3xx_HAL_Driver/Src/stm32f3xx_hal_dac_ex.c **** }
 1166              		.loc 1 1143 1 view .LVU329
ARM GAS  /var/folders/jw/jcj5j9_530958b2rm5vp9wn00000gn/T//ccXbzXq2.s 			page 46


 1167 0016 10BD     		pop	{r4, pc}
 1168              		.loc 1 1143 1 view .LVU330
 1169              		.cfi_endproc
 1170              	.LFE149:
 1172              		.section	.text.HAL_DACEx_DMAUnderrunCallbackCh2,"ax",%progbits
 1173              		.align	1
 1174              		.weak	HAL_DACEx_DMAUnderrunCallbackCh2
 1175              		.syntax unified
 1176              		.thumb
 1177              		.thumb_func
 1178              		.fpu fpv4-sp-d16
 1180              	HAL_DACEx_DMAUnderrunCallbackCh2:
 1181              	.LVL100:
 1182              	.LFB143:
1004:Drivers/STM32F3xx_HAL_Driver/Src/stm32f3xx_hal_dac_ex.c ****   /* Prevent unused argument(s) compilation warning */
 1183              		.loc 1 1004 1 is_stmt 1 view -0
 1184              		.cfi_startproc
 1185              		@ args = 0, pretend = 0, frame = 0
 1186              		@ frame_needed = 0, uses_anonymous_args = 0
 1187              		@ link register save eliminated.
1006:Drivers/STM32F3xx_HAL_Driver/Src/stm32f3xx_hal_dac_ex.c **** 
 1188              		.loc 1 1006 3 view .LVU332
1011:Drivers/STM32F3xx_HAL_Driver/Src/stm32f3xx_hal_dac_ex.c **** #endif /* STM32F303xE || STM32F398xx                || */
 1189              		.loc 1 1011 1 is_stmt 0 view .LVU333
 1190 0000 7047     		bx	lr
 1191              		.cfi_endproc
 1192              	.LFE143:
 1194              		.section	.text.HAL_DAC_IRQHandler,"ax",%progbits
 1195              		.align	1
 1196              		.global	HAL_DAC_IRQHandler
 1197              		.syntax unified
 1198              		.thumb
 1199              		.thumb_func
 1200              		.fpu fpv4-sp-d16
 1202              	HAL_DAC_IRQHandler:
 1203              	.LVL101:
 1204              	.LFB136:
 660:Drivers/STM32F3xx_HAL_Driver/Src/stm32f3xx_hal_dac_ex.c ****   if(__HAL_DAC_GET_IT_SOURCE(hdac, DAC_IT_DMAUDR1))
 1205              		.loc 1 660 1 is_stmt 1 view -0
 1206              		.cfi_startproc
 1207              		@ args = 0, pretend = 0, frame = 0
 1208              		@ frame_needed = 0, uses_anonymous_args = 0
 660:Drivers/STM32F3xx_HAL_Driver/Src/stm32f3xx_hal_dac_ex.c ****   if(__HAL_DAC_GET_IT_SOURCE(hdac, DAC_IT_DMAUDR1))
 1209              		.loc 1 660 1 is_stmt 0 view .LVU335
 1210 0000 10B5     		push	{r4, lr}
 1211              	.LCFI22:
 1212              		.cfi_def_cfa_offset 8
 1213              		.cfi_offset 4, -8
 1214              		.cfi_offset 14, -4
 1215 0002 0446     		mov	r4, r0
 661:Drivers/STM32F3xx_HAL_Driver/Src/stm32f3xx_hal_dac_ex.c ****   { 
 1216              		.loc 1 661 3 is_stmt 1 view .LVU336
 661:Drivers/STM32F3xx_HAL_Driver/Src/stm32f3xx_hal_dac_ex.c ****   { 
 1217              		.loc 1 661 6 is_stmt 0 view .LVU337
 1218 0004 0368     		ldr	r3, [r0]
 1219 0006 1A68     		ldr	r2, [r3]
 661:Drivers/STM32F3xx_HAL_Driver/Src/stm32f3xx_hal_dac_ex.c ****   { 
ARM GAS  /var/folders/jw/jcj5j9_530958b2rm5vp9wn00000gn/T//ccXbzXq2.s 			page 47


 1220              		.loc 1 661 5 view .LVU338
 1221 0008 12F4005F 		tst	r2, #8192
 1222 000c 03D0     		beq	.L79
 664:Drivers/STM32F3xx_HAL_Driver/Src/stm32f3xx_hal_dac_ex.c ****     {
 1223              		.loc 1 664 5 is_stmt 1 view .LVU339
 664:Drivers/STM32F3xx_HAL_Driver/Src/stm32f3xx_hal_dac_ex.c ****     {
 1224              		.loc 1 664 8 is_stmt 0 view .LVU340
 1225 000e 5A6B     		ldr	r2, [r3, #52]
 664:Drivers/STM32F3xx_HAL_Driver/Src/stm32f3xx_hal_dac_ex.c ****     {
 1226              		.loc 1 664 7 view .LVU341
 1227 0010 12F4005F 		tst	r2, #8192
 1228 0014 09D1     		bne	.L82
 1229              	.LVL102:
 1230              	.L79:
 687:Drivers/STM32F3xx_HAL_Driver/Src/stm32f3xx_hal_dac_ex.c ****   {
 1231              		.loc 1 687 3 is_stmt 1 view .LVU342
 687:Drivers/STM32F3xx_HAL_Driver/Src/stm32f3xx_hal_dac_ex.c ****   {
 1232              		.loc 1 687 6 is_stmt 0 view .LVU343
 1233 0016 2368     		ldr	r3, [r4]
 1234 0018 1A68     		ldr	r2, [r3]
 687:Drivers/STM32F3xx_HAL_Driver/Src/stm32f3xx_hal_dac_ex.c ****   {
 1235              		.loc 1 687 5 view .LVU344
 1236 001a 12F0005F 		tst	r2, #536870912
 1237 001e 03D0     		beq	.L78
 690:Drivers/STM32F3xx_HAL_Driver/Src/stm32f3xx_hal_dac_ex.c ****     {
 1238              		.loc 1 690 5 is_stmt 1 view .LVU345
 690:Drivers/STM32F3xx_HAL_Driver/Src/stm32f3xx_hal_dac_ex.c ****     {
 1239              		.loc 1 690 9 is_stmt 0 view .LVU346
 1240 0020 5A6B     		ldr	r2, [r3, #52]
 690:Drivers/STM32F3xx_HAL_Driver/Src/stm32f3xx_hal_dac_ex.c ****     {
 1241              		.loc 1 690 8 view .LVU347
 1242 0022 12F0005F 		tst	r2, #536870912
 1243 0026 11D1     		bne	.L83
 1244              	.L78:
 712:Drivers/STM32F3xx_HAL_Driver/Src/stm32f3xx_hal_dac_ex.c **** #endif /* STM32F303xE || STM32F398xx                || */
 1245              		.loc 1 712 1 view .LVU348
 1246 0028 10BD     		pop	{r4, pc}
 1247              	.LVL103:
 1248              	.L82:
 667:Drivers/STM32F3xx_HAL_Driver/Src/stm32f3xx_hal_dac_ex.c ****     
 1249              		.loc 1 667 7 is_stmt 1 view .LVU349
 667:Drivers/STM32F3xx_HAL_Driver/Src/stm32f3xx_hal_dac_ex.c ****     
 1250              		.loc 1 667 19 is_stmt 0 view .LVU350
 1251 002a 0422     		movs	r2, #4
 1252 002c 0271     		strb	r2, [r0, #4]
 670:Drivers/STM32F3xx_HAL_Driver/Src/stm32f3xx_hal_dac_ex.c ****           
 1253              		.loc 1 670 7 is_stmt 1 view .LVU351
 1254 002e 0269     		ldr	r2, [r0, #16]
 1255 0030 42F00102 		orr	r2, r2, #1
 1256 0034 0261     		str	r2, [r0, #16]
 673:Drivers/STM32F3xx_HAL_Driver/Src/stm32f3xx_hal_dac_ex.c ****     
 1257              		.loc 1 673 7 view .LVU352
 1258 0036 4FF40052 		mov	r2, #8192
 1259 003a 5A63     		str	r2, [r3, #52]
 676:Drivers/STM32F3xx_HAL_Driver/Src/stm32f3xx_hal_dac_ex.c ****     
 1260              		.loc 1 676 7 view .LVU353
 1261 003c 0268     		ldr	r2, [r0]
ARM GAS  /var/folders/jw/jcj5j9_530958b2rm5vp9wn00000gn/T//ccXbzXq2.s 			page 48


 1262 003e 1368     		ldr	r3, [r2]
 1263 0040 23F48053 		bic	r3, r3, #4096
 1264 0044 1360     		str	r3, [r2]
 682:Drivers/STM32F3xx_HAL_Driver/Src/stm32f3xx_hal_dac_ex.c **** #endif
 1265              		.loc 1 682 7 view .LVU354
 1266 0046 FFF7FEFF 		bl	HAL_DAC_DMAUnderrunCallbackCh1
 1267              	.LVL104:
 682:Drivers/STM32F3xx_HAL_Driver/Src/stm32f3xx_hal_dac_ex.c **** #endif
 1268              		.loc 1 682 7 is_stmt 0 view .LVU355
 1269 004a E4E7     		b	.L79
 1270              	.L83:
 693:Drivers/STM32F3xx_HAL_Driver/Src/stm32f3xx_hal_dac_ex.c ****     
 1271              		.loc 1 693 7 is_stmt 1 view .LVU356
 693:Drivers/STM32F3xx_HAL_Driver/Src/stm32f3xx_hal_dac_ex.c ****     
 1272              		.loc 1 693 19 is_stmt 0 view .LVU357
 1273 004c 0422     		movs	r2, #4
 1274 004e 2271     		strb	r2, [r4, #4]
 696:Drivers/STM32F3xx_HAL_Driver/Src/stm32f3xx_hal_dac_ex.c ****     
 1275              		.loc 1 696 7 is_stmt 1 view .LVU358
 1276 0050 2269     		ldr	r2, [r4, #16]
 1277 0052 42F00202 		orr	r2, r2, #2
 1278 0056 2261     		str	r2, [r4, #16]
 699:Drivers/STM32F3xx_HAL_Driver/Src/stm32f3xx_hal_dac_ex.c ****     
 1279              		.loc 1 699 7 view .LVU359
 1280 0058 4FF00052 		mov	r2, #536870912
 1281 005c 5A63     		str	r2, [r3, #52]
 702:Drivers/STM32F3xx_HAL_Driver/Src/stm32f3xx_hal_dac_ex.c ****    
 1282              		.loc 1 702 7 view .LVU360
 1283 005e 2268     		ldr	r2, [r4]
 1284 0060 1368     		ldr	r3, [r2]
 1285 0062 23F08053 		bic	r3, r3, #268435456
 1286 0066 1360     		str	r3, [r2]
 708:Drivers/STM32F3xx_HAL_Driver/Src/stm32f3xx_hal_dac_ex.c **** #endif
 1287              		.loc 1 708 7 view .LVU361
 1288 0068 2046     		mov	r0, r4
 1289 006a FFF7FEFF 		bl	HAL_DACEx_DMAUnderrunCallbackCh2
 1290              	.LVL105:
 712:Drivers/STM32F3xx_HAL_Driver/Src/stm32f3xx_hal_dac_ex.c **** #endif /* STM32F303xE || STM32F398xx                || */
 1291              		.loc 1 712 1 is_stmt 0 view .LVU362
 1292 006e DBE7     		b	.L78
 1293              		.cfi_endproc
 1294              	.LFE136:
 1296              		.text
 1297              	.Letext0:
 1298              		.file 2 "/Users/javier/Library/xPacks/@xpack-dev-tools/arm-none-eabi-gcc/9.3.1-1.4.1/.content/arm-
 1299              		.file 3 "/Users/javier/Library/xPacks/@xpack-dev-tools/arm-none-eabi-gcc/9.3.1-1.4.1/.content/arm-
 1300              		.file 4 "Drivers/CMSIS/Include/core_cm4.h"
 1301              		.file 5 "Drivers/CMSIS/Device/ST/STM32F3xx/Include/system_stm32f3xx.h"
 1302              		.file 6 "Drivers/CMSIS/Device/ST/STM32F3xx/Include/stm32f373xc.h"
 1303              		.file 7 "Drivers/STM32F3xx_HAL_Driver/Inc/stm32f3xx_hal_def.h"
 1304              		.file 8 "Drivers/STM32F3xx_HAL_Driver/Inc/stm32f3xx_hal_dma.h"
 1305              		.file 9 "Drivers/STM32F3xx_HAL_Driver/Inc/stm32f3xx_hal_dac.h"
 1306              		.file 10 "Drivers/STM32F3xx_HAL_Driver/Inc/stm32f3xx_hal.h"
ARM GAS  /var/folders/jw/jcj5j9_530958b2rm5vp9wn00000gn/T//ccXbzXq2.s 			page 49


DEFINED SYMBOLS
                            *ABS*:0000000000000000 stm32f3xx_hal_dac_ex.c
/var/folders/jw/jcj5j9_530958b2rm5vp9wn00000gn/T//ccXbzXq2.s:18     .text.DAC_DMAErrorCh1:0000000000000000 $t
/var/folders/jw/jcj5j9_530958b2rm5vp9wn00000gn/T//ccXbzXq2.s:25     .text.DAC_DMAErrorCh1:0000000000000000 DAC_DMAErrorCh1
/var/folders/jw/jcj5j9_530958b2rm5vp9wn00000gn/T//ccXbzXq2.s:65     .text.DAC_DMAHalfConvCpltCh1:0000000000000000 $t
/var/folders/jw/jcj5j9_530958b2rm5vp9wn00000gn/T//ccXbzXq2.s:71     .text.DAC_DMAHalfConvCpltCh1:0000000000000000 DAC_DMAHalfConvCpltCh1
/var/folders/jw/jcj5j9_530958b2rm5vp9wn00000gn/T//ccXbzXq2.s:98     .text.DAC_DMAConvCpltCh1:0000000000000000 $t
/var/folders/jw/jcj5j9_530958b2rm5vp9wn00000gn/T//ccXbzXq2.s:104    .text.DAC_DMAConvCpltCh1:0000000000000000 DAC_DMAConvCpltCh1
/var/folders/jw/jcj5j9_530958b2rm5vp9wn00000gn/T//ccXbzXq2.s:138    .text.HAL_DAC_SetValue:0000000000000000 $t
/var/folders/jw/jcj5j9_530958b2rm5vp9wn00000gn/T//ccXbzXq2.s:145    .text.HAL_DAC_SetValue:0000000000000000 HAL_DAC_SetValue
/var/folders/jw/jcj5j9_530958b2rm5vp9wn00000gn/T//ccXbzXq2.s:225    .text.HAL_DACEx_DualSetValue:0000000000000000 $t
/var/folders/jw/jcj5j9_530958b2rm5vp9wn00000gn/T//ccXbzXq2.s:232    .text.HAL_DACEx_DualSetValue:0000000000000000 HAL_DACEx_DualSetValue
/var/folders/jw/jcj5j9_530958b2rm5vp9wn00000gn/T//ccXbzXq2.s:282    .text.HAL_DAC_Start:0000000000000000 $t
/var/folders/jw/jcj5j9_530958b2rm5vp9wn00000gn/T//ccXbzXq2.s:289    .text.HAL_DAC_Start:0000000000000000 HAL_DAC_Start
/var/folders/jw/jcj5j9_530958b2rm5vp9wn00000gn/T//ccXbzXq2.s:394    .text.HAL_DAC_Start_DMA:0000000000000000 $t
/var/folders/jw/jcj5j9_530958b2rm5vp9wn00000gn/T//ccXbzXq2.s:401    .text.HAL_DAC_Start_DMA:0000000000000000 HAL_DAC_Start_DMA
/var/folders/jw/jcj5j9_530958b2rm5vp9wn00000gn/T//ccXbzXq2.s:621    .text.HAL_DAC_Start_DMA:00000000000000d0 $d
/var/folders/jw/jcj5j9_530958b2rm5vp9wn00000gn/T//ccXbzXq2.s:1017   .text.DAC_DMAConvCpltCh2:0000000000000000 DAC_DMAConvCpltCh2
/var/folders/jw/jcj5j9_530958b2rm5vp9wn00000gn/T//ccXbzXq2.s:1079   .text.DAC_DMAHalfConvCpltCh2:0000000000000000 DAC_DMAHalfConvCpltCh2
/var/folders/jw/jcj5j9_530958b2rm5vp9wn00000gn/T//ccXbzXq2.s:1134   .text.DAC_DMAErrorCh2:0000000000000000 DAC_DMAErrorCh2
/var/folders/jw/jcj5j9_530958b2rm5vp9wn00000gn/T//ccXbzXq2.s:631    .text.HAL_DAC_GetValue:0000000000000000 $t
/var/folders/jw/jcj5j9_530958b2rm5vp9wn00000gn/T//ccXbzXq2.s:638    .text.HAL_DAC_GetValue:0000000000000000 HAL_DAC_GetValue
/var/folders/jw/jcj5j9_530958b2rm5vp9wn00000gn/T//ccXbzXq2.s:672    .text.HAL_DACEx_DualGetValue:0000000000000000 $t
/var/folders/jw/jcj5j9_530958b2rm5vp9wn00000gn/T//ccXbzXq2.s:679    .text.HAL_DACEx_DualGetValue:0000000000000000 HAL_DACEx_DualGetValue
/var/folders/jw/jcj5j9_530958b2rm5vp9wn00000gn/T//ccXbzXq2.s:708    .text.HAL_DAC_ConfigChannel:0000000000000000 $t
/var/folders/jw/jcj5j9_530958b2rm5vp9wn00000gn/T//ccXbzXq2.s:715    .text.HAL_DAC_ConfigChannel:0000000000000000 HAL_DAC_ConfigChannel
/var/folders/jw/jcj5j9_530958b2rm5vp9wn00000gn/T//ccXbzXq2.s:825    .text.HAL_DACEx_TriangleWaveGenerate:0000000000000000 $t
/var/folders/jw/jcj5j9_530958b2rm5vp9wn00000gn/T//ccXbzXq2.s:832    .text.HAL_DACEx_TriangleWaveGenerate:0000000000000000 HAL_DACEx_TriangleWaveGenerate
/var/folders/jw/jcj5j9_530958b2rm5vp9wn00000gn/T//ccXbzXq2.s:907    .text.HAL_DACEx_NoiseWaveGenerate:0000000000000000 $t
/var/folders/jw/jcj5j9_530958b2rm5vp9wn00000gn/T//ccXbzXq2.s:914    .text.HAL_DACEx_NoiseWaveGenerate:0000000000000000 HAL_DACEx_NoiseWaveGenerate
/var/folders/jw/jcj5j9_530958b2rm5vp9wn00000gn/T//ccXbzXq2.s:989    .text.HAL_DACEx_ConvCpltCallbackCh2:0000000000000000 $t
/var/folders/jw/jcj5j9_530958b2rm5vp9wn00000gn/T//ccXbzXq2.s:996    .text.HAL_DACEx_ConvCpltCallbackCh2:0000000000000000 HAL_DACEx_ConvCpltCallbackCh2
/var/folders/jw/jcj5j9_530958b2rm5vp9wn00000gn/T//ccXbzXq2.s:1011   .text.DAC_DMAConvCpltCh2:0000000000000000 $t
/var/folders/jw/jcj5j9_530958b2rm5vp9wn00000gn/T//ccXbzXq2.s:1051   .text.HAL_DACEx_ConvHalfCpltCallbackCh2:0000000000000000 $t
/var/folders/jw/jcj5j9_530958b2rm5vp9wn00000gn/T//ccXbzXq2.s:1058   .text.HAL_DACEx_ConvHalfCpltCallbackCh2:0000000000000000 HAL_DACEx_ConvHalfCpltCallbackCh2
/var/folders/jw/jcj5j9_530958b2rm5vp9wn00000gn/T//ccXbzXq2.s:1073   .text.DAC_DMAHalfConvCpltCh2:0000000000000000 $t
/var/folders/jw/jcj5j9_530958b2rm5vp9wn00000gn/T//ccXbzXq2.s:1106   .text.HAL_DACEx_ErrorCallbackCh2:0000000000000000 $t
/var/folders/jw/jcj5j9_530958b2rm5vp9wn00000gn/T//ccXbzXq2.s:1113   .text.HAL_DACEx_ErrorCallbackCh2:0000000000000000 HAL_DACEx_ErrorCallbackCh2
/var/folders/jw/jcj5j9_530958b2rm5vp9wn00000gn/T//ccXbzXq2.s:1128   .text.DAC_DMAErrorCh2:0000000000000000 $t
/var/folders/jw/jcj5j9_530958b2rm5vp9wn00000gn/T//ccXbzXq2.s:1173   .text.HAL_DACEx_DMAUnderrunCallbackCh2:0000000000000000 $t
/var/folders/jw/jcj5j9_530958b2rm5vp9wn00000gn/T//ccXbzXq2.s:1180   .text.HAL_DACEx_DMAUnderrunCallbackCh2:0000000000000000 HAL_DACEx_DMAUnderrunCallbackCh2
/var/folders/jw/jcj5j9_530958b2rm5vp9wn00000gn/T//ccXbzXq2.s:1195   .text.HAL_DAC_IRQHandler:0000000000000000 $t
/var/folders/jw/jcj5j9_530958b2rm5vp9wn00000gn/T//ccXbzXq2.s:1202   .text.HAL_DAC_IRQHandler:0000000000000000 HAL_DAC_IRQHandler

UNDEFINED SYMBOLS
HAL_DAC_ErrorCallbackCh1
HAL_DAC_ConvHalfCpltCallbackCh1
HAL_DAC_ConvCpltCallbackCh1
HAL_DMA_Start_IT
HAL_DAC_DMAUnderrunCallbackCh1
