ARM GAS  /var/folders/jw/jcj5j9_530958b2rm5vp9wn00000gn/T//cc19zHvx.s 			page 1


   1              		.cpu cortex-m4
   2              		.eabi_attribute 27, 1
   3              		.eabi_attribute 28, 1
   4              		.eabi_attribute 20, 1
   5              		.eabi_attribute 21, 1
   6              		.eabi_attribute 23, 3
   7              		.eabi_attribute 24, 1
   8              		.eabi_attribute 25, 1
   9              		.eabi_attribute 26, 1
  10              		.eabi_attribute 30, 1
  11              		.eabi_attribute 34, 1
  12              		.eabi_attribute 18, 4
  13              		.file	"stm32f3xx_hal_flash.c"
  14              		.text
  15              	.Ltext0:
  16              		.cfi_sections	.debug_frame
  17              		.section	.text.FLASH_Program_HalfWord,"ax",%progbits
  18              		.align	1
  19              		.arch armv7e-m
  20              		.syntax unified
  21              		.thumb
  22              		.thumb_func
  23              		.fpu fpv4-sp-d16
  25              	FLASH_Program_HalfWord:
  26              	.LVL0:
  27              	.LFB141:
  28              		.file 1 "Drivers/STM32F3xx_HAL_Driver/Src/stm32f3xx_hal_flash.c"
   1:Drivers/STM32F3xx_HAL_Driver/Src/stm32f3xx_hal_flash.c **** /**
   2:Drivers/STM32F3xx_HAL_Driver/Src/stm32f3xx_hal_flash.c ****   ******************************************************************************
   3:Drivers/STM32F3xx_HAL_Driver/Src/stm32f3xx_hal_flash.c ****   * @file    stm32f3xx_hal_flash.c
   4:Drivers/STM32F3xx_HAL_Driver/Src/stm32f3xx_hal_flash.c ****   * @author  MCD Application Team
   5:Drivers/STM32F3xx_HAL_Driver/Src/stm32f3xx_hal_flash.c ****   * @brief   FLASH HAL module driver.
   6:Drivers/STM32F3xx_HAL_Driver/Src/stm32f3xx_hal_flash.c ****   *          This file provides firmware functions to manage the following 
   7:Drivers/STM32F3xx_HAL_Driver/Src/stm32f3xx_hal_flash.c ****   *          functionalities of the internal FLASH memory:
   8:Drivers/STM32F3xx_HAL_Driver/Src/stm32f3xx_hal_flash.c ****   *           + Program operations functions
   9:Drivers/STM32F3xx_HAL_Driver/Src/stm32f3xx_hal_flash.c ****   *           + Memory Control functions 
  10:Drivers/STM32F3xx_HAL_Driver/Src/stm32f3xx_hal_flash.c ****   *           + Peripheral State functions
  11:Drivers/STM32F3xx_HAL_Driver/Src/stm32f3xx_hal_flash.c ****   *         
  12:Drivers/STM32F3xx_HAL_Driver/Src/stm32f3xx_hal_flash.c ****   @verbatim
  13:Drivers/STM32F3xx_HAL_Driver/Src/stm32f3xx_hal_flash.c ****   ==============================================================================
  14:Drivers/STM32F3xx_HAL_Driver/Src/stm32f3xx_hal_flash.c ****                         ##### FLASH peripheral features #####
  15:Drivers/STM32F3xx_HAL_Driver/Src/stm32f3xx_hal_flash.c ****   ==============================================================================
  16:Drivers/STM32F3xx_HAL_Driver/Src/stm32f3xx_hal_flash.c ****   [..] The Flash memory interface manages CPU AHB I-Code and D-Code accesses 
  17:Drivers/STM32F3xx_HAL_Driver/Src/stm32f3xx_hal_flash.c ****        to the Flash memory. It implements the erase and program Flash memory operations 
  18:Drivers/STM32F3xx_HAL_Driver/Src/stm32f3xx_hal_flash.c ****        and the read and write protection mechanisms.
  19:Drivers/STM32F3xx_HAL_Driver/Src/stm32f3xx_hal_flash.c **** 
  20:Drivers/STM32F3xx_HAL_Driver/Src/stm32f3xx_hal_flash.c ****   [..] The Flash memory interface accelerates code execution with a system of instruction
  21:Drivers/STM32F3xx_HAL_Driver/Src/stm32f3xx_hal_flash.c ****       prefetch. 
  22:Drivers/STM32F3xx_HAL_Driver/Src/stm32f3xx_hal_flash.c **** 
  23:Drivers/STM32F3xx_HAL_Driver/Src/stm32f3xx_hal_flash.c ****   [..] The FLASH main features are:
  24:Drivers/STM32F3xx_HAL_Driver/Src/stm32f3xx_hal_flash.c ****       (+) Flash memory read operations
  25:Drivers/STM32F3xx_HAL_Driver/Src/stm32f3xx_hal_flash.c ****       (+) Flash memory program/erase operations
  26:Drivers/STM32F3xx_HAL_Driver/Src/stm32f3xx_hal_flash.c ****       (+) Read / write protections
  27:Drivers/STM32F3xx_HAL_Driver/Src/stm32f3xx_hal_flash.c ****       (+) Prefetch on I-Code
  28:Drivers/STM32F3xx_HAL_Driver/Src/stm32f3xx_hal_flash.c ****       (+) Option Bytes programming
  29:Drivers/STM32F3xx_HAL_Driver/Src/stm32f3xx_hal_flash.c **** 
  30:Drivers/STM32F3xx_HAL_Driver/Src/stm32f3xx_hal_flash.c **** 
ARM GAS  /var/folders/jw/jcj5j9_530958b2rm5vp9wn00000gn/T//cc19zHvx.s 			page 2


  31:Drivers/STM32F3xx_HAL_Driver/Src/stm32f3xx_hal_flash.c ****                      ##### How to use this driver #####
  32:Drivers/STM32F3xx_HAL_Driver/Src/stm32f3xx_hal_flash.c ****   ==============================================================================
  33:Drivers/STM32F3xx_HAL_Driver/Src/stm32f3xx_hal_flash.c ****   [..]                             
  34:Drivers/STM32F3xx_HAL_Driver/Src/stm32f3xx_hal_flash.c ****       This driver provides functions and macros to configure and program the FLASH 
  35:Drivers/STM32F3xx_HAL_Driver/Src/stm32f3xx_hal_flash.c ****       memory of all STM32F3xx devices.
  36:Drivers/STM32F3xx_HAL_Driver/Src/stm32f3xx_hal_flash.c ****     
  37:Drivers/STM32F3xx_HAL_Driver/Src/stm32f3xx_hal_flash.c ****       (#) FLASH Memory I/O Programming functions: this group includes all needed
  38:Drivers/STM32F3xx_HAL_Driver/Src/stm32f3xx_hal_flash.c ****           functions to erase and program the main memory:
  39:Drivers/STM32F3xx_HAL_Driver/Src/stm32f3xx_hal_flash.c ****         (++) Lock and Unlock the FLASH interface
  40:Drivers/STM32F3xx_HAL_Driver/Src/stm32f3xx_hal_flash.c ****         (++) Erase function: Erase page, erase all pages
  41:Drivers/STM32F3xx_HAL_Driver/Src/stm32f3xx_hal_flash.c ****         (++) Program functions: half word, word and doubleword
  42:Drivers/STM32F3xx_HAL_Driver/Src/stm32f3xx_hal_flash.c ****       (#) FLASH Option Bytes Programming functions: this group includes all needed
  43:Drivers/STM32F3xx_HAL_Driver/Src/stm32f3xx_hal_flash.c ****           functions to manage the Option Bytes:
  44:Drivers/STM32F3xx_HAL_Driver/Src/stm32f3xx_hal_flash.c ****         (++) Lock and Unlock the Option Bytes
  45:Drivers/STM32F3xx_HAL_Driver/Src/stm32f3xx_hal_flash.c ****         (++) Set/Reset the write protection
  46:Drivers/STM32F3xx_HAL_Driver/Src/stm32f3xx_hal_flash.c ****         (++) Set the Read protection Level
  47:Drivers/STM32F3xx_HAL_Driver/Src/stm32f3xx_hal_flash.c ****         (++) Program the user Option Bytes
  48:Drivers/STM32F3xx_HAL_Driver/Src/stm32f3xx_hal_flash.c ****         (++) Launch the Option Bytes loader
  49:Drivers/STM32F3xx_HAL_Driver/Src/stm32f3xx_hal_flash.c ****         (++) Erase Option Bytes
  50:Drivers/STM32F3xx_HAL_Driver/Src/stm32f3xx_hal_flash.c ****         (++) Program the data Option Bytes
  51:Drivers/STM32F3xx_HAL_Driver/Src/stm32f3xx_hal_flash.c ****         (++) Get the Write protection.
  52:Drivers/STM32F3xx_HAL_Driver/Src/stm32f3xx_hal_flash.c ****         (++) Get the user option bytes.
  53:Drivers/STM32F3xx_HAL_Driver/Src/stm32f3xx_hal_flash.c ****     
  54:Drivers/STM32F3xx_HAL_Driver/Src/stm32f3xx_hal_flash.c ****       (#) Interrupts and flags management functions : this group 
  55:Drivers/STM32F3xx_HAL_Driver/Src/stm32f3xx_hal_flash.c ****           includes all needed functions to:
  56:Drivers/STM32F3xx_HAL_Driver/Src/stm32f3xx_hal_flash.c ****         (++) Handle FLASH interrupts
  57:Drivers/STM32F3xx_HAL_Driver/Src/stm32f3xx_hal_flash.c ****         (++) Wait for last FLASH operation according to its status
  58:Drivers/STM32F3xx_HAL_Driver/Src/stm32f3xx_hal_flash.c ****         (++) Get error flag status
  59:Drivers/STM32F3xx_HAL_Driver/Src/stm32f3xx_hal_flash.c **** 
  60:Drivers/STM32F3xx_HAL_Driver/Src/stm32f3xx_hal_flash.c ****   [..] In addition to these function, this driver includes a set of macros allowing
  61:Drivers/STM32F3xx_HAL_Driver/Src/stm32f3xx_hal_flash.c ****        to handle the following operations:
  62:Drivers/STM32F3xx_HAL_Driver/Src/stm32f3xx_hal_flash.c ****       
  63:Drivers/STM32F3xx_HAL_Driver/Src/stm32f3xx_hal_flash.c ****       (+) Set/Get the latency
  64:Drivers/STM32F3xx_HAL_Driver/Src/stm32f3xx_hal_flash.c ****       (+) Enable/Disable the prefetch buffer
  65:Drivers/STM32F3xx_HAL_Driver/Src/stm32f3xx_hal_flash.c ****       (+) Enable/Disable the half cycle access
  66:Drivers/STM32F3xx_HAL_Driver/Src/stm32f3xx_hal_flash.c ****       (+) Enable/Disable the FLASH interrupts
  67:Drivers/STM32F3xx_HAL_Driver/Src/stm32f3xx_hal_flash.c ****       (+) Monitor the FLASH flags status
  68:Drivers/STM32F3xx_HAL_Driver/Src/stm32f3xx_hal_flash.c ****           
  69:Drivers/STM32F3xx_HAL_Driver/Src/stm32f3xx_hal_flash.c ****   @endverbatim
  70:Drivers/STM32F3xx_HAL_Driver/Src/stm32f3xx_hal_flash.c ****   ******************************************************************************
  71:Drivers/STM32F3xx_HAL_Driver/Src/stm32f3xx_hal_flash.c ****   * @attention
  72:Drivers/STM32F3xx_HAL_Driver/Src/stm32f3xx_hal_flash.c ****   *
  73:Drivers/STM32F3xx_HAL_Driver/Src/stm32f3xx_hal_flash.c ****   * <h2><center>&copy; Copyright (c) 2016 STMicroelectronics.
  74:Drivers/STM32F3xx_HAL_Driver/Src/stm32f3xx_hal_flash.c ****   * All rights reserved.</center></h2>
  75:Drivers/STM32F3xx_HAL_Driver/Src/stm32f3xx_hal_flash.c ****   *
  76:Drivers/STM32F3xx_HAL_Driver/Src/stm32f3xx_hal_flash.c ****   * This software component is licensed by ST under BSD 3-Clause license,
  77:Drivers/STM32F3xx_HAL_Driver/Src/stm32f3xx_hal_flash.c ****   * the "License"; You may not use this file except in compliance with the
  78:Drivers/STM32F3xx_HAL_Driver/Src/stm32f3xx_hal_flash.c ****   * License. You may obtain a copy of the License at:
  79:Drivers/STM32F3xx_HAL_Driver/Src/stm32f3xx_hal_flash.c ****   *                        opensource.org/licenses/BSD-3-Clause
  80:Drivers/STM32F3xx_HAL_Driver/Src/stm32f3xx_hal_flash.c ****   *
  81:Drivers/STM32F3xx_HAL_Driver/Src/stm32f3xx_hal_flash.c ****   ******************************************************************************
  82:Drivers/STM32F3xx_HAL_Driver/Src/stm32f3xx_hal_flash.c ****   */
  83:Drivers/STM32F3xx_HAL_Driver/Src/stm32f3xx_hal_flash.c **** 
  84:Drivers/STM32F3xx_HAL_Driver/Src/stm32f3xx_hal_flash.c **** /* Includes ------------------------------------------------------------------*/
  85:Drivers/STM32F3xx_HAL_Driver/Src/stm32f3xx_hal_flash.c **** #include "stm32f3xx_hal.h"
  86:Drivers/STM32F3xx_HAL_Driver/Src/stm32f3xx_hal_flash.c **** 
  87:Drivers/STM32F3xx_HAL_Driver/Src/stm32f3xx_hal_flash.c **** /** @addtogroup STM32F3xx_HAL_Driver
ARM GAS  /var/folders/jw/jcj5j9_530958b2rm5vp9wn00000gn/T//cc19zHvx.s 			page 3


  88:Drivers/STM32F3xx_HAL_Driver/Src/stm32f3xx_hal_flash.c ****   * @{
  89:Drivers/STM32F3xx_HAL_Driver/Src/stm32f3xx_hal_flash.c ****   */
  90:Drivers/STM32F3xx_HAL_Driver/Src/stm32f3xx_hal_flash.c **** 
  91:Drivers/STM32F3xx_HAL_Driver/Src/stm32f3xx_hal_flash.c **** #ifdef HAL_FLASH_MODULE_ENABLED
  92:Drivers/STM32F3xx_HAL_Driver/Src/stm32f3xx_hal_flash.c **** 
  93:Drivers/STM32F3xx_HAL_Driver/Src/stm32f3xx_hal_flash.c **** /** @defgroup FLASH FLASH
  94:Drivers/STM32F3xx_HAL_Driver/Src/stm32f3xx_hal_flash.c ****   * @brief FLASH HAL module driver
  95:Drivers/STM32F3xx_HAL_Driver/Src/stm32f3xx_hal_flash.c ****   * @{
  96:Drivers/STM32F3xx_HAL_Driver/Src/stm32f3xx_hal_flash.c ****   */
  97:Drivers/STM32F3xx_HAL_Driver/Src/stm32f3xx_hal_flash.c **** 
  98:Drivers/STM32F3xx_HAL_Driver/Src/stm32f3xx_hal_flash.c **** /* Private typedef -----------------------------------------------------------*/
  99:Drivers/STM32F3xx_HAL_Driver/Src/stm32f3xx_hal_flash.c **** /* Private define ------------------------------------------------------------*/
 100:Drivers/STM32F3xx_HAL_Driver/Src/stm32f3xx_hal_flash.c **** /** @defgroup FLASH_Private_Constants FLASH Private Constants
 101:Drivers/STM32F3xx_HAL_Driver/Src/stm32f3xx_hal_flash.c ****   * @{
 102:Drivers/STM32F3xx_HAL_Driver/Src/stm32f3xx_hal_flash.c ****   */
 103:Drivers/STM32F3xx_HAL_Driver/Src/stm32f3xx_hal_flash.c **** /**
 104:Drivers/STM32F3xx_HAL_Driver/Src/stm32f3xx_hal_flash.c ****   * @}
 105:Drivers/STM32F3xx_HAL_Driver/Src/stm32f3xx_hal_flash.c ****   */
 106:Drivers/STM32F3xx_HAL_Driver/Src/stm32f3xx_hal_flash.c **** 
 107:Drivers/STM32F3xx_HAL_Driver/Src/stm32f3xx_hal_flash.c **** /* Private macro ---------------------------- ---------------------------------*/
 108:Drivers/STM32F3xx_HAL_Driver/Src/stm32f3xx_hal_flash.c **** /** @defgroup FLASH_Private_Macros FLASH Private Macros
 109:Drivers/STM32F3xx_HAL_Driver/Src/stm32f3xx_hal_flash.c ****   * @{
 110:Drivers/STM32F3xx_HAL_Driver/Src/stm32f3xx_hal_flash.c ****   */
 111:Drivers/STM32F3xx_HAL_Driver/Src/stm32f3xx_hal_flash.c ****  
 112:Drivers/STM32F3xx_HAL_Driver/Src/stm32f3xx_hal_flash.c **** /**
 113:Drivers/STM32F3xx_HAL_Driver/Src/stm32f3xx_hal_flash.c ****   * @}
 114:Drivers/STM32F3xx_HAL_Driver/Src/stm32f3xx_hal_flash.c ****   */
 115:Drivers/STM32F3xx_HAL_Driver/Src/stm32f3xx_hal_flash.c **** 
 116:Drivers/STM32F3xx_HAL_Driver/Src/stm32f3xx_hal_flash.c **** /* Private variables ---------------------------------------------------------*/
 117:Drivers/STM32F3xx_HAL_Driver/Src/stm32f3xx_hal_flash.c **** /** @defgroup FLASH_Private_Variables FLASH Private Variables
 118:Drivers/STM32F3xx_HAL_Driver/Src/stm32f3xx_hal_flash.c ****   * @{
 119:Drivers/STM32F3xx_HAL_Driver/Src/stm32f3xx_hal_flash.c ****   */
 120:Drivers/STM32F3xx_HAL_Driver/Src/stm32f3xx_hal_flash.c **** /* Variables used for Erase pages under interruption*/
 121:Drivers/STM32F3xx_HAL_Driver/Src/stm32f3xx_hal_flash.c **** FLASH_ProcessTypeDef pFlash;
 122:Drivers/STM32F3xx_HAL_Driver/Src/stm32f3xx_hal_flash.c **** /**
 123:Drivers/STM32F3xx_HAL_Driver/Src/stm32f3xx_hal_flash.c ****   * @}
 124:Drivers/STM32F3xx_HAL_Driver/Src/stm32f3xx_hal_flash.c ****   */
 125:Drivers/STM32F3xx_HAL_Driver/Src/stm32f3xx_hal_flash.c **** 
 126:Drivers/STM32F3xx_HAL_Driver/Src/stm32f3xx_hal_flash.c **** /* Private function prototypes -----------------------------------------------*/
 127:Drivers/STM32F3xx_HAL_Driver/Src/stm32f3xx_hal_flash.c **** /** @defgroup FLASH_Private_Functions FLASH Private Functions
 128:Drivers/STM32F3xx_HAL_Driver/Src/stm32f3xx_hal_flash.c ****   * @{
 129:Drivers/STM32F3xx_HAL_Driver/Src/stm32f3xx_hal_flash.c ****   */
 130:Drivers/STM32F3xx_HAL_Driver/Src/stm32f3xx_hal_flash.c **** static  void   FLASH_Program_HalfWord(uint32_t Address, uint16_t Data);
 131:Drivers/STM32F3xx_HAL_Driver/Src/stm32f3xx_hal_flash.c **** static  void   FLASH_SetErrorCode(void);
 132:Drivers/STM32F3xx_HAL_Driver/Src/stm32f3xx_hal_flash.c **** extern void    FLASH_PageErase(uint32_t PageAddress);
 133:Drivers/STM32F3xx_HAL_Driver/Src/stm32f3xx_hal_flash.c **** /**
 134:Drivers/STM32F3xx_HAL_Driver/Src/stm32f3xx_hal_flash.c ****   * @}
 135:Drivers/STM32F3xx_HAL_Driver/Src/stm32f3xx_hal_flash.c ****   */
 136:Drivers/STM32F3xx_HAL_Driver/Src/stm32f3xx_hal_flash.c **** 
 137:Drivers/STM32F3xx_HAL_Driver/Src/stm32f3xx_hal_flash.c **** /* Exported functions ---------------------------------------------------------*/
 138:Drivers/STM32F3xx_HAL_Driver/Src/stm32f3xx_hal_flash.c **** /** @defgroup FLASH_Exported_Functions FLASH Exported Functions
 139:Drivers/STM32F3xx_HAL_Driver/Src/stm32f3xx_hal_flash.c ****   * @{
 140:Drivers/STM32F3xx_HAL_Driver/Src/stm32f3xx_hal_flash.c ****   */
 141:Drivers/STM32F3xx_HAL_Driver/Src/stm32f3xx_hal_flash.c ****   
 142:Drivers/STM32F3xx_HAL_Driver/Src/stm32f3xx_hal_flash.c **** /** @defgroup FLASH_Exported_Functions_Group1 Programming operation functions 
 143:Drivers/STM32F3xx_HAL_Driver/Src/stm32f3xx_hal_flash.c ****   *  @brief   Programming operation functions 
 144:Drivers/STM32F3xx_HAL_Driver/Src/stm32f3xx_hal_flash.c ****   *
ARM GAS  /var/folders/jw/jcj5j9_530958b2rm5vp9wn00000gn/T//cc19zHvx.s 			page 4


 145:Drivers/STM32F3xx_HAL_Driver/Src/stm32f3xx_hal_flash.c **** @verbatim   
 146:Drivers/STM32F3xx_HAL_Driver/Src/stm32f3xx_hal_flash.c **** @endverbatim
 147:Drivers/STM32F3xx_HAL_Driver/Src/stm32f3xx_hal_flash.c ****   * @{
 148:Drivers/STM32F3xx_HAL_Driver/Src/stm32f3xx_hal_flash.c ****   */
 149:Drivers/STM32F3xx_HAL_Driver/Src/stm32f3xx_hal_flash.c **** 
 150:Drivers/STM32F3xx_HAL_Driver/Src/stm32f3xx_hal_flash.c **** /**
 151:Drivers/STM32F3xx_HAL_Driver/Src/stm32f3xx_hal_flash.c ****   * @brief  Program halfword, word or double word at a specified address
 152:Drivers/STM32F3xx_HAL_Driver/Src/stm32f3xx_hal_flash.c ****   * @note   The function HAL_FLASH_Unlock() should be called before to unlock the FLASH interface
 153:Drivers/STM32F3xx_HAL_Driver/Src/stm32f3xx_hal_flash.c ****   *         The function HAL_FLASH_Lock() should be called after to lock the FLASH interface
 154:Drivers/STM32F3xx_HAL_Driver/Src/stm32f3xx_hal_flash.c ****   *
 155:Drivers/STM32F3xx_HAL_Driver/Src/stm32f3xx_hal_flash.c ****   * @note   If an erase and a program operations are requested simultaneously,    
 156:Drivers/STM32F3xx_HAL_Driver/Src/stm32f3xx_hal_flash.c ****   *         the erase operation is performed before the program one.
 157:Drivers/STM32F3xx_HAL_Driver/Src/stm32f3xx_hal_flash.c ****   *  
 158:Drivers/STM32F3xx_HAL_Driver/Src/stm32f3xx_hal_flash.c ****   * @note   FLASH should be previously erased before new programming (only exception to this 
 159:Drivers/STM32F3xx_HAL_Driver/Src/stm32f3xx_hal_flash.c ****   *         is when 0x0000 is programmed)
 160:Drivers/STM32F3xx_HAL_Driver/Src/stm32f3xx_hal_flash.c ****   *
 161:Drivers/STM32F3xx_HAL_Driver/Src/stm32f3xx_hal_flash.c ****   * @param  TypeProgram   Indicate the way to program at a specified address.
 162:Drivers/STM32F3xx_HAL_Driver/Src/stm32f3xx_hal_flash.c ****   *                       This parameter can be a value of @ref FLASH_Type_Program
 163:Drivers/STM32F3xx_HAL_Driver/Src/stm32f3xx_hal_flash.c ****   * @param  Address       Specifie the address to be programmed.
 164:Drivers/STM32F3xx_HAL_Driver/Src/stm32f3xx_hal_flash.c ****   * @param  Data          Specifie the data to be programmed
 165:Drivers/STM32F3xx_HAL_Driver/Src/stm32f3xx_hal_flash.c ****   * 
 166:Drivers/STM32F3xx_HAL_Driver/Src/stm32f3xx_hal_flash.c ****   * @retval HAL_StatusTypeDef HAL Status
 167:Drivers/STM32F3xx_HAL_Driver/Src/stm32f3xx_hal_flash.c ****   */
 168:Drivers/STM32F3xx_HAL_Driver/Src/stm32f3xx_hal_flash.c **** HAL_StatusTypeDef HAL_FLASH_Program(uint32_t TypeProgram, uint32_t Address, uint64_t Data)
 169:Drivers/STM32F3xx_HAL_Driver/Src/stm32f3xx_hal_flash.c **** {
 170:Drivers/STM32F3xx_HAL_Driver/Src/stm32f3xx_hal_flash.c ****   HAL_StatusTypeDef status = HAL_ERROR;
 171:Drivers/STM32F3xx_HAL_Driver/Src/stm32f3xx_hal_flash.c ****   uint8_t index = 0U;
 172:Drivers/STM32F3xx_HAL_Driver/Src/stm32f3xx_hal_flash.c ****   uint8_t nbiterations = 0U;
 173:Drivers/STM32F3xx_HAL_Driver/Src/stm32f3xx_hal_flash.c ****   
 174:Drivers/STM32F3xx_HAL_Driver/Src/stm32f3xx_hal_flash.c ****   /* Process Locked */
 175:Drivers/STM32F3xx_HAL_Driver/Src/stm32f3xx_hal_flash.c ****   __HAL_LOCK(&pFlash);
 176:Drivers/STM32F3xx_HAL_Driver/Src/stm32f3xx_hal_flash.c **** 
 177:Drivers/STM32F3xx_HAL_Driver/Src/stm32f3xx_hal_flash.c ****   /* Check the parameters */
 178:Drivers/STM32F3xx_HAL_Driver/Src/stm32f3xx_hal_flash.c ****   assert_param(IS_FLASH_TYPEPROGRAM(TypeProgram));
 179:Drivers/STM32F3xx_HAL_Driver/Src/stm32f3xx_hal_flash.c ****   assert_param(IS_FLASH_PROGRAM_ADDRESS(Address));
 180:Drivers/STM32F3xx_HAL_Driver/Src/stm32f3xx_hal_flash.c **** 
 181:Drivers/STM32F3xx_HAL_Driver/Src/stm32f3xx_hal_flash.c ****     /* Wait for last operation to be completed */
 182:Drivers/STM32F3xx_HAL_Driver/Src/stm32f3xx_hal_flash.c ****     status = FLASH_WaitForLastOperation(FLASH_TIMEOUT_VALUE);
 183:Drivers/STM32F3xx_HAL_Driver/Src/stm32f3xx_hal_flash.c ****   
 184:Drivers/STM32F3xx_HAL_Driver/Src/stm32f3xx_hal_flash.c ****   if(status == HAL_OK)
 185:Drivers/STM32F3xx_HAL_Driver/Src/stm32f3xx_hal_flash.c ****   {
 186:Drivers/STM32F3xx_HAL_Driver/Src/stm32f3xx_hal_flash.c ****     if(TypeProgram == FLASH_TYPEPROGRAM_HALFWORD)
 187:Drivers/STM32F3xx_HAL_Driver/Src/stm32f3xx_hal_flash.c ****     {
 188:Drivers/STM32F3xx_HAL_Driver/Src/stm32f3xx_hal_flash.c ****       /* Program halfword (16-bit) at a specified address. */
 189:Drivers/STM32F3xx_HAL_Driver/Src/stm32f3xx_hal_flash.c ****       nbiterations = 1U;
 190:Drivers/STM32F3xx_HAL_Driver/Src/stm32f3xx_hal_flash.c ****     }
 191:Drivers/STM32F3xx_HAL_Driver/Src/stm32f3xx_hal_flash.c ****     else if(TypeProgram == FLASH_TYPEPROGRAM_WORD)
 192:Drivers/STM32F3xx_HAL_Driver/Src/stm32f3xx_hal_flash.c ****     {
 193:Drivers/STM32F3xx_HAL_Driver/Src/stm32f3xx_hal_flash.c ****       /* Program word (32-bit = 2*16-bit) at a specified address. */
 194:Drivers/STM32F3xx_HAL_Driver/Src/stm32f3xx_hal_flash.c ****       nbiterations = 2U;
 195:Drivers/STM32F3xx_HAL_Driver/Src/stm32f3xx_hal_flash.c ****     }
 196:Drivers/STM32F3xx_HAL_Driver/Src/stm32f3xx_hal_flash.c ****     else
 197:Drivers/STM32F3xx_HAL_Driver/Src/stm32f3xx_hal_flash.c ****     {
 198:Drivers/STM32F3xx_HAL_Driver/Src/stm32f3xx_hal_flash.c ****       /* Program double word (64-bit = 4*16-bit) at a specified address. */
 199:Drivers/STM32F3xx_HAL_Driver/Src/stm32f3xx_hal_flash.c ****       nbiterations = 4U;
 200:Drivers/STM32F3xx_HAL_Driver/Src/stm32f3xx_hal_flash.c ****     }
 201:Drivers/STM32F3xx_HAL_Driver/Src/stm32f3xx_hal_flash.c **** 
ARM GAS  /var/folders/jw/jcj5j9_530958b2rm5vp9wn00000gn/T//cc19zHvx.s 			page 5


 202:Drivers/STM32F3xx_HAL_Driver/Src/stm32f3xx_hal_flash.c ****     for (index = 0U; index < nbiterations; index++)
 203:Drivers/STM32F3xx_HAL_Driver/Src/stm32f3xx_hal_flash.c ****     {
 204:Drivers/STM32F3xx_HAL_Driver/Src/stm32f3xx_hal_flash.c ****       FLASH_Program_HalfWord((Address + (2U*index)), (uint16_t)(Data >> (16U*index)));
 205:Drivers/STM32F3xx_HAL_Driver/Src/stm32f3xx_hal_flash.c **** 
 206:Drivers/STM32F3xx_HAL_Driver/Src/stm32f3xx_hal_flash.c ****         /* Wait for last operation to be completed */
 207:Drivers/STM32F3xx_HAL_Driver/Src/stm32f3xx_hal_flash.c ****         status = FLASH_WaitForLastOperation(FLASH_TIMEOUT_VALUE);
 208:Drivers/STM32F3xx_HAL_Driver/Src/stm32f3xx_hal_flash.c ****     
 209:Drivers/STM32F3xx_HAL_Driver/Src/stm32f3xx_hal_flash.c ****         /* If the program operation is completed, disable the PG Bit */
 210:Drivers/STM32F3xx_HAL_Driver/Src/stm32f3xx_hal_flash.c ****         CLEAR_BIT(FLASH->CR, FLASH_CR_PG);
 211:Drivers/STM32F3xx_HAL_Driver/Src/stm32f3xx_hal_flash.c ****       /* In case of error, stop programming procedure */
 212:Drivers/STM32F3xx_HAL_Driver/Src/stm32f3xx_hal_flash.c ****       if (status != HAL_OK)
 213:Drivers/STM32F3xx_HAL_Driver/Src/stm32f3xx_hal_flash.c ****       {
 214:Drivers/STM32F3xx_HAL_Driver/Src/stm32f3xx_hal_flash.c ****         break;
 215:Drivers/STM32F3xx_HAL_Driver/Src/stm32f3xx_hal_flash.c ****       }
 216:Drivers/STM32F3xx_HAL_Driver/Src/stm32f3xx_hal_flash.c ****     }
 217:Drivers/STM32F3xx_HAL_Driver/Src/stm32f3xx_hal_flash.c ****   }
 218:Drivers/STM32F3xx_HAL_Driver/Src/stm32f3xx_hal_flash.c **** 
 219:Drivers/STM32F3xx_HAL_Driver/Src/stm32f3xx_hal_flash.c ****   /* Process Unlocked */
 220:Drivers/STM32F3xx_HAL_Driver/Src/stm32f3xx_hal_flash.c ****   __HAL_UNLOCK(&pFlash);
 221:Drivers/STM32F3xx_HAL_Driver/Src/stm32f3xx_hal_flash.c **** 
 222:Drivers/STM32F3xx_HAL_Driver/Src/stm32f3xx_hal_flash.c ****   return status;
 223:Drivers/STM32F3xx_HAL_Driver/Src/stm32f3xx_hal_flash.c **** }
 224:Drivers/STM32F3xx_HAL_Driver/Src/stm32f3xx_hal_flash.c **** 
 225:Drivers/STM32F3xx_HAL_Driver/Src/stm32f3xx_hal_flash.c **** /**
 226:Drivers/STM32F3xx_HAL_Driver/Src/stm32f3xx_hal_flash.c ****   * @brief  Program halfword, word or double word at a specified address  with interrupt enabled.
 227:Drivers/STM32F3xx_HAL_Driver/Src/stm32f3xx_hal_flash.c ****   * @note   The function HAL_FLASH_Unlock() should be called before to unlock the FLASH interface
 228:Drivers/STM32F3xx_HAL_Driver/Src/stm32f3xx_hal_flash.c ****   *         The function HAL_FLASH_Lock() should be called after to lock the FLASH interface
 229:Drivers/STM32F3xx_HAL_Driver/Src/stm32f3xx_hal_flash.c ****   *
 230:Drivers/STM32F3xx_HAL_Driver/Src/stm32f3xx_hal_flash.c ****   * @note   If an erase and a program operations are requested simultaneously,    
 231:Drivers/STM32F3xx_HAL_Driver/Src/stm32f3xx_hal_flash.c ****   *         the erase operation is performed before the program one.
 232:Drivers/STM32F3xx_HAL_Driver/Src/stm32f3xx_hal_flash.c ****   *
 233:Drivers/STM32F3xx_HAL_Driver/Src/stm32f3xx_hal_flash.c ****   * @param  TypeProgram  Indicate the way to program at a specified address.
 234:Drivers/STM32F3xx_HAL_Driver/Src/stm32f3xx_hal_flash.c ****   *                      This parameter can be a value of @ref FLASH_Type_Program
 235:Drivers/STM32F3xx_HAL_Driver/Src/stm32f3xx_hal_flash.c ****   * @param  Address      Specifie the address to be programmed.
 236:Drivers/STM32F3xx_HAL_Driver/Src/stm32f3xx_hal_flash.c ****   * @param  Data         Specifie the data to be programmed
 237:Drivers/STM32F3xx_HAL_Driver/Src/stm32f3xx_hal_flash.c ****   * 
 238:Drivers/STM32F3xx_HAL_Driver/Src/stm32f3xx_hal_flash.c ****   * @retval HAL_StatusTypeDef HAL Status
 239:Drivers/STM32F3xx_HAL_Driver/Src/stm32f3xx_hal_flash.c ****   */
 240:Drivers/STM32F3xx_HAL_Driver/Src/stm32f3xx_hal_flash.c **** HAL_StatusTypeDef HAL_FLASH_Program_IT(uint32_t TypeProgram, uint32_t Address, uint64_t Data)
 241:Drivers/STM32F3xx_HAL_Driver/Src/stm32f3xx_hal_flash.c **** {
 242:Drivers/STM32F3xx_HAL_Driver/Src/stm32f3xx_hal_flash.c ****   HAL_StatusTypeDef status = HAL_OK;
 243:Drivers/STM32F3xx_HAL_Driver/Src/stm32f3xx_hal_flash.c ****   
 244:Drivers/STM32F3xx_HAL_Driver/Src/stm32f3xx_hal_flash.c ****   /* Process Locked */
 245:Drivers/STM32F3xx_HAL_Driver/Src/stm32f3xx_hal_flash.c ****   __HAL_LOCK(&pFlash);
 246:Drivers/STM32F3xx_HAL_Driver/Src/stm32f3xx_hal_flash.c **** 
 247:Drivers/STM32F3xx_HAL_Driver/Src/stm32f3xx_hal_flash.c ****   /* Check the parameters */
 248:Drivers/STM32F3xx_HAL_Driver/Src/stm32f3xx_hal_flash.c ****   assert_param(IS_FLASH_TYPEPROGRAM(TypeProgram));
 249:Drivers/STM32F3xx_HAL_Driver/Src/stm32f3xx_hal_flash.c ****   assert_param(IS_FLASH_PROGRAM_ADDRESS(Address));
 250:Drivers/STM32F3xx_HAL_Driver/Src/stm32f3xx_hal_flash.c **** 
 251:Drivers/STM32F3xx_HAL_Driver/Src/stm32f3xx_hal_flash.c ****   /* Enable End of FLASH Operation and Error source interrupts */
 252:Drivers/STM32F3xx_HAL_Driver/Src/stm32f3xx_hal_flash.c ****   __HAL_FLASH_ENABLE_IT(FLASH_IT_EOP | FLASH_IT_ERR);
 253:Drivers/STM32F3xx_HAL_Driver/Src/stm32f3xx_hal_flash.c ****   
 254:Drivers/STM32F3xx_HAL_Driver/Src/stm32f3xx_hal_flash.c ****   pFlash.Address = Address;
 255:Drivers/STM32F3xx_HAL_Driver/Src/stm32f3xx_hal_flash.c ****   pFlash.Data = Data;
 256:Drivers/STM32F3xx_HAL_Driver/Src/stm32f3xx_hal_flash.c **** 
 257:Drivers/STM32F3xx_HAL_Driver/Src/stm32f3xx_hal_flash.c ****   if(TypeProgram == FLASH_TYPEPROGRAM_HALFWORD)
 258:Drivers/STM32F3xx_HAL_Driver/Src/stm32f3xx_hal_flash.c ****   {
ARM GAS  /var/folders/jw/jcj5j9_530958b2rm5vp9wn00000gn/T//cc19zHvx.s 			page 6


 259:Drivers/STM32F3xx_HAL_Driver/Src/stm32f3xx_hal_flash.c ****     pFlash.ProcedureOnGoing = FLASH_PROC_PROGRAMHALFWORD;
 260:Drivers/STM32F3xx_HAL_Driver/Src/stm32f3xx_hal_flash.c ****     /* Program halfword (16-bit) at a specified address. */
 261:Drivers/STM32F3xx_HAL_Driver/Src/stm32f3xx_hal_flash.c ****     pFlash.DataRemaining = 1U;
 262:Drivers/STM32F3xx_HAL_Driver/Src/stm32f3xx_hal_flash.c ****   }
 263:Drivers/STM32F3xx_HAL_Driver/Src/stm32f3xx_hal_flash.c ****   else if(TypeProgram == FLASH_TYPEPROGRAM_WORD)
 264:Drivers/STM32F3xx_HAL_Driver/Src/stm32f3xx_hal_flash.c ****   {
 265:Drivers/STM32F3xx_HAL_Driver/Src/stm32f3xx_hal_flash.c ****     pFlash.ProcedureOnGoing = FLASH_PROC_PROGRAMWORD;
 266:Drivers/STM32F3xx_HAL_Driver/Src/stm32f3xx_hal_flash.c ****     /* Program word (32-bit : 2*16-bit) at a specified address. */
 267:Drivers/STM32F3xx_HAL_Driver/Src/stm32f3xx_hal_flash.c ****     pFlash.DataRemaining = 2U;
 268:Drivers/STM32F3xx_HAL_Driver/Src/stm32f3xx_hal_flash.c ****   }
 269:Drivers/STM32F3xx_HAL_Driver/Src/stm32f3xx_hal_flash.c ****   else
 270:Drivers/STM32F3xx_HAL_Driver/Src/stm32f3xx_hal_flash.c ****   {
 271:Drivers/STM32F3xx_HAL_Driver/Src/stm32f3xx_hal_flash.c ****     pFlash.ProcedureOnGoing = FLASH_PROC_PROGRAMDOUBLEWORD;
 272:Drivers/STM32F3xx_HAL_Driver/Src/stm32f3xx_hal_flash.c ****     /* Program double word (64-bit : 4*16-bit) at a specified address. */
 273:Drivers/STM32F3xx_HAL_Driver/Src/stm32f3xx_hal_flash.c ****     pFlash.DataRemaining = 4U;
 274:Drivers/STM32F3xx_HAL_Driver/Src/stm32f3xx_hal_flash.c ****   }
 275:Drivers/STM32F3xx_HAL_Driver/Src/stm32f3xx_hal_flash.c **** 
 276:Drivers/STM32F3xx_HAL_Driver/Src/stm32f3xx_hal_flash.c ****   /* Program halfword (16-bit) at a specified address. */
 277:Drivers/STM32F3xx_HAL_Driver/Src/stm32f3xx_hal_flash.c ****   FLASH_Program_HalfWord(Address, (uint16_t)Data);
 278:Drivers/STM32F3xx_HAL_Driver/Src/stm32f3xx_hal_flash.c **** 
 279:Drivers/STM32F3xx_HAL_Driver/Src/stm32f3xx_hal_flash.c ****   return status;
 280:Drivers/STM32F3xx_HAL_Driver/Src/stm32f3xx_hal_flash.c **** }
 281:Drivers/STM32F3xx_HAL_Driver/Src/stm32f3xx_hal_flash.c **** 
 282:Drivers/STM32F3xx_HAL_Driver/Src/stm32f3xx_hal_flash.c **** /**
 283:Drivers/STM32F3xx_HAL_Driver/Src/stm32f3xx_hal_flash.c ****   * @brief This function handles FLASH interrupt request.
 284:Drivers/STM32F3xx_HAL_Driver/Src/stm32f3xx_hal_flash.c ****   * @retval None
 285:Drivers/STM32F3xx_HAL_Driver/Src/stm32f3xx_hal_flash.c ****   */
 286:Drivers/STM32F3xx_HAL_Driver/Src/stm32f3xx_hal_flash.c **** void HAL_FLASH_IRQHandler(void)
 287:Drivers/STM32F3xx_HAL_Driver/Src/stm32f3xx_hal_flash.c **** {
 288:Drivers/STM32F3xx_HAL_Driver/Src/stm32f3xx_hal_flash.c ****   uint32_t addresstmp = 0U;
 289:Drivers/STM32F3xx_HAL_Driver/Src/stm32f3xx_hal_flash.c ****   
 290:Drivers/STM32F3xx_HAL_Driver/Src/stm32f3xx_hal_flash.c ****   /* Check FLASH operation error flags */
 291:Drivers/STM32F3xx_HAL_Driver/Src/stm32f3xx_hal_flash.c ****   if(__HAL_FLASH_GET_FLAG(FLASH_FLAG_WRPERR) ||__HAL_FLASH_GET_FLAG(FLASH_FLAG_PGERR))
 292:Drivers/STM32F3xx_HAL_Driver/Src/stm32f3xx_hal_flash.c ****   {
 293:Drivers/STM32F3xx_HAL_Driver/Src/stm32f3xx_hal_flash.c ****     /* Return the faulty address */
 294:Drivers/STM32F3xx_HAL_Driver/Src/stm32f3xx_hal_flash.c ****     addresstmp = pFlash.Address;
 295:Drivers/STM32F3xx_HAL_Driver/Src/stm32f3xx_hal_flash.c ****     /* Reset address */
 296:Drivers/STM32F3xx_HAL_Driver/Src/stm32f3xx_hal_flash.c ****     pFlash.Address = 0xFFFFFFFFU;
 297:Drivers/STM32F3xx_HAL_Driver/Src/stm32f3xx_hal_flash.c ****   
 298:Drivers/STM32F3xx_HAL_Driver/Src/stm32f3xx_hal_flash.c ****     /* Save the Error code */
 299:Drivers/STM32F3xx_HAL_Driver/Src/stm32f3xx_hal_flash.c ****     FLASH_SetErrorCode();
 300:Drivers/STM32F3xx_HAL_Driver/Src/stm32f3xx_hal_flash.c ****     
 301:Drivers/STM32F3xx_HAL_Driver/Src/stm32f3xx_hal_flash.c ****     /* FLASH error interrupt user callback */
 302:Drivers/STM32F3xx_HAL_Driver/Src/stm32f3xx_hal_flash.c ****     HAL_FLASH_OperationErrorCallback(addresstmp);
 303:Drivers/STM32F3xx_HAL_Driver/Src/stm32f3xx_hal_flash.c **** 
 304:Drivers/STM32F3xx_HAL_Driver/Src/stm32f3xx_hal_flash.c ****     /* Stop the procedure ongoing */
 305:Drivers/STM32F3xx_HAL_Driver/Src/stm32f3xx_hal_flash.c ****     pFlash.ProcedureOnGoing = FLASH_PROC_NONE;
 306:Drivers/STM32F3xx_HAL_Driver/Src/stm32f3xx_hal_flash.c ****   }
 307:Drivers/STM32F3xx_HAL_Driver/Src/stm32f3xx_hal_flash.c **** 
 308:Drivers/STM32F3xx_HAL_Driver/Src/stm32f3xx_hal_flash.c ****   /* Check FLASH End of Operation flag  */
 309:Drivers/STM32F3xx_HAL_Driver/Src/stm32f3xx_hal_flash.c ****   if(__HAL_FLASH_GET_FLAG(FLASH_FLAG_EOP))
 310:Drivers/STM32F3xx_HAL_Driver/Src/stm32f3xx_hal_flash.c ****   {
 311:Drivers/STM32F3xx_HAL_Driver/Src/stm32f3xx_hal_flash.c ****     /* Clear FLASH End of Operation pending bit */
 312:Drivers/STM32F3xx_HAL_Driver/Src/stm32f3xx_hal_flash.c ****     __HAL_FLASH_CLEAR_FLAG(FLASH_FLAG_EOP);
 313:Drivers/STM32F3xx_HAL_Driver/Src/stm32f3xx_hal_flash.c ****     
 314:Drivers/STM32F3xx_HAL_Driver/Src/stm32f3xx_hal_flash.c ****     /* Process can continue only if no error detected */
 315:Drivers/STM32F3xx_HAL_Driver/Src/stm32f3xx_hal_flash.c ****     if(pFlash.ProcedureOnGoing != FLASH_PROC_NONE)
ARM GAS  /var/folders/jw/jcj5j9_530958b2rm5vp9wn00000gn/T//cc19zHvx.s 			page 7


 316:Drivers/STM32F3xx_HAL_Driver/Src/stm32f3xx_hal_flash.c ****     {
 317:Drivers/STM32F3xx_HAL_Driver/Src/stm32f3xx_hal_flash.c ****       if(pFlash.ProcedureOnGoing == FLASH_PROC_PAGEERASE)
 318:Drivers/STM32F3xx_HAL_Driver/Src/stm32f3xx_hal_flash.c ****       {
 319:Drivers/STM32F3xx_HAL_Driver/Src/stm32f3xx_hal_flash.c ****         /* Nb of pages to erased can be decreased */
 320:Drivers/STM32F3xx_HAL_Driver/Src/stm32f3xx_hal_flash.c ****         pFlash.DataRemaining--;
 321:Drivers/STM32F3xx_HAL_Driver/Src/stm32f3xx_hal_flash.c **** 
 322:Drivers/STM32F3xx_HAL_Driver/Src/stm32f3xx_hal_flash.c ****         /* Check if there are still pages to erase */
 323:Drivers/STM32F3xx_HAL_Driver/Src/stm32f3xx_hal_flash.c ****         if(pFlash.DataRemaining != 0U)
 324:Drivers/STM32F3xx_HAL_Driver/Src/stm32f3xx_hal_flash.c ****         {
 325:Drivers/STM32F3xx_HAL_Driver/Src/stm32f3xx_hal_flash.c ****           addresstmp = pFlash.Address;
 326:Drivers/STM32F3xx_HAL_Driver/Src/stm32f3xx_hal_flash.c ****           /*Indicate user which sector has been erased */
 327:Drivers/STM32F3xx_HAL_Driver/Src/stm32f3xx_hal_flash.c ****           HAL_FLASH_EndOfOperationCallback(addresstmp);
 328:Drivers/STM32F3xx_HAL_Driver/Src/stm32f3xx_hal_flash.c **** 
 329:Drivers/STM32F3xx_HAL_Driver/Src/stm32f3xx_hal_flash.c ****           /*Increment sector number*/
 330:Drivers/STM32F3xx_HAL_Driver/Src/stm32f3xx_hal_flash.c ****           addresstmp = pFlash.Address + FLASH_PAGE_SIZE;
 331:Drivers/STM32F3xx_HAL_Driver/Src/stm32f3xx_hal_flash.c ****           pFlash.Address = addresstmp;
 332:Drivers/STM32F3xx_HAL_Driver/Src/stm32f3xx_hal_flash.c **** 
 333:Drivers/STM32F3xx_HAL_Driver/Src/stm32f3xx_hal_flash.c ****           /* If the erase operation is completed, disable the PER Bit */
 334:Drivers/STM32F3xx_HAL_Driver/Src/stm32f3xx_hal_flash.c ****           CLEAR_BIT(FLASH->CR, FLASH_CR_PER);
 335:Drivers/STM32F3xx_HAL_Driver/Src/stm32f3xx_hal_flash.c **** 
 336:Drivers/STM32F3xx_HAL_Driver/Src/stm32f3xx_hal_flash.c ****           FLASH_PageErase(addresstmp);
 337:Drivers/STM32F3xx_HAL_Driver/Src/stm32f3xx_hal_flash.c ****         }
 338:Drivers/STM32F3xx_HAL_Driver/Src/stm32f3xx_hal_flash.c ****         else
 339:Drivers/STM32F3xx_HAL_Driver/Src/stm32f3xx_hal_flash.c ****         {
 340:Drivers/STM32F3xx_HAL_Driver/Src/stm32f3xx_hal_flash.c ****           /* No more pages to Erase, user callback can be called. */
 341:Drivers/STM32F3xx_HAL_Driver/Src/stm32f3xx_hal_flash.c ****           /* Reset Sector and stop Erase pages procedure */
 342:Drivers/STM32F3xx_HAL_Driver/Src/stm32f3xx_hal_flash.c ****           pFlash.Address = addresstmp = 0xFFFFFFFFU;
 343:Drivers/STM32F3xx_HAL_Driver/Src/stm32f3xx_hal_flash.c ****           pFlash.ProcedureOnGoing = FLASH_PROC_NONE;
 344:Drivers/STM32F3xx_HAL_Driver/Src/stm32f3xx_hal_flash.c ****           /* FLASH EOP interrupt user callback */
 345:Drivers/STM32F3xx_HAL_Driver/Src/stm32f3xx_hal_flash.c ****           HAL_FLASH_EndOfOperationCallback(addresstmp);
 346:Drivers/STM32F3xx_HAL_Driver/Src/stm32f3xx_hal_flash.c ****         }
 347:Drivers/STM32F3xx_HAL_Driver/Src/stm32f3xx_hal_flash.c ****       }
 348:Drivers/STM32F3xx_HAL_Driver/Src/stm32f3xx_hal_flash.c ****       else if(pFlash.ProcedureOnGoing == FLASH_PROC_MASSERASE)
 349:Drivers/STM32F3xx_HAL_Driver/Src/stm32f3xx_hal_flash.c ****       {
 350:Drivers/STM32F3xx_HAL_Driver/Src/stm32f3xx_hal_flash.c ****         /* Operation is completed, disable the MER Bit */
 351:Drivers/STM32F3xx_HAL_Driver/Src/stm32f3xx_hal_flash.c ****         CLEAR_BIT(FLASH->CR, FLASH_CR_MER);
 352:Drivers/STM32F3xx_HAL_Driver/Src/stm32f3xx_hal_flash.c **** 
 353:Drivers/STM32F3xx_HAL_Driver/Src/stm32f3xx_hal_flash.c ****           /* MassErase ended. Return the selected bank */
 354:Drivers/STM32F3xx_HAL_Driver/Src/stm32f3xx_hal_flash.c ****           /* FLASH EOP interrupt user callback */
 355:Drivers/STM32F3xx_HAL_Driver/Src/stm32f3xx_hal_flash.c ****           HAL_FLASH_EndOfOperationCallback(0U);
 356:Drivers/STM32F3xx_HAL_Driver/Src/stm32f3xx_hal_flash.c **** 
 357:Drivers/STM32F3xx_HAL_Driver/Src/stm32f3xx_hal_flash.c ****           /* Stop Mass Erase procedure*/
 358:Drivers/STM32F3xx_HAL_Driver/Src/stm32f3xx_hal_flash.c ****           pFlash.ProcedureOnGoing = FLASH_PROC_NONE;
 359:Drivers/STM32F3xx_HAL_Driver/Src/stm32f3xx_hal_flash.c ****         }
 360:Drivers/STM32F3xx_HAL_Driver/Src/stm32f3xx_hal_flash.c ****       else
 361:Drivers/STM32F3xx_HAL_Driver/Src/stm32f3xx_hal_flash.c ****       {
 362:Drivers/STM32F3xx_HAL_Driver/Src/stm32f3xx_hal_flash.c ****         /* Nb of 16-bit data to program can be decreased */
 363:Drivers/STM32F3xx_HAL_Driver/Src/stm32f3xx_hal_flash.c ****         pFlash.DataRemaining--;
 364:Drivers/STM32F3xx_HAL_Driver/Src/stm32f3xx_hal_flash.c ****         
 365:Drivers/STM32F3xx_HAL_Driver/Src/stm32f3xx_hal_flash.c ****         /* Check if there are still 16-bit data to program */
 366:Drivers/STM32F3xx_HAL_Driver/Src/stm32f3xx_hal_flash.c ****         if(pFlash.DataRemaining != 0U)
 367:Drivers/STM32F3xx_HAL_Driver/Src/stm32f3xx_hal_flash.c ****         {
 368:Drivers/STM32F3xx_HAL_Driver/Src/stm32f3xx_hal_flash.c ****           /* Increment address to 16-bit */
 369:Drivers/STM32F3xx_HAL_Driver/Src/stm32f3xx_hal_flash.c ****           pFlash.Address += 2U;
 370:Drivers/STM32F3xx_HAL_Driver/Src/stm32f3xx_hal_flash.c ****           addresstmp = pFlash.Address;
 371:Drivers/STM32F3xx_HAL_Driver/Src/stm32f3xx_hal_flash.c ****           
 372:Drivers/STM32F3xx_HAL_Driver/Src/stm32f3xx_hal_flash.c ****           /* Shift to have next 16-bit data */
ARM GAS  /var/folders/jw/jcj5j9_530958b2rm5vp9wn00000gn/T//cc19zHvx.s 			page 8


 373:Drivers/STM32F3xx_HAL_Driver/Src/stm32f3xx_hal_flash.c ****           pFlash.Data = (pFlash.Data >> 16U);
 374:Drivers/STM32F3xx_HAL_Driver/Src/stm32f3xx_hal_flash.c ****           
 375:Drivers/STM32F3xx_HAL_Driver/Src/stm32f3xx_hal_flash.c ****           /* Operation is completed, disable the PG Bit */
 376:Drivers/STM32F3xx_HAL_Driver/Src/stm32f3xx_hal_flash.c ****           CLEAR_BIT(FLASH->CR, FLASH_CR_PG);
 377:Drivers/STM32F3xx_HAL_Driver/Src/stm32f3xx_hal_flash.c **** 
 378:Drivers/STM32F3xx_HAL_Driver/Src/stm32f3xx_hal_flash.c ****           /*Program halfword (16-bit) at a specified address.*/
 379:Drivers/STM32F3xx_HAL_Driver/Src/stm32f3xx_hal_flash.c ****           FLASH_Program_HalfWord(addresstmp, (uint16_t)pFlash.Data);
 380:Drivers/STM32F3xx_HAL_Driver/Src/stm32f3xx_hal_flash.c ****         }
 381:Drivers/STM32F3xx_HAL_Driver/Src/stm32f3xx_hal_flash.c ****         else
 382:Drivers/STM32F3xx_HAL_Driver/Src/stm32f3xx_hal_flash.c ****         {
 383:Drivers/STM32F3xx_HAL_Driver/Src/stm32f3xx_hal_flash.c ****           /* Program ended. Return the selected address */
 384:Drivers/STM32F3xx_HAL_Driver/Src/stm32f3xx_hal_flash.c ****           /* FLASH EOP interrupt user callback */
 385:Drivers/STM32F3xx_HAL_Driver/Src/stm32f3xx_hal_flash.c ****           if (pFlash.ProcedureOnGoing == FLASH_PROC_PROGRAMHALFWORD)
 386:Drivers/STM32F3xx_HAL_Driver/Src/stm32f3xx_hal_flash.c ****           {
 387:Drivers/STM32F3xx_HAL_Driver/Src/stm32f3xx_hal_flash.c ****             HAL_FLASH_EndOfOperationCallback(pFlash.Address);
 388:Drivers/STM32F3xx_HAL_Driver/Src/stm32f3xx_hal_flash.c ****           }
 389:Drivers/STM32F3xx_HAL_Driver/Src/stm32f3xx_hal_flash.c ****           else if (pFlash.ProcedureOnGoing == FLASH_PROC_PROGRAMWORD)
 390:Drivers/STM32F3xx_HAL_Driver/Src/stm32f3xx_hal_flash.c ****           {
 391:Drivers/STM32F3xx_HAL_Driver/Src/stm32f3xx_hal_flash.c ****             HAL_FLASH_EndOfOperationCallback(pFlash.Address - 2U);
 392:Drivers/STM32F3xx_HAL_Driver/Src/stm32f3xx_hal_flash.c ****           }
 393:Drivers/STM32F3xx_HAL_Driver/Src/stm32f3xx_hal_flash.c ****           else 
 394:Drivers/STM32F3xx_HAL_Driver/Src/stm32f3xx_hal_flash.c ****           {
 395:Drivers/STM32F3xx_HAL_Driver/Src/stm32f3xx_hal_flash.c ****             HAL_FLASH_EndOfOperationCallback(pFlash.Address - 6U);
 396:Drivers/STM32F3xx_HAL_Driver/Src/stm32f3xx_hal_flash.c ****           }
 397:Drivers/STM32F3xx_HAL_Driver/Src/stm32f3xx_hal_flash.c ****         
 398:Drivers/STM32F3xx_HAL_Driver/Src/stm32f3xx_hal_flash.c ****           /* Reset Address and stop Program procedure */
 399:Drivers/STM32F3xx_HAL_Driver/Src/stm32f3xx_hal_flash.c ****           pFlash.Address = 0xFFFFFFFFU;
 400:Drivers/STM32F3xx_HAL_Driver/Src/stm32f3xx_hal_flash.c ****           pFlash.ProcedureOnGoing = FLASH_PROC_NONE;
 401:Drivers/STM32F3xx_HAL_Driver/Src/stm32f3xx_hal_flash.c ****         }
 402:Drivers/STM32F3xx_HAL_Driver/Src/stm32f3xx_hal_flash.c ****       }
 403:Drivers/STM32F3xx_HAL_Driver/Src/stm32f3xx_hal_flash.c ****     }
 404:Drivers/STM32F3xx_HAL_Driver/Src/stm32f3xx_hal_flash.c ****   }
 405:Drivers/STM32F3xx_HAL_Driver/Src/stm32f3xx_hal_flash.c ****   
 406:Drivers/STM32F3xx_HAL_Driver/Src/stm32f3xx_hal_flash.c **** 
 407:Drivers/STM32F3xx_HAL_Driver/Src/stm32f3xx_hal_flash.c ****   if(pFlash.ProcedureOnGoing == FLASH_PROC_NONE)
 408:Drivers/STM32F3xx_HAL_Driver/Src/stm32f3xx_hal_flash.c ****   {
 409:Drivers/STM32F3xx_HAL_Driver/Src/stm32f3xx_hal_flash.c ****     /* Operation is completed, disable the PG, PER and MER Bits */
 410:Drivers/STM32F3xx_HAL_Driver/Src/stm32f3xx_hal_flash.c ****     CLEAR_BIT(FLASH->CR, (FLASH_CR_PG | FLASH_CR_PER | FLASH_CR_MER));
 411:Drivers/STM32F3xx_HAL_Driver/Src/stm32f3xx_hal_flash.c **** 
 412:Drivers/STM32F3xx_HAL_Driver/Src/stm32f3xx_hal_flash.c ****     /* Disable End of FLASH Operation and Error source interrupts */
 413:Drivers/STM32F3xx_HAL_Driver/Src/stm32f3xx_hal_flash.c ****     __HAL_FLASH_DISABLE_IT(FLASH_IT_EOP | FLASH_IT_ERR);
 414:Drivers/STM32F3xx_HAL_Driver/Src/stm32f3xx_hal_flash.c **** 
 415:Drivers/STM32F3xx_HAL_Driver/Src/stm32f3xx_hal_flash.c ****     /* Process Unlocked */
 416:Drivers/STM32F3xx_HAL_Driver/Src/stm32f3xx_hal_flash.c ****     __HAL_UNLOCK(&pFlash);
 417:Drivers/STM32F3xx_HAL_Driver/Src/stm32f3xx_hal_flash.c ****   }
 418:Drivers/STM32F3xx_HAL_Driver/Src/stm32f3xx_hal_flash.c **** }
 419:Drivers/STM32F3xx_HAL_Driver/Src/stm32f3xx_hal_flash.c **** 
 420:Drivers/STM32F3xx_HAL_Driver/Src/stm32f3xx_hal_flash.c **** /**
 421:Drivers/STM32F3xx_HAL_Driver/Src/stm32f3xx_hal_flash.c ****   * @brief  FLASH end of operation interrupt callback
 422:Drivers/STM32F3xx_HAL_Driver/Src/stm32f3xx_hal_flash.c ****   * @param  ReturnValue The value saved in this parameter depends on the ongoing procedure
 423:Drivers/STM32F3xx_HAL_Driver/Src/stm32f3xx_hal_flash.c ****   *                 - Mass Erase: No return value expected
 424:Drivers/STM32F3xx_HAL_Driver/Src/stm32f3xx_hal_flash.c ****   *                 - Pages Erase: Address of the page which has been erased 
 425:Drivers/STM32F3xx_HAL_Driver/Src/stm32f3xx_hal_flash.c ****   *                    (if 0xFFFFFFFF, it means that all the selected pages have been erased)
 426:Drivers/STM32F3xx_HAL_Driver/Src/stm32f3xx_hal_flash.c ****   *                 - Program: Address which was selected for data program
 427:Drivers/STM32F3xx_HAL_Driver/Src/stm32f3xx_hal_flash.c ****   * @retval none
 428:Drivers/STM32F3xx_HAL_Driver/Src/stm32f3xx_hal_flash.c ****   */
 429:Drivers/STM32F3xx_HAL_Driver/Src/stm32f3xx_hal_flash.c **** __weak void HAL_FLASH_EndOfOperationCallback(uint32_t ReturnValue)
ARM GAS  /var/folders/jw/jcj5j9_530958b2rm5vp9wn00000gn/T//cc19zHvx.s 			page 9


 430:Drivers/STM32F3xx_HAL_Driver/Src/stm32f3xx_hal_flash.c **** {
 431:Drivers/STM32F3xx_HAL_Driver/Src/stm32f3xx_hal_flash.c ****   /* Prevent unused argument(s) compilation warning */
 432:Drivers/STM32F3xx_HAL_Driver/Src/stm32f3xx_hal_flash.c ****   UNUSED(ReturnValue);
 433:Drivers/STM32F3xx_HAL_Driver/Src/stm32f3xx_hal_flash.c **** 
 434:Drivers/STM32F3xx_HAL_Driver/Src/stm32f3xx_hal_flash.c ****   /* NOTE : This function Should not be modified, when the callback is needed,
 435:Drivers/STM32F3xx_HAL_Driver/Src/stm32f3xx_hal_flash.c ****             the HAL_FLASH_EndOfOperationCallback could be implemented in the user file
 436:Drivers/STM32F3xx_HAL_Driver/Src/stm32f3xx_hal_flash.c ****    */ 
 437:Drivers/STM32F3xx_HAL_Driver/Src/stm32f3xx_hal_flash.c **** }
 438:Drivers/STM32F3xx_HAL_Driver/Src/stm32f3xx_hal_flash.c **** 
 439:Drivers/STM32F3xx_HAL_Driver/Src/stm32f3xx_hal_flash.c **** /**
 440:Drivers/STM32F3xx_HAL_Driver/Src/stm32f3xx_hal_flash.c ****   * @brief  FLASH operation error interrupt callback
 441:Drivers/STM32F3xx_HAL_Driver/Src/stm32f3xx_hal_flash.c ****   * @param  ReturnValue The value saved in this parameter depends on the ongoing procedure
 442:Drivers/STM32F3xx_HAL_Driver/Src/stm32f3xx_hal_flash.c ****   *                 - Mass Erase: No return value expected
 443:Drivers/STM32F3xx_HAL_Driver/Src/stm32f3xx_hal_flash.c ****   *                 - Pages Erase: Address of the page which returned an error
 444:Drivers/STM32F3xx_HAL_Driver/Src/stm32f3xx_hal_flash.c ****   *                 - Program: Address which was selected for data program
 445:Drivers/STM32F3xx_HAL_Driver/Src/stm32f3xx_hal_flash.c ****   * @retval none
 446:Drivers/STM32F3xx_HAL_Driver/Src/stm32f3xx_hal_flash.c ****   */
 447:Drivers/STM32F3xx_HAL_Driver/Src/stm32f3xx_hal_flash.c **** __weak void HAL_FLASH_OperationErrorCallback(uint32_t ReturnValue)
 448:Drivers/STM32F3xx_HAL_Driver/Src/stm32f3xx_hal_flash.c **** {
 449:Drivers/STM32F3xx_HAL_Driver/Src/stm32f3xx_hal_flash.c ****   /* Prevent unused argument(s) compilation warning */
 450:Drivers/STM32F3xx_HAL_Driver/Src/stm32f3xx_hal_flash.c ****   UNUSED(ReturnValue);
 451:Drivers/STM32F3xx_HAL_Driver/Src/stm32f3xx_hal_flash.c **** 
 452:Drivers/STM32F3xx_HAL_Driver/Src/stm32f3xx_hal_flash.c ****   /* NOTE : This function Should not be modified, when the callback is needed,
 453:Drivers/STM32F3xx_HAL_Driver/Src/stm32f3xx_hal_flash.c ****             the HAL_FLASH_OperationErrorCallback could be implemented in the user file
 454:Drivers/STM32F3xx_HAL_Driver/Src/stm32f3xx_hal_flash.c ****    */ 
 455:Drivers/STM32F3xx_HAL_Driver/Src/stm32f3xx_hal_flash.c **** }
 456:Drivers/STM32F3xx_HAL_Driver/Src/stm32f3xx_hal_flash.c **** 
 457:Drivers/STM32F3xx_HAL_Driver/Src/stm32f3xx_hal_flash.c **** /**
 458:Drivers/STM32F3xx_HAL_Driver/Src/stm32f3xx_hal_flash.c ****   * @}
 459:Drivers/STM32F3xx_HAL_Driver/Src/stm32f3xx_hal_flash.c ****   */
 460:Drivers/STM32F3xx_HAL_Driver/Src/stm32f3xx_hal_flash.c **** 
 461:Drivers/STM32F3xx_HAL_Driver/Src/stm32f3xx_hal_flash.c **** /** @defgroup FLASH_Exported_Functions_Group2 Peripheral Control functions 
 462:Drivers/STM32F3xx_HAL_Driver/Src/stm32f3xx_hal_flash.c ****  *  @brief   management functions 
 463:Drivers/STM32F3xx_HAL_Driver/Src/stm32f3xx_hal_flash.c ****  *
 464:Drivers/STM32F3xx_HAL_Driver/Src/stm32f3xx_hal_flash.c **** @verbatim   
 465:Drivers/STM32F3xx_HAL_Driver/Src/stm32f3xx_hal_flash.c ****  ===============================================================================
 466:Drivers/STM32F3xx_HAL_Driver/Src/stm32f3xx_hal_flash.c ****                       ##### Peripheral Control functions #####
 467:Drivers/STM32F3xx_HAL_Driver/Src/stm32f3xx_hal_flash.c ****  ===============================================================================  
 468:Drivers/STM32F3xx_HAL_Driver/Src/stm32f3xx_hal_flash.c ****     [..]
 469:Drivers/STM32F3xx_HAL_Driver/Src/stm32f3xx_hal_flash.c ****     This subsection provides a set of functions allowing to control the FLASH 
 470:Drivers/STM32F3xx_HAL_Driver/Src/stm32f3xx_hal_flash.c ****     memory operations.
 471:Drivers/STM32F3xx_HAL_Driver/Src/stm32f3xx_hal_flash.c **** 
 472:Drivers/STM32F3xx_HAL_Driver/Src/stm32f3xx_hal_flash.c **** @endverbatim
 473:Drivers/STM32F3xx_HAL_Driver/Src/stm32f3xx_hal_flash.c ****   * @{
 474:Drivers/STM32F3xx_HAL_Driver/Src/stm32f3xx_hal_flash.c ****   */
 475:Drivers/STM32F3xx_HAL_Driver/Src/stm32f3xx_hal_flash.c **** 
 476:Drivers/STM32F3xx_HAL_Driver/Src/stm32f3xx_hal_flash.c **** /**
 477:Drivers/STM32F3xx_HAL_Driver/Src/stm32f3xx_hal_flash.c ****   * @brief  Unlock the FLASH control register access
 478:Drivers/STM32F3xx_HAL_Driver/Src/stm32f3xx_hal_flash.c ****   * @retval HAL Status
 479:Drivers/STM32F3xx_HAL_Driver/Src/stm32f3xx_hal_flash.c ****   */
 480:Drivers/STM32F3xx_HAL_Driver/Src/stm32f3xx_hal_flash.c **** HAL_StatusTypeDef HAL_FLASH_Unlock(void)
 481:Drivers/STM32F3xx_HAL_Driver/Src/stm32f3xx_hal_flash.c **** {
 482:Drivers/STM32F3xx_HAL_Driver/Src/stm32f3xx_hal_flash.c ****   HAL_StatusTypeDef status = HAL_OK;
 483:Drivers/STM32F3xx_HAL_Driver/Src/stm32f3xx_hal_flash.c **** 
 484:Drivers/STM32F3xx_HAL_Driver/Src/stm32f3xx_hal_flash.c ****   if(READ_BIT(FLASH->CR, FLASH_CR_LOCK) != RESET)
 485:Drivers/STM32F3xx_HAL_Driver/Src/stm32f3xx_hal_flash.c ****   {
 486:Drivers/STM32F3xx_HAL_Driver/Src/stm32f3xx_hal_flash.c ****     /* Authorize the FLASH Registers access */
ARM GAS  /var/folders/jw/jcj5j9_530958b2rm5vp9wn00000gn/T//cc19zHvx.s 			page 10


 487:Drivers/STM32F3xx_HAL_Driver/Src/stm32f3xx_hal_flash.c ****     WRITE_REG(FLASH->KEYR, FLASH_KEY1);
 488:Drivers/STM32F3xx_HAL_Driver/Src/stm32f3xx_hal_flash.c ****     WRITE_REG(FLASH->KEYR, FLASH_KEY2);
 489:Drivers/STM32F3xx_HAL_Driver/Src/stm32f3xx_hal_flash.c **** 
 490:Drivers/STM32F3xx_HAL_Driver/Src/stm32f3xx_hal_flash.c ****     /* Verify Flash is unlocked */
 491:Drivers/STM32F3xx_HAL_Driver/Src/stm32f3xx_hal_flash.c ****     if(READ_BIT(FLASH->CR, FLASH_CR_LOCK) != RESET)
 492:Drivers/STM32F3xx_HAL_Driver/Src/stm32f3xx_hal_flash.c ****     {
 493:Drivers/STM32F3xx_HAL_Driver/Src/stm32f3xx_hal_flash.c ****       status = HAL_ERROR;
 494:Drivers/STM32F3xx_HAL_Driver/Src/stm32f3xx_hal_flash.c ****     }
 495:Drivers/STM32F3xx_HAL_Driver/Src/stm32f3xx_hal_flash.c ****   }
 496:Drivers/STM32F3xx_HAL_Driver/Src/stm32f3xx_hal_flash.c **** 
 497:Drivers/STM32F3xx_HAL_Driver/Src/stm32f3xx_hal_flash.c ****   return status;
 498:Drivers/STM32F3xx_HAL_Driver/Src/stm32f3xx_hal_flash.c **** }
 499:Drivers/STM32F3xx_HAL_Driver/Src/stm32f3xx_hal_flash.c **** 
 500:Drivers/STM32F3xx_HAL_Driver/Src/stm32f3xx_hal_flash.c **** /**
 501:Drivers/STM32F3xx_HAL_Driver/Src/stm32f3xx_hal_flash.c ****   * @brief  Locks the FLASH control register access
 502:Drivers/STM32F3xx_HAL_Driver/Src/stm32f3xx_hal_flash.c ****   * @retval HAL Status
 503:Drivers/STM32F3xx_HAL_Driver/Src/stm32f3xx_hal_flash.c ****   */
 504:Drivers/STM32F3xx_HAL_Driver/Src/stm32f3xx_hal_flash.c **** HAL_StatusTypeDef HAL_FLASH_Lock(void)
 505:Drivers/STM32F3xx_HAL_Driver/Src/stm32f3xx_hal_flash.c **** {
 506:Drivers/STM32F3xx_HAL_Driver/Src/stm32f3xx_hal_flash.c ****   /* Set the LOCK Bit to lock the FLASH Registers access */
 507:Drivers/STM32F3xx_HAL_Driver/Src/stm32f3xx_hal_flash.c ****   SET_BIT(FLASH->CR, FLASH_CR_LOCK);
 508:Drivers/STM32F3xx_HAL_Driver/Src/stm32f3xx_hal_flash.c ****   
 509:Drivers/STM32F3xx_HAL_Driver/Src/stm32f3xx_hal_flash.c ****   return HAL_OK;  
 510:Drivers/STM32F3xx_HAL_Driver/Src/stm32f3xx_hal_flash.c **** }
 511:Drivers/STM32F3xx_HAL_Driver/Src/stm32f3xx_hal_flash.c **** 
 512:Drivers/STM32F3xx_HAL_Driver/Src/stm32f3xx_hal_flash.c **** /**
 513:Drivers/STM32F3xx_HAL_Driver/Src/stm32f3xx_hal_flash.c ****   * @brief  Unlock the FLASH Option Control Registers access.
 514:Drivers/STM32F3xx_HAL_Driver/Src/stm32f3xx_hal_flash.c ****   * @retval HAL Status
 515:Drivers/STM32F3xx_HAL_Driver/Src/stm32f3xx_hal_flash.c ****   */
 516:Drivers/STM32F3xx_HAL_Driver/Src/stm32f3xx_hal_flash.c **** HAL_StatusTypeDef HAL_FLASH_OB_Unlock(void)
 517:Drivers/STM32F3xx_HAL_Driver/Src/stm32f3xx_hal_flash.c **** {
 518:Drivers/STM32F3xx_HAL_Driver/Src/stm32f3xx_hal_flash.c ****   if (HAL_IS_BIT_CLR(FLASH->CR, FLASH_CR_OPTWRE))
 519:Drivers/STM32F3xx_HAL_Driver/Src/stm32f3xx_hal_flash.c ****   {
 520:Drivers/STM32F3xx_HAL_Driver/Src/stm32f3xx_hal_flash.c ****     /* Authorizes the Option Byte register programming */
 521:Drivers/STM32F3xx_HAL_Driver/Src/stm32f3xx_hal_flash.c ****     WRITE_REG(FLASH->OPTKEYR, FLASH_OPTKEY1);
 522:Drivers/STM32F3xx_HAL_Driver/Src/stm32f3xx_hal_flash.c ****     WRITE_REG(FLASH->OPTKEYR, FLASH_OPTKEY2);
 523:Drivers/STM32F3xx_HAL_Driver/Src/stm32f3xx_hal_flash.c ****   }
 524:Drivers/STM32F3xx_HAL_Driver/Src/stm32f3xx_hal_flash.c ****   else
 525:Drivers/STM32F3xx_HAL_Driver/Src/stm32f3xx_hal_flash.c ****   {
 526:Drivers/STM32F3xx_HAL_Driver/Src/stm32f3xx_hal_flash.c ****     return HAL_ERROR;
 527:Drivers/STM32F3xx_HAL_Driver/Src/stm32f3xx_hal_flash.c ****   }  
 528:Drivers/STM32F3xx_HAL_Driver/Src/stm32f3xx_hal_flash.c ****   
 529:Drivers/STM32F3xx_HAL_Driver/Src/stm32f3xx_hal_flash.c ****   return HAL_OK;  
 530:Drivers/STM32F3xx_HAL_Driver/Src/stm32f3xx_hal_flash.c **** }
 531:Drivers/STM32F3xx_HAL_Driver/Src/stm32f3xx_hal_flash.c **** 
 532:Drivers/STM32F3xx_HAL_Driver/Src/stm32f3xx_hal_flash.c **** /**
 533:Drivers/STM32F3xx_HAL_Driver/Src/stm32f3xx_hal_flash.c ****   * @brief  Lock the FLASH Option Control Registers access.
 534:Drivers/STM32F3xx_HAL_Driver/Src/stm32f3xx_hal_flash.c ****   * @retval HAL Status 
 535:Drivers/STM32F3xx_HAL_Driver/Src/stm32f3xx_hal_flash.c ****   */
 536:Drivers/STM32F3xx_HAL_Driver/Src/stm32f3xx_hal_flash.c **** HAL_StatusTypeDef HAL_FLASH_OB_Lock(void)
 537:Drivers/STM32F3xx_HAL_Driver/Src/stm32f3xx_hal_flash.c **** {
 538:Drivers/STM32F3xx_HAL_Driver/Src/stm32f3xx_hal_flash.c ****   /* Clear the OPTWRE Bit to lock the FLASH Option Byte Registers access */
 539:Drivers/STM32F3xx_HAL_Driver/Src/stm32f3xx_hal_flash.c ****   CLEAR_BIT(FLASH->CR, FLASH_CR_OPTWRE);
 540:Drivers/STM32F3xx_HAL_Driver/Src/stm32f3xx_hal_flash.c ****   
 541:Drivers/STM32F3xx_HAL_Driver/Src/stm32f3xx_hal_flash.c ****   return HAL_OK;  
 542:Drivers/STM32F3xx_HAL_Driver/Src/stm32f3xx_hal_flash.c **** }
 543:Drivers/STM32F3xx_HAL_Driver/Src/stm32f3xx_hal_flash.c ****   
ARM GAS  /var/folders/jw/jcj5j9_530958b2rm5vp9wn00000gn/T//cc19zHvx.s 			page 11


 544:Drivers/STM32F3xx_HAL_Driver/Src/stm32f3xx_hal_flash.c **** /**
 545:Drivers/STM32F3xx_HAL_Driver/Src/stm32f3xx_hal_flash.c ****   * @brief  Launch the option byte loading.
 546:Drivers/STM32F3xx_HAL_Driver/Src/stm32f3xx_hal_flash.c ****   * @note   This function will reset automatically the MCU.
 547:Drivers/STM32F3xx_HAL_Driver/Src/stm32f3xx_hal_flash.c ****   * @retval HAL Status
 548:Drivers/STM32F3xx_HAL_Driver/Src/stm32f3xx_hal_flash.c ****   */
 549:Drivers/STM32F3xx_HAL_Driver/Src/stm32f3xx_hal_flash.c **** HAL_StatusTypeDef HAL_FLASH_OB_Launch(void)
 550:Drivers/STM32F3xx_HAL_Driver/Src/stm32f3xx_hal_flash.c **** {
 551:Drivers/STM32F3xx_HAL_Driver/Src/stm32f3xx_hal_flash.c ****   /* Set the OBL_Launch bit to launch the option byte loading */
 552:Drivers/STM32F3xx_HAL_Driver/Src/stm32f3xx_hal_flash.c ****   SET_BIT(FLASH->CR, FLASH_CR_OBL_LAUNCH);
 553:Drivers/STM32F3xx_HAL_Driver/Src/stm32f3xx_hal_flash.c ****   
 554:Drivers/STM32F3xx_HAL_Driver/Src/stm32f3xx_hal_flash.c ****   /* Wait for last operation to be completed */
 555:Drivers/STM32F3xx_HAL_Driver/Src/stm32f3xx_hal_flash.c ****   return(FLASH_WaitForLastOperation(FLASH_TIMEOUT_VALUE));
 556:Drivers/STM32F3xx_HAL_Driver/Src/stm32f3xx_hal_flash.c **** }
 557:Drivers/STM32F3xx_HAL_Driver/Src/stm32f3xx_hal_flash.c **** 
 558:Drivers/STM32F3xx_HAL_Driver/Src/stm32f3xx_hal_flash.c **** /**
 559:Drivers/STM32F3xx_HAL_Driver/Src/stm32f3xx_hal_flash.c ****   * @}
 560:Drivers/STM32F3xx_HAL_Driver/Src/stm32f3xx_hal_flash.c ****   */  
 561:Drivers/STM32F3xx_HAL_Driver/Src/stm32f3xx_hal_flash.c **** 
 562:Drivers/STM32F3xx_HAL_Driver/Src/stm32f3xx_hal_flash.c **** /** @defgroup FLASH_Exported_Functions_Group3 Peripheral errors functions 
 563:Drivers/STM32F3xx_HAL_Driver/Src/stm32f3xx_hal_flash.c ****  *  @brief    Peripheral errors functions 
 564:Drivers/STM32F3xx_HAL_Driver/Src/stm32f3xx_hal_flash.c ****  *
 565:Drivers/STM32F3xx_HAL_Driver/Src/stm32f3xx_hal_flash.c **** @verbatim   
 566:Drivers/STM32F3xx_HAL_Driver/Src/stm32f3xx_hal_flash.c ****  ===============================================================================
 567:Drivers/STM32F3xx_HAL_Driver/Src/stm32f3xx_hal_flash.c ****                       ##### Peripheral Errors functions #####
 568:Drivers/STM32F3xx_HAL_Driver/Src/stm32f3xx_hal_flash.c ****  ===============================================================================  
 569:Drivers/STM32F3xx_HAL_Driver/Src/stm32f3xx_hal_flash.c ****     [..]
 570:Drivers/STM32F3xx_HAL_Driver/Src/stm32f3xx_hal_flash.c ****     This subsection permit to get in run-time errors of  the FLASH peripheral.
 571:Drivers/STM32F3xx_HAL_Driver/Src/stm32f3xx_hal_flash.c **** 
 572:Drivers/STM32F3xx_HAL_Driver/Src/stm32f3xx_hal_flash.c **** @endverbatim
 573:Drivers/STM32F3xx_HAL_Driver/Src/stm32f3xx_hal_flash.c ****   * @{
 574:Drivers/STM32F3xx_HAL_Driver/Src/stm32f3xx_hal_flash.c ****   */
 575:Drivers/STM32F3xx_HAL_Driver/Src/stm32f3xx_hal_flash.c **** 
 576:Drivers/STM32F3xx_HAL_Driver/Src/stm32f3xx_hal_flash.c **** /**
 577:Drivers/STM32F3xx_HAL_Driver/Src/stm32f3xx_hal_flash.c ****   * @brief  Get the specific FLASH error flag.
 578:Drivers/STM32F3xx_HAL_Driver/Src/stm32f3xx_hal_flash.c ****   * @retval FLASH_ErrorCode The returned value can be:
 579:Drivers/STM32F3xx_HAL_Driver/Src/stm32f3xx_hal_flash.c ****   *            @ref FLASH_Error_Codes
 580:Drivers/STM32F3xx_HAL_Driver/Src/stm32f3xx_hal_flash.c ****   */
 581:Drivers/STM32F3xx_HAL_Driver/Src/stm32f3xx_hal_flash.c **** uint32_t HAL_FLASH_GetError(void)
 582:Drivers/STM32F3xx_HAL_Driver/Src/stm32f3xx_hal_flash.c **** {
 583:Drivers/STM32F3xx_HAL_Driver/Src/stm32f3xx_hal_flash.c ****    return pFlash.ErrorCode;
 584:Drivers/STM32F3xx_HAL_Driver/Src/stm32f3xx_hal_flash.c **** }
 585:Drivers/STM32F3xx_HAL_Driver/Src/stm32f3xx_hal_flash.c **** 
 586:Drivers/STM32F3xx_HAL_Driver/Src/stm32f3xx_hal_flash.c **** /**
 587:Drivers/STM32F3xx_HAL_Driver/Src/stm32f3xx_hal_flash.c ****   * @}
 588:Drivers/STM32F3xx_HAL_Driver/Src/stm32f3xx_hal_flash.c ****   */
 589:Drivers/STM32F3xx_HAL_Driver/Src/stm32f3xx_hal_flash.c **** 
 590:Drivers/STM32F3xx_HAL_Driver/Src/stm32f3xx_hal_flash.c **** /**
 591:Drivers/STM32F3xx_HAL_Driver/Src/stm32f3xx_hal_flash.c ****   * @}
 592:Drivers/STM32F3xx_HAL_Driver/Src/stm32f3xx_hal_flash.c ****   */
 593:Drivers/STM32F3xx_HAL_Driver/Src/stm32f3xx_hal_flash.c **** 
 594:Drivers/STM32F3xx_HAL_Driver/Src/stm32f3xx_hal_flash.c **** /** @addtogroup FLASH_Private_Functions
 595:Drivers/STM32F3xx_HAL_Driver/Src/stm32f3xx_hal_flash.c ****  * @{
 596:Drivers/STM32F3xx_HAL_Driver/Src/stm32f3xx_hal_flash.c ****  */
 597:Drivers/STM32F3xx_HAL_Driver/Src/stm32f3xx_hal_flash.c **** 
 598:Drivers/STM32F3xx_HAL_Driver/Src/stm32f3xx_hal_flash.c **** /**
 599:Drivers/STM32F3xx_HAL_Driver/Src/stm32f3xx_hal_flash.c ****   * @brief  Program a half-word (16-bit) at a specified address.
 600:Drivers/STM32F3xx_HAL_Driver/Src/stm32f3xx_hal_flash.c ****   * @param  Address specify the address to be programmed.
ARM GAS  /var/folders/jw/jcj5j9_530958b2rm5vp9wn00000gn/T//cc19zHvx.s 			page 12


 601:Drivers/STM32F3xx_HAL_Driver/Src/stm32f3xx_hal_flash.c ****   * @param  Data    specify the data to be programmed.
 602:Drivers/STM32F3xx_HAL_Driver/Src/stm32f3xx_hal_flash.c ****   * @retval None
 603:Drivers/STM32F3xx_HAL_Driver/Src/stm32f3xx_hal_flash.c ****   */
 604:Drivers/STM32F3xx_HAL_Driver/Src/stm32f3xx_hal_flash.c **** static void FLASH_Program_HalfWord(uint32_t Address, uint16_t Data)
 605:Drivers/STM32F3xx_HAL_Driver/Src/stm32f3xx_hal_flash.c **** {
  29              		.loc 1 605 1 view -0
  30              		.cfi_startproc
  31              		@ args = 0, pretend = 0, frame = 0
  32              		@ frame_needed = 0, uses_anonymous_args = 0
  33              		@ link register save eliminated.
 606:Drivers/STM32F3xx_HAL_Driver/Src/stm32f3xx_hal_flash.c ****   /* Clean the error context */
 607:Drivers/STM32F3xx_HAL_Driver/Src/stm32f3xx_hal_flash.c ****   pFlash.ErrorCode = HAL_FLASH_ERROR_NONE;
  34              		.loc 1 607 3 view .LVU1
  35              		.loc 1 607 20 is_stmt 0 view .LVU2
  36 0000 044B     		ldr	r3, .L2
  37 0002 0022     		movs	r2, #0
  38 0004 DA61     		str	r2, [r3, #28]
 608:Drivers/STM32F3xx_HAL_Driver/Src/stm32f3xx_hal_flash.c ****   
 609:Drivers/STM32F3xx_HAL_Driver/Src/stm32f3xx_hal_flash.c ****     /* Proceed to program the new data */
 610:Drivers/STM32F3xx_HAL_Driver/Src/stm32f3xx_hal_flash.c ****     SET_BIT(FLASH->CR, FLASH_CR_PG);
  39              		.loc 1 610 5 is_stmt 1 view .LVU3
  40 0006 044A     		ldr	r2, .L2+4
  41 0008 1369     		ldr	r3, [r2, #16]
  42 000a 43F00103 		orr	r3, r3, #1
  43 000e 1361     		str	r3, [r2, #16]
 611:Drivers/STM32F3xx_HAL_Driver/Src/stm32f3xx_hal_flash.c **** 
 612:Drivers/STM32F3xx_HAL_Driver/Src/stm32f3xx_hal_flash.c ****   /* Write data in the address */
 613:Drivers/STM32F3xx_HAL_Driver/Src/stm32f3xx_hal_flash.c ****   *(__IO uint16_t*)Address = Data;
  44              		.loc 1 613 3 view .LVU4
  45              		.loc 1 613 28 is_stmt 0 view .LVU5
  46 0010 0180     		strh	r1, [r0]	@ movhi
 614:Drivers/STM32F3xx_HAL_Driver/Src/stm32f3xx_hal_flash.c **** }
  47              		.loc 1 614 1 view .LVU6
  48 0012 7047     		bx	lr
  49              	.L3:
  50              		.align	2
  51              	.L2:
  52 0014 00000000 		.word	pFlash
  53 0018 00200240 		.word	1073881088
  54              		.cfi_endproc
  55              	.LFE141:
  57              		.section	.text.FLASH_SetErrorCode,"ax",%progbits
  58              		.align	1
  59              		.syntax unified
  60              		.thumb
  61              		.thumb_func
  62              		.fpu fpv4-sp-d16
  64              	FLASH_SetErrorCode:
  65              	.LFB143:
 615:Drivers/STM32F3xx_HAL_Driver/Src/stm32f3xx_hal_flash.c **** 
 616:Drivers/STM32F3xx_HAL_Driver/Src/stm32f3xx_hal_flash.c **** /**
 617:Drivers/STM32F3xx_HAL_Driver/Src/stm32f3xx_hal_flash.c ****   * @brief  Wait for a FLASH operation to complete.
 618:Drivers/STM32F3xx_HAL_Driver/Src/stm32f3xx_hal_flash.c ****   * @param  Timeout  maximum flash operation timeout
 619:Drivers/STM32F3xx_HAL_Driver/Src/stm32f3xx_hal_flash.c ****   * @retval HAL Status
 620:Drivers/STM32F3xx_HAL_Driver/Src/stm32f3xx_hal_flash.c ****   */
 621:Drivers/STM32F3xx_HAL_Driver/Src/stm32f3xx_hal_flash.c **** HAL_StatusTypeDef FLASH_WaitForLastOperation(uint32_t Timeout)
 622:Drivers/STM32F3xx_HAL_Driver/Src/stm32f3xx_hal_flash.c **** {
ARM GAS  /var/folders/jw/jcj5j9_530958b2rm5vp9wn00000gn/T//cc19zHvx.s 			page 13


 623:Drivers/STM32F3xx_HAL_Driver/Src/stm32f3xx_hal_flash.c ****   /* Wait for the FLASH operation to complete by polling on BUSY flag to be reset.
 624:Drivers/STM32F3xx_HAL_Driver/Src/stm32f3xx_hal_flash.c ****      Even if the FLASH operation fails, the BUSY flag will be reset and an error
 625:Drivers/STM32F3xx_HAL_Driver/Src/stm32f3xx_hal_flash.c ****      flag will be set */
 626:Drivers/STM32F3xx_HAL_Driver/Src/stm32f3xx_hal_flash.c ****      
 627:Drivers/STM32F3xx_HAL_Driver/Src/stm32f3xx_hal_flash.c ****   uint32_t tickstart = HAL_GetTick();
 628:Drivers/STM32F3xx_HAL_Driver/Src/stm32f3xx_hal_flash.c ****      
 629:Drivers/STM32F3xx_HAL_Driver/Src/stm32f3xx_hal_flash.c ****   while(__HAL_FLASH_GET_FLAG(FLASH_FLAG_BSY)) 
 630:Drivers/STM32F3xx_HAL_Driver/Src/stm32f3xx_hal_flash.c ****   { 
 631:Drivers/STM32F3xx_HAL_Driver/Src/stm32f3xx_hal_flash.c ****     if (Timeout != HAL_MAX_DELAY)
 632:Drivers/STM32F3xx_HAL_Driver/Src/stm32f3xx_hal_flash.c ****     {
 633:Drivers/STM32F3xx_HAL_Driver/Src/stm32f3xx_hal_flash.c ****       if((Timeout == 0U) || ((HAL_GetTick()-tickstart) > Timeout))
 634:Drivers/STM32F3xx_HAL_Driver/Src/stm32f3xx_hal_flash.c ****       {
 635:Drivers/STM32F3xx_HAL_Driver/Src/stm32f3xx_hal_flash.c ****         return HAL_TIMEOUT;
 636:Drivers/STM32F3xx_HAL_Driver/Src/stm32f3xx_hal_flash.c ****       }
 637:Drivers/STM32F3xx_HAL_Driver/Src/stm32f3xx_hal_flash.c ****     }
 638:Drivers/STM32F3xx_HAL_Driver/Src/stm32f3xx_hal_flash.c ****   }
 639:Drivers/STM32F3xx_HAL_Driver/Src/stm32f3xx_hal_flash.c ****   
 640:Drivers/STM32F3xx_HAL_Driver/Src/stm32f3xx_hal_flash.c ****   /* Check FLASH End of Operation flag  */
 641:Drivers/STM32F3xx_HAL_Driver/Src/stm32f3xx_hal_flash.c ****   if (__HAL_FLASH_GET_FLAG(FLASH_FLAG_EOP))
 642:Drivers/STM32F3xx_HAL_Driver/Src/stm32f3xx_hal_flash.c ****   {
 643:Drivers/STM32F3xx_HAL_Driver/Src/stm32f3xx_hal_flash.c ****     /* Clear FLASH End of Operation pending bit */
 644:Drivers/STM32F3xx_HAL_Driver/Src/stm32f3xx_hal_flash.c ****     __HAL_FLASH_CLEAR_FLAG(FLASH_FLAG_EOP);
 645:Drivers/STM32F3xx_HAL_Driver/Src/stm32f3xx_hal_flash.c ****   }
 646:Drivers/STM32F3xx_HAL_Driver/Src/stm32f3xx_hal_flash.c ****   
 647:Drivers/STM32F3xx_HAL_Driver/Src/stm32f3xx_hal_flash.c ****   if(__HAL_FLASH_GET_FLAG(FLASH_FLAG_WRPERR)  || 
 648:Drivers/STM32F3xx_HAL_Driver/Src/stm32f3xx_hal_flash.c ****      __HAL_FLASH_GET_FLAG(FLASH_FLAG_PGERR))
 649:Drivers/STM32F3xx_HAL_Driver/Src/stm32f3xx_hal_flash.c ****   {
 650:Drivers/STM32F3xx_HAL_Driver/Src/stm32f3xx_hal_flash.c ****     /*Save the error code*/
 651:Drivers/STM32F3xx_HAL_Driver/Src/stm32f3xx_hal_flash.c ****     FLASH_SetErrorCode();
 652:Drivers/STM32F3xx_HAL_Driver/Src/stm32f3xx_hal_flash.c ****     return HAL_ERROR;
 653:Drivers/STM32F3xx_HAL_Driver/Src/stm32f3xx_hal_flash.c ****   }
 654:Drivers/STM32F3xx_HAL_Driver/Src/stm32f3xx_hal_flash.c **** 
 655:Drivers/STM32F3xx_HAL_Driver/Src/stm32f3xx_hal_flash.c ****   /* There is no error flag set */
 656:Drivers/STM32F3xx_HAL_Driver/Src/stm32f3xx_hal_flash.c ****   return HAL_OK;
 657:Drivers/STM32F3xx_HAL_Driver/Src/stm32f3xx_hal_flash.c **** }
 658:Drivers/STM32F3xx_HAL_Driver/Src/stm32f3xx_hal_flash.c **** 
 659:Drivers/STM32F3xx_HAL_Driver/Src/stm32f3xx_hal_flash.c **** 
 660:Drivers/STM32F3xx_HAL_Driver/Src/stm32f3xx_hal_flash.c **** /**
 661:Drivers/STM32F3xx_HAL_Driver/Src/stm32f3xx_hal_flash.c ****   * @brief  Set the specific FLASH error flag.
 662:Drivers/STM32F3xx_HAL_Driver/Src/stm32f3xx_hal_flash.c ****   * @retval None
 663:Drivers/STM32F3xx_HAL_Driver/Src/stm32f3xx_hal_flash.c ****   */
 664:Drivers/STM32F3xx_HAL_Driver/Src/stm32f3xx_hal_flash.c **** static void FLASH_SetErrorCode(void)
 665:Drivers/STM32F3xx_HAL_Driver/Src/stm32f3xx_hal_flash.c **** {
  66              		.loc 1 665 1 is_stmt 1 view -0
  67              		.cfi_startproc
  68              		@ args = 0, pretend = 0, frame = 0
  69              		@ frame_needed = 0, uses_anonymous_args = 0
  70              		@ link register save eliminated.
 666:Drivers/STM32F3xx_HAL_Driver/Src/stm32f3xx_hal_flash.c ****   uint32_t flags = 0U;
  71              		.loc 1 666 3 view .LVU8
  72              	.LVL1:
 667:Drivers/STM32F3xx_HAL_Driver/Src/stm32f3xx_hal_flash.c ****   
 668:Drivers/STM32F3xx_HAL_Driver/Src/stm32f3xx_hal_flash.c ****   if(__HAL_FLASH_GET_FLAG(FLASH_FLAG_WRPERR))
  73              		.loc 1 668 3 view .LVU9
  74              		.loc 1 668 6 is_stmt 0 view .LVU10
  75 0000 0C4B     		ldr	r3, .L7
  76 0002 DB68     		ldr	r3, [r3, #12]
ARM GAS  /var/folders/jw/jcj5j9_530958b2rm5vp9wn00000gn/T//cc19zHvx.s 			page 14


  77              		.loc 1 668 5 view .LVU11
  78 0004 13F01003 		ands	r3, r3, #16
  79 0008 05D0     		beq	.L5
 669:Drivers/STM32F3xx_HAL_Driver/Src/stm32f3xx_hal_flash.c ****   {
 670:Drivers/STM32F3xx_HAL_Driver/Src/stm32f3xx_hal_flash.c ****     pFlash.ErrorCode |= HAL_FLASH_ERROR_WRP;
  80              		.loc 1 670 5 is_stmt 1 view .LVU12
  81              		.loc 1 670 22 is_stmt 0 view .LVU13
  82 000a 0B4A     		ldr	r2, .L7+4
  83 000c D369     		ldr	r3, [r2, #28]
  84 000e 43F00203 		orr	r3, r3, #2
  85 0012 D361     		str	r3, [r2, #28]
 671:Drivers/STM32F3xx_HAL_Driver/Src/stm32f3xx_hal_flash.c ****     flags |= FLASH_FLAG_WRPERR;
  86              		.loc 1 671 5 is_stmt 1 view .LVU14
  87              	.LVL2:
  88              		.loc 1 671 11 is_stmt 0 view .LVU15
  89 0014 1023     		movs	r3, #16
  90              	.LVL3:
  91              	.L5:
 672:Drivers/STM32F3xx_HAL_Driver/Src/stm32f3xx_hal_flash.c ****   }
 673:Drivers/STM32F3xx_HAL_Driver/Src/stm32f3xx_hal_flash.c ****   if(__HAL_FLASH_GET_FLAG(FLASH_FLAG_PGERR))
  92              		.loc 1 673 3 is_stmt 1 view .LVU16
  93              		.loc 1 673 6 is_stmt 0 view .LVU17
  94 0016 074A     		ldr	r2, .L7
  95 0018 D268     		ldr	r2, [r2, #12]
  96              		.loc 1 673 5 view .LVU18
  97 001a 12F0040F 		tst	r2, #4
  98 001e 06D0     		beq	.L6
 674:Drivers/STM32F3xx_HAL_Driver/Src/stm32f3xx_hal_flash.c ****   {
 675:Drivers/STM32F3xx_HAL_Driver/Src/stm32f3xx_hal_flash.c ****     pFlash.ErrorCode |= HAL_FLASH_ERROR_PROG;
  99              		.loc 1 675 5 is_stmt 1 view .LVU19
 100              		.loc 1 675 22 is_stmt 0 view .LVU20
 101 0020 0549     		ldr	r1, .L7+4
 102 0022 CA69     		ldr	r2, [r1, #28]
 103 0024 42F00102 		orr	r2, r2, #1
 104 0028 CA61     		str	r2, [r1, #28]
 676:Drivers/STM32F3xx_HAL_Driver/Src/stm32f3xx_hal_flash.c ****     flags |= FLASH_FLAG_PGERR;
 105              		.loc 1 676 5 is_stmt 1 view .LVU21
 106              		.loc 1 676 11 is_stmt 0 view .LVU22
 107 002a 43F00403 		orr	r3, r3, #4
 108              	.LVL4:
 109              	.L6:
 677:Drivers/STM32F3xx_HAL_Driver/Src/stm32f3xx_hal_flash.c ****   }
 678:Drivers/STM32F3xx_HAL_Driver/Src/stm32f3xx_hal_flash.c ****   /* Clear FLASH error pending bits */
 679:Drivers/STM32F3xx_HAL_Driver/Src/stm32f3xx_hal_flash.c ****   __HAL_FLASH_CLEAR_FLAG(flags);
 110              		.loc 1 679 3 is_stmt 1 view .LVU23
 111 002e 014A     		ldr	r2, .L7
 112 0030 D360     		str	r3, [r2, #12]
 680:Drivers/STM32F3xx_HAL_Driver/Src/stm32f3xx_hal_flash.c **** }  
 113              		.loc 1 680 1 is_stmt 0 view .LVU24
 114 0032 7047     		bx	lr
 115              	.L8:
 116              		.align	2
 117              	.L7:
 118 0034 00200240 		.word	1073881088
 119 0038 00000000 		.word	pFlash
 120              		.cfi_endproc
 121              	.LFE143:
ARM GAS  /var/folders/jw/jcj5j9_530958b2rm5vp9wn00000gn/T//cc19zHvx.s 			page 15


 123              		.section	.text.HAL_FLASH_Program_IT,"ax",%progbits
 124              		.align	1
 125              		.global	HAL_FLASH_Program_IT
 126              		.syntax unified
 127              		.thumb
 128              		.thumb_func
 129              		.fpu fpv4-sp-d16
 131              	HAL_FLASH_Program_IT:
 132              	.LVL5:
 133              	.LFB131:
 241:Drivers/STM32F3xx_HAL_Driver/Src/stm32f3xx_hal_flash.c ****   HAL_StatusTypeDef status = HAL_OK;
 134              		.loc 1 241 1 is_stmt 1 view -0
 135              		.cfi_startproc
 136              		@ args = 0, pretend = 0, frame = 0
 137              		@ frame_needed = 0, uses_anonymous_args = 0
 241:Drivers/STM32F3xx_HAL_Driver/Src/stm32f3xx_hal_flash.c ****   HAL_StatusTypeDef status = HAL_OK;
 138              		.loc 1 241 1 is_stmt 0 view .LVU26
 139 0000 70B5     		push	{r4, r5, r6, lr}
 140              	.LCFI0:
 141              		.cfi_def_cfa_offset 16
 142              		.cfi_offset 4, -16
 143              		.cfi_offset 5, -12
 144              		.cfi_offset 6, -8
 145              		.cfi_offset 14, -4
 146 0002 1D46     		mov	r5, r3
 242:Drivers/STM32F3xx_HAL_Driver/Src/stm32f3xx_hal_flash.c ****   
 147              		.loc 1 242 3 is_stmt 1 view .LVU27
 148              	.LVL6:
 245:Drivers/STM32F3xx_HAL_Driver/Src/stm32f3xx_hal_flash.c **** 
 149              		.loc 1 245 3 view .LVU28
 245:Drivers/STM32F3xx_HAL_Driver/Src/stm32f3xx_hal_flash.c **** 
 150              		.loc 1 245 3 view .LVU29
 151 0004 164B     		ldr	r3, .L18
 152 0006 1B7E     		ldrb	r3, [r3, #24]	@ zero_extendqisi2
 153 0008 012B     		cmp	r3, #1
 154 000a 26D0     		beq	.L14
 155 000c 0646     		mov	r6, r0
 156 000e 0846     		mov	r0, r1
 157              	.LVL7:
 245:Drivers/STM32F3xx_HAL_Driver/Src/stm32f3xx_hal_flash.c **** 
 158              		.loc 1 245 3 is_stmt 0 view .LVU30
 159 0010 1446     		mov	r4, r2
 245:Drivers/STM32F3xx_HAL_Driver/Src/stm32f3xx_hal_flash.c **** 
 160              		.loc 1 245 3 is_stmt 1 discriminator 2 view .LVU31
 161 0012 134B     		ldr	r3, .L18
 162 0014 0122     		movs	r2, #1
 163              	.LVL8:
 245:Drivers/STM32F3xx_HAL_Driver/Src/stm32f3xx_hal_flash.c **** 
 164              		.loc 1 245 3 is_stmt 0 discriminator 2 view .LVU32
 165 0016 1A76     		strb	r2, [r3, #24]
 245:Drivers/STM32F3xx_HAL_Driver/Src/stm32f3xx_hal_flash.c **** 
 166              		.loc 1 245 3 is_stmt 1 discriminator 2 view .LVU33
 248:Drivers/STM32F3xx_HAL_Driver/Src/stm32f3xx_hal_flash.c ****   assert_param(IS_FLASH_PROGRAM_ADDRESS(Address));
 167              		.loc 1 248 3 discriminator 2 view .LVU34
 249:Drivers/STM32F3xx_HAL_Driver/Src/stm32f3xx_hal_flash.c **** 
 168              		.loc 1 249 3 discriminator 2 view .LVU35
 252:Drivers/STM32F3xx_HAL_Driver/Src/stm32f3xx_hal_flash.c ****   
ARM GAS  /var/folders/jw/jcj5j9_530958b2rm5vp9wn00000gn/T//cc19zHvx.s 			page 16


 169              		.loc 1 252 3 discriminator 2 view .LVU36
 170 0018 1249     		ldr	r1, .L18+4
 171              	.LVL9:
 252:Drivers/STM32F3xx_HAL_Driver/Src/stm32f3xx_hal_flash.c ****   
 172              		.loc 1 252 3 is_stmt 0 discriminator 2 view .LVU37
 173 001a 0A69     		ldr	r2, [r1, #16]
 174 001c 42F4A052 		orr	r2, r2, #5120
 175 0020 0A61     		str	r2, [r1, #16]
 254:Drivers/STM32F3xx_HAL_Driver/Src/stm32f3xx_hal_flash.c ****   pFlash.Data = Data;
 176              		.loc 1 254 3 is_stmt 1 discriminator 2 view .LVU38
 254:Drivers/STM32F3xx_HAL_Driver/Src/stm32f3xx_hal_flash.c ****   pFlash.Data = Data;
 177              		.loc 1 254 18 is_stmt 0 discriminator 2 view .LVU39
 178 0022 9860     		str	r0, [r3, #8]
 255:Drivers/STM32F3xx_HAL_Driver/Src/stm32f3xx_hal_flash.c **** 
 179              		.loc 1 255 3 is_stmt 1 discriminator 2 view .LVU40
 255:Drivers/STM32F3xx_HAL_Driver/Src/stm32f3xx_hal_flash.c **** 
 180              		.loc 1 255 15 is_stmt 0 discriminator 2 view .LVU41
 181 0024 C3E90445 		strd	r4, [r3, #16]
 257:Drivers/STM32F3xx_HAL_Driver/Src/stm32f3xx_hal_flash.c ****   {
 182              		.loc 1 257 3 is_stmt 1 discriminator 2 view .LVU42
 257:Drivers/STM32F3xx_HAL_Driver/Src/stm32f3xx_hal_flash.c ****   {
 183              		.loc 1 257 5 is_stmt 0 discriminator 2 view .LVU43
 184 0028 012E     		cmp	r6, #1
 185 002a 0BD0     		beq	.L16
 263:Drivers/STM32F3xx_HAL_Driver/Src/stm32f3xx_hal_flash.c ****   {
 186              		.loc 1 263 8 is_stmt 1 view .LVU44
 263:Drivers/STM32F3xx_HAL_Driver/Src/stm32f3xx_hal_flash.c ****   {
 187              		.loc 1 263 10 is_stmt 0 view .LVU45
 188 002c 022E     		cmp	r6, #2
 189 002e 0ED0     		beq	.L17
 271:Drivers/STM32F3xx_HAL_Driver/Src/stm32f3xx_hal_flash.c ****     /* Program double word (64-bit : 4*16-bit) at a specified address. */
 190              		.loc 1 271 5 is_stmt 1 view .LVU46
 271:Drivers/STM32F3xx_HAL_Driver/Src/stm32f3xx_hal_flash.c ****     /* Program double word (64-bit : 4*16-bit) at a specified address. */
 191              		.loc 1 271 29 is_stmt 0 view .LVU47
 192 0030 0B4B     		ldr	r3, .L18
 193 0032 0522     		movs	r2, #5
 194 0034 1A70     		strb	r2, [r3]
 273:Drivers/STM32F3xx_HAL_Driver/Src/stm32f3xx_hal_flash.c ****   }
 195              		.loc 1 273 5 is_stmt 1 view .LVU48
 273:Drivers/STM32F3xx_HAL_Driver/Src/stm32f3xx_hal_flash.c ****   }
 196              		.loc 1 273 26 is_stmt 0 view .LVU49
 197 0036 0422     		movs	r2, #4
 198 0038 5A60     		str	r2, [r3, #4]
 199              	.L12:
 277:Drivers/STM32F3xx_HAL_Driver/Src/stm32f3xx_hal_flash.c **** 
 200              		.loc 1 277 3 is_stmt 1 view .LVU50
 201 003a A1B2     		uxth	r1, r4
 202 003c FFF7FEFF 		bl	FLASH_Program_HalfWord
 203              	.LVL10:
 279:Drivers/STM32F3xx_HAL_Driver/Src/stm32f3xx_hal_flash.c **** }
 204              		.loc 1 279 3 view .LVU51
 279:Drivers/STM32F3xx_HAL_Driver/Src/stm32f3xx_hal_flash.c **** }
 205              		.loc 1 279 10 is_stmt 0 view .LVU52
 206 0040 0020     		movs	r0, #0
 207              	.LVL11:
 208              	.L10:
 280:Drivers/STM32F3xx_HAL_Driver/Src/stm32f3xx_hal_flash.c **** 
ARM GAS  /var/folders/jw/jcj5j9_530958b2rm5vp9wn00000gn/T//cc19zHvx.s 			page 17


 209              		.loc 1 280 1 view .LVU53
 210 0042 70BD     		pop	{r4, r5, r6, pc}
 211              	.LVL12:
 212              	.L16:
 259:Drivers/STM32F3xx_HAL_Driver/Src/stm32f3xx_hal_flash.c ****     /* Program halfword (16-bit) at a specified address. */
 213              		.loc 1 259 5 is_stmt 1 view .LVU54
 259:Drivers/STM32F3xx_HAL_Driver/Src/stm32f3xx_hal_flash.c ****     /* Program halfword (16-bit) at a specified address. */
 214              		.loc 1 259 29 is_stmt 0 view .LVU55
 215 0044 0322     		movs	r2, #3
 216 0046 1A70     		strb	r2, [r3]
 261:Drivers/STM32F3xx_HAL_Driver/Src/stm32f3xx_hal_flash.c ****   }
 217              		.loc 1 261 5 is_stmt 1 view .LVU56
 261:Drivers/STM32F3xx_HAL_Driver/Src/stm32f3xx_hal_flash.c ****   }
 218              		.loc 1 261 26 is_stmt 0 view .LVU57
 219 0048 0122     		movs	r2, #1
 220 004a 5A60     		str	r2, [r3, #4]
 221 004c F5E7     		b	.L12
 222              	.L17:
 265:Drivers/STM32F3xx_HAL_Driver/Src/stm32f3xx_hal_flash.c ****     /* Program word (32-bit : 2*16-bit) at a specified address. */
 223              		.loc 1 265 5 is_stmt 1 view .LVU58
 265:Drivers/STM32F3xx_HAL_Driver/Src/stm32f3xx_hal_flash.c ****     /* Program word (32-bit : 2*16-bit) at a specified address. */
 224              		.loc 1 265 29 is_stmt 0 view .LVU59
 225 004e 044B     		ldr	r3, .L18
 226 0050 0422     		movs	r2, #4
 227 0052 1A70     		strb	r2, [r3]
 267:Drivers/STM32F3xx_HAL_Driver/Src/stm32f3xx_hal_flash.c ****   }
 228              		.loc 1 267 5 is_stmt 1 view .LVU60
 267:Drivers/STM32F3xx_HAL_Driver/Src/stm32f3xx_hal_flash.c ****   }
 229              		.loc 1 267 26 is_stmt 0 view .LVU61
 230 0054 0222     		movs	r2, #2
 231 0056 5A60     		str	r2, [r3, #4]
 232 0058 EFE7     		b	.L12
 233              	.LVL13:
 234              	.L14:
 245:Drivers/STM32F3xx_HAL_Driver/Src/stm32f3xx_hal_flash.c **** 
 235              		.loc 1 245 3 view .LVU62
 236 005a 0220     		movs	r0, #2
 237              	.LVL14:
 245:Drivers/STM32F3xx_HAL_Driver/Src/stm32f3xx_hal_flash.c **** 
 238              		.loc 1 245 3 view .LVU63
 239 005c F1E7     		b	.L10
 240              	.L19:
 241 005e 00BF     		.align	2
 242              	.L18:
 243 0060 00000000 		.word	pFlash
 244 0064 00200240 		.word	1073881088
 245              		.cfi_endproc
 246              	.LFE131:
 248              		.section	.text.HAL_FLASH_EndOfOperationCallback,"ax",%progbits
 249              		.align	1
 250              		.weak	HAL_FLASH_EndOfOperationCallback
 251              		.syntax unified
 252              		.thumb
 253              		.thumb_func
 254              		.fpu fpv4-sp-d16
 256              	HAL_FLASH_EndOfOperationCallback:
 257              	.LVL15:
ARM GAS  /var/folders/jw/jcj5j9_530958b2rm5vp9wn00000gn/T//cc19zHvx.s 			page 18


 258              	.LFB133:
 430:Drivers/STM32F3xx_HAL_Driver/Src/stm32f3xx_hal_flash.c ****   /* Prevent unused argument(s) compilation warning */
 259              		.loc 1 430 1 is_stmt 1 view -0
 260              		.cfi_startproc
 261              		@ args = 0, pretend = 0, frame = 0
 262              		@ frame_needed = 0, uses_anonymous_args = 0
 263              		@ link register save eliminated.
 432:Drivers/STM32F3xx_HAL_Driver/Src/stm32f3xx_hal_flash.c **** 
 264              		.loc 1 432 3 view .LVU65
 437:Drivers/STM32F3xx_HAL_Driver/Src/stm32f3xx_hal_flash.c **** 
 265              		.loc 1 437 1 is_stmt 0 view .LVU66
 266 0000 7047     		bx	lr
 267              		.cfi_endproc
 268              	.LFE133:
 270              		.section	.text.HAL_FLASH_OperationErrorCallback,"ax",%progbits
 271              		.align	1
 272              		.weak	HAL_FLASH_OperationErrorCallback
 273              		.syntax unified
 274              		.thumb
 275              		.thumb_func
 276              		.fpu fpv4-sp-d16
 278              	HAL_FLASH_OperationErrorCallback:
 279              	.LVL16:
 280              	.LFB134:
 448:Drivers/STM32F3xx_HAL_Driver/Src/stm32f3xx_hal_flash.c ****   /* Prevent unused argument(s) compilation warning */
 281              		.loc 1 448 1 is_stmt 1 view -0
 282              		.cfi_startproc
 283              		@ args = 0, pretend = 0, frame = 0
 284              		@ frame_needed = 0, uses_anonymous_args = 0
 285              		@ link register save eliminated.
 450:Drivers/STM32F3xx_HAL_Driver/Src/stm32f3xx_hal_flash.c **** 
 286              		.loc 1 450 3 view .LVU68
 455:Drivers/STM32F3xx_HAL_Driver/Src/stm32f3xx_hal_flash.c **** 
 287              		.loc 1 455 1 is_stmt 0 view .LVU69
 288 0000 7047     		bx	lr
 289              		.cfi_endproc
 290              	.LFE134:
 292              		.section	.text.HAL_FLASH_IRQHandler,"ax",%progbits
 293              		.align	1
 294              		.global	HAL_FLASH_IRQHandler
 295              		.syntax unified
 296              		.thumb
 297              		.thumb_func
 298              		.fpu fpv4-sp-d16
 300              	HAL_FLASH_IRQHandler:
 301              	.LFB132:
 287:Drivers/STM32F3xx_HAL_Driver/Src/stm32f3xx_hal_flash.c ****   uint32_t addresstmp = 0U;
 302              		.loc 1 287 1 is_stmt 1 view -0
 303              		.cfi_startproc
 304              		@ args = 0, pretend = 0, frame = 0
 305              		@ frame_needed = 0, uses_anonymous_args = 0
 306 0000 F8B5     		push	{r3, r4, r5, r6, r7, lr}
 307              	.LCFI1:
 308              		.cfi_def_cfa_offset 24
 309              		.cfi_offset 3, -24
 310              		.cfi_offset 4, -20
 311              		.cfi_offset 5, -16
ARM GAS  /var/folders/jw/jcj5j9_530958b2rm5vp9wn00000gn/T//cc19zHvx.s 			page 19


 312              		.cfi_offset 6, -12
 313              		.cfi_offset 7, -8
 314              		.cfi_offset 14, -4
 288:Drivers/STM32F3xx_HAL_Driver/Src/stm32f3xx_hal_flash.c ****   
 315              		.loc 1 288 3 view .LVU71
 316              	.LVL17:
 291:Drivers/STM32F3xx_HAL_Driver/Src/stm32f3xx_hal_flash.c ****   {
 317              		.loc 1 291 3 view .LVU72
 291:Drivers/STM32F3xx_HAL_Driver/Src/stm32f3xx_hal_flash.c ****   {
 318              		.loc 1 291 6 is_stmt 0 view .LVU73
 319 0002 524B     		ldr	r3, .L40
 320 0004 DB68     		ldr	r3, [r3, #12]
 291:Drivers/STM32F3xx_HAL_Driver/Src/stm32f3xx_hal_flash.c ****   {
 321              		.loc 1 291 5 view .LVU74
 322 0006 13F0100F 		tst	r3, #16
 323 000a 04D1     		bne	.L23
 291:Drivers/STM32F3xx_HAL_Driver/Src/stm32f3xx_hal_flash.c ****   {
 324              		.loc 1 291 48 discriminator 1 view .LVU75
 325 000c 4F4B     		ldr	r3, .L40
 326 000e DB68     		ldr	r3, [r3, #12]
 291:Drivers/STM32F3xx_HAL_Driver/Src/stm32f3xx_hal_flash.c ****   {
 327              		.loc 1 291 46 discriminator 1 view .LVU76
 328 0010 13F0040F 		tst	r3, #4
 329 0014 0BD0     		beq	.L24
 330              	.L23:
 294:Drivers/STM32F3xx_HAL_Driver/Src/stm32f3xx_hal_flash.c ****     /* Reset address */
 331              		.loc 1 294 5 is_stmt 1 view .LVU77
 294:Drivers/STM32F3xx_HAL_Driver/Src/stm32f3xx_hal_flash.c ****     /* Reset address */
 332              		.loc 1 294 16 is_stmt 0 view .LVU78
 333 0016 4E4C     		ldr	r4, .L40+4
 334 0018 A568     		ldr	r5, [r4, #8]
 335              	.LVL18:
 296:Drivers/STM32F3xx_HAL_Driver/Src/stm32f3xx_hal_flash.c ****   
 336              		.loc 1 296 5 is_stmt 1 view .LVU79
 296:Drivers/STM32F3xx_HAL_Driver/Src/stm32f3xx_hal_flash.c ****   
 337              		.loc 1 296 20 is_stmt 0 view .LVU80
 338 001a 4FF0FF33 		mov	r3, #-1
 339 001e A360     		str	r3, [r4, #8]
 299:Drivers/STM32F3xx_HAL_Driver/Src/stm32f3xx_hal_flash.c ****     
 340              		.loc 1 299 5 is_stmt 1 view .LVU81
 341 0020 FFF7FEFF 		bl	FLASH_SetErrorCode
 342              	.LVL19:
 302:Drivers/STM32F3xx_HAL_Driver/Src/stm32f3xx_hal_flash.c **** 
 343              		.loc 1 302 5 view .LVU82
 344 0024 2846     		mov	r0, r5
 345 0026 FFF7FEFF 		bl	HAL_FLASH_OperationErrorCallback
 346              	.LVL20:
 305:Drivers/STM32F3xx_HAL_Driver/Src/stm32f3xx_hal_flash.c ****   }
 347              		.loc 1 305 5 view .LVU83
 305:Drivers/STM32F3xx_HAL_Driver/Src/stm32f3xx_hal_flash.c ****   }
 348              		.loc 1 305 29 is_stmt 0 view .LVU84
 349 002a 0023     		movs	r3, #0
 350 002c 2370     		strb	r3, [r4]
 351              	.LVL21:
 352              	.L24:
 309:Drivers/STM32F3xx_HAL_Driver/Src/stm32f3xx_hal_flash.c ****   {
 353              		.loc 1 309 3 is_stmt 1 view .LVU85
ARM GAS  /var/folders/jw/jcj5j9_530958b2rm5vp9wn00000gn/T//cc19zHvx.s 			page 20


 309:Drivers/STM32F3xx_HAL_Driver/Src/stm32f3xx_hal_flash.c ****   {
 354              		.loc 1 309 6 is_stmt 0 view .LVU86
 355 002e 474B     		ldr	r3, .L40
 356 0030 DB68     		ldr	r3, [r3, #12]
 309:Drivers/STM32F3xx_HAL_Driver/Src/stm32f3xx_hal_flash.c ****   {
 357              		.loc 1 309 5 view .LVU87
 358 0032 13F0200F 		tst	r3, #32
 359 0036 2BD0     		beq	.L25
 312:Drivers/STM32F3xx_HAL_Driver/Src/stm32f3xx_hal_flash.c ****     
 360              		.loc 1 312 5 is_stmt 1 view .LVU88
 361 0038 444B     		ldr	r3, .L40
 362 003a 2022     		movs	r2, #32
 363 003c DA60     		str	r2, [r3, #12]
 315:Drivers/STM32F3xx_HAL_Driver/Src/stm32f3xx_hal_flash.c ****     {
 364              		.loc 1 315 5 view .LVU89
 315:Drivers/STM32F3xx_HAL_Driver/Src/stm32f3xx_hal_flash.c ****     {
 365              		.loc 1 315 14 is_stmt 0 view .LVU90
 366 003e 444B     		ldr	r3, .L40+4
 367 0040 1B78     		ldrb	r3, [r3]	@ zero_extendqisi2
 315:Drivers/STM32F3xx_HAL_Driver/Src/stm32f3xx_hal_flash.c ****     {
 368              		.loc 1 315 7 view .LVU91
 369 0042 2BB3     		cbz	r3, .L25
 317:Drivers/STM32F3xx_HAL_Driver/Src/stm32f3xx_hal_flash.c ****       {
 370              		.loc 1 317 7 is_stmt 1 view .LVU92
 317:Drivers/STM32F3xx_HAL_Driver/Src/stm32f3xx_hal_flash.c ****       {
 371              		.loc 1 317 16 is_stmt 0 view .LVU93
 372 0044 424B     		ldr	r3, .L40+4
 373 0046 1B78     		ldrb	r3, [r3]	@ zero_extendqisi2
 374 0048 DBB2     		uxtb	r3, r3
 317:Drivers/STM32F3xx_HAL_Driver/Src/stm32f3xx_hal_flash.c ****       {
 375              		.loc 1 317 9 view .LVU94
 376 004a 012B     		cmp	r3, #1
 377 004c 30D0     		beq	.L35
 348:Drivers/STM32F3xx_HAL_Driver/Src/stm32f3xx_hal_flash.c ****       {
 378              		.loc 1 348 12 is_stmt 1 view .LVU95
 348:Drivers/STM32F3xx_HAL_Driver/Src/stm32f3xx_hal_flash.c ****       {
 379              		.loc 1 348 21 is_stmt 0 view .LVU96
 380 004e 404B     		ldr	r3, .L40+4
 381 0050 1B78     		ldrb	r3, [r3]	@ zero_extendqisi2
 382 0052 DBB2     		uxtb	r3, r3
 348:Drivers/STM32F3xx_HAL_Driver/Src/stm32f3xx_hal_flash.c ****       {
 383              		.loc 1 348 14 view .LVU97
 384 0054 022B     		cmp	r3, #2
 385 0056 4AD0     		beq	.L36
 363:Drivers/STM32F3xx_HAL_Driver/Src/stm32f3xx_hal_flash.c ****         
 386              		.loc 1 363 9 is_stmt 1 view .LVU98
 363:Drivers/STM32F3xx_HAL_Driver/Src/stm32f3xx_hal_flash.c ****         
 387              		.loc 1 363 15 is_stmt 0 view .LVU99
 388 0058 3D4B     		ldr	r3, .L40+4
 389 005a 5A68     		ldr	r2, [r3, #4]
 363:Drivers/STM32F3xx_HAL_Driver/Src/stm32f3xx_hal_flash.c ****         
 390              		.loc 1 363 29 view .LVU100
 391 005c 013A     		subs	r2, r2, #1
 392 005e 5A60     		str	r2, [r3, #4]
 366:Drivers/STM32F3xx_HAL_Driver/Src/stm32f3xx_hal_flash.c ****         {
 393              		.loc 1 366 9 is_stmt 1 view .LVU101
 366:Drivers/STM32F3xx_HAL_Driver/Src/stm32f3xx_hal_flash.c ****         {
ARM GAS  /var/folders/jw/jcj5j9_530958b2rm5vp9wn00000gn/T//cc19zHvx.s 			page 21


 394              		.loc 1 366 18 is_stmt 0 view .LVU102
 395 0060 5B68     		ldr	r3, [r3, #4]
 366:Drivers/STM32F3xx_HAL_Driver/Src/stm32f3xx_hal_flash.c ****         {
 396              		.loc 1 366 11 view .LVU103
 397 0062 002B     		cmp	r3, #0
 398 0064 4FD1     		bne	.L37
 385:Drivers/STM32F3xx_HAL_Driver/Src/stm32f3xx_hal_flash.c ****           {
 399              		.loc 1 385 11 is_stmt 1 view .LVU104
 385:Drivers/STM32F3xx_HAL_Driver/Src/stm32f3xx_hal_flash.c ****           {
 400              		.loc 1 385 21 is_stmt 0 view .LVU105
 401 0066 3A4B     		ldr	r3, .L40+4
 402 0068 1B78     		ldrb	r3, [r3]	@ zero_extendqisi2
 403 006a DBB2     		uxtb	r3, r3
 385:Drivers/STM32F3xx_HAL_Driver/Src/stm32f3xx_hal_flash.c ****           {
 404              		.loc 1 385 14 view .LVU106
 405 006c 032B     		cmp	r3, #3
 406 006e 62D0     		beq	.L38
 389:Drivers/STM32F3xx_HAL_Driver/Src/stm32f3xx_hal_flash.c ****           {
 407              		.loc 1 389 16 is_stmt 1 view .LVU107
 389:Drivers/STM32F3xx_HAL_Driver/Src/stm32f3xx_hal_flash.c ****           {
 408              		.loc 1 389 26 is_stmt 0 view .LVU108
 409 0070 374B     		ldr	r3, .L40+4
 410 0072 1B78     		ldrb	r3, [r3]	@ zero_extendqisi2
 411 0074 DBB2     		uxtb	r3, r3
 389:Drivers/STM32F3xx_HAL_Driver/Src/stm32f3xx_hal_flash.c ****           {
 412              		.loc 1 389 19 view .LVU109
 413 0076 042B     		cmp	r3, #4
 414 0078 62D0     		beq	.L39
 395:Drivers/STM32F3xx_HAL_Driver/Src/stm32f3xx_hal_flash.c ****           }
 415              		.loc 1 395 13 is_stmt 1 view .LVU110
 395:Drivers/STM32F3xx_HAL_Driver/Src/stm32f3xx_hal_flash.c ****           }
 416              		.loc 1 395 52 is_stmt 0 view .LVU111
 417 007a 354B     		ldr	r3, .L40+4
 418 007c 9868     		ldr	r0, [r3, #8]
 395:Drivers/STM32F3xx_HAL_Driver/Src/stm32f3xx_hal_flash.c ****           }
 419              		.loc 1 395 13 view .LVU112
 420 007e 0638     		subs	r0, r0, #6
 421 0080 FFF7FEFF 		bl	HAL_FLASH_EndOfOperationCallback
 422              	.LVL22:
 423              	.L31:
 399:Drivers/STM32F3xx_HAL_Driver/Src/stm32f3xx_hal_flash.c ****           pFlash.ProcedureOnGoing = FLASH_PROC_NONE;
 424              		.loc 1 399 11 is_stmt 1 view .LVU113
 399:Drivers/STM32F3xx_HAL_Driver/Src/stm32f3xx_hal_flash.c ****           pFlash.ProcedureOnGoing = FLASH_PROC_NONE;
 425              		.loc 1 399 26 is_stmt 0 view .LVU114
 426 0084 324B     		ldr	r3, .L40+4
 427 0086 4FF0FF32 		mov	r2, #-1
 428 008a 9A60     		str	r2, [r3, #8]
 400:Drivers/STM32F3xx_HAL_Driver/Src/stm32f3xx_hal_flash.c ****         }
 429              		.loc 1 400 11 is_stmt 1 view .LVU115
 400:Drivers/STM32F3xx_HAL_Driver/Src/stm32f3xx_hal_flash.c ****         }
 430              		.loc 1 400 35 is_stmt 0 view .LVU116
 431 008c 0022     		movs	r2, #0
 432 008e 1A70     		strb	r2, [r3]
 433              	.L25:
 407:Drivers/STM32F3xx_HAL_Driver/Src/stm32f3xx_hal_flash.c ****   {
 434              		.loc 1 407 3 is_stmt 1 view .LVU117
 407:Drivers/STM32F3xx_HAL_Driver/Src/stm32f3xx_hal_flash.c ****   {
ARM GAS  /var/folders/jw/jcj5j9_530958b2rm5vp9wn00000gn/T//cc19zHvx.s 			page 22


 435              		.loc 1 407 12 is_stmt 0 view .LVU118
 436 0090 2F4B     		ldr	r3, .L40+4
 437 0092 1B78     		ldrb	r3, [r3]	@ zero_extendqisi2
 407:Drivers/STM32F3xx_HAL_Driver/Src/stm32f3xx_hal_flash.c ****   {
 438              		.loc 1 407 5 view .LVU119
 439 0094 5BB9     		cbnz	r3, .L22
 410:Drivers/STM32F3xx_HAL_Driver/Src/stm32f3xx_hal_flash.c **** 
 440              		.loc 1 410 5 is_stmt 1 view .LVU120
 441 0096 2D4B     		ldr	r3, .L40
 442 0098 1A69     		ldr	r2, [r3, #16]
 443 009a 22F00702 		bic	r2, r2, #7
 444 009e 1A61     		str	r2, [r3, #16]
 413:Drivers/STM32F3xx_HAL_Driver/Src/stm32f3xx_hal_flash.c **** 
 445              		.loc 1 413 5 view .LVU121
 446 00a0 1A69     		ldr	r2, [r3, #16]
 447 00a2 22F4A052 		bic	r2, r2, #5120
 448 00a6 1A61     		str	r2, [r3, #16]
 416:Drivers/STM32F3xx_HAL_Driver/Src/stm32f3xx_hal_flash.c ****   }
 449              		.loc 1 416 5 view .LVU122
 416:Drivers/STM32F3xx_HAL_Driver/Src/stm32f3xx_hal_flash.c ****   }
 450              		.loc 1 416 5 view .LVU123
 451 00a8 294B     		ldr	r3, .L40+4
 452 00aa 0022     		movs	r2, #0
 453 00ac 1A76     		strb	r2, [r3, #24]
 416:Drivers/STM32F3xx_HAL_Driver/Src/stm32f3xx_hal_flash.c ****   }
 454              		.loc 1 416 5 view .LVU124
 455              	.L22:
 418:Drivers/STM32F3xx_HAL_Driver/Src/stm32f3xx_hal_flash.c **** 
 456              		.loc 1 418 1 is_stmt 0 view .LVU125
 457 00ae F8BD     		pop	{r3, r4, r5, r6, r7, pc}
 458              	.L35:
 320:Drivers/STM32F3xx_HAL_Driver/Src/stm32f3xx_hal_flash.c **** 
 459              		.loc 1 320 9 is_stmt 1 view .LVU126
 320:Drivers/STM32F3xx_HAL_Driver/Src/stm32f3xx_hal_flash.c **** 
 460              		.loc 1 320 15 is_stmt 0 view .LVU127
 461 00b0 274B     		ldr	r3, .L40+4
 462 00b2 5A68     		ldr	r2, [r3, #4]
 320:Drivers/STM32F3xx_HAL_Driver/Src/stm32f3xx_hal_flash.c **** 
 463              		.loc 1 320 29 view .LVU128
 464 00b4 013A     		subs	r2, r2, #1
 465 00b6 5A60     		str	r2, [r3, #4]
 323:Drivers/STM32F3xx_HAL_Driver/Src/stm32f3xx_hal_flash.c ****         {
 466              		.loc 1 323 9 is_stmt 1 view .LVU129
 323:Drivers/STM32F3xx_HAL_Driver/Src/stm32f3xx_hal_flash.c ****         {
 467              		.loc 1 323 18 is_stmt 0 view .LVU130
 468 00b8 5B68     		ldr	r3, [r3, #4]
 323:Drivers/STM32F3xx_HAL_Driver/Src/stm32f3xx_hal_flash.c ****         {
 469              		.loc 1 323 11 view .LVU131
 470 00ba 7BB1     		cbz	r3, .L27
 325:Drivers/STM32F3xx_HAL_Driver/Src/stm32f3xx_hal_flash.c ****           /*Indicate user which sector has been erased */
 471              		.loc 1 325 11 is_stmt 1 view .LVU132
 325:Drivers/STM32F3xx_HAL_Driver/Src/stm32f3xx_hal_flash.c ****           /*Indicate user which sector has been erased */
 472              		.loc 1 325 22 is_stmt 0 view .LVU133
 473 00bc 244C     		ldr	r4, .L40+4
 474 00be A068     		ldr	r0, [r4, #8]
 475              	.LVL23:
 327:Drivers/STM32F3xx_HAL_Driver/Src/stm32f3xx_hal_flash.c **** 
ARM GAS  /var/folders/jw/jcj5j9_530958b2rm5vp9wn00000gn/T//cc19zHvx.s 			page 23


 476              		.loc 1 327 11 is_stmt 1 view .LVU134
 477 00c0 FFF7FEFF 		bl	HAL_FLASH_EndOfOperationCallback
 478              	.LVL24:
 330:Drivers/STM32F3xx_HAL_Driver/Src/stm32f3xx_hal_flash.c ****           pFlash.Address = addresstmp;
 479              		.loc 1 330 11 view .LVU135
 330:Drivers/STM32F3xx_HAL_Driver/Src/stm32f3xx_hal_flash.c ****           pFlash.Address = addresstmp;
 480              		.loc 1 330 30 is_stmt 0 view .LVU136
 481 00c4 A068     		ldr	r0, [r4, #8]
 330:Drivers/STM32F3xx_HAL_Driver/Src/stm32f3xx_hal_flash.c ****           pFlash.Address = addresstmp;
 482              		.loc 1 330 22 view .LVU137
 483 00c6 00F50060 		add	r0, r0, #2048
 484              	.LVL25:
 331:Drivers/STM32F3xx_HAL_Driver/Src/stm32f3xx_hal_flash.c **** 
 485              		.loc 1 331 11 is_stmt 1 view .LVU138
 331:Drivers/STM32F3xx_HAL_Driver/Src/stm32f3xx_hal_flash.c **** 
 486              		.loc 1 331 26 is_stmt 0 view .LVU139
 487 00ca A060     		str	r0, [r4, #8]
 334:Drivers/STM32F3xx_HAL_Driver/Src/stm32f3xx_hal_flash.c **** 
 488              		.loc 1 334 11 is_stmt 1 view .LVU140
 489 00cc 1F4A     		ldr	r2, .L40
 490 00ce 1369     		ldr	r3, [r2, #16]
 491 00d0 23F00203 		bic	r3, r3, #2
 492 00d4 1361     		str	r3, [r2, #16]
 336:Drivers/STM32F3xx_HAL_Driver/Src/stm32f3xx_hal_flash.c ****         }
 493              		.loc 1 336 11 view .LVU141
 494 00d6 FFF7FEFF 		bl	FLASH_PageErase
 495              	.LVL26:
 336:Drivers/STM32F3xx_HAL_Driver/Src/stm32f3xx_hal_flash.c ****         }
 496              		.loc 1 336 11 is_stmt 0 view .LVU142
 497 00da D9E7     		b	.L25
 498              	.L27:
 342:Drivers/STM32F3xx_HAL_Driver/Src/stm32f3xx_hal_flash.c ****           pFlash.ProcedureOnGoing = FLASH_PROC_NONE;
 499              		.loc 1 342 11 is_stmt 1 view .LVU143
 500              	.LVL27:
 342:Drivers/STM32F3xx_HAL_Driver/Src/stm32f3xx_hal_flash.c ****           pFlash.ProcedureOnGoing = FLASH_PROC_NONE;
 501              		.loc 1 342 26 is_stmt 0 view .LVU144
 502 00dc 1C4B     		ldr	r3, .L40+4
 503 00de 4FF0FF30 		mov	r0, #-1
 504 00e2 9860     		str	r0, [r3, #8]
 343:Drivers/STM32F3xx_HAL_Driver/Src/stm32f3xx_hal_flash.c ****           /* FLASH EOP interrupt user callback */
 505              		.loc 1 343 11 is_stmt 1 view .LVU145
 343:Drivers/STM32F3xx_HAL_Driver/Src/stm32f3xx_hal_flash.c ****           /* FLASH EOP interrupt user callback */
 506              		.loc 1 343 35 is_stmt 0 view .LVU146
 507 00e4 0022     		movs	r2, #0
 508 00e6 1A70     		strb	r2, [r3]
 345:Drivers/STM32F3xx_HAL_Driver/Src/stm32f3xx_hal_flash.c ****         }
 509              		.loc 1 345 11 is_stmt 1 view .LVU147
 510 00e8 FFF7FEFF 		bl	HAL_FLASH_EndOfOperationCallback
 511              	.LVL28:
 512 00ec D0E7     		b	.L25
 513              	.LVL29:
 514              	.L36:
 351:Drivers/STM32F3xx_HAL_Driver/Src/stm32f3xx_hal_flash.c **** 
 515              		.loc 1 351 9 view .LVU148
 516 00ee 174A     		ldr	r2, .L40
 517 00f0 1369     		ldr	r3, [r2, #16]
 518 00f2 23F00403 		bic	r3, r3, #4
ARM GAS  /var/folders/jw/jcj5j9_530958b2rm5vp9wn00000gn/T//cc19zHvx.s 			page 24


 519 00f6 1361     		str	r3, [r2, #16]
 355:Drivers/STM32F3xx_HAL_Driver/Src/stm32f3xx_hal_flash.c **** 
 520              		.loc 1 355 11 view .LVU149
 521 00f8 0020     		movs	r0, #0
 522 00fa FFF7FEFF 		bl	HAL_FLASH_EndOfOperationCallback
 523              	.LVL30:
 358:Drivers/STM32F3xx_HAL_Driver/Src/stm32f3xx_hal_flash.c ****         }
 524              		.loc 1 358 11 view .LVU150
 358:Drivers/STM32F3xx_HAL_Driver/Src/stm32f3xx_hal_flash.c ****         }
 525              		.loc 1 358 35 is_stmt 0 view .LVU151
 526 00fe 144B     		ldr	r3, .L40+4
 527 0100 0022     		movs	r2, #0
 528 0102 1A70     		strb	r2, [r3]
 529 0104 C4E7     		b	.L25
 530              	.L37:
 369:Drivers/STM32F3xx_HAL_Driver/Src/stm32f3xx_hal_flash.c ****           addresstmp = pFlash.Address;
 531              		.loc 1 369 11 is_stmt 1 view .LVU152
 369:Drivers/STM32F3xx_HAL_Driver/Src/stm32f3xx_hal_flash.c ****           addresstmp = pFlash.Address;
 532              		.loc 1 369 26 is_stmt 0 view .LVU153
 533 0106 124B     		ldr	r3, .L40+4
 534 0108 9A68     		ldr	r2, [r3, #8]
 535 010a 0232     		adds	r2, r2, #2
 536 010c 9A60     		str	r2, [r3, #8]
 370:Drivers/STM32F3xx_HAL_Driver/Src/stm32f3xx_hal_flash.c ****           
 537              		.loc 1 370 11 is_stmt 1 view .LVU154
 370:Drivers/STM32F3xx_HAL_Driver/Src/stm32f3xx_hal_flash.c ****           
 538              		.loc 1 370 22 is_stmt 0 view .LVU155
 539 010e 9868     		ldr	r0, [r3, #8]
 540              	.LVL31:
 373:Drivers/STM32F3xx_HAL_Driver/Src/stm32f3xx_hal_flash.c ****           
 541              		.loc 1 373 11 is_stmt 1 view .LVU156
 373:Drivers/STM32F3xx_HAL_Driver/Src/stm32f3xx_hal_flash.c ****           
 542              		.loc 1 373 32 is_stmt 0 view .LVU157
 543 0110 D3E90467 		ldrd	r6, [r3, #16]
 373:Drivers/STM32F3xx_HAL_Driver/Src/stm32f3xx_hal_flash.c ****           
 544              		.loc 1 373 38 view .LVU158
 545 0114 340C     		lsrs	r4, r6, #16
 546 0116 44EA0744 		orr	r4, r4, r7, lsl #16
 547 011a 3D0C     		lsrs	r5, r7, #16
 373:Drivers/STM32F3xx_HAL_Driver/Src/stm32f3xx_hal_flash.c ****           
 548              		.loc 1 373 23 view .LVU159
 549 011c C3E90445 		strd	r4, [r3, #16]
 376:Drivers/STM32F3xx_HAL_Driver/Src/stm32f3xx_hal_flash.c **** 
 550              		.loc 1 376 11 is_stmt 1 view .LVU160
 551 0120 0A49     		ldr	r1, .L40
 552 0122 0A69     		ldr	r2, [r1, #16]
 553 0124 22F00102 		bic	r2, r2, #1
 554 0128 0A61     		str	r2, [r1, #16]
 379:Drivers/STM32F3xx_HAL_Driver/Src/stm32f3xx_hal_flash.c ****         }
 555              		.loc 1 379 11 view .LVU161
 379:Drivers/STM32F3xx_HAL_Driver/Src/stm32f3xx_hal_flash.c ****         }
 556              		.loc 1 379 62 is_stmt 0 view .LVU162
 557 012a D3E90423 		ldrd	r2, [r3, #16]
 379:Drivers/STM32F3xx_HAL_Driver/Src/stm32f3xx_hal_flash.c ****         }
 558              		.loc 1 379 11 view .LVU163
 559 012e 91B2     		uxth	r1, r2
 560 0130 FFF7FEFF 		bl	FLASH_Program_HalfWord
ARM GAS  /var/folders/jw/jcj5j9_530958b2rm5vp9wn00000gn/T//cc19zHvx.s 			page 25


 561              	.LVL32:
 379:Drivers/STM32F3xx_HAL_Driver/Src/stm32f3xx_hal_flash.c ****         }
 562              		.loc 1 379 11 view .LVU164
 563 0134 ACE7     		b	.L25
 564              	.L38:
 387:Drivers/STM32F3xx_HAL_Driver/Src/stm32f3xx_hal_flash.c ****           }
 565              		.loc 1 387 13 is_stmt 1 view .LVU165
 566 0136 064B     		ldr	r3, .L40+4
 567 0138 9868     		ldr	r0, [r3, #8]
 568 013a FFF7FEFF 		bl	HAL_FLASH_EndOfOperationCallback
 569              	.LVL33:
 570 013e A1E7     		b	.L31
 571              	.L39:
 391:Drivers/STM32F3xx_HAL_Driver/Src/stm32f3xx_hal_flash.c ****           }
 572              		.loc 1 391 13 view .LVU166
 391:Drivers/STM32F3xx_HAL_Driver/Src/stm32f3xx_hal_flash.c ****           }
 573              		.loc 1 391 52 is_stmt 0 view .LVU167
 574 0140 034B     		ldr	r3, .L40+4
 575 0142 9868     		ldr	r0, [r3, #8]
 391:Drivers/STM32F3xx_HAL_Driver/Src/stm32f3xx_hal_flash.c ****           }
 576              		.loc 1 391 13 view .LVU168
 577 0144 0238     		subs	r0, r0, #2
 578 0146 FFF7FEFF 		bl	HAL_FLASH_EndOfOperationCallback
 579              	.LVL34:
 580 014a 9BE7     		b	.L31
 581              	.L41:
 582              		.align	2
 583              	.L40:
 584 014c 00200240 		.word	1073881088
 585 0150 00000000 		.word	pFlash
 586              		.cfi_endproc
 587              	.LFE132:
 589              		.section	.text.HAL_FLASH_Unlock,"ax",%progbits
 590              		.align	1
 591              		.global	HAL_FLASH_Unlock
 592              		.syntax unified
 593              		.thumb
 594              		.thumb_func
 595              		.fpu fpv4-sp-d16
 597              	HAL_FLASH_Unlock:
 598              	.LFB135:
 481:Drivers/STM32F3xx_HAL_Driver/Src/stm32f3xx_hal_flash.c ****   HAL_StatusTypeDef status = HAL_OK;
 599              		.loc 1 481 1 is_stmt 1 view -0
 600              		.cfi_startproc
 601              		@ args = 0, pretend = 0, frame = 0
 602              		@ frame_needed = 0, uses_anonymous_args = 0
 603              		@ link register save eliminated.
 482:Drivers/STM32F3xx_HAL_Driver/Src/stm32f3xx_hal_flash.c **** 
 604              		.loc 1 482 3 view .LVU170
 605              	.LVL35:
 484:Drivers/STM32F3xx_HAL_Driver/Src/stm32f3xx_hal_flash.c ****   {
 606              		.loc 1 484 3 view .LVU171
 484:Drivers/STM32F3xx_HAL_Driver/Src/stm32f3xx_hal_flash.c ****   {
 607              		.loc 1 484 6 is_stmt 0 view .LVU172
 608 0000 0A4B     		ldr	r3, .L46
 609 0002 1B69     		ldr	r3, [r3, #16]
 484:Drivers/STM32F3xx_HAL_Driver/Src/stm32f3xx_hal_flash.c ****   {
ARM GAS  /var/folders/jw/jcj5j9_530958b2rm5vp9wn00000gn/T//cc19zHvx.s 			page 26


 610              		.loc 1 484 5 view .LVU173
 611 0004 13F0800F 		tst	r3, #128
 612 0008 0BD0     		beq	.L44
 487:Drivers/STM32F3xx_HAL_Driver/Src/stm32f3xx_hal_flash.c ****     WRITE_REG(FLASH->KEYR, FLASH_KEY2);
 613              		.loc 1 487 5 is_stmt 1 view .LVU174
 614 000a 084B     		ldr	r3, .L46
 615 000c 084A     		ldr	r2, .L46+4
 616 000e 5A60     		str	r2, [r3, #4]
 488:Drivers/STM32F3xx_HAL_Driver/Src/stm32f3xx_hal_flash.c **** 
 617              		.loc 1 488 5 view .LVU175
 618 0010 02F18832 		add	r2, r2, #-2004318072
 619 0014 5A60     		str	r2, [r3, #4]
 491:Drivers/STM32F3xx_HAL_Driver/Src/stm32f3xx_hal_flash.c ****     {
 620              		.loc 1 491 5 view .LVU176
 491:Drivers/STM32F3xx_HAL_Driver/Src/stm32f3xx_hal_flash.c ****     {
 621              		.loc 1 491 8 is_stmt 0 view .LVU177
 622 0016 1B69     		ldr	r3, [r3, #16]
 491:Drivers/STM32F3xx_HAL_Driver/Src/stm32f3xx_hal_flash.c ****     {
 623              		.loc 1 491 7 view .LVU178
 624 0018 13F0800F 		tst	r3, #128
 625 001c 03D1     		bne	.L45
 482:Drivers/STM32F3xx_HAL_Driver/Src/stm32f3xx_hal_flash.c **** 
 626              		.loc 1 482 21 view .LVU179
 627 001e 0020     		movs	r0, #0
 628 0020 7047     		bx	lr
 629              	.L44:
 630 0022 0020     		movs	r0, #0
 631 0024 7047     		bx	lr
 632              	.L45:
 493:Drivers/STM32F3xx_HAL_Driver/Src/stm32f3xx_hal_flash.c ****     }
 633              		.loc 1 493 14 view .LVU180
 634 0026 0120     		movs	r0, #1
 635              	.LVL36:
 497:Drivers/STM32F3xx_HAL_Driver/Src/stm32f3xx_hal_flash.c **** }
 636              		.loc 1 497 3 is_stmt 1 view .LVU181
 498:Drivers/STM32F3xx_HAL_Driver/Src/stm32f3xx_hal_flash.c **** 
 637              		.loc 1 498 1 is_stmt 0 view .LVU182
 638 0028 7047     		bx	lr
 639              	.L47:
 640 002a 00BF     		.align	2
 641              	.L46:
 642 002c 00200240 		.word	1073881088
 643 0030 23016745 		.word	1164378403
 644              		.cfi_endproc
 645              	.LFE135:
 647              		.section	.text.HAL_FLASH_Lock,"ax",%progbits
 648              		.align	1
 649              		.global	HAL_FLASH_Lock
 650              		.syntax unified
 651              		.thumb
 652              		.thumb_func
 653              		.fpu fpv4-sp-d16
 655              	HAL_FLASH_Lock:
 656              	.LFB136:
 505:Drivers/STM32F3xx_HAL_Driver/Src/stm32f3xx_hal_flash.c ****   /* Set the LOCK Bit to lock the FLASH Registers access */
 657              		.loc 1 505 1 is_stmt 1 view -0
 658              		.cfi_startproc
ARM GAS  /var/folders/jw/jcj5j9_530958b2rm5vp9wn00000gn/T//cc19zHvx.s 			page 27


 659              		@ args = 0, pretend = 0, frame = 0
 660              		@ frame_needed = 0, uses_anonymous_args = 0
 661              		@ link register save eliminated.
 507:Drivers/STM32F3xx_HAL_Driver/Src/stm32f3xx_hal_flash.c ****   
 662              		.loc 1 507 3 view .LVU184
 663 0000 034A     		ldr	r2, .L49
 664 0002 1369     		ldr	r3, [r2, #16]
 665 0004 43F08003 		orr	r3, r3, #128
 666 0008 1361     		str	r3, [r2, #16]
 509:Drivers/STM32F3xx_HAL_Driver/Src/stm32f3xx_hal_flash.c **** }
 667              		.loc 1 509 3 view .LVU185
 510:Drivers/STM32F3xx_HAL_Driver/Src/stm32f3xx_hal_flash.c **** 
 668              		.loc 1 510 1 is_stmt 0 view .LVU186
 669 000a 0020     		movs	r0, #0
 670 000c 7047     		bx	lr
 671              	.L50:
 672 000e 00BF     		.align	2
 673              	.L49:
 674 0010 00200240 		.word	1073881088
 675              		.cfi_endproc
 676              	.LFE136:
 678              		.section	.text.HAL_FLASH_OB_Unlock,"ax",%progbits
 679              		.align	1
 680              		.global	HAL_FLASH_OB_Unlock
 681              		.syntax unified
 682              		.thumb
 683              		.thumb_func
 684              		.fpu fpv4-sp-d16
 686              	HAL_FLASH_OB_Unlock:
 687              	.LFB137:
 517:Drivers/STM32F3xx_HAL_Driver/Src/stm32f3xx_hal_flash.c ****   if (HAL_IS_BIT_CLR(FLASH->CR, FLASH_CR_OPTWRE))
 688              		.loc 1 517 1 is_stmt 1 view -0
 689              		.cfi_startproc
 690              		@ args = 0, pretend = 0, frame = 0
 691              		@ frame_needed = 0, uses_anonymous_args = 0
 692              		@ link register save eliminated.
 518:Drivers/STM32F3xx_HAL_Driver/Src/stm32f3xx_hal_flash.c ****   {
 693              		.loc 1 518 3 view .LVU188
 518:Drivers/STM32F3xx_HAL_Driver/Src/stm32f3xx_hal_flash.c ****   {
 694              		.loc 1 518 7 is_stmt 0 view .LVU189
 695 0000 074B     		ldr	r3, .L54
 696 0002 1B69     		ldr	r3, [r3, #16]
 518:Drivers/STM32F3xx_HAL_Driver/Src/stm32f3xx_hal_flash.c ****   {
 697              		.loc 1 518 6 view .LVU190
 698 0004 13F4007F 		tst	r3, #512
 699 0008 07D1     		bne	.L53
 521:Drivers/STM32F3xx_HAL_Driver/Src/stm32f3xx_hal_flash.c ****     WRITE_REG(FLASH->OPTKEYR, FLASH_OPTKEY2);
 700              		.loc 1 521 5 is_stmt 1 view .LVU191
 701 000a 054B     		ldr	r3, .L54
 702 000c 054A     		ldr	r2, .L54+4
 703 000e 9A60     		str	r2, [r3, #8]
 522:Drivers/STM32F3xx_HAL_Driver/Src/stm32f3xx_hal_flash.c ****   }
 704              		.loc 1 522 5 view .LVU192
 705 0010 02F18832 		add	r2, r2, #-2004318072
 706 0014 9A60     		str	r2, [r3, #8]
 529:Drivers/STM32F3xx_HAL_Driver/Src/stm32f3xx_hal_flash.c **** }
 707              		.loc 1 529 3 view .LVU193
ARM GAS  /var/folders/jw/jcj5j9_530958b2rm5vp9wn00000gn/T//cc19zHvx.s 			page 28


 529:Drivers/STM32F3xx_HAL_Driver/Src/stm32f3xx_hal_flash.c **** }
 708              		.loc 1 529 10 is_stmt 0 view .LVU194
 709 0016 0020     		movs	r0, #0
 710 0018 7047     		bx	lr
 711              	.L53:
 526:Drivers/STM32F3xx_HAL_Driver/Src/stm32f3xx_hal_flash.c ****   }  
 712              		.loc 1 526 12 view .LVU195
 713 001a 0120     		movs	r0, #1
 530:Drivers/STM32F3xx_HAL_Driver/Src/stm32f3xx_hal_flash.c **** 
 714              		.loc 1 530 1 view .LVU196
 715 001c 7047     		bx	lr
 716              	.L55:
 717 001e 00BF     		.align	2
 718              	.L54:
 719 0020 00200240 		.word	1073881088
 720 0024 23016745 		.word	1164378403
 721              		.cfi_endproc
 722              	.LFE137:
 724              		.section	.text.HAL_FLASH_OB_Lock,"ax",%progbits
 725              		.align	1
 726              		.global	HAL_FLASH_OB_Lock
 727              		.syntax unified
 728              		.thumb
 729              		.thumb_func
 730              		.fpu fpv4-sp-d16
 732              	HAL_FLASH_OB_Lock:
 733              	.LFB138:
 537:Drivers/STM32F3xx_HAL_Driver/Src/stm32f3xx_hal_flash.c ****   /* Clear the OPTWRE Bit to lock the FLASH Option Byte Registers access */
 734              		.loc 1 537 1 is_stmt 1 view -0
 735              		.cfi_startproc
 736              		@ args = 0, pretend = 0, frame = 0
 737              		@ frame_needed = 0, uses_anonymous_args = 0
 738              		@ link register save eliminated.
 539:Drivers/STM32F3xx_HAL_Driver/Src/stm32f3xx_hal_flash.c ****   
 739              		.loc 1 539 3 view .LVU198
 740 0000 034A     		ldr	r2, .L57
 741 0002 1369     		ldr	r3, [r2, #16]
 742 0004 23F40073 		bic	r3, r3, #512
 743 0008 1361     		str	r3, [r2, #16]
 541:Drivers/STM32F3xx_HAL_Driver/Src/stm32f3xx_hal_flash.c **** }
 744              		.loc 1 541 3 view .LVU199
 542:Drivers/STM32F3xx_HAL_Driver/Src/stm32f3xx_hal_flash.c ****   
 745              		.loc 1 542 1 is_stmt 0 view .LVU200
 746 000a 0020     		movs	r0, #0
 747 000c 7047     		bx	lr
 748              	.L58:
 749 000e 00BF     		.align	2
 750              	.L57:
 751 0010 00200240 		.word	1073881088
 752              		.cfi_endproc
 753              	.LFE138:
 755              		.section	.text.HAL_FLASH_GetError,"ax",%progbits
 756              		.align	1
 757              		.global	HAL_FLASH_GetError
 758              		.syntax unified
 759              		.thumb
 760              		.thumb_func
ARM GAS  /var/folders/jw/jcj5j9_530958b2rm5vp9wn00000gn/T//cc19zHvx.s 			page 29


 761              		.fpu fpv4-sp-d16
 763              	HAL_FLASH_GetError:
 764              	.LFB140:
 582:Drivers/STM32F3xx_HAL_Driver/Src/stm32f3xx_hal_flash.c ****    return pFlash.ErrorCode;
 765              		.loc 1 582 1 is_stmt 1 view -0
 766              		.cfi_startproc
 767              		@ args = 0, pretend = 0, frame = 0
 768              		@ frame_needed = 0, uses_anonymous_args = 0
 769              		@ link register save eliminated.
 583:Drivers/STM32F3xx_HAL_Driver/Src/stm32f3xx_hal_flash.c **** }
 770              		.loc 1 583 4 view .LVU202
 583:Drivers/STM32F3xx_HAL_Driver/Src/stm32f3xx_hal_flash.c **** }
 771              		.loc 1 583 17 is_stmt 0 view .LVU203
 772 0000 014B     		ldr	r3, .L60
 773 0002 D869     		ldr	r0, [r3, #28]
 584:Drivers/STM32F3xx_HAL_Driver/Src/stm32f3xx_hal_flash.c **** 
 774              		.loc 1 584 1 view .LVU204
 775 0004 7047     		bx	lr
 776              	.L61:
 777 0006 00BF     		.align	2
 778              	.L60:
 779 0008 00000000 		.word	pFlash
 780              		.cfi_endproc
 781              	.LFE140:
 783              		.section	.text.FLASH_WaitForLastOperation,"ax",%progbits
 784              		.align	1
 785              		.global	FLASH_WaitForLastOperation
 786              		.syntax unified
 787              		.thumb
 788              		.thumb_func
 789              		.fpu fpv4-sp-d16
 791              	FLASH_WaitForLastOperation:
 792              	.LVL37:
 793              	.LFB142:
 622:Drivers/STM32F3xx_HAL_Driver/Src/stm32f3xx_hal_flash.c ****   /* Wait for the FLASH operation to complete by polling on BUSY flag to be reset.
 794              		.loc 1 622 1 is_stmt 1 view -0
 795              		.cfi_startproc
 796              		@ args = 0, pretend = 0, frame = 0
 797              		@ frame_needed = 0, uses_anonymous_args = 0
 622:Drivers/STM32F3xx_HAL_Driver/Src/stm32f3xx_hal_flash.c ****   /* Wait for the FLASH operation to complete by polling on BUSY flag to be reset.
 798              		.loc 1 622 1 is_stmt 0 view .LVU206
 799 0000 38B5     		push	{r3, r4, r5, lr}
 800              	.LCFI2:
 801              		.cfi_def_cfa_offset 16
 802              		.cfi_offset 3, -16
 803              		.cfi_offset 4, -12
 804              		.cfi_offset 5, -8
 805              		.cfi_offset 14, -4
 806 0002 0446     		mov	r4, r0
 627:Drivers/STM32F3xx_HAL_Driver/Src/stm32f3xx_hal_flash.c ****      
 807              		.loc 1 627 3 is_stmt 1 view .LVU207
 627:Drivers/STM32F3xx_HAL_Driver/Src/stm32f3xx_hal_flash.c ****      
 808              		.loc 1 627 24 is_stmt 0 view .LVU208
 809 0004 FFF7FEFF 		bl	HAL_GetTick
 810              	.LVL38:
 627:Drivers/STM32F3xx_HAL_Driver/Src/stm32f3xx_hal_flash.c ****      
 811              		.loc 1 627 24 view .LVU209
ARM GAS  /var/folders/jw/jcj5j9_530958b2rm5vp9wn00000gn/T//cc19zHvx.s 			page 30


 812 0008 0546     		mov	r5, r0
 813              	.LVL39:
 629:Drivers/STM32F3xx_HAL_Driver/Src/stm32f3xx_hal_flash.c ****   { 
 814              		.loc 1 629 3 is_stmt 1 view .LVU210
 815              	.L64:
 629:Drivers/STM32F3xx_HAL_Driver/Src/stm32f3xx_hal_flash.c ****   { 
 816              		.loc 1 629 8 view .LVU211
 629:Drivers/STM32F3xx_HAL_Driver/Src/stm32f3xx_hal_flash.c ****   { 
 817              		.loc 1 629 9 is_stmt 0 view .LVU212
 818 000a 144B     		ldr	r3, .L73
 819 000c DB68     		ldr	r3, [r3, #12]
 629:Drivers/STM32F3xx_HAL_Driver/Src/stm32f3xx_hal_flash.c ****   { 
 820              		.loc 1 629 8 view .LVU213
 821 000e 13F0010F 		tst	r3, #1
 822 0012 0AD0     		beq	.L72
 631:Drivers/STM32F3xx_HAL_Driver/Src/stm32f3xx_hal_flash.c ****     {
 823              		.loc 1 631 5 is_stmt 1 view .LVU214
 631:Drivers/STM32F3xx_HAL_Driver/Src/stm32f3xx_hal_flash.c ****     {
 824              		.loc 1 631 8 is_stmt 0 view .LVU215
 825 0014 B4F1FF3F 		cmp	r4, #-1
 826 0018 F7D0     		beq	.L64
 633:Drivers/STM32F3xx_HAL_Driver/Src/stm32f3xx_hal_flash.c ****       {
 827              		.loc 1 633 7 is_stmt 1 view .LVU216
 633:Drivers/STM32F3xx_HAL_Driver/Src/stm32f3xx_hal_flash.c ****       {
 828              		.loc 1 633 9 is_stmt 0 view .LVU217
 829 001a 24B1     		cbz	r4, .L65
 633:Drivers/STM32F3xx_HAL_Driver/Src/stm32f3xx_hal_flash.c ****       {
 830              		.loc 1 633 31 discriminator 1 view .LVU218
 831 001c FFF7FEFF 		bl	HAL_GetTick
 832              	.LVL40:
 633:Drivers/STM32F3xx_HAL_Driver/Src/stm32f3xx_hal_flash.c ****       {
 833              		.loc 1 633 44 discriminator 1 view .LVU219
 834 0020 401B     		subs	r0, r0, r5
 633:Drivers/STM32F3xx_HAL_Driver/Src/stm32f3xx_hal_flash.c ****       {
 835              		.loc 1 633 26 discriminator 1 view .LVU220
 836 0022 A042     		cmp	r0, r4
 837 0024 F1D9     		bls	.L64
 838              	.L65:
 635:Drivers/STM32F3xx_HAL_Driver/Src/stm32f3xx_hal_flash.c ****       }
 839              		.loc 1 635 9 is_stmt 1 view .LVU221
 635:Drivers/STM32F3xx_HAL_Driver/Src/stm32f3xx_hal_flash.c ****       }
 840              		.loc 1 635 16 is_stmt 0 view .LVU222
 841 0026 0320     		movs	r0, #3
 842 0028 12E0     		b	.L66
 843              	.L72:
 641:Drivers/STM32F3xx_HAL_Driver/Src/stm32f3xx_hal_flash.c ****   {
 844              		.loc 1 641 3 is_stmt 1 view .LVU223
 641:Drivers/STM32F3xx_HAL_Driver/Src/stm32f3xx_hal_flash.c ****   {
 845              		.loc 1 641 7 is_stmt 0 view .LVU224
 846 002a 0C4B     		ldr	r3, .L73
 847 002c DB68     		ldr	r3, [r3, #12]
 641:Drivers/STM32F3xx_HAL_Driver/Src/stm32f3xx_hal_flash.c ****   {
 848              		.loc 1 641 6 view .LVU225
 849 002e 13F0200F 		tst	r3, #32
 850 0032 02D0     		beq	.L68
 644:Drivers/STM32F3xx_HAL_Driver/Src/stm32f3xx_hal_flash.c ****   }
 851              		.loc 1 644 5 is_stmt 1 view .LVU226
ARM GAS  /var/folders/jw/jcj5j9_530958b2rm5vp9wn00000gn/T//cc19zHvx.s 			page 31


 852 0034 094B     		ldr	r3, .L73
 853 0036 2022     		movs	r2, #32
 854 0038 DA60     		str	r2, [r3, #12]
 855              	.L68:
 647:Drivers/STM32F3xx_HAL_Driver/Src/stm32f3xx_hal_flash.c ****      __HAL_FLASH_GET_FLAG(FLASH_FLAG_PGERR))
 856              		.loc 1 647 3 view .LVU227
 647:Drivers/STM32F3xx_HAL_Driver/Src/stm32f3xx_hal_flash.c ****      __HAL_FLASH_GET_FLAG(FLASH_FLAG_PGERR))
 857              		.loc 1 647 6 is_stmt 0 view .LVU228
 858 003a 084B     		ldr	r3, .L73
 859 003c DB68     		ldr	r3, [r3, #12]
 647:Drivers/STM32F3xx_HAL_Driver/Src/stm32f3xx_hal_flash.c ****      __HAL_FLASH_GET_FLAG(FLASH_FLAG_PGERR))
 860              		.loc 1 647 5 view .LVU229
 861 003e 13F0100F 		tst	r3, #16
 862 0042 06D1     		bne	.L69
 648:Drivers/STM32F3xx_HAL_Driver/Src/stm32f3xx_hal_flash.c ****   {
 863              		.loc 1 648 6 discriminator 1 view .LVU230
 864 0044 054B     		ldr	r3, .L73
 865 0046 DB68     		ldr	r3, [r3, #12]
 647:Drivers/STM32F3xx_HAL_Driver/Src/stm32f3xx_hal_flash.c ****      __HAL_FLASH_GET_FLAG(FLASH_FLAG_PGERR))
 866              		.loc 1 647 47 discriminator 1 view .LVU231
 867 0048 13F0040F 		tst	r3, #4
 868 004c 01D1     		bne	.L69
 656:Drivers/STM32F3xx_HAL_Driver/Src/stm32f3xx_hal_flash.c **** }
 869              		.loc 1 656 10 view .LVU232
 870 004e 0020     		movs	r0, #0
 871              	.L66:
 657:Drivers/STM32F3xx_HAL_Driver/Src/stm32f3xx_hal_flash.c **** 
 872              		.loc 1 657 1 view .LVU233
 873 0050 38BD     		pop	{r3, r4, r5, pc}
 874              	.LVL41:
 875              	.L69:
 651:Drivers/STM32F3xx_HAL_Driver/Src/stm32f3xx_hal_flash.c ****     return HAL_ERROR;
 876              		.loc 1 651 5 is_stmt 1 view .LVU234
 877 0052 FFF7FEFF 		bl	FLASH_SetErrorCode
 878              	.LVL42:
 652:Drivers/STM32F3xx_HAL_Driver/Src/stm32f3xx_hal_flash.c ****   }
 879              		.loc 1 652 5 view .LVU235
 652:Drivers/STM32F3xx_HAL_Driver/Src/stm32f3xx_hal_flash.c ****   }
 880              		.loc 1 652 12 is_stmt 0 view .LVU236
 881 0056 0120     		movs	r0, #1
 882 0058 FAE7     		b	.L66
 883              	.L74:
 884 005a 00BF     		.align	2
 885              	.L73:
 886 005c 00200240 		.word	1073881088
 887              		.cfi_endproc
 888              	.LFE142:
 890              		.section	.text.HAL_FLASH_Program,"ax",%progbits
 891              		.align	1
 892              		.global	HAL_FLASH_Program
 893              		.syntax unified
 894              		.thumb
 895              		.thumb_func
 896              		.fpu fpv4-sp-d16
 898              	HAL_FLASH_Program:
 899              	.LVL43:
 900              	.LFB130:
ARM GAS  /var/folders/jw/jcj5j9_530958b2rm5vp9wn00000gn/T//cc19zHvx.s 			page 32


 169:Drivers/STM32F3xx_HAL_Driver/Src/stm32f3xx_hal_flash.c ****   HAL_StatusTypeDef status = HAL_ERROR;
 901              		.loc 1 169 1 is_stmt 1 view -0
 902              		.cfi_startproc
 903              		@ args = 0, pretend = 0, frame = 0
 904              		@ frame_needed = 0, uses_anonymous_args = 0
 169:Drivers/STM32F3xx_HAL_Driver/Src/stm32f3xx_hal_flash.c ****   HAL_StatusTypeDef status = HAL_ERROR;
 905              		.loc 1 169 1 is_stmt 0 view .LVU238
 906 0000 2DE9F843 		push	{r3, r4, r5, r6, r7, r8, r9, lr}
 907              	.LCFI3:
 908              		.cfi_def_cfa_offset 32
 909              		.cfi_offset 3, -32
 910              		.cfi_offset 4, -28
 911              		.cfi_offset 5, -24
 912              		.cfi_offset 6, -20
 913              		.cfi_offset 7, -16
 914              		.cfi_offset 8, -12
 915              		.cfi_offset 9, -8
 916              		.cfi_offset 14, -4
 917 0004 1E46     		mov	r6, r3
 170:Drivers/STM32F3xx_HAL_Driver/Src/stm32f3xx_hal_flash.c ****   uint8_t index = 0U;
 918              		.loc 1 170 3 is_stmt 1 view .LVU239
 919              	.LVL44:
 171:Drivers/STM32F3xx_HAL_Driver/Src/stm32f3xx_hal_flash.c ****   uint8_t nbiterations = 0U;
 920              		.loc 1 171 3 view .LVU240
 172:Drivers/STM32F3xx_HAL_Driver/Src/stm32f3xx_hal_flash.c ****   
 921              		.loc 1 172 3 view .LVU241
 175:Drivers/STM32F3xx_HAL_Driver/Src/stm32f3xx_hal_flash.c **** 
 922              		.loc 1 175 3 view .LVU242
 175:Drivers/STM32F3xx_HAL_Driver/Src/stm32f3xx_hal_flash.c **** 
 923              		.loc 1 175 3 view .LVU243
 924 0006 234B     		ldr	r3, .L86
 925 0008 1B7E     		ldrb	r3, [r3, #24]	@ zero_extendqisi2
 926 000a 012B     		cmp	r3, #1
 927 000c 40D0     		beq	.L81
 928 000e 0446     		mov	r4, r0
 929 0010 0F46     		mov	r7, r1
 930 0012 9046     		mov	r8, r2
 175:Drivers/STM32F3xx_HAL_Driver/Src/stm32f3xx_hal_flash.c **** 
 931              		.loc 1 175 3 discriminator 2 view .LVU244
 932 0014 1F4B     		ldr	r3, .L86
 933 0016 0122     		movs	r2, #1
 934              	.LVL45:
 175:Drivers/STM32F3xx_HAL_Driver/Src/stm32f3xx_hal_flash.c **** 
 935              		.loc 1 175 3 is_stmt 0 discriminator 2 view .LVU245
 936 0018 1A76     		strb	r2, [r3, #24]
 175:Drivers/STM32F3xx_HAL_Driver/Src/stm32f3xx_hal_flash.c **** 
 937              		.loc 1 175 3 is_stmt 1 discriminator 2 view .LVU246
 178:Drivers/STM32F3xx_HAL_Driver/Src/stm32f3xx_hal_flash.c ****   assert_param(IS_FLASH_PROGRAM_ADDRESS(Address));
 938              		.loc 1 178 3 discriminator 2 view .LVU247
 179:Drivers/STM32F3xx_HAL_Driver/Src/stm32f3xx_hal_flash.c **** 
 939              		.loc 1 179 3 discriminator 2 view .LVU248
 182:Drivers/STM32F3xx_HAL_Driver/Src/stm32f3xx_hal_flash.c ****   
 940              		.loc 1 182 5 discriminator 2 view .LVU249
 182:Drivers/STM32F3xx_HAL_Driver/Src/stm32f3xx_hal_flash.c ****   
 941              		.loc 1 182 14 is_stmt 0 discriminator 2 view .LVU250
 942 001a 4CF25030 		movw	r0, #50000
 943              	.LVL46:
ARM GAS  /var/folders/jw/jcj5j9_530958b2rm5vp9wn00000gn/T//cc19zHvx.s 			page 33


 182:Drivers/STM32F3xx_HAL_Driver/Src/stm32f3xx_hal_flash.c ****   
 944              		.loc 1 182 14 discriminator 2 view .LVU251
 945 001e FFF7FEFF 		bl	FLASH_WaitForLastOperation
 946              	.LVL47:
 184:Drivers/STM32F3xx_HAL_Driver/Src/stm32f3xx_hal_flash.c ****   {
 947              		.loc 1 184 3 is_stmt 1 discriminator 2 view .LVU252
 184:Drivers/STM32F3xx_HAL_Driver/Src/stm32f3xx_hal_flash.c ****   {
 948              		.loc 1 184 5 is_stmt 0 discriminator 2 view .LVU253
 949 0022 0346     		mov	r3, r0
 950 0024 70BB     		cbnz	r0, .L77
 186:Drivers/STM32F3xx_HAL_Driver/Src/stm32f3xx_hal_flash.c ****     {
 951              		.loc 1 186 5 is_stmt 1 view .LVU254
 186:Drivers/STM32F3xx_HAL_Driver/Src/stm32f3xx_hal_flash.c ****     {
 952              		.loc 1 186 7 is_stmt 0 view .LVU255
 953 0026 012C     		cmp	r4, #1
 954 0028 29D0     		beq	.L82
 191:Drivers/STM32F3xx_HAL_Driver/Src/stm32f3xx_hal_flash.c ****     {
 955              		.loc 1 191 10 is_stmt 1 view .LVU256
 191:Drivers/STM32F3xx_HAL_Driver/Src/stm32f3xx_hal_flash.c ****     {
 956              		.loc 1 191 12 is_stmt 0 view .LVU257
 957 002a 022C     		cmp	r4, #2
 958 002c 24D0     		beq	.L85
 199:Drivers/STM32F3xx_HAL_Driver/Src/stm32f3xx_hal_flash.c ****     }
 959              		.loc 1 199 20 view .LVU258
 960 002e 4FF00409 		mov	r9, #4
 961              	.L78:
 962              	.LVL48:
 202:Drivers/STM32F3xx_HAL_Driver/Src/stm32f3xx_hal_flash.c ****     {
 963              		.loc 1 202 5 is_stmt 1 view .LVU259
 202:Drivers/STM32F3xx_HAL_Driver/Src/stm32f3xx_hal_flash.c ****     {
 964              		.loc 1 202 16 is_stmt 0 view .LVU260
 965 0032 1C46     		mov	r4, r3
 966              	.LVL49:
 967              	.L79:
 202:Drivers/STM32F3xx_HAL_Driver/Src/stm32f3xx_hal_flash.c ****     {
 968              		.loc 1 202 22 is_stmt 1 discriminator 1 view .LVU261
 202:Drivers/STM32F3xx_HAL_Driver/Src/stm32f3xx_hal_flash.c ****     {
 969              		.loc 1 202 5 is_stmt 0 discriminator 1 view .LVU262
 970 0034 4C45     		cmp	r4, r9
 971 0036 25D2     		bcs	.L77
 204:Drivers/STM32F3xx_HAL_Driver/Src/stm32f3xx_hal_flash.c **** 
 972              		.loc 1 204 7 is_stmt 1 view .LVU263
 204:Drivers/STM32F3xx_HAL_Driver/Src/stm32f3xx_hal_flash.c **** 
 973              		.loc 1 204 77 is_stmt 0 view .LVU264
 974 0038 2101     		lsls	r1, r4, #4
 204:Drivers/STM32F3xx_HAL_Driver/Src/stm32f3xx_hal_flash.c **** 
 975              		.loc 1 204 70 view .LVU265
 976 003a C1F12002 		rsb	r2, r1, #32
 977 003e A1F12003 		sub	r3, r1, #32
 978              	.LVL50:
 204:Drivers/STM32F3xx_HAL_Driver/Src/stm32f3xx_hal_flash.c **** 
 979              		.loc 1 204 70 view .LVU266
 980 0042 28FA01F1 		lsr	r1, r8, r1
 981 0046 06FA02F2 		lsl	r2, r6, r2
 982 004a 1143     		orrs	r1, r1, r2
 983 004c 26FA03F3 		lsr	r3, r6, r3
 984 0050 1943     		orrs	r1, r1, r3
ARM GAS  /var/folders/jw/jcj5j9_530958b2rm5vp9wn00000gn/T//cc19zHvx.s 			page 34


 204:Drivers/STM32F3xx_HAL_Driver/Src/stm32f3xx_hal_flash.c **** 
 985              		.loc 1 204 7 view .LVU267
 986 0052 89B2     		uxth	r1, r1
 987 0054 07EB4400 		add	r0, r7, r4, lsl #1
 988 0058 FFF7FEFF 		bl	FLASH_Program_HalfWord
 989              	.LVL51:
 207:Drivers/STM32F3xx_HAL_Driver/Src/stm32f3xx_hal_flash.c ****     
 990              		.loc 1 207 9 is_stmt 1 view .LVU268
 207:Drivers/STM32F3xx_HAL_Driver/Src/stm32f3xx_hal_flash.c ****     
 991              		.loc 1 207 18 is_stmt 0 view .LVU269
 992 005c 4CF25030 		movw	r0, #50000
 993 0060 FFF7FEFF 		bl	FLASH_WaitForLastOperation
 994              	.LVL52:
 210:Drivers/STM32F3xx_HAL_Driver/Src/stm32f3xx_hal_flash.c ****       /* In case of error, stop programming procedure */
 995              		.loc 1 210 9 is_stmt 1 view .LVU270
 996 0064 0C4B     		ldr	r3, .L86+4
 997 0066 1D69     		ldr	r5, [r3, #16]
 998 0068 25F00105 		bic	r5, r5, #1
 999 006c 1D61     		str	r5, [r3, #16]
 212:Drivers/STM32F3xx_HAL_Driver/Src/stm32f3xx_hal_flash.c ****       {
 1000              		.loc 1 212 7 view .LVU271
 212:Drivers/STM32F3xx_HAL_Driver/Src/stm32f3xx_hal_flash.c ****       {
 1001              		.loc 1 212 10 is_stmt 0 view .LVU272
 1002 006e 0346     		mov	r3, r0
 1003 0070 40B9     		cbnz	r0, .L77
 202:Drivers/STM32F3xx_HAL_Driver/Src/stm32f3xx_hal_flash.c ****     {
 1004              		.loc 1 202 44 is_stmt 1 discriminator 2 view .LVU273
 202:Drivers/STM32F3xx_HAL_Driver/Src/stm32f3xx_hal_flash.c ****     {
 1005              		.loc 1 202 49 is_stmt 0 discriminator 2 view .LVU274
 1006 0072 0134     		adds	r4, r4, #1
 1007              	.LVL53:
 202:Drivers/STM32F3xx_HAL_Driver/Src/stm32f3xx_hal_flash.c ****     {
 1008              		.loc 1 202 49 discriminator 2 view .LVU275
 1009 0074 E4B2     		uxtb	r4, r4
 1010              	.LVL54:
 202:Drivers/STM32F3xx_HAL_Driver/Src/stm32f3xx_hal_flash.c ****     {
 1011              		.loc 1 202 49 discriminator 2 view .LVU276
 1012 0076 DDE7     		b	.L79
 1013              	.LVL55:
 1014              	.L85:
 194:Drivers/STM32F3xx_HAL_Driver/Src/stm32f3xx_hal_flash.c ****     }
 1015              		.loc 1 194 20 view .LVU277
 1016 0078 4FF00209 		mov	r9, #2
 1017 007c D9E7     		b	.L78
 1018              	.L82:
 189:Drivers/STM32F3xx_HAL_Driver/Src/stm32f3xx_hal_flash.c ****     }
 1019              		.loc 1 189 20 view .LVU278
 1020 007e 4FF00109 		mov	r9, #1
 1021 0082 D6E7     		b	.L78
 1022              	.LVL56:
 1023              	.L77:
 220:Drivers/STM32F3xx_HAL_Driver/Src/stm32f3xx_hal_flash.c **** 
 1024              		.loc 1 220 3 is_stmt 1 view .LVU279
 220:Drivers/STM32F3xx_HAL_Driver/Src/stm32f3xx_hal_flash.c **** 
 1025              		.loc 1 220 3 view .LVU280
 1026 0084 034A     		ldr	r2, .L86
 1027 0086 0021     		movs	r1, #0
ARM GAS  /var/folders/jw/jcj5j9_530958b2rm5vp9wn00000gn/T//cc19zHvx.s 			page 35


 1028 0088 1176     		strb	r1, [r2, #24]
 220:Drivers/STM32F3xx_HAL_Driver/Src/stm32f3xx_hal_flash.c **** 
 1029              		.loc 1 220 3 view .LVU281
 222:Drivers/STM32F3xx_HAL_Driver/Src/stm32f3xx_hal_flash.c **** }
 1030              		.loc 1 222 3 view .LVU282
 1031              	.LVL57:
 1032              	.L76:
 223:Drivers/STM32F3xx_HAL_Driver/Src/stm32f3xx_hal_flash.c **** 
 1033              		.loc 1 223 1 is_stmt 0 view .LVU283
 1034 008a 1846     		mov	r0, r3
 1035 008c BDE8F883 		pop	{r3, r4, r5, r6, r7, r8, r9, pc}
 1036              	.LVL58:
 1037              	.L81:
 175:Drivers/STM32F3xx_HAL_Driver/Src/stm32f3xx_hal_flash.c **** 
 1038              		.loc 1 175 3 view .LVU284
 1039 0090 0223     		movs	r3, #2
 1040 0092 FAE7     		b	.L76
 1041              	.L87:
 1042              		.align	2
 1043              	.L86:
 1044 0094 00000000 		.word	pFlash
 1045 0098 00200240 		.word	1073881088
 1046              		.cfi_endproc
 1047              	.LFE130:
 1049              		.section	.text.HAL_FLASH_OB_Launch,"ax",%progbits
 1050              		.align	1
 1051              		.global	HAL_FLASH_OB_Launch
 1052              		.syntax unified
 1053              		.thumb
 1054              		.thumb_func
 1055              		.fpu fpv4-sp-d16
 1057              	HAL_FLASH_OB_Launch:
 1058              	.LFB139:
 550:Drivers/STM32F3xx_HAL_Driver/Src/stm32f3xx_hal_flash.c ****   /* Set the OBL_Launch bit to launch the option byte loading */
 1059              		.loc 1 550 1 is_stmt 1 view -0
 1060              		.cfi_startproc
 1061              		@ args = 0, pretend = 0, frame = 0
 1062              		@ frame_needed = 0, uses_anonymous_args = 0
 1063 0000 08B5     		push	{r3, lr}
 1064              	.LCFI4:
 1065              		.cfi_def_cfa_offset 8
 1066              		.cfi_offset 3, -8
 1067              		.cfi_offset 14, -4
 552:Drivers/STM32F3xx_HAL_Driver/Src/stm32f3xx_hal_flash.c ****   
 1068              		.loc 1 552 3 view .LVU286
 1069 0002 054A     		ldr	r2, .L90
 1070 0004 1369     		ldr	r3, [r2, #16]
 1071 0006 43F40053 		orr	r3, r3, #8192
 1072 000a 1361     		str	r3, [r2, #16]
 555:Drivers/STM32F3xx_HAL_Driver/Src/stm32f3xx_hal_flash.c **** }
 1073              		.loc 1 555 3 view .LVU287
 555:Drivers/STM32F3xx_HAL_Driver/Src/stm32f3xx_hal_flash.c **** }
 1074              		.loc 1 555 10 is_stmt 0 view .LVU288
 1075 000c 4CF25030 		movw	r0, #50000
 1076 0010 FFF7FEFF 		bl	FLASH_WaitForLastOperation
 1077              	.LVL59:
 556:Drivers/STM32F3xx_HAL_Driver/Src/stm32f3xx_hal_flash.c **** 
ARM GAS  /var/folders/jw/jcj5j9_530958b2rm5vp9wn00000gn/T//cc19zHvx.s 			page 36


 1078              		.loc 1 556 1 view .LVU289
 1079 0014 08BD     		pop	{r3, pc}
 1080              	.L91:
 1081 0016 00BF     		.align	2
 1082              	.L90:
 1083 0018 00200240 		.word	1073881088
 1084              		.cfi_endproc
 1085              	.LFE139:
 1087              		.comm	pFlash,32,8
 1088              		.text
 1089              	.Letext0:
 1090              		.file 2 "/Users/javier/Library/xPacks/@xpack-dev-tools/arm-none-eabi-gcc/9.3.1-1.4.1/.content/arm-
 1091              		.file 3 "/Users/javier/Library/xPacks/@xpack-dev-tools/arm-none-eabi-gcc/9.3.1-1.4.1/.content/arm-
 1092              		.file 4 "Drivers/CMSIS/Include/core_cm4.h"
 1093              		.file 5 "Drivers/CMSIS/Device/ST/STM32F3xx/Include/system_stm32f3xx.h"
 1094              		.file 6 "Drivers/CMSIS/Device/ST/STM32F3xx/Include/stm32f373xc.h"
 1095              		.file 7 "Drivers/CMSIS/Device/ST/STM32F3xx/Include/stm32f3xx.h"
 1096              		.file 8 "Drivers/STM32F3xx_HAL_Driver/Inc/stm32f3xx_hal_def.h"
 1097              		.file 9 "Drivers/STM32F3xx_HAL_Driver/Inc/stm32f3xx_hal_flash.h"
 1098              		.file 10 "Drivers/STM32F3xx_HAL_Driver/Inc/stm32f3xx_hal.h"
ARM GAS  /var/folders/jw/jcj5j9_530958b2rm5vp9wn00000gn/T//cc19zHvx.s 			page 37

