ARM GAS  /var/folders/jw/jcj5j9_530958b2rm5vp9wn00000gn/T//ccXdJM12.s 			page 1


   1              		.cpu cortex-m4
   2              		.eabi_attribute 27, 1
   3              		.eabi_attribute 28, 1
   4              		.eabi_attribute 20, 1
   5              		.eabi_attribute 21, 1
   6              		.eabi_attribute 23, 3
   7              		.eabi_attribute 24, 1
   8              		.eabi_attribute 25, 1
   9              		.eabi_attribute 26, 1
  10              		.eabi_attribute 30, 1
  11              		.eabi_attribute 34, 1
  12              		.eabi_attribute 18, 4
  13              		.file	"stm32f3xx_hal_flash_ex.c"
  14              		.text
  15              	.Ltext0:
  16              		.cfi_sections	.debug_frame
  17              		.section	.text.FLASH_MassErase,"ax",%progbits
  18              		.align	1
  19              		.arch armv7e-m
  20              		.syntax unified
  21              		.thumb
  22              		.thumb_func
  23              		.fpu fpv4-sp-d16
  25              	FLASH_MassErase:
  26              	.LFB136:
  27              		.file 1 "Drivers/STM32F3xx_HAL_Driver/Src/stm32f3xx_hal_flash_ex.c"
   1:Drivers/STM32F3xx_HAL_Driver/Src/stm32f3xx_hal_flash_ex.c **** /**
   2:Drivers/STM32F3xx_HAL_Driver/Src/stm32f3xx_hal_flash_ex.c ****   ******************************************************************************
   3:Drivers/STM32F3xx_HAL_Driver/Src/stm32f3xx_hal_flash_ex.c ****   * @file    stm32f3xx_hal_flash_ex.c
   4:Drivers/STM32F3xx_HAL_Driver/Src/stm32f3xx_hal_flash_ex.c ****   * @author  MCD Application Team
   5:Drivers/STM32F3xx_HAL_Driver/Src/stm32f3xx_hal_flash_ex.c ****   * @brief   Extended FLASH HAL module driver.
   6:Drivers/STM32F3xx_HAL_Driver/Src/stm32f3xx_hal_flash_ex.c ****   *    
   7:Drivers/STM32F3xx_HAL_Driver/Src/stm32f3xx_hal_flash_ex.c ****   *          This file provides firmware functions to manage the following 
   8:Drivers/STM32F3xx_HAL_Driver/Src/stm32f3xx_hal_flash_ex.c ****   *          functionalities of the FLASH peripheral:
   9:Drivers/STM32F3xx_HAL_Driver/Src/stm32f3xx_hal_flash_ex.c ****   *           + Extended Initialization/de-initialization functions
  10:Drivers/STM32F3xx_HAL_Driver/Src/stm32f3xx_hal_flash_ex.c ****   *           + Extended I/O operation functions
  11:Drivers/STM32F3xx_HAL_Driver/Src/stm32f3xx_hal_flash_ex.c ****   *           + Extended Peripheral Control functions 
  12:Drivers/STM32F3xx_HAL_Driver/Src/stm32f3xx_hal_flash_ex.c ****   *         
  13:Drivers/STM32F3xx_HAL_Driver/Src/stm32f3xx_hal_flash_ex.c ****   @verbatim
  14:Drivers/STM32F3xx_HAL_Driver/Src/stm32f3xx_hal_flash_ex.c ****   ==============================================================================
  15:Drivers/STM32F3xx_HAL_Driver/Src/stm32f3xx_hal_flash_ex.c ****                ##### Flash peripheral extended features  #####
  16:Drivers/STM32F3xx_HAL_Driver/Src/stm32f3xx_hal_flash_ex.c ****   ==============================================================================
  17:Drivers/STM32F3xx_HAL_Driver/Src/stm32f3xx_hal_flash_ex.c ****            
  18:Drivers/STM32F3xx_HAL_Driver/Src/stm32f3xx_hal_flash_ex.c ****                       ##### How to use this driver #####
  19:Drivers/STM32F3xx_HAL_Driver/Src/stm32f3xx_hal_flash_ex.c ****   ==============================================================================
  20:Drivers/STM32F3xx_HAL_Driver/Src/stm32f3xx_hal_flash_ex.c ****   [..] This driver provides functions to configure and program the FLASH memory 
  21:Drivers/STM32F3xx_HAL_Driver/Src/stm32f3xx_hal_flash_ex.c ****        of all STM32F3xxx devices. It includes
  22:Drivers/STM32F3xx_HAL_Driver/Src/stm32f3xx_hal_flash_ex.c ****        
  23:Drivers/STM32F3xx_HAL_Driver/Src/stm32f3xx_hal_flash_ex.c ****         (++) Set/Reset the write protection
  24:Drivers/STM32F3xx_HAL_Driver/Src/stm32f3xx_hal_flash_ex.c ****         (++) Program the user Option Bytes
  25:Drivers/STM32F3xx_HAL_Driver/Src/stm32f3xx_hal_flash_ex.c ****         (++) Get the Read protection Level
  26:Drivers/STM32F3xx_HAL_Driver/Src/stm32f3xx_hal_flash_ex.c ****   
  27:Drivers/STM32F3xx_HAL_Driver/Src/stm32f3xx_hal_flash_ex.c ****   @endverbatim
  28:Drivers/STM32F3xx_HAL_Driver/Src/stm32f3xx_hal_flash_ex.c ****   ******************************************************************************
  29:Drivers/STM32F3xx_HAL_Driver/Src/stm32f3xx_hal_flash_ex.c ****   * @attention
  30:Drivers/STM32F3xx_HAL_Driver/Src/stm32f3xx_hal_flash_ex.c ****   *
  31:Drivers/STM32F3xx_HAL_Driver/Src/stm32f3xx_hal_flash_ex.c ****   * <h2><center>&copy; Copyright (c) 2016 STMicroelectronics.
ARM GAS  /var/folders/jw/jcj5j9_530958b2rm5vp9wn00000gn/T//ccXdJM12.s 			page 2


  32:Drivers/STM32F3xx_HAL_Driver/Src/stm32f3xx_hal_flash_ex.c ****   * All rights reserved.</center></h2>
  33:Drivers/STM32F3xx_HAL_Driver/Src/stm32f3xx_hal_flash_ex.c ****   *
  34:Drivers/STM32F3xx_HAL_Driver/Src/stm32f3xx_hal_flash_ex.c ****   * This software component is licensed by ST under BSD 3-Clause license,
  35:Drivers/STM32F3xx_HAL_Driver/Src/stm32f3xx_hal_flash_ex.c ****   * the "License"; You may not use this file except in compliance with the
  36:Drivers/STM32F3xx_HAL_Driver/Src/stm32f3xx_hal_flash_ex.c ****   * License. You may obtain a copy of the License at:
  37:Drivers/STM32F3xx_HAL_Driver/Src/stm32f3xx_hal_flash_ex.c ****   *                        opensource.org/licenses/BSD-3-Clause
  38:Drivers/STM32F3xx_HAL_Driver/Src/stm32f3xx_hal_flash_ex.c ****   *
  39:Drivers/STM32F3xx_HAL_Driver/Src/stm32f3xx_hal_flash_ex.c ****   ******************************************************************************
  40:Drivers/STM32F3xx_HAL_Driver/Src/stm32f3xx_hal_flash_ex.c ****   */
  41:Drivers/STM32F3xx_HAL_Driver/Src/stm32f3xx_hal_flash_ex.c **** 
  42:Drivers/STM32F3xx_HAL_Driver/Src/stm32f3xx_hal_flash_ex.c **** /* Includes ------------------------------------------------------------------*/
  43:Drivers/STM32F3xx_HAL_Driver/Src/stm32f3xx_hal_flash_ex.c **** #include "stm32f3xx_hal.h"
  44:Drivers/STM32F3xx_HAL_Driver/Src/stm32f3xx_hal_flash_ex.c **** 
  45:Drivers/STM32F3xx_HAL_Driver/Src/stm32f3xx_hal_flash_ex.c **** /** @addtogroup STM32F3xx_HAL_Driver
  46:Drivers/STM32F3xx_HAL_Driver/Src/stm32f3xx_hal_flash_ex.c ****   * @{
  47:Drivers/STM32F3xx_HAL_Driver/Src/stm32f3xx_hal_flash_ex.c ****   */
  48:Drivers/STM32F3xx_HAL_Driver/Src/stm32f3xx_hal_flash_ex.c **** #ifdef HAL_FLASH_MODULE_ENABLED
  49:Drivers/STM32F3xx_HAL_Driver/Src/stm32f3xx_hal_flash_ex.c **** 
  50:Drivers/STM32F3xx_HAL_Driver/Src/stm32f3xx_hal_flash_ex.c **** /** @addtogroup FLASH
  51:Drivers/STM32F3xx_HAL_Driver/Src/stm32f3xx_hal_flash_ex.c ****   * @{
  52:Drivers/STM32F3xx_HAL_Driver/Src/stm32f3xx_hal_flash_ex.c ****   */
  53:Drivers/STM32F3xx_HAL_Driver/Src/stm32f3xx_hal_flash_ex.c **** /** @addtogroup FLASH_Private_Variables
  54:Drivers/STM32F3xx_HAL_Driver/Src/stm32f3xx_hal_flash_ex.c ****  * @{
  55:Drivers/STM32F3xx_HAL_Driver/Src/stm32f3xx_hal_flash_ex.c ****  */
  56:Drivers/STM32F3xx_HAL_Driver/Src/stm32f3xx_hal_flash_ex.c **** /* Variables used for Erase pages under interruption*/
  57:Drivers/STM32F3xx_HAL_Driver/Src/stm32f3xx_hal_flash_ex.c **** extern FLASH_ProcessTypeDef pFlash;
  58:Drivers/STM32F3xx_HAL_Driver/Src/stm32f3xx_hal_flash_ex.c **** /**
  59:Drivers/STM32F3xx_HAL_Driver/Src/stm32f3xx_hal_flash_ex.c ****   * @}
  60:Drivers/STM32F3xx_HAL_Driver/Src/stm32f3xx_hal_flash_ex.c ****   */
  61:Drivers/STM32F3xx_HAL_Driver/Src/stm32f3xx_hal_flash_ex.c **** 
  62:Drivers/STM32F3xx_HAL_Driver/Src/stm32f3xx_hal_flash_ex.c **** /**
  63:Drivers/STM32F3xx_HAL_Driver/Src/stm32f3xx_hal_flash_ex.c ****   * @}
  64:Drivers/STM32F3xx_HAL_Driver/Src/stm32f3xx_hal_flash_ex.c ****   */
  65:Drivers/STM32F3xx_HAL_Driver/Src/stm32f3xx_hal_flash_ex.c ****   
  66:Drivers/STM32F3xx_HAL_Driver/Src/stm32f3xx_hal_flash_ex.c **** /** @defgroup FLASHEx FLASHEx
  67:Drivers/STM32F3xx_HAL_Driver/Src/stm32f3xx_hal_flash_ex.c ****   * @brief FLASH HAL Extension module driver
  68:Drivers/STM32F3xx_HAL_Driver/Src/stm32f3xx_hal_flash_ex.c ****   * @{
  69:Drivers/STM32F3xx_HAL_Driver/Src/stm32f3xx_hal_flash_ex.c ****   */
  70:Drivers/STM32F3xx_HAL_Driver/Src/stm32f3xx_hal_flash_ex.c **** 
  71:Drivers/STM32F3xx_HAL_Driver/Src/stm32f3xx_hal_flash_ex.c **** /* Private typedef -----------------------------------------------------------*/
  72:Drivers/STM32F3xx_HAL_Driver/Src/stm32f3xx_hal_flash_ex.c **** /* Private define ------------------------------------------------------------*/
  73:Drivers/STM32F3xx_HAL_Driver/Src/stm32f3xx_hal_flash_ex.c **** /** @defgroup FLASHEx_Private_Constants FLASHEx Private Constants
  74:Drivers/STM32F3xx_HAL_Driver/Src/stm32f3xx_hal_flash_ex.c ****  * @{
  75:Drivers/STM32F3xx_HAL_Driver/Src/stm32f3xx_hal_flash_ex.c ****  */
  76:Drivers/STM32F3xx_HAL_Driver/Src/stm32f3xx_hal_flash_ex.c **** #define FLASH_POSITION_IWDGSW_BIT        (uint32_t)POSITION_VAL(FLASH_OBR_IWDG_SW)
  77:Drivers/STM32F3xx_HAL_Driver/Src/stm32f3xx_hal_flash_ex.c **** #define FLASH_POSITION_OB_USERDATA0_BIT  (uint32_t)POSITION_VAL(FLASH_OBR_DATA0)
  78:Drivers/STM32F3xx_HAL_Driver/Src/stm32f3xx_hal_flash_ex.c **** #define FLASH_POSITION_OB_USERDATA1_BIT  (uint32_t)POSITION_VAL(FLASH_OBR_DATA1)
  79:Drivers/STM32F3xx_HAL_Driver/Src/stm32f3xx_hal_flash_ex.c **** /**
  80:Drivers/STM32F3xx_HAL_Driver/Src/stm32f3xx_hal_flash_ex.c ****   * @}
  81:Drivers/STM32F3xx_HAL_Driver/Src/stm32f3xx_hal_flash_ex.c ****   */
  82:Drivers/STM32F3xx_HAL_Driver/Src/stm32f3xx_hal_flash_ex.c **** 
  83:Drivers/STM32F3xx_HAL_Driver/Src/stm32f3xx_hal_flash_ex.c **** /* Private macro -------------------------------------------------------------*/
  84:Drivers/STM32F3xx_HAL_Driver/Src/stm32f3xx_hal_flash_ex.c **** /** @defgroup FLASHEx_Private_Macros FLASHEx Private Macros
  85:Drivers/STM32F3xx_HAL_Driver/Src/stm32f3xx_hal_flash_ex.c ****   * @{
  86:Drivers/STM32F3xx_HAL_Driver/Src/stm32f3xx_hal_flash_ex.c ****   */
  87:Drivers/STM32F3xx_HAL_Driver/Src/stm32f3xx_hal_flash_ex.c **** /**
  88:Drivers/STM32F3xx_HAL_Driver/Src/stm32f3xx_hal_flash_ex.c ****   * @}
ARM GAS  /var/folders/jw/jcj5j9_530958b2rm5vp9wn00000gn/T//ccXdJM12.s 			page 3


  89:Drivers/STM32F3xx_HAL_Driver/Src/stm32f3xx_hal_flash_ex.c ****   */ 
  90:Drivers/STM32F3xx_HAL_Driver/Src/stm32f3xx_hal_flash_ex.c **** 
  91:Drivers/STM32F3xx_HAL_Driver/Src/stm32f3xx_hal_flash_ex.c **** /* Private variables ---------------------------------------------------------*/
  92:Drivers/STM32F3xx_HAL_Driver/Src/stm32f3xx_hal_flash_ex.c **** /* Private function prototypes -----------------------------------------------*/
  93:Drivers/STM32F3xx_HAL_Driver/Src/stm32f3xx_hal_flash_ex.c **** /** @defgroup FLASHEx_Private_Functions FLASHEx Private Functions
  94:Drivers/STM32F3xx_HAL_Driver/Src/stm32f3xx_hal_flash_ex.c ****  * @{
  95:Drivers/STM32F3xx_HAL_Driver/Src/stm32f3xx_hal_flash_ex.c ****  */
  96:Drivers/STM32F3xx_HAL_Driver/Src/stm32f3xx_hal_flash_ex.c **** /* Erase operations */
  97:Drivers/STM32F3xx_HAL_Driver/Src/stm32f3xx_hal_flash_ex.c **** static void              FLASH_MassErase(void);
  98:Drivers/STM32F3xx_HAL_Driver/Src/stm32f3xx_hal_flash_ex.c **** void    FLASH_PageErase(uint32_t PageAddress);
  99:Drivers/STM32F3xx_HAL_Driver/Src/stm32f3xx_hal_flash_ex.c **** 
 100:Drivers/STM32F3xx_HAL_Driver/Src/stm32f3xx_hal_flash_ex.c **** /* Option bytes control */
 101:Drivers/STM32F3xx_HAL_Driver/Src/stm32f3xx_hal_flash_ex.c **** static HAL_StatusTypeDef FLASH_OB_EnableWRP(uint32_t WriteProtectPage);
 102:Drivers/STM32F3xx_HAL_Driver/Src/stm32f3xx_hal_flash_ex.c **** static HAL_StatusTypeDef FLASH_OB_DisableWRP(uint32_t WriteProtectPage);
 103:Drivers/STM32F3xx_HAL_Driver/Src/stm32f3xx_hal_flash_ex.c **** static HAL_StatusTypeDef FLASH_OB_RDP_LevelConfig(uint8_t ReadProtectLevel);
 104:Drivers/STM32F3xx_HAL_Driver/Src/stm32f3xx_hal_flash_ex.c **** static HAL_StatusTypeDef FLASH_OB_UserConfig(uint8_t UserConfig);
 105:Drivers/STM32F3xx_HAL_Driver/Src/stm32f3xx_hal_flash_ex.c **** static HAL_StatusTypeDef FLASH_OB_ProgramData(uint32_t Address, uint8_t Data);
 106:Drivers/STM32F3xx_HAL_Driver/Src/stm32f3xx_hal_flash_ex.c **** static uint32_t          FLASH_OB_GetWRP(void);
 107:Drivers/STM32F3xx_HAL_Driver/Src/stm32f3xx_hal_flash_ex.c **** static uint32_t          FLASH_OB_GetRDP(void);
 108:Drivers/STM32F3xx_HAL_Driver/Src/stm32f3xx_hal_flash_ex.c **** static uint8_t           FLASH_OB_GetUser(void);
 109:Drivers/STM32F3xx_HAL_Driver/Src/stm32f3xx_hal_flash_ex.c **** 
 110:Drivers/STM32F3xx_HAL_Driver/Src/stm32f3xx_hal_flash_ex.c **** /**
 111:Drivers/STM32F3xx_HAL_Driver/Src/stm32f3xx_hal_flash_ex.c ****   * @}
 112:Drivers/STM32F3xx_HAL_Driver/Src/stm32f3xx_hal_flash_ex.c ****   */
 113:Drivers/STM32F3xx_HAL_Driver/Src/stm32f3xx_hal_flash_ex.c **** 
 114:Drivers/STM32F3xx_HAL_Driver/Src/stm32f3xx_hal_flash_ex.c **** /* Exported functions ---------------------------------------------------------*/
 115:Drivers/STM32F3xx_HAL_Driver/Src/stm32f3xx_hal_flash_ex.c **** /** @defgroup FLASHEx_Exported_Functions FLASHEx Exported Functions
 116:Drivers/STM32F3xx_HAL_Driver/Src/stm32f3xx_hal_flash_ex.c ****   * @{
 117:Drivers/STM32F3xx_HAL_Driver/Src/stm32f3xx_hal_flash_ex.c ****   */
 118:Drivers/STM32F3xx_HAL_Driver/Src/stm32f3xx_hal_flash_ex.c ****   
 119:Drivers/STM32F3xx_HAL_Driver/Src/stm32f3xx_hal_flash_ex.c **** /** @defgroup FLASHEx_Exported_Functions_Group1 FLASHEx Memory Erasing functions
 120:Drivers/STM32F3xx_HAL_Driver/Src/stm32f3xx_hal_flash_ex.c ****  *  @brief   FLASH Memory Erasing functions
 121:Drivers/STM32F3xx_HAL_Driver/Src/stm32f3xx_hal_flash_ex.c ****   *
 122:Drivers/STM32F3xx_HAL_Driver/Src/stm32f3xx_hal_flash_ex.c **** @verbatim   
 123:Drivers/STM32F3xx_HAL_Driver/Src/stm32f3xx_hal_flash_ex.c ****   ==============================================================================
 124:Drivers/STM32F3xx_HAL_Driver/Src/stm32f3xx_hal_flash_ex.c ****                 ##### FLASH Erasing Programming functions ##### 
 125:Drivers/STM32F3xx_HAL_Driver/Src/stm32f3xx_hal_flash_ex.c ****   ==============================================================================
 126:Drivers/STM32F3xx_HAL_Driver/Src/stm32f3xx_hal_flash_ex.c **** 
 127:Drivers/STM32F3xx_HAL_Driver/Src/stm32f3xx_hal_flash_ex.c ****     [..] The FLASH Memory Erasing functions, includes the following functions:
 128:Drivers/STM32F3xx_HAL_Driver/Src/stm32f3xx_hal_flash_ex.c ****     (+) @ref HAL_FLASHEx_Erase: return only when erase has been done
 129:Drivers/STM32F3xx_HAL_Driver/Src/stm32f3xx_hal_flash_ex.c ****     (+) @ref HAL_FLASHEx_Erase_IT: end of erase is done when @ref HAL_FLASH_EndOfOperationCallback 
 130:Drivers/STM32F3xx_HAL_Driver/Src/stm32f3xx_hal_flash_ex.c ****         is called with parameter 0xFFFFFFFF
 131:Drivers/STM32F3xx_HAL_Driver/Src/stm32f3xx_hal_flash_ex.c **** 
 132:Drivers/STM32F3xx_HAL_Driver/Src/stm32f3xx_hal_flash_ex.c ****     [..] Any operation of erase should follow these steps:
 133:Drivers/STM32F3xx_HAL_Driver/Src/stm32f3xx_hal_flash_ex.c ****     (#) Call the @ref HAL_FLASH_Unlock() function to enable the flash control register and 
 134:Drivers/STM32F3xx_HAL_Driver/Src/stm32f3xx_hal_flash_ex.c ****         program memory access.
 135:Drivers/STM32F3xx_HAL_Driver/Src/stm32f3xx_hal_flash_ex.c ****     (#) Call the desired function to erase page.
 136:Drivers/STM32F3xx_HAL_Driver/Src/stm32f3xx_hal_flash_ex.c ****     (#) Call the @ref HAL_FLASH_Lock() to disable the flash program memory access 
 137:Drivers/STM32F3xx_HAL_Driver/Src/stm32f3xx_hal_flash_ex.c ****        (recommended to protect the FLASH memory against possible unwanted operation).
 138:Drivers/STM32F3xx_HAL_Driver/Src/stm32f3xx_hal_flash_ex.c **** 
 139:Drivers/STM32F3xx_HAL_Driver/Src/stm32f3xx_hal_flash_ex.c **** @endverbatim
 140:Drivers/STM32F3xx_HAL_Driver/Src/stm32f3xx_hal_flash_ex.c ****   * @{
 141:Drivers/STM32F3xx_HAL_Driver/Src/stm32f3xx_hal_flash_ex.c ****   */
 142:Drivers/STM32F3xx_HAL_Driver/Src/stm32f3xx_hal_flash_ex.c ****   
 143:Drivers/STM32F3xx_HAL_Driver/Src/stm32f3xx_hal_flash_ex.c **** 
 144:Drivers/STM32F3xx_HAL_Driver/Src/stm32f3xx_hal_flash_ex.c **** /**
 145:Drivers/STM32F3xx_HAL_Driver/Src/stm32f3xx_hal_flash_ex.c ****   * @brief  Perform a mass erase or erase the specified FLASH memory pages
ARM GAS  /var/folders/jw/jcj5j9_530958b2rm5vp9wn00000gn/T//ccXdJM12.s 			page 4


 146:Drivers/STM32F3xx_HAL_Driver/Src/stm32f3xx_hal_flash_ex.c ****   * @note   To correctly run this function, the @ref HAL_FLASH_Unlock() function
 147:Drivers/STM32F3xx_HAL_Driver/Src/stm32f3xx_hal_flash_ex.c ****   *         must be called before.
 148:Drivers/STM32F3xx_HAL_Driver/Src/stm32f3xx_hal_flash_ex.c ****   *         Call the @ref HAL_FLASH_Lock() to disable the flash memory access 
 149:Drivers/STM32F3xx_HAL_Driver/Src/stm32f3xx_hal_flash_ex.c ****   *         (recommended to protect the FLASH memory against possible unwanted operation)
 150:Drivers/STM32F3xx_HAL_Driver/Src/stm32f3xx_hal_flash_ex.c ****   * @param[in]  pEraseInit pointer to an FLASH_EraseInitTypeDef structure that
 151:Drivers/STM32F3xx_HAL_Driver/Src/stm32f3xx_hal_flash_ex.c ****   *         contains the configuration information for the erasing.
 152:Drivers/STM32F3xx_HAL_Driver/Src/stm32f3xx_hal_flash_ex.c ****   *
 153:Drivers/STM32F3xx_HAL_Driver/Src/stm32f3xx_hal_flash_ex.c ****   * @param[out]  PageError pointer to variable  that
 154:Drivers/STM32F3xx_HAL_Driver/Src/stm32f3xx_hal_flash_ex.c ****   *         contains the configuration information on faulty page in case of error
 155:Drivers/STM32F3xx_HAL_Driver/Src/stm32f3xx_hal_flash_ex.c ****   *         (0xFFFFFFFF means that all the pages have been correctly erased)
 156:Drivers/STM32F3xx_HAL_Driver/Src/stm32f3xx_hal_flash_ex.c ****   *
 157:Drivers/STM32F3xx_HAL_Driver/Src/stm32f3xx_hal_flash_ex.c ****   * @retval HAL_StatusTypeDef HAL Status
 158:Drivers/STM32F3xx_HAL_Driver/Src/stm32f3xx_hal_flash_ex.c ****   */
 159:Drivers/STM32F3xx_HAL_Driver/Src/stm32f3xx_hal_flash_ex.c **** HAL_StatusTypeDef HAL_FLASHEx_Erase(FLASH_EraseInitTypeDef *pEraseInit, uint32_t *PageError)
 160:Drivers/STM32F3xx_HAL_Driver/Src/stm32f3xx_hal_flash_ex.c **** {
 161:Drivers/STM32F3xx_HAL_Driver/Src/stm32f3xx_hal_flash_ex.c ****   HAL_StatusTypeDef status = HAL_ERROR;
 162:Drivers/STM32F3xx_HAL_Driver/Src/stm32f3xx_hal_flash_ex.c ****   uint32_t address = 0U;
 163:Drivers/STM32F3xx_HAL_Driver/Src/stm32f3xx_hal_flash_ex.c **** 
 164:Drivers/STM32F3xx_HAL_Driver/Src/stm32f3xx_hal_flash_ex.c ****   /* Process Locked */
 165:Drivers/STM32F3xx_HAL_Driver/Src/stm32f3xx_hal_flash_ex.c ****   __HAL_LOCK(&pFlash);
 166:Drivers/STM32F3xx_HAL_Driver/Src/stm32f3xx_hal_flash_ex.c **** 
 167:Drivers/STM32F3xx_HAL_Driver/Src/stm32f3xx_hal_flash_ex.c ****   /* Check the parameters */
 168:Drivers/STM32F3xx_HAL_Driver/Src/stm32f3xx_hal_flash_ex.c ****   assert_param(IS_FLASH_TYPEERASE(pEraseInit->TypeErase));
 169:Drivers/STM32F3xx_HAL_Driver/Src/stm32f3xx_hal_flash_ex.c **** 
 170:Drivers/STM32F3xx_HAL_Driver/Src/stm32f3xx_hal_flash_ex.c ****   if (pEraseInit->TypeErase == FLASH_TYPEERASE_MASSERASE)
 171:Drivers/STM32F3xx_HAL_Driver/Src/stm32f3xx_hal_flash_ex.c ****   {
 172:Drivers/STM32F3xx_HAL_Driver/Src/stm32f3xx_hal_flash_ex.c ****       /* Mass Erase requested for Bank1 */
 173:Drivers/STM32F3xx_HAL_Driver/Src/stm32f3xx_hal_flash_ex.c ****       /* Wait for last operation to be completed */
 174:Drivers/STM32F3xx_HAL_Driver/Src/stm32f3xx_hal_flash_ex.c ****       if (FLASH_WaitForLastOperation((uint32_t)FLASH_TIMEOUT_VALUE) == HAL_OK)
 175:Drivers/STM32F3xx_HAL_Driver/Src/stm32f3xx_hal_flash_ex.c ****       {
 176:Drivers/STM32F3xx_HAL_Driver/Src/stm32f3xx_hal_flash_ex.c ****         /*Mass erase to be done*/
 177:Drivers/STM32F3xx_HAL_Driver/Src/stm32f3xx_hal_flash_ex.c ****         FLASH_MassErase();
 178:Drivers/STM32F3xx_HAL_Driver/Src/stm32f3xx_hal_flash_ex.c ****         
 179:Drivers/STM32F3xx_HAL_Driver/Src/stm32f3xx_hal_flash_ex.c ****         /* Wait for last operation to be completed */
 180:Drivers/STM32F3xx_HAL_Driver/Src/stm32f3xx_hal_flash_ex.c ****         status = FLASH_WaitForLastOperation((uint32_t)FLASH_TIMEOUT_VALUE);
 181:Drivers/STM32F3xx_HAL_Driver/Src/stm32f3xx_hal_flash_ex.c ****         
 182:Drivers/STM32F3xx_HAL_Driver/Src/stm32f3xx_hal_flash_ex.c ****         /* If the erase operation is completed, disable the MER Bit */
 183:Drivers/STM32F3xx_HAL_Driver/Src/stm32f3xx_hal_flash_ex.c ****         CLEAR_BIT(FLASH->CR, FLASH_CR_MER);
 184:Drivers/STM32F3xx_HAL_Driver/Src/stm32f3xx_hal_flash_ex.c ****       }
 185:Drivers/STM32F3xx_HAL_Driver/Src/stm32f3xx_hal_flash_ex.c ****   }
 186:Drivers/STM32F3xx_HAL_Driver/Src/stm32f3xx_hal_flash_ex.c ****   else
 187:Drivers/STM32F3xx_HAL_Driver/Src/stm32f3xx_hal_flash_ex.c ****   {
 188:Drivers/STM32F3xx_HAL_Driver/Src/stm32f3xx_hal_flash_ex.c ****     /* Page Erase is requested */
 189:Drivers/STM32F3xx_HAL_Driver/Src/stm32f3xx_hal_flash_ex.c ****     /* Check the parameters */
 190:Drivers/STM32F3xx_HAL_Driver/Src/stm32f3xx_hal_flash_ex.c ****     assert_param(IS_FLASH_PROGRAM_ADDRESS(pEraseInit->PageAddress));
 191:Drivers/STM32F3xx_HAL_Driver/Src/stm32f3xx_hal_flash_ex.c ****     assert_param(IS_FLASH_NB_PAGES(pEraseInit->PageAddress, pEraseInit->NbPages));
 192:Drivers/STM32F3xx_HAL_Driver/Src/stm32f3xx_hal_flash_ex.c ****     
 193:Drivers/STM32F3xx_HAL_Driver/Src/stm32f3xx_hal_flash_ex.c ****       /* Page Erase requested on address located on bank1 */
 194:Drivers/STM32F3xx_HAL_Driver/Src/stm32f3xx_hal_flash_ex.c ****       /* Wait for last operation to be completed */
 195:Drivers/STM32F3xx_HAL_Driver/Src/stm32f3xx_hal_flash_ex.c ****       if (FLASH_WaitForLastOperation((uint32_t)FLASH_TIMEOUT_VALUE) == HAL_OK)
 196:Drivers/STM32F3xx_HAL_Driver/Src/stm32f3xx_hal_flash_ex.c ****       {
 197:Drivers/STM32F3xx_HAL_Driver/Src/stm32f3xx_hal_flash_ex.c ****         /*Initialization of PageError variable*/
 198:Drivers/STM32F3xx_HAL_Driver/Src/stm32f3xx_hal_flash_ex.c ****         *PageError = 0xFFFFFFFFU;
 199:Drivers/STM32F3xx_HAL_Driver/Src/stm32f3xx_hal_flash_ex.c ****         
 200:Drivers/STM32F3xx_HAL_Driver/Src/stm32f3xx_hal_flash_ex.c ****         /* Erase page by page to be done*/
 201:Drivers/STM32F3xx_HAL_Driver/Src/stm32f3xx_hal_flash_ex.c ****         for(address = pEraseInit->PageAddress;
 202:Drivers/STM32F3xx_HAL_Driver/Src/stm32f3xx_hal_flash_ex.c ****             address < ((pEraseInit->NbPages * FLASH_PAGE_SIZE) + pEraseInit->PageAddress);
ARM GAS  /var/folders/jw/jcj5j9_530958b2rm5vp9wn00000gn/T//ccXdJM12.s 			page 5


 203:Drivers/STM32F3xx_HAL_Driver/Src/stm32f3xx_hal_flash_ex.c ****             address += FLASH_PAGE_SIZE)
 204:Drivers/STM32F3xx_HAL_Driver/Src/stm32f3xx_hal_flash_ex.c ****         {
 205:Drivers/STM32F3xx_HAL_Driver/Src/stm32f3xx_hal_flash_ex.c ****           FLASH_PageErase(address);
 206:Drivers/STM32F3xx_HAL_Driver/Src/stm32f3xx_hal_flash_ex.c ****           
 207:Drivers/STM32F3xx_HAL_Driver/Src/stm32f3xx_hal_flash_ex.c ****           /* Wait for last operation to be completed */
 208:Drivers/STM32F3xx_HAL_Driver/Src/stm32f3xx_hal_flash_ex.c ****           status = FLASH_WaitForLastOperation((uint32_t)FLASH_TIMEOUT_VALUE);
 209:Drivers/STM32F3xx_HAL_Driver/Src/stm32f3xx_hal_flash_ex.c ****           
 210:Drivers/STM32F3xx_HAL_Driver/Src/stm32f3xx_hal_flash_ex.c ****           /* If the erase operation is completed, disable the PER Bit */
 211:Drivers/STM32F3xx_HAL_Driver/Src/stm32f3xx_hal_flash_ex.c ****           CLEAR_BIT(FLASH->CR, FLASH_CR_PER);
 212:Drivers/STM32F3xx_HAL_Driver/Src/stm32f3xx_hal_flash_ex.c ****           
 213:Drivers/STM32F3xx_HAL_Driver/Src/stm32f3xx_hal_flash_ex.c ****           if (status != HAL_OK)
 214:Drivers/STM32F3xx_HAL_Driver/Src/stm32f3xx_hal_flash_ex.c ****           {
 215:Drivers/STM32F3xx_HAL_Driver/Src/stm32f3xx_hal_flash_ex.c ****             /* In case of error, stop erase procedure and return the faulty address */
 216:Drivers/STM32F3xx_HAL_Driver/Src/stm32f3xx_hal_flash_ex.c ****             *PageError = address;
 217:Drivers/STM32F3xx_HAL_Driver/Src/stm32f3xx_hal_flash_ex.c ****             break;
 218:Drivers/STM32F3xx_HAL_Driver/Src/stm32f3xx_hal_flash_ex.c ****           }
 219:Drivers/STM32F3xx_HAL_Driver/Src/stm32f3xx_hal_flash_ex.c ****         }
 220:Drivers/STM32F3xx_HAL_Driver/Src/stm32f3xx_hal_flash_ex.c ****       }
 221:Drivers/STM32F3xx_HAL_Driver/Src/stm32f3xx_hal_flash_ex.c ****   }
 222:Drivers/STM32F3xx_HAL_Driver/Src/stm32f3xx_hal_flash_ex.c **** 
 223:Drivers/STM32F3xx_HAL_Driver/Src/stm32f3xx_hal_flash_ex.c ****   /* Process Unlocked */
 224:Drivers/STM32F3xx_HAL_Driver/Src/stm32f3xx_hal_flash_ex.c ****   __HAL_UNLOCK(&pFlash);
 225:Drivers/STM32F3xx_HAL_Driver/Src/stm32f3xx_hal_flash_ex.c **** 
 226:Drivers/STM32F3xx_HAL_Driver/Src/stm32f3xx_hal_flash_ex.c ****   return status;
 227:Drivers/STM32F3xx_HAL_Driver/Src/stm32f3xx_hal_flash_ex.c **** }
 228:Drivers/STM32F3xx_HAL_Driver/Src/stm32f3xx_hal_flash_ex.c **** 
 229:Drivers/STM32F3xx_HAL_Driver/Src/stm32f3xx_hal_flash_ex.c **** /**
 230:Drivers/STM32F3xx_HAL_Driver/Src/stm32f3xx_hal_flash_ex.c ****   * @brief  Perform a mass erase or erase the specified FLASH memory pages with interrupt enabled
 231:Drivers/STM32F3xx_HAL_Driver/Src/stm32f3xx_hal_flash_ex.c ****   * @note   To correctly run this function, the @ref HAL_FLASH_Unlock() function
 232:Drivers/STM32F3xx_HAL_Driver/Src/stm32f3xx_hal_flash_ex.c ****   *         must be called before.
 233:Drivers/STM32F3xx_HAL_Driver/Src/stm32f3xx_hal_flash_ex.c ****   *         Call the @ref HAL_FLASH_Lock() to disable the flash memory access 
 234:Drivers/STM32F3xx_HAL_Driver/Src/stm32f3xx_hal_flash_ex.c ****   *         (recommended to protect the FLASH memory against possible unwanted operation)
 235:Drivers/STM32F3xx_HAL_Driver/Src/stm32f3xx_hal_flash_ex.c ****   * @param  pEraseInit pointer to an FLASH_EraseInitTypeDef structure that
 236:Drivers/STM32F3xx_HAL_Driver/Src/stm32f3xx_hal_flash_ex.c ****   *         contains the configuration information for the erasing.
 237:Drivers/STM32F3xx_HAL_Driver/Src/stm32f3xx_hal_flash_ex.c ****   *
 238:Drivers/STM32F3xx_HAL_Driver/Src/stm32f3xx_hal_flash_ex.c ****   * @retval HAL_StatusTypeDef HAL Status
 239:Drivers/STM32F3xx_HAL_Driver/Src/stm32f3xx_hal_flash_ex.c ****   */
 240:Drivers/STM32F3xx_HAL_Driver/Src/stm32f3xx_hal_flash_ex.c **** HAL_StatusTypeDef HAL_FLASHEx_Erase_IT(FLASH_EraseInitTypeDef *pEraseInit)
 241:Drivers/STM32F3xx_HAL_Driver/Src/stm32f3xx_hal_flash_ex.c **** {
 242:Drivers/STM32F3xx_HAL_Driver/Src/stm32f3xx_hal_flash_ex.c ****   HAL_StatusTypeDef status = HAL_OK;
 243:Drivers/STM32F3xx_HAL_Driver/Src/stm32f3xx_hal_flash_ex.c **** 
 244:Drivers/STM32F3xx_HAL_Driver/Src/stm32f3xx_hal_flash_ex.c ****   /* Process Locked */
 245:Drivers/STM32F3xx_HAL_Driver/Src/stm32f3xx_hal_flash_ex.c ****   __HAL_LOCK(&pFlash);
 246:Drivers/STM32F3xx_HAL_Driver/Src/stm32f3xx_hal_flash_ex.c **** 
 247:Drivers/STM32F3xx_HAL_Driver/Src/stm32f3xx_hal_flash_ex.c ****   /* If procedure already ongoing, reject the next one */
 248:Drivers/STM32F3xx_HAL_Driver/Src/stm32f3xx_hal_flash_ex.c ****   if (pFlash.ProcedureOnGoing != FLASH_PROC_NONE)
 249:Drivers/STM32F3xx_HAL_Driver/Src/stm32f3xx_hal_flash_ex.c ****   {
 250:Drivers/STM32F3xx_HAL_Driver/Src/stm32f3xx_hal_flash_ex.c ****     return HAL_ERROR;
 251:Drivers/STM32F3xx_HAL_Driver/Src/stm32f3xx_hal_flash_ex.c ****   }
 252:Drivers/STM32F3xx_HAL_Driver/Src/stm32f3xx_hal_flash_ex.c ****   
 253:Drivers/STM32F3xx_HAL_Driver/Src/stm32f3xx_hal_flash_ex.c ****   /* Check the parameters */
 254:Drivers/STM32F3xx_HAL_Driver/Src/stm32f3xx_hal_flash_ex.c ****   assert_param(IS_FLASH_TYPEERASE(pEraseInit->TypeErase));
 255:Drivers/STM32F3xx_HAL_Driver/Src/stm32f3xx_hal_flash_ex.c **** 
 256:Drivers/STM32F3xx_HAL_Driver/Src/stm32f3xx_hal_flash_ex.c ****   /* Enable End of FLASH Operation and Error source interrupts */
 257:Drivers/STM32F3xx_HAL_Driver/Src/stm32f3xx_hal_flash_ex.c ****   __HAL_FLASH_ENABLE_IT(FLASH_IT_EOP | FLASH_IT_ERR);
 258:Drivers/STM32F3xx_HAL_Driver/Src/stm32f3xx_hal_flash_ex.c **** 
 259:Drivers/STM32F3xx_HAL_Driver/Src/stm32f3xx_hal_flash_ex.c ****   if (pEraseInit->TypeErase == FLASH_TYPEERASE_MASSERASE)
ARM GAS  /var/folders/jw/jcj5j9_530958b2rm5vp9wn00000gn/T//ccXdJM12.s 			page 6


 260:Drivers/STM32F3xx_HAL_Driver/Src/stm32f3xx_hal_flash_ex.c ****   {
 261:Drivers/STM32F3xx_HAL_Driver/Src/stm32f3xx_hal_flash_ex.c ****     /*Mass erase to be done*/
 262:Drivers/STM32F3xx_HAL_Driver/Src/stm32f3xx_hal_flash_ex.c ****     pFlash.ProcedureOnGoing = FLASH_PROC_MASSERASE;
 263:Drivers/STM32F3xx_HAL_Driver/Src/stm32f3xx_hal_flash_ex.c ****         FLASH_MassErase();
 264:Drivers/STM32F3xx_HAL_Driver/Src/stm32f3xx_hal_flash_ex.c ****   }
 265:Drivers/STM32F3xx_HAL_Driver/Src/stm32f3xx_hal_flash_ex.c ****   else
 266:Drivers/STM32F3xx_HAL_Driver/Src/stm32f3xx_hal_flash_ex.c ****   {
 267:Drivers/STM32F3xx_HAL_Driver/Src/stm32f3xx_hal_flash_ex.c ****     /* Erase by page to be done*/
 268:Drivers/STM32F3xx_HAL_Driver/Src/stm32f3xx_hal_flash_ex.c **** 
 269:Drivers/STM32F3xx_HAL_Driver/Src/stm32f3xx_hal_flash_ex.c ****     /* Check the parameters */
 270:Drivers/STM32F3xx_HAL_Driver/Src/stm32f3xx_hal_flash_ex.c ****     assert_param(IS_FLASH_PROGRAM_ADDRESS(pEraseInit->PageAddress));
 271:Drivers/STM32F3xx_HAL_Driver/Src/stm32f3xx_hal_flash_ex.c ****     assert_param(IS_FLASH_NB_PAGES(pEraseInit->PageAddress, pEraseInit->NbPages));
 272:Drivers/STM32F3xx_HAL_Driver/Src/stm32f3xx_hal_flash_ex.c **** 
 273:Drivers/STM32F3xx_HAL_Driver/Src/stm32f3xx_hal_flash_ex.c ****     pFlash.ProcedureOnGoing = FLASH_PROC_PAGEERASE;
 274:Drivers/STM32F3xx_HAL_Driver/Src/stm32f3xx_hal_flash_ex.c ****     pFlash.DataRemaining = pEraseInit->NbPages;
 275:Drivers/STM32F3xx_HAL_Driver/Src/stm32f3xx_hal_flash_ex.c ****     pFlash.Address = pEraseInit->PageAddress;
 276:Drivers/STM32F3xx_HAL_Driver/Src/stm32f3xx_hal_flash_ex.c **** 
 277:Drivers/STM32F3xx_HAL_Driver/Src/stm32f3xx_hal_flash_ex.c ****     /*Erase 1st page and wait for IT*/
 278:Drivers/STM32F3xx_HAL_Driver/Src/stm32f3xx_hal_flash_ex.c ****     FLASH_PageErase(pEraseInit->PageAddress);
 279:Drivers/STM32F3xx_HAL_Driver/Src/stm32f3xx_hal_flash_ex.c ****   }
 280:Drivers/STM32F3xx_HAL_Driver/Src/stm32f3xx_hal_flash_ex.c **** 
 281:Drivers/STM32F3xx_HAL_Driver/Src/stm32f3xx_hal_flash_ex.c ****   return status;
 282:Drivers/STM32F3xx_HAL_Driver/Src/stm32f3xx_hal_flash_ex.c **** }
 283:Drivers/STM32F3xx_HAL_Driver/Src/stm32f3xx_hal_flash_ex.c **** 
 284:Drivers/STM32F3xx_HAL_Driver/Src/stm32f3xx_hal_flash_ex.c **** /**
 285:Drivers/STM32F3xx_HAL_Driver/Src/stm32f3xx_hal_flash_ex.c ****   * @}
 286:Drivers/STM32F3xx_HAL_Driver/Src/stm32f3xx_hal_flash_ex.c ****   */
 287:Drivers/STM32F3xx_HAL_Driver/Src/stm32f3xx_hal_flash_ex.c **** 
 288:Drivers/STM32F3xx_HAL_Driver/Src/stm32f3xx_hal_flash_ex.c **** /** @defgroup FLASHEx_Exported_Functions_Group2 Option Bytes Programming functions
 289:Drivers/STM32F3xx_HAL_Driver/Src/stm32f3xx_hal_flash_ex.c ****  *  @brief   Option Bytes Programming functions
 290:Drivers/STM32F3xx_HAL_Driver/Src/stm32f3xx_hal_flash_ex.c ****   *
 291:Drivers/STM32F3xx_HAL_Driver/Src/stm32f3xx_hal_flash_ex.c **** @verbatim   
 292:Drivers/STM32F3xx_HAL_Driver/Src/stm32f3xx_hal_flash_ex.c ****   ==============================================================================
 293:Drivers/STM32F3xx_HAL_Driver/Src/stm32f3xx_hal_flash_ex.c ****                 ##### Option Bytes Programming functions ##### 
 294:Drivers/STM32F3xx_HAL_Driver/Src/stm32f3xx_hal_flash_ex.c ****   ==============================================================================  
 295:Drivers/STM32F3xx_HAL_Driver/Src/stm32f3xx_hal_flash_ex.c ****     [..]
 296:Drivers/STM32F3xx_HAL_Driver/Src/stm32f3xx_hal_flash_ex.c ****     This subsection provides a set of functions allowing to control the FLASH 
 297:Drivers/STM32F3xx_HAL_Driver/Src/stm32f3xx_hal_flash_ex.c ****     option bytes operations.
 298:Drivers/STM32F3xx_HAL_Driver/Src/stm32f3xx_hal_flash_ex.c **** 
 299:Drivers/STM32F3xx_HAL_Driver/Src/stm32f3xx_hal_flash_ex.c **** @endverbatim
 300:Drivers/STM32F3xx_HAL_Driver/Src/stm32f3xx_hal_flash_ex.c ****   * @{
 301:Drivers/STM32F3xx_HAL_Driver/Src/stm32f3xx_hal_flash_ex.c ****   */
 302:Drivers/STM32F3xx_HAL_Driver/Src/stm32f3xx_hal_flash_ex.c **** 
 303:Drivers/STM32F3xx_HAL_Driver/Src/stm32f3xx_hal_flash_ex.c **** /**
 304:Drivers/STM32F3xx_HAL_Driver/Src/stm32f3xx_hal_flash_ex.c ****   * @brief  Erases the FLASH option bytes.
 305:Drivers/STM32F3xx_HAL_Driver/Src/stm32f3xx_hal_flash_ex.c ****   * @note   This functions erases all option bytes except the Read protection (RDP).
 306:Drivers/STM32F3xx_HAL_Driver/Src/stm32f3xx_hal_flash_ex.c ****   *         The function @ref HAL_FLASH_Unlock() should be called before to unlock the FLASH interf
 307:Drivers/STM32F3xx_HAL_Driver/Src/stm32f3xx_hal_flash_ex.c ****   *         The function @ref HAL_FLASH_OB_Unlock() should be called before to unlock the options b
 308:Drivers/STM32F3xx_HAL_Driver/Src/stm32f3xx_hal_flash_ex.c ****   *         The function @ref HAL_FLASH_OB_Launch() should be called after to force the reload of t
 309:Drivers/STM32F3xx_HAL_Driver/Src/stm32f3xx_hal_flash_ex.c ****   *         (system reset will occur)
 310:Drivers/STM32F3xx_HAL_Driver/Src/stm32f3xx_hal_flash_ex.c ****   * @retval HAL status
 311:Drivers/STM32F3xx_HAL_Driver/Src/stm32f3xx_hal_flash_ex.c ****   */
 312:Drivers/STM32F3xx_HAL_Driver/Src/stm32f3xx_hal_flash_ex.c **** 
 313:Drivers/STM32F3xx_HAL_Driver/Src/stm32f3xx_hal_flash_ex.c **** HAL_StatusTypeDef HAL_FLASHEx_OBErase(void)
 314:Drivers/STM32F3xx_HAL_Driver/Src/stm32f3xx_hal_flash_ex.c **** {
 315:Drivers/STM32F3xx_HAL_Driver/Src/stm32f3xx_hal_flash_ex.c ****   uint8_t rdptmp = OB_RDP_LEVEL_0;
 316:Drivers/STM32F3xx_HAL_Driver/Src/stm32f3xx_hal_flash_ex.c ****   HAL_StatusTypeDef status = HAL_ERROR;
ARM GAS  /var/folders/jw/jcj5j9_530958b2rm5vp9wn00000gn/T//ccXdJM12.s 			page 7


 317:Drivers/STM32F3xx_HAL_Driver/Src/stm32f3xx_hal_flash_ex.c **** 
 318:Drivers/STM32F3xx_HAL_Driver/Src/stm32f3xx_hal_flash_ex.c ****   /* Get the actual read protection Option Byte value */
 319:Drivers/STM32F3xx_HAL_Driver/Src/stm32f3xx_hal_flash_ex.c ****   rdptmp = FLASH_OB_GetRDP();
 320:Drivers/STM32F3xx_HAL_Driver/Src/stm32f3xx_hal_flash_ex.c **** 
 321:Drivers/STM32F3xx_HAL_Driver/Src/stm32f3xx_hal_flash_ex.c ****   /* Wait for last operation to be completed */
 322:Drivers/STM32F3xx_HAL_Driver/Src/stm32f3xx_hal_flash_ex.c ****   status = FLASH_WaitForLastOperation((uint32_t)FLASH_TIMEOUT_VALUE);
 323:Drivers/STM32F3xx_HAL_Driver/Src/stm32f3xx_hal_flash_ex.c **** 
 324:Drivers/STM32F3xx_HAL_Driver/Src/stm32f3xx_hal_flash_ex.c ****   if(status == HAL_OK)
 325:Drivers/STM32F3xx_HAL_Driver/Src/stm32f3xx_hal_flash_ex.c ****   {
 326:Drivers/STM32F3xx_HAL_Driver/Src/stm32f3xx_hal_flash_ex.c ****     /* Clean the error context */
 327:Drivers/STM32F3xx_HAL_Driver/Src/stm32f3xx_hal_flash_ex.c ****     pFlash.ErrorCode = HAL_FLASH_ERROR_NONE;
 328:Drivers/STM32F3xx_HAL_Driver/Src/stm32f3xx_hal_flash_ex.c **** 
 329:Drivers/STM32F3xx_HAL_Driver/Src/stm32f3xx_hal_flash_ex.c ****     /* If the previous operation is completed, proceed to erase the option bytes */
 330:Drivers/STM32F3xx_HAL_Driver/Src/stm32f3xx_hal_flash_ex.c ****     SET_BIT(FLASH->CR, FLASH_CR_OPTER);
 331:Drivers/STM32F3xx_HAL_Driver/Src/stm32f3xx_hal_flash_ex.c ****     SET_BIT(FLASH->CR, FLASH_CR_STRT);
 332:Drivers/STM32F3xx_HAL_Driver/Src/stm32f3xx_hal_flash_ex.c **** 
 333:Drivers/STM32F3xx_HAL_Driver/Src/stm32f3xx_hal_flash_ex.c ****     /* Wait for last operation to be completed */
 334:Drivers/STM32F3xx_HAL_Driver/Src/stm32f3xx_hal_flash_ex.c ****     status = FLASH_WaitForLastOperation((uint32_t)FLASH_TIMEOUT_VALUE);
 335:Drivers/STM32F3xx_HAL_Driver/Src/stm32f3xx_hal_flash_ex.c **** 
 336:Drivers/STM32F3xx_HAL_Driver/Src/stm32f3xx_hal_flash_ex.c ****     /* If the erase operation is completed, disable the OPTER Bit */
 337:Drivers/STM32F3xx_HAL_Driver/Src/stm32f3xx_hal_flash_ex.c ****     CLEAR_BIT(FLASH->CR, FLASH_CR_OPTER);
 338:Drivers/STM32F3xx_HAL_Driver/Src/stm32f3xx_hal_flash_ex.c **** 
 339:Drivers/STM32F3xx_HAL_Driver/Src/stm32f3xx_hal_flash_ex.c ****     if(status == HAL_OK)
 340:Drivers/STM32F3xx_HAL_Driver/Src/stm32f3xx_hal_flash_ex.c ****     {
 341:Drivers/STM32F3xx_HAL_Driver/Src/stm32f3xx_hal_flash_ex.c ****       /* Restore the last read protection Option Byte value */
 342:Drivers/STM32F3xx_HAL_Driver/Src/stm32f3xx_hal_flash_ex.c ****       status = FLASH_OB_RDP_LevelConfig(rdptmp);
 343:Drivers/STM32F3xx_HAL_Driver/Src/stm32f3xx_hal_flash_ex.c ****     }
 344:Drivers/STM32F3xx_HAL_Driver/Src/stm32f3xx_hal_flash_ex.c ****   }
 345:Drivers/STM32F3xx_HAL_Driver/Src/stm32f3xx_hal_flash_ex.c **** 
 346:Drivers/STM32F3xx_HAL_Driver/Src/stm32f3xx_hal_flash_ex.c ****   /* Return the erase status */
 347:Drivers/STM32F3xx_HAL_Driver/Src/stm32f3xx_hal_flash_ex.c ****   return status;
 348:Drivers/STM32F3xx_HAL_Driver/Src/stm32f3xx_hal_flash_ex.c **** }
 349:Drivers/STM32F3xx_HAL_Driver/Src/stm32f3xx_hal_flash_ex.c **** 
 350:Drivers/STM32F3xx_HAL_Driver/Src/stm32f3xx_hal_flash_ex.c **** /**
 351:Drivers/STM32F3xx_HAL_Driver/Src/stm32f3xx_hal_flash_ex.c ****   * @brief  Program option bytes
 352:Drivers/STM32F3xx_HAL_Driver/Src/stm32f3xx_hal_flash_ex.c ****   * @note   The function @ref HAL_FLASH_Unlock() should be called before to unlock the FLASH interf
 353:Drivers/STM32F3xx_HAL_Driver/Src/stm32f3xx_hal_flash_ex.c ****   *         The function @ref HAL_FLASH_OB_Unlock() should be called before to unlock the options b
 354:Drivers/STM32F3xx_HAL_Driver/Src/stm32f3xx_hal_flash_ex.c ****   *         The function @ref HAL_FLASH_OB_Launch() should be called after to force the reload of t
 355:Drivers/STM32F3xx_HAL_Driver/Src/stm32f3xx_hal_flash_ex.c ****   *         (system reset will occur)
 356:Drivers/STM32F3xx_HAL_Driver/Src/stm32f3xx_hal_flash_ex.c ****   *
 357:Drivers/STM32F3xx_HAL_Driver/Src/stm32f3xx_hal_flash_ex.c ****   * @param  pOBInit pointer to an FLASH_OBInitStruct structure that
 358:Drivers/STM32F3xx_HAL_Driver/Src/stm32f3xx_hal_flash_ex.c ****   *         contains the configuration information for the programming.
 359:Drivers/STM32F3xx_HAL_Driver/Src/stm32f3xx_hal_flash_ex.c ****   *
 360:Drivers/STM32F3xx_HAL_Driver/Src/stm32f3xx_hal_flash_ex.c ****   * @retval HAL_StatusTypeDef HAL Status
 361:Drivers/STM32F3xx_HAL_Driver/Src/stm32f3xx_hal_flash_ex.c ****   */
 362:Drivers/STM32F3xx_HAL_Driver/Src/stm32f3xx_hal_flash_ex.c **** HAL_StatusTypeDef HAL_FLASHEx_OBProgram(FLASH_OBProgramInitTypeDef *pOBInit)
 363:Drivers/STM32F3xx_HAL_Driver/Src/stm32f3xx_hal_flash_ex.c **** {
 364:Drivers/STM32F3xx_HAL_Driver/Src/stm32f3xx_hal_flash_ex.c ****   HAL_StatusTypeDef status = HAL_ERROR;
 365:Drivers/STM32F3xx_HAL_Driver/Src/stm32f3xx_hal_flash_ex.c **** 
 366:Drivers/STM32F3xx_HAL_Driver/Src/stm32f3xx_hal_flash_ex.c ****   /* Process Locked */
 367:Drivers/STM32F3xx_HAL_Driver/Src/stm32f3xx_hal_flash_ex.c ****   __HAL_LOCK(&pFlash);
 368:Drivers/STM32F3xx_HAL_Driver/Src/stm32f3xx_hal_flash_ex.c **** 
 369:Drivers/STM32F3xx_HAL_Driver/Src/stm32f3xx_hal_flash_ex.c ****   /* Check the parameters */
 370:Drivers/STM32F3xx_HAL_Driver/Src/stm32f3xx_hal_flash_ex.c ****   assert_param(IS_OPTIONBYTE(pOBInit->OptionType));
 371:Drivers/STM32F3xx_HAL_Driver/Src/stm32f3xx_hal_flash_ex.c **** 
 372:Drivers/STM32F3xx_HAL_Driver/Src/stm32f3xx_hal_flash_ex.c ****   /* Write protection configuration */
 373:Drivers/STM32F3xx_HAL_Driver/Src/stm32f3xx_hal_flash_ex.c ****   if((pOBInit->OptionType & OPTIONBYTE_WRP) == OPTIONBYTE_WRP)
ARM GAS  /var/folders/jw/jcj5j9_530958b2rm5vp9wn00000gn/T//ccXdJM12.s 			page 8


 374:Drivers/STM32F3xx_HAL_Driver/Src/stm32f3xx_hal_flash_ex.c ****   {
 375:Drivers/STM32F3xx_HAL_Driver/Src/stm32f3xx_hal_flash_ex.c ****     assert_param(IS_WRPSTATE(pOBInit->WRPState));
 376:Drivers/STM32F3xx_HAL_Driver/Src/stm32f3xx_hal_flash_ex.c ****     if (pOBInit->WRPState == OB_WRPSTATE_ENABLE)
 377:Drivers/STM32F3xx_HAL_Driver/Src/stm32f3xx_hal_flash_ex.c ****     {
 378:Drivers/STM32F3xx_HAL_Driver/Src/stm32f3xx_hal_flash_ex.c ****       /* Enable of Write protection on the selected page */
 379:Drivers/STM32F3xx_HAL_Driver/Src/stm32f3xx_hal_flash_ex.c ****       status = FLASH_OB_EnableWRP(pOBInit->WRPPage);
 380:Drivers/STM32F3xx_HAL_Driver/Src/stm32f3xx_hal_flash_ex.c ****     }
 381:Drivers/STM32F3xx_HAL_Driver/Src/stm32f3xx_hal_flash_ex.c ****     else
 382:Drivers/STM32F3xx_HAL_Driver/Src/stm32f3xx_hal_flash_ex.c ****     {
 383:Drivers/STM32F3xx_HAL_Driver/Src/stm32f3xx_hal_flash_ex.c ****       /* Disable of Write protection on the selected page */
 384:Drivers/STM32F3xx_HAL_Driver/Src/stm32f3xx_hal_flash_ex.c ****       status = FLASH_OB_DisableWRP(pOBInit->WRPPage);
 385:Drivers/STM32F3xx_HAL_Driver/Src/stm32f3xx_hal_flash_ex.c ****     }
 386:Drivers/STM32F3xx_HAL_Driver/Src/stm32f3xx_hal_flash_ex.c ****     if (status != HAL_OK)
 387:Drivers/STM32F3xx_HAL_Driver/Src/stm32f3xx_hal_flash_ex.c ****     {
 388:Drivers/STM32F3xx_HAL_Driver/Src/stm32f3xx_hal_flash_ex.c ****       /* Process Unlocked */
 389:Drivers/STM32F3xx_HAL_Driver/Src/stm32f3xx_hal_flash_ex.c ****       __HAL_UNLOCK(&pFlash);
 390:Drivers/STM32F3xx_HAL_Driver/Src/stm32f3xx_hal_flash_ex.c ****       return status;
 391:Drivers/STM32F3xx_HAL_Driver/Src/stm32f3xx_hal_flash_ex.c ****     }
 392:Drivers/STM32F3xx_HAL_Driver/Src/stm32f3xx_hal_flash_ex.c ****   }
 393:Drivers/STM32F3xx_HAL_Driver/Src/stm32f3xx_hal_flash_ex.c **** 
 394:Drivers/STM32F3xx_HAL_Driver/Src/stm32f3xx_hal_flash_ex.c ****   /* Read protection configuration */
 395:Drivers/STM32F3xx_HAL_Driver/Src/stm32f3xx_hal_flash_ex.c ****   if((pOBInit->OptionType & OPTIONBYTE_RDP) == OPTIONBYTE_RDP)
 396:Drivers/STM32F3xx_HAL_Driver/Src/stm32f3xx_hal_flash_ex.c ****   {
 397:Drivers/STM32F3xx_HAL_Driver/Src/stm32f3xx_hal_flash_ex.c ****     status = FLASH_OB_RDP_LevelConfig(pOBInit->RDPLevel);
 398:Drivers/STM32F3xx_HAL_Driver/Src/stm32f3xx_hal_flash_ex.c ****     if (status != HAL_OK)
 399:Drivers/STM32F3xx_HAL_Driver/Src/stm32f3xx_hal_flash_ex.c ****     {
 400:Drivers/STM32F3xx_HAL_Driver/Src/stm32f3xx_hal_flash_ex.c ****       /* Process Unlocked */
 401:Drivers/STM32F3xx_HAL_Driver/Src/stm32f3xx_hal_flash_ex.c ****       __HAL_UNLOCK(&pFlash);
 402:Drivers/STM32F3xx_HAL_Driver/Src/stm32f3xx_hal_flash_ex.c ****       return status;
 403:Drivers/STM32F3xx_HAL_Driver/Src/stm32f3xx_hal_flash_ex.c ****     }
 404:Drivers/STM32F3xx_HAL_Driver/Src/stm32f3xx_hal_flash_ex.c ****   }
 405:Drivers/STM32F3xx_HAL_Driver/Src/stm32f3xx_hal_flash_ex.c **** 
 406:Drivers/STM32F3xx_HAL_Driver/Src/stm32f3xx_hal_flash_ex.c ****   /* USER configuration */
 407:Drivers/STM32F3xx_HAL_Driver/Src/stm32f3xx_hal_flash_ex.c ****   if((pOBInit->OptionType & OPTIONBYTE_USER) == OPTIONBYTE_USER)
 408:Drivers/STM32F3xx_HAL_Driver/Src/stm32f3xx_hal_flash_ex.c ****   {
 409:Drivers/STM32F3xx_HAL_Driver/Src/stm32f3xx_hal_flash_ex.c ****     status = FLASH_OB_UserConfig(pOBInit->USERConfig);
 410:Drivers/STM32F3xx_HAL_Driver/Src/stm32f3xx_hal_flash_ex.c ****     if (status != HAL_OK)
 411:Drivers/STM32F3xx_HAL_Driver/Src/stm32f3xx_hal_flash_ex.c ****     {
 412:Drivers/STM32F3xx_HAL_Driver/Src/stm32f3xx_hal_flash_ex.c ****       /* Process Unlocked */
 413:Drivers/STM32F3xx_HAL_Driver/Src/stm32f3xx_hal_flash_ex.c ****       __HAL_UNLOCK(&pFlash);
 414:Drivers/STM32F3xx_HAL_Driver/Src/stm32f3xx_hal_flash_ex.c ****       return status;
 415:Drivers/STM32F3xx_HAL_Driver/Src/stm32f3xx_hal_flash_ex.c ****     }
 416:Drivers/STM32F3xx_HAL_Driver/Src/stm32f3xx_hal_flash_ex.c ****   }
 417:Drivers/STM32F3xx_HAL_Driver/Src/stm32f3xx_hal_flash_ex.c **** 
 418:Drivers/STM32F3xx_HAL_Driver/Src/stm32f3xx_hal_flash_ex.c ****   /* DATA configuration*/
 419:Drivers/STM32F3xx_HAL_Driver/Src/stm32f3xx_hal_flash_ex.c ****   if((pOBInit->OptionType & OPTIONBYTE_DATA) == OPTIONBYTE_DATA)
 420:Drivers/STM32F3xx_HAL_Driver/Src/stm32f3xx_hal_flash_ex.c ****   {
 421:Drivers/STM32F3xx_HAL_Driver/Src/stm32f3xx_hal_flash_ex.c ****     status = FLASH_OB_ProgramData(pOBInit->DATAAddress, pOBInit->DATAData);
 422:Drivers/STM32F3xx_HAL_Driver/Src/stm32f3xx_hal_flash_ex.c ****     if (status != HAL_OK)
 423:Drivers/STM32F3xx_HAL_Driver/Src/stm32f3xx_hal_flash_ex.c ****     {
 424:Drivers/STM32F3xx_HAL_Driver/Src/stm32f3xx_hal_flash_ex.c ****       /* Process Unlocked */
 425:Drivers/STM32F3xx_HAL_Driver/Src/stm32f3xx_hal_flash_ex.c ****       __HAL_UNLOCK(&pFlash);
 426:Drivers/STM32F3xx_HAL_Driver/Src/stm32f3xx_hal_flash_ex.c ****       return status;
 427:Drivers/STM32F3xx_HAL_Driver/Src/stm32f3xx_hal_flash_ex.c ****     }
 428:Drivers/STM32F3xx_HAL_Driver/Src/stm32f3xx_hal_flash_ex.c ****   }
 429:Drivers/STM32F3xx_HAL_Driver/Src/stm32f3xx_hal_flash_ex.c **** 
 430:Drivers/STM32F3xx_HAL_Driver/Src/stm32f3xx_hal_flash_ex.c ****   /* Process Unlocked */
ARM GAS  /var/folders/jw/jcj5j9_530958b2rm5vp9wn00000gn/T//ccXdJM12.s 			page 9


 431:Drivers/STM32F3xx_HAL_Driver/Src/stm32f3xx_hal_flash_ex.c ****   __HAL_UNLOCK(&pFlash);
 432:Drivers/STM32F3xx_HAL_Driver/Src/stm32f3xx_hal_flash_ex.c **** 
 433:Drivers/STM32F3xx_HAL_Driver/Src/stm32f3xx_hal_flash_ex.c ****   return status;
 434:Drivers/STM32F3xx_HAL_Driver/Src/stm32f3xx_hal_flash_ex.c **** }
 435:Drivers/STM32F3xx_HAL_Driver/Src/stm32f3xx_hal_flash_ex.c **** 
 436:Drivers/STM32F3xx_HAL_Driver/Src/stm32f3xx_hal_flash_ex.c **** /**
 437:Drivers/STM32F3xx_HAL_Driver/Src/stm32f3xx_hal_flash_ex.c ****   * @brief  Get the Option byte configuration
 438:Drivers/STM32F3xx_HAL_Driver/Src/stm32f3xx_hal_flash_ex.c ****   * @param  pOBInit pointer to an FLASH_OBInitStruct structure that
 439:Drivers/STM32F3xx_HAL_Driver/Src/stm32f3xx_hal_flash_ex.c ****   *         contains the configuration information for the programming.
 440:Drivers/STM32F3xx_HAL_Driver/Src/stm32f3xx_hal_flash_ex.c ****   *
 441:Drivers/STM32F3xx_HAL_Driver/Src/stm32f3xx_hal_flash_ex.c ****   * @retval None
 442:Drivers/STM32F3xx_HAL_Driver/Src/stm32f3xx_hal_flash_ex.c ****   */
 443:Drivers/STM32F3xx_HAL_Driver/Src/stm32f3xx_hal_flash_ex.c **** void HAL_FLASHEx_OBGetConfig(FLASH_OBProgramInitTypeDef *pOBInit)
 444:Drivers/STM32F3xx_HAL_Driver/Src/stm32f3xx_hal_flash_ex.c **** {
 445:Drivers/STM32F3xx_HAL_Driver/Src/stm32f3xx_hal_flash_ex.c ****   pOBInit->OptionType = OPTIONBYTE_WRP | OPTIONBYTE_RDP | OPTIONBYTE_USER;
 446:Drivers/STM32F3xx_HAL_Driver/Src/stm32f3xx_hal_flash_ex.c **** 
 447:Drivers/STM32F3xx_HAL_Driver/Src/stm32f3xx_hal_flash_ex.c ****   /*Get WRP*/
 448:Drivers/STM32F3xx_HAL_Driver/Src/stm32f3xx_hal_flash_ex.c ****   pOBInit->WRPPage = FLASH_OB_GetWRP();
 449:Drivers/STM32F3xx_HAL_Driver/Src/stm32f3xx_hal_flash_ex.c **** 
 450:Drivers/STM32F3xx_HAL_Driver/Src/stm32f3xx_hal_flash_ex.c ****   /*Get RDP Level*/
 451:Drivers/STM32F3xx_HAL_Driver/Src/stm32f3xx_hal_flash_ex.c ****   pOBInit->RDPLevel = FLASH_OB_GetRDP();
 452:Drivers/STM32F3xx_HAL_Driver/Src/stm32f3xx_hal_flash_ex.c **** 
 453:Drivers/STM32F3xx_HAL_Driver/Src/stm32f3xx_hal_flash_ex.c ****   /*Get USER*/
 454:Drivers/STM32F3xx_HAL_Driver/Src/stm32f3xx_hal_flash_ex.c ****   pOBInit->USERConfig = FLASH_OB_GetUser();
 455:Drivers/STM32F3xx_HAL_Driver/Src/stm32f3xx_hal_flash_ex.c **** }
 456:Drivers/STM32F3xx_HAL_Driver/Src/stm32f3xx_hal_flash_ex.c **** 
 457:Drivers/STM32F3xx_HAL_Driver/Src/stm32f3xx_hal_flash_ex.c **** /**
 458:Drivers/STM32F3xx_HAL_Driver/Src/stm32f3xx_hal_flash_ex.c ****   * @brief  Get the Option byte user data
 459:Drivers/STM32F3xx_HAL_Driver/Src/stm32f3xx_hal_flash_ex.c ****   * @param  DATAAdress Address of the option byte DATA
 460:Drivers/STM32F3xx_HAL_Driver/Src/stm32f3xx_hal_flash_ex.c ****   *          This parameter can be one of the following values:
 461:Drivers/STM32F3xx_HAL_Driver/Src/stm32f3xx_hal_flash_ex.c ****   *            @arg @ref OB_DATA_ADDRESS_DATA0
 462:Drivers/STM32F3xx_HAL_Driver/Src/stm32f3xx_hal_flash_ex.c ****   *            @arg @ref OB_DATA_ADDRESS_DATA1
 463:Drivers/STM32F3xx_HAL_Driver/Src/stm32f3xx_hal_flash_ex.c ****   * @retval Value programmed in USER data
 464:Drivers/STM32F3xx_HAL_Driver/Src/stm32f3xx_hal_flash_ex.c ****   */
 465:Drivers/STM32F3xx_HAL_Driver/Src/stm32f3xx_hal_flash_ex.c **** uint32_t HAL_FLASHEx_OBGetUserData(uint32_t DATAAdress)
 466:Drivers/STM32F3xx_HAL_Driver/Src/stm32f3xx_hal_flash_ex.c **** {
 467:Drivers/STM32F3xx_HAL_Driver/Src/stm32f3xx_hal_flash_ex.c ****   uint32_t value = 0U;
 468:Drivers/STM32F3xx_HAL_Driver/Src/stm32f3xx_hal_flash_ex.c ****   
 469:Drivers/STM32F3xx_HAL_Driver/Src/stm32f3xx_hal_flash_ex.c ****   if (DATAAdress == OB_DATA_ADDRESS_DATA0)
 470:Drivers/STM32F3xx_HAL_Driver/Src/stm32f3xx_hal_flash_ex.c ****   {
 471:Drivers/STM32F3xx_HAL_Driver/Src/stm32f3xx_hal_flash_ex.c ****     /* Get value programmed in OB USER Data0 */
 472:Drivers/STM32F3xx_HAL_Driver/Src/stm32f3xx_hal_flash_ex.c ****     value = READ_BIT(FLASH->OBR, FLASH_OBR_DATA0) >> FLASH_POSITION_OB_USERDATA0_BIT;
 473:Drivers/STM32F3xx_HAL_Driver/Src/stm32f3xx_hal_flash_ex.c ****   }
 474:Drivers/STM32F3xx_HAL_Driver/Src/stm32f3xx_hal_flash_ex.c ****   else
 475:Drivers/STM32F3xx_HAL_Driver/Src/stm32f3xx_hal_flash_ex.c ****   {
 476:Drivers/STM32F3xx_HAL_Driver/Src/stm32f3xx_hal_flash_ex.c ****     /* Get value programmed in OB USER Data1 */
 477:Drivers/STM32F3xx_HAL_Driver/Src/stm32f3xx_hal_flash_ex.c ****     value = READ_BIT(FLASH->OBR, FLASH_OBR_DATA1) >> FLASH_POSITION_OB_USERDATA1_BIT;
 478:Drivers/STM32F3xx_HAL_Driver/Src/stm32f3xx_hal_flash_ex.c ****   }
 479:Drivers/STM32F3xx_HAL_Driver/Src/stm32f3xx_hal_flash_ex.c ****   
 480:Drivers/STM32F3xx_HAL_Driver/Src/stm32f3xx_hal_flash_ex.c ****   return value;
 481:Drivers/STM32F3xx_HAL_Driver/Src/stm32f3xx_hal_flash_ex.c **** }
 482:Drivers/STM32F3xx_HAL_Driver/Src/stm32f3xx_hal_flash_ex.c **** 
 483:Drivers/STM32F3xx_HAL_Driver/Src/stm32f3xx_hal_flash_ex.c **** /**
 484:Drivers/STM32F3xx_HAL_Driver/Src/stm32f3xx_hal_flash_ex.c ****   * @}
 485:Drivers/STM32F3xx_HAL_Driver/Src/stm32f3xx_hal_flash_ex.c ****   */
 486:Drivers/STM32F3xx_HAL_Driver/Src/stm32f3xx_hal_flash_ex.c **** 
 487:Drivers/STM32F3xx_HAL_Driver/Src/stm32f3xx_hal_flash_ex.c **** /**
ARM GAS  /var/folders/jw/jcj5j9_530958b2rm5vp9wn00000gn/T//ccXdJM12.s 			page 10


 488:Drivers/STM32F3xx_HAL_Driver/Src/stm32f3xx_hal_flash_ex.c ****   * @}
 489:Drivers/STM32F3xx_HAL_Driver/Src/stm32f3xx_hal_flash_ex.c ****   */
 490:Drivers/STM32F3xx_HAL_Driver/Src/stm32f3xx_hal_flash_ex.c **** 
 491:Drivers/STM32F3xx_HAL_Driver/Src/stm32f3xx_hal_flash_ex.c **** /** @addtogroup FLASHEx_Private_Functions
 492:Drivers/STM32F3xx_HAL_Driver/Src/stm32f3xx_hal_flash_ex.c ****  * @{
 493:Drivers/STM32F3xx_HAL_Driver/Src/stm32f3xx_hal_flash_ex.c ****  */
 494:Drivers/STM32F3xx_HAL_Driver/Src/stm32f3xx_hal_flash_ex.c **** 
 495:Drivers/STM32F3xx_HAL_Driver/Src/stm32f3xx_hal_flash_ex.c **** /**
 496:Drivers/STM32F3xx_HAL_Driver/Src/stm32f3xx_hal_flash_ex.c ****   * @brief  Full erase of FLASH memory Bank 
 497:Drivers/STM32F3xx_HAL_Driver/Src/stm32f3xx_hal_flash_ex.c ****   *
 498:Drivers/STM32F3xx_HAL_Driver/Src/stm32f3xx_hal_flash_ex.c ****   * @retval None
 499:Drivers/STM32F3xx_HAL_Driver/Src/stm32f3xx_hal_flash_ex.c ****   */
 500:Drivers/STM32F3xx_HAL_Driver/Src/stm32f3xx_hal_flash_ex.c **** static void FLASH_MassErase(void)
 501:Drivers/STM32F3xx_HAL_Driver/Src/stm32f3xx_hal_flash_ex.c **** {
  28              		.loc 1 501 1 view -0
  29              		.cfi_startproc
  30              		@ args = 0, pretend = 0, frame = 0
  31              		@ frame_needed = 0, uses_anonymous_args = 0
  32              		@ link register save eliminated.
 502:Drivers/STM32F3xx_HAL_Driver/Src/stm32f3xx_hal_flash_ex.c ****   /* Clean the error context */
 503:Drivers/STM32F3xx_HAL_Driver/Src/stm32f3xx_hal_flash_ex.c ****   pFlash.ErrorCode = HAL_FLASH_ERROR_NONE;
  33              		.loc 1 503 3 view .LVU1
  34              		.loc 1 503 20 is_stmt 0 view .LVU2
  35 0000 064B     		ldr	r3, .L2
  36 0002 0022     		movs	r2, #0
  37 0004 DA61     		str	r2, [r3, #28]
 504:Drivers/STM32F3xx_HAL_Driver/Src/stm32f3xx_hal_flash_ex.c **** 
 505:Drivers/STM32F3xx_HAL_Driver/Src/stm32f3xx_hal_flash_ex.c ****     /* Only bank1 will be erased*/
 506:Drivers/STM32F3xx_HAL_Driver/Src/stm32f3xx_hal_flash_ex.c ****     SET_BIT(FLASH->CR, FLASH_CR_MER);
  38              		.loc 1 506 5 is_stmt 1 view .LVU3
  39 0006 064B     		ldr	r3, .L2+4
  40 0008 1A69     		ldr	r2, [r3, #16]
  41 000a 42F00402 		orr	r2, r2, #4
  42 000e 1A61     		str	r2, [r3, #16]
 507:Drivers/STM32F3xx_HAL_Driver/Src/stm32f3xx_hal_flash_ex.c ****     SET_BIT(FLASH->CR, FLASH_CR_STRT);
  43              		.loc 1 507 5 view .LVU4
  44 0010 1A69     		ldr	r2, [r3, #16]
  45 0012 42F04002 		orr	r2, r2, #64
  46 0016 1A61     		str	r2, [r3, #16]
 508:Drivers/STM32F3xx_HAL_Driver/Src/stm32f3xx_hal_flash_ex.c **** }
  47              		.loc 1 508 1 is_stmt 0 view .LVU5
  48 0018 7047     		bx	lr
  49              	.L3:
  50 001a 00BF     		.align	2
  51              	.L2:
  52 001c 00000000 		.word	pFlash
  53 0020 00200240 		.word	1073881088
  54              		.cfi_endproc
  55              	.LFE136:
  57              		.section	.text.FLASH_OB_GetWRP,"ax",%progbits
  58              		.align	1
  59              		.syntax unified
  60              		.thumb
  61              		.thumb_func
  62              		.fpu fpv4-sp-d16
  64              	FLASH_OB_GetWRP:
  65              	.LFB142:
ARM GAS  /var/folders/jw/jcj5j9_530958b2rm5vp9wn00000gn/T//ccXdJM12.s 			page 11


 509:Drivers/STM32F3xx_HAL_Driver/Src/stm32f3xx_hal_flash_ex.c **** 
 510:Drivers/STM32F3xx_HAL_Driver/Src/stm32f3xx_hal_flash_ex.c **** /**
 511:Drivers/STM32F3xx_HAL_Driver/Src/stm32f3xx_hal_flash_ex.c ****   * @brief  Enable the write protection of the desired pages
 512:Drivers/STM32F3xx_HAL_Driver/Src/stm32f3xx_hal_flash_ex.c ****   * @note   An option byte erase is done automatically in this function. 
 513:Drivers/STM32F3xx_HAL_Driver/Src/stm32f3xx_hal_flash_ex.c ****   * @note   When the memory read protection level is selected (RDP level = 1), 
 514:Drivers/STM32F3xx_HAL_Driver/Src/stm32f3xx_hal_flash_ex.c ****   *         it is not possible to program or erase the flash page i if
 515:Drivers/STM32F3xx_HAL_Driver/Src/stm32f3xx_hal_flash_ex.c ****   *         debug features are connected or boot code is executed in RAM, even if nWRPi = 1 
 516:Drivers/STM32F3xx_HAL_Driver/Src/stm32f3xx_hal_flash_ex.c ****   * 
 517:Drivers/STM32F3xx_HAL_Driver/Src/stm32f3xx_hal_flash_ex.c ****   * @param  WriteProtectPage specifies the page(s) to be write protected.
 518:Drivers/STM32F3xx_HAL_Driver/Src/stm32f3xx_hal_flash_ex.c ****   *         The value of this parameter depend on device used within the same series 
 519:Drivers/STM32F3xx_HAL_Driver/Src/stm32f3xx_hal_flash_ex.c ****   * @retval HAL status 
 520:Drivers/STM32F3xx_HAL_Driver/Src/stm32f3xx_hal_flash_ex.c ****   */
 521:Drivers/STM32F3xx_HAL_Driver/Src/stm32f3xx_hal_flash_ex.c **** static HAL_StatusTypeDef FLASH_OB_EnableWRP(uint32_t WriteProtectPage)
 522:Drivers/STM32F3xx_HAL_Driver/Src/stm32f3xx_hal_flash_ex.c **** {
 523:Drivers/STM32F3xx_HAL_Driver/Src/stm32f3xx_hal_flash_ex.c ****   HAL_StatusTypeDef status = HAL_OK;
 524:Drivers/STM32F3xx_HAL_Driver/Src/stm32f3xx_hal_flash_ex.c ****   uint16_t WRP0_Data = 0xFFFFU;
 525:Drivers/STM32F3xx_HAL_Driver/Src/stm32f3xx_hal_flash_ex.c **** #if defined(OB_WRP1_WRP1)
 526:Drivers/STM32F3xx_HAL_Driver/Src/stm32f3xx_hal_flash_ex.c ****   uint16_t WRP1_Data = 0xFFFFU;
 527:Drivers/STM32F3xx_HAL_Driver/Src/stm32f3xx_hal_flash_ex.c **** #endif /* OB_WRP1_WRP1 */
 528:Drivers/STM32F3xx_HAL_Driver/Src/stm32f3xx_hal_flash_ex.c **** #if defined(OB_WRP2_WRP2)
 529:Drivers/STM32F3xx_HAL_Driver/Src/stm32f3xx_hal_flash_ex.c ****   uint16_t WRP2_Data = 0xFFFFU;
 530:Drivers/STM32F3xx_HAL_Driver/Src/stm32f3xx_hal_flash_ex.c **** #endif /* OB_WRP2_WRP2 */
 531:Drivers/STM32F3xx_HAL_Driver/Src/stm32f3xx_hal_flash_ex.c **** #if defined(OB_WRP3_WRP3)
 532:Drivers/STM32F3xx_HAL_Driver/Src/stm32f3xx_hal_flash_ex.c ****   uint16_t WRP3_Data = 0xFFFFU;
 533:Drivers/STM32F3xx_HAL_Driver/Src/stm32f3xx_hal_flash_ex.c **** #endif /* OB_WRP3_WRP3 */
 534:Drivers/STM32F3xx_HAL_Driver/Src/stm32f3xx_hal_flash_ex.c ****   
 535:Drivers/STM32F3xx_HAL_Driver/Src/stm32f3xx_hal_flash_ex.c ****   /* Check the parameters */
 536:Drivers/STM32F3xx_HAL_Driver/Src/stm32f3xx_hal_flash_ex.c ****   assert_param(IS_OB_WRP(WriteProtectPage));
 537:Drivers/STM32F3xx_HAL_Driver/Src/stm32f3xx_hal_flash_ex.c ****     
 538:Drivers/STM32F3xx_HAL_Driver/Src/stm32f3xx_hal_flash_ex.c ****   /* Get current write protected pages and the new pages to be protected ******/
 539:Drivers/STM32F3xx_HAL_Driver/Src/stm32f3xx_hal_flash_ex.c ****   WriteProtectPage = (uint32_t)(~((~FLASH_OB_GetWRP()) | WriteProtectPage));
 540:Drivers/STM32F3xx_HAL_Driver/Src/stm32f3xx_hal_flash_ex.c ****   
 541:Drivers/STM32F3xx_HAL_Driver/Src/stm32f3xx_hal_flash_ex.c **** #if defined(OB_WRP_PAGES0TO15MASK)
 542:Drivers/STM32F3xx_HAL_Driver/Src/stm32f3xx_hal_flash_ex.c ****   WRP0_Data = (uint16_t)(WriteProtectPage & OB_WRP_PAGES0TO15MASK);
 543:Drivers/STM32F3xx_HAL_Driver/Src/stm32f3xx_hal_flash_ex.c **** #endif /* OB_WRP_PAGES0TO31MASK */
 544:Drivers/STM32F3xx_HAL_Driver/Src/stm32f3xx_hal_flash_ex.c ****   
 545:Drivers/STM32F3xx_HAL_Driver/Src/stm32f3xx_hal_flash_ex.c **** #if defined(OB_WRP_PAGES16TO31MASK)
 546:Drivers/STM32F3xx_HAL_Driver/Src/stm32f3xx_hal_flash_ex.c ****   WRP1_Data = (uint16_t)((WriteProtectPage & OB_WRP_PAGES16TO31MASK) >> 8U);
 547:Drivers/STM32F3xx_HAL_Driver/Src/stm32f3xx_hal_flash_ex.c **** #endif /* OB_WRP_PAGES32TO63MASK */
 548:Drivers/STM32F3xx_HAL_Driver/Src/stm32f3xx_hal_flash_ex.c ****  
 549:Drivers/STM32F3xx_HAL_Driver/Src/stm32f3xx_hal_flash_ex.c **** #if defined(OB_WRP_PAGES32TO47MASK)
 550:Drivers/STM32F3xx_HAL_Driver/Src/stm32f3xx_hal_flash_ex.c ****   WRP2_Data = (uint16_t)((WriteProtectPage & OB_WRP_PAGES32TO47MASK) >> 16U);
 551:Drivers/STM32F3xx_HAL_Driver/Src/stm32f3xx_hal_flash_ex.c **** #endif /* OB_WRP_PAGES32TO47MASK */
 552:Drivers/STM32F3xx_HAL_Driver/Src/stm32f3xx_hal_flash_ex.c **** 
 553:Drivers/STM32F3xx_HAL_Driver/Src/stm32f3xx_hal_flash_ex.c **** #if defined(OB_WRP_PAGES48TO127MASK)
 554:Drivers/STM32F3xx_HAL_Driver/Src/stm32f3xx_hal_flash_ex.c ****   WRP3_Data = (uint16_t)((WriteProtectPage & OB_WRP_PAGES48TO127MASK) >> 24U); 
 555:Drivers/STM32F3xx_HAL_Driver/Src/stm32f3xx_hal_flash_ex.c **** #elif defined(OB_WRP_PAGES48TO255MASK)
 556:Drivers/STM32F3xx_HAL_Driver/Src/stm32f3xx_hal_flash_ex.c ****   WRP3_Data = (uint16_t)((WriteProtectPage & OB_WRP_PAGES48TO255MASK) >> 24U); 
 557:Drivers/STM32F3xx_HAL_Driver/Src/stm32f3xx_hal_flash_ex.c **** #endif /* OB_WRP_PAGES48TO63MASK */
 558:Drivers/STM32F3xx_HAL_Driver/Src/stm32f3xx_hal_flash_ex.c ****   
 559:Drivers/STM32F3xx_HAL_Driver/Src/stm32f3xx_hal_flash_ex.c ****   /* Wait for last operation to be completed */
 560:Drivers/STM32F3xx_HAL_Driver/Src/stm32f3xx_hal_flash_ex.c ****   status = FLASH_WaitForLastOperation((uint32_t)FLASH_TIMEOUT_VALUE);
 561:Drivers/STM32F3xx_HAL_Driver/Src/stm32f3xx_hal_flash_ex.c **** 
 562:Drivers/STM32F3xx_HAL_Driver/Src/stm32f3xx_hal_flash_ex.c ****   if(status == HAL_OK)
 563:Drivers/STM32F3xx_HAL_Driver/Src/stm32f3xx_hal_flash_ex.c ****   { 
 564:Drivers/STM32F3xx_HAL_Driver/Src/stm32f3xx_hal_flash_ex.c ****     /* Clean the error context */
 565:Drivers/STM32F3xx_HAL_Driver/Src/stm32f3xx_hal_flash_ex.c ****     pFlash.ErrorCode = HAL_FLASH_ERROR_NONE;
ARM GAS  /var/folders/jw/jcj5j9_530958b2rm5vp9wn00000gn/T//ccXdJM12.s 			page 12


 566:Drivers/STM32F3xx_HAL_Driver/Src/stm32f3xx_hal_flash_ex.c **** 
 567:Drivers/STM32F3xx_HAL_Driver/Src/stm32f3xx_hal_flash_ex.c ****     /* To be able to write again option byte, need to perform a option byte erase */
 568:Drivers/STM32F3xx_HAL_Driver/Src/stm32f3xx_hal_flash_ex.c ****     status = HAL_FLASHEx_OBErase();
 569:Drivers/STM32F3xx_HAL_Driver/Src/stm32f3xx_hal_flash_ex.c ****     if (status == HAL_OK)  
 570:Drivers/STM32F3xx_HAL_Driver/Src/stm32f3xx_hal_flash_ex.c ****     {
 571:Drivers/STM32F3xx_HAL_Driver/Src/stm32f3xx_hal_flash_ex.c ****       /* Enable write protection */
 572:Drivers/STM32F3xx_HAL_Driver/Src/stm32f3xx_hal_flash_ex.c ****       SET_BIT(FLASH->CR, FLASH_CR_OPTPG);
 573:Drivers/STM32F3xx_HAL_Driver/Src/stm32f3xx_hal_flash_ex.c **** 
 574:Drivers/STM32F3xx_HAL_Driver/Src/stm32f3xx_hal_flash_ex.c **** #if defined(OB_WRP0_WRP0)
 575:Drivers/STM32F3xx_HAL_Driver/Src/stm32f3xx_hal_flash_ex.c ****       if(WRP0_Data != 0xFFU)
 576:Drivers/STM32F3xx_HAL_Driver/Src/stm32f3xx_hal_flash_ex.c ****       {
 577:Drivers/STM32F3xx_HAL_Driver/Src/stm32f3xx_hal_flash_ex.c ****         OB->WRP0 &= WRP0_Data;
 578:Drivers/STM32F3xx_HAL_Driver/Src/stm32f3xx_hal_flash_ex.c ****         
 579:Drivers/STM32F3xx_HAL_Driver/Src/stm32f3xx_hal_flash_ex.c ****         /* Wait for last operation to be completed */
 580:Drivers/STM32F3xx_HAL_Driver/Src/stm32f3xx_hal_flash_ex.c ****         status = FLASH_WaitForLastOperation((uint32_t)FLASH_TIMEOUT_VALUE);
 581:Drivers/STM32F3xx_HAL_Driver/Src/stm32f3xx_hal_flash_ex.c ****       }
 582:Drivers/STM32F3xx_HAL_Driver/Src/stm32f3xx_hal_flash_ex.c **** #endif /* OB_WRP0_WRP0 */
 583:Drivers/STM32F3xx_HAL_Driver/Src/stm32f3xx_hal_flash_ex.c **** 
 584:Drivers/STM32F3xx_HAL_Driver/Src/stm32f3xx_hal_flash_ex.c **** #if defined(OB_WRP1_WRP1)
 585:Drivers/STM32F3xx_HAL_Driver/Src/stm32f3xx_hal_flash_ex.c ****       if((status == HAL_OK) && (WRP1_Data != 0xFFU))
 586:Drivers/STM32F3xx_HAL_Driver/Src/stm32f3xx_hal_flash_ex.c ****       {
 587:Drivers/STM32F3xx_HAL_Driver/Src/stm32f3xx_hal_flash_ex.c ****         OB->WRP1 &= WRP1_Data;
 588:Drivers/STM32F3xx_HAL_Driver/Src/stm32f3xx_hal_flash_ex.c ****         
 589:Drivers/STM32F3xx_HAL_Driver/Src/stm32f3xx_hal_flash_ex.c ****         /* Wait for last operation to be completed */
 590:Drivers/STM32F3xx_HAL_Driver/Src/stm32f3xx_hal_flash_ex.c ****         status = FLASH_WaitForLastOperation((uint32_t)FLASH_TIMEOUT_VALUE);
 591:Drivers/STM32F3xx_HAL_Driver/Src/stm32f3xx_hal_flash_ex.c ****       }
 592:Drivers/STM32F3xx_HAL_Driver/Src/stm32f3xx_hal_flash_ex.c **** #endif /* OB_WRP1_WRP1 */
 593:Drivers/STM32F3xx_HAL_Driver/Src/stm32f3xx_hal_flash_ex.c **** 
 594:Drivers/STM32F3xx_HAL_Driver/Src/stm32f3xx_hal_flash_ex.c **** #if defined(OB_WRP2_WRP2)
 595:Drivers/STM32F3xx_HAL_Driver/Src/stm32f3xx_hal_flash_ex.c ****       if((status == HAL_OK) && (WRP2_Data != 0xFFU))
 596:Drivers/STM32F3xx_HAL_Driver/Src/stm32f3xx_hal_flash_ex.c ****       {
 597:Drivers/STM32F3xx_HAL_Driver/Src/stm32f3xx_hal_flash_ex.c ****         OB->WRP2 &= WRP2_Data;
 598:Drivers/STM32F3xx_HAL_Driver/Src/stm32f3xx_hal_flash_ex.c ****         
 599:Drivers/STM32F3xx_HAL_Driver/Src/stm32f3xx_hal_flash_ex.c ****         /* Wait for last operation to be completed */
 600:Drivers/STM32F3xx_HAL_Driver/Src/stm32f3xx_hal_flash_ex.c ****         status = FLASH_WaitForLastOperation((uint32_t)FLASH_TIMEOUT_VALUE);
 601:Drivers/STM32F3xx_HAL_Driver/Src/stm32f3xx_hal_flash_ex.c ****       }
 602:Drivers/STM32F3xx_HAL_Driver/Src/stm32f3xx_hal_flash_ex.c **** #endif /* OB_WRP2_WRP2 */
 603:Drivers/STM32F3xx_HAL_Driver/Src/stm32f3xx_hal_flash_ex.c **** 
 604:Drivers/STM32F3xx_HAL_Driver/Src/stm32f3xx_hal_flash_ex.c **** #if defined(OB_WRP3_WRP3)
 605:Drivers/STM32F3xx_HAL_Driver/Src/stm32f3xx_hal_flash_ex.c ****       if((status == HAL_OK) && (WRP3_Data != 0xFFU))
 606:Drivers/STM32F3xx_HAL_Driver/Src/stm32f3xx_hal_flash_ex.c ****       {
 607:Drivers/STM32F3xx_HAL_Driver/Src/stm32f3xx_hal_flash_ex.c ****         OB->WRP3 &= WRP3_Data;
 608:Drivers/STM32F3xx_HAL_Driver/Src/stm32f3xx_hal_flash_ex.c ****         
 609:Drivers/STM32F3xx_HAL_Driver/Src/stm32f3xx_hal_flash_ex.c ****         /* Wait for last operation to be completed */
 610:Drivers/STM32F3xx_HAL_Driver/Src/stm32f3xx_hal_flash_ex.c ****         status = FLASH_WaitForLastOperation((uint32_t)FLASH_TIMEOUT_VALUE);
 611:Drivers/STM32F3xx_HAL_Driver/Src/stm32f3xx_hal_flash_ex.c ****       }
 612:Drivers/STM32F3xx_HAL_Driver/Src/stm32f3xx_hal_flash_ex.c **** #endif /* OB_WRP3_WRP3 */
 613:Drivers/STM32F3xx_HAL_Driver/Src/stm32f3xx_hal_flash_ex.c **** 
 614:Drivers/STM32F3xx_HAL_Driver/Src/stm32f3xx_hal_flash_ex.c ****       /* if the program operation is completed, disable the OPTPG Bit */
 615:Drivers/STM32F3xx_HAL_Driver/Src/stm32f3xx_hal_flash_ex.c ****       CLEAR_BIT(FLASH->CR, FLASH_CR_OPTPG);
 616:Drivers/STM32F3xx_HAL_Driver/Src/stm32f3xx_hal_flash_ex.c ****     }
 617:Drivers/STM32F3xx_HAL_Driver/Src/stm32f3xx_hal_flash_ex.c ****   }
 618:Drivers/STM32F3xx_HAL_Driver/Src/stm32f3xx_hal_flash_ex.c ****   
 619:Drivers/STM32F3xx_HAL_Driver/Src/stm32f3xx_hal_flash_ex.c ****   return status;
 620:Drivers/STM32F3xx_HAL_Driver/Src/stm32f3xx_hal_flash_ex.c **** }
 621:Drivers/STM32F3xx_HAL_Driver/Src/stm32f3xx_hal_flash_ex.c **** 
 622:Drivers/STM32F3xx_HAL_Driver/Src/stm32f3xx_hal_flash_ex.c **** /**
ARM GAS  /var/folders/jw/jcj5j9_530958b2rm5vp9wn00000gn/T//ccXdJM12.s 			page 13


 623:Drivers/STM32F3xx_HAL_Driver/Src/stm32f3xx_hal_flash_ex.c ****   * @brief  Disable the write protection of the desired pages
 624:Drivers/STM32F3xx_HAL_Driver/Src/stm32f3xx_hal_flash_ex.c ****   * @note   An option byte erase is done automatically in this function. 
 625:Drivers/STM32F3xx_HAL_Driver/Src/stm32f3xx_hal_flash_ex.c ****   * @note   When the memory read protection level is selected (RDP level = 1), 
 626:Drivers/STM32F3xx_HAL_Driver/Src/stm32f3xx_hal_flash_ex.c ****   *         it is not possible to program or erase the flash page i if   
 627:Drivers/STM32F3xx_HAL_Driver/Src/stm32f3xx_hal_flash_ex.c ****   *         debug features are connected or boot code is executed in RAM, even if nWRPi = 1 
 628:Drivers/STM32F3xx_HAL_Driver/Src/stm32f3xx_hal_flash_ex.c ****   * 
 629:Drivers/STM32F3xx_HAL_Driver/Src/stm32f3xx_hal_flash_ex.c ****   * @param  WriteProtectPage specifies the page(s) to be write unprotected.
 630:Drivers/STM32F3xx_HAL_Driver/Src/stm32f3xx_hal_flash_ex.c ****   *         The value of this parameter depend on device used within the same series 
 631:Drivers/STM32F3xx_HAL_Driver/Src/stm32f3xx_hal_flash_ex.c ****   * @retval HAL status 
 632:Drivers/STM32F3xx_HAL_Driver/Src/stm32f3xx_hal_flash_ex.c ****   */
 633:Drivers/STM32F3xx_HAL_Driver/Src/stm32f3xx_hal_flash_ex.c **** static HAL_StatusTypeDef FLASH_OB_DisableWRP(uint32_t WriteProtectPage)
 634:Drivers/STM32F3xx_HAL_Driver/Src/stm32f3xx_hal_flash_ex.c **** {
 635:Drivers/STM32F3xx_HAL_Driver/Src/stm32f3xx_hal_flash_ex.c ****   HAL_StatusTypeDef status = HAL_OK;
 636:Drivers/STM32F3xx_HAL_Driver/Src/stm32f3xx_hal_flash_ex.c ****   uint16_t WRP0_Data = 0xFFFFU;
 637:Drivers/STM32F3xx_HAL_Driver/Src/stm32f3xx_hal_flash_ex.c **** #if defined(OB_WRP1_WRP1)
 638:Drivers/STM32F3xx_HAL_Driver/Src/stm32f3xx_hal_flash_ex.c ****   uint16_t WRP1_Data = 0xFFFFU;
 639:Drivers/STM32F3xx_HAL_Driver/Src/stm32f3xx_hal_flash_ex.c **** #endif /* OB_WRP1_WRP1 */
 640:Drivers/STM32F3xx_HAL_Driver/Src/stm32f3xx_hal_flash_ex.c **** #if defined(OB_WRP2_WRP2)
 641:Drivers/STM32F3xx_HAL_Driver/Src/stm32f3xx_hal_flash_ex.c ****   uint16_t WRP2_Data = 0xFFFFU;
 642:Drivers/STM32F3xx_HAL_Driver/Src/stm32f3xx_hal_flash_ex.c **** #endif /* OB_WRP2_WRP2 */
 643:Drivers/STM32F3xx_HAL_Driver/Src/stm32f3xx_hal_flash_ex.c **** #if defined(OB_WRP3_WRP3)
 644:Drivers/STM32F3xx_HAL_Driver/Src/stm32f3xx_hal_flash_ex.c ****   uint16_t WRP3_Data = 0xFFFFU;
 645:Drivers/STM32F3xx_HAL_Driver/Src/stm32f3xx_hal_flash_ex.c **** #endif /* OB_WRP3_WRP3 */
 646:Drivers/STM32F3xx_HAL_Driver/Src/stm32f3xx_hal_flash_ex.c ****   
 647:Drivers/STM32F3xx_HAL_Driver/Src/stm32f3xx_hal_flash_ex.c ****   /* Check the parameters */
 648:Drivers/STM32F3xx_HAL_Driver/Src/stm32f3xx_hal_flash_ex.c ****   assert_param(IS_OB_WRP(WriteProtectPage));
 649:Drivers/STM32F3xx_HAL_Driver/Src/stm32f3xx_hal_flash_ex.c **** 
 650:Drivers/STM32F3xx_HAL_Driver/Src/stm32f3xx_hal_flash_ex.c ****   /* Get current write protected pages and the new pages to be unprotected ******/
 651:Drivers/STM32F3xx_HAL_Driver/Src/stm32f3xx_hal_flash_ex.c ****   WriteProtectPage = (FLASH_OB_GetWRP() | WriteProtectPage);
 652:Drivers/STM32F3xx_HAL_Driver/Src/stm32f3xx_hal_flash_ex.c **** 
 653:Drivers/STM32F3xx_HAL_Driver/Src/stm32f3xx_hal_flash_ex.c **** #if defined(OB_WRP_PAGES0TO15MASK)
 654:Drivers/STM32F3xx_HAL_Driver/Src/stm32f3xx_hal_flash_ex.c ****   WRP0_Data = (uint16_t)(WriteProtectPage & OB_WRP_PAGES0TO15MASK);
 655:Drivers/STM32F3xx_HAL_Driver/Src/stm32f3xx_hal_flash_ex.c **** #endif /* OB_WRP_PAGES0TO31MASK */
 656:Drivers/STM32F3xx_HAL_Driver/Src/stm32f3xx_hal_flash_ex.c ****   
 657:Drivers/STM32F3xx_HAL_Driver/Src/stm32f3xx_hal_flash_ex.c **** #if defined(OB_WRP_PAGES16TO31MASK)
 658:Drivers/STM32F3xx_HAL_Driver/Src/stm32f3xx_hal_flash_ex.c ****   WRP1_Data = (uint16_t)((WriteProtectPage & OB_WRP_PAGES16TO31MASK) >> 8U);
 659:Drivers/STM32F3xx_HAL_Driver/Src/stm32f3xx_hal_flash_ex.c **** #endif /* OB_WRP_PAGES32TO63MASK */
 660:Drivers/STM32F3xx_HAL_Driver/Src/stm32f3xx_hal_flash_ex.c ****  
 661:Drivers/STM32F3xx_HAL_Driver/Src/stm32f3xx_hal_flash_ex.c **** #if defined(OB_WRP_PAGES32TO47MASK)
 662:Drivers/STM32F3xx_HAL_Driver/Src/stm32f3xx_hal_flash_ex.c ****   WRP2_Data = (uint16_t)((WriteProtectPage & OB_WRP_PAGES32TO47MASK) >> 16U);
 663:Drivers/STM32F3xx_HAL_Driver/Src/stm32f3xx_hal_flash_ex.c **** #endif /* OB_WRP_PAGES32TO47MASK */
 664:Drivers/STM32F3xx_HAL_Driver/Src/stm32f3xx_hal_flash_ex.c **** 
 665:Drivers/STM32F3xx_HAL_Driver/Src/stm32f3xx_hal_flash_ex.c **** #if defined(OB_WRP_PAGES48TO127MASK)
 666:Drivers/STM32F3xx_HAL_Driver/Src/stm32f3xx_hal_flash_ex.c ****   WRP3_Data = (uint16_t)((WriteProtectPage & OB_WRP_PAGES48TO127MASK) >> 24U); 
 667:Drivers/STM32F3xx_HAL_Driver/Src/stm32f3xx_hal_flash_ex.c **** #elif defined(OB_WRP_PAGES48TO255MASK)
 668:Drivers/STM32F3xx_HAL_Driver/Src/stm32f3xx_hal_flash_ex.c ****   WRP3_Data = (uint16_t)((WriteProtectPage & OB_WRP_PAGES48TO255MASK) >> 24U); 
 669:Drivers/STM32F3xx_HAL_Driver/Src/stm32f3xx_hal_flash_ex.c **** #endif /* OB_WRP_PAGES48TO63MASK */
 670:Drivers/STM32F3xx_HAL_Driver/Src/stm32f3xx_hal_flash_ex.c **** 
 671:Drivers/STM32F3xx_HAL_Driver/Src/stm32f3xx_hal_flash_ex.c ****     
 672:Drivers/STM32F3xx_HAL_Driver/Src/stm32f3xx_hal_flash_ex.c ****   /* Wait for last operation to be completed */
 673:Drivers/STM32F3xx_HAL_Driver/Src/stm32f3xx_hal_flash_ex.c ****   status = FLASH_WaitForLastOperation((uint32_t)FLASH_TIMEOUT_VALUE);
 674:Drivers/STM32F3xx_HAL_Driver/Src/stm32f3xx_hal_flash_ex.c **** 
 675:Drivers/STM32F3xx_HAL_Driver/Src/stm32f3xx_hal_flash_ex.c ****   if(status == HAL_OK)
 676:Drivers/STM32F3xx_HAL_Driver/Src/stm32f3xx_hal_flash_ex.c ****   { 
 677:Drivers/STM32F3xx_HAL_Driver/Src/stm32f3xx_hal_flash_ex.c ****     /* Clean the error context */
 678:Drivers/STM32F3xx_HAL_Driver/Src/stm32f3xx_hal_flash_ex.c ****     pFlash.ErrorCode = HAL_FLASH_ERROR_NONE;
 679:Drivers/STM32F3xx_HAL_Driver/Src/stm32f3xx_hal_flash_ex.c **** 
ARM GAS  /var/folders/jw/jcj5j9_530958b2rm5vp9wn00000gn/T//ccXdJM12.s 			page 14


 680:Drivers/STM32F3xx_HAL_Driver/Src/stm32f3xx_hal_flash_ex.c ****     /* To be able to write again option byte, need to perform a option byte erase */
 681:Drivers/STM32F3xx_HAL_Driver/Src/stm32f3xx_hal_flash_ex.c ****     status = HAL_FLASHEx_OBErase();
 682:Drivers/STM32F3xx_HAL_Driver/Src/stm32f3xx_hal_flash_ex.c ****     if (status == HAL_OK)  
 683:Drivers/STM32F3xx_HAL_Driver/Src/stm32f3xx_hal_flash_ex.c ****     {
 684:Drivers/STM32F3xx_HAL_Driver/Src/stm32f3xx_hal_flash_ex.c ****       SET_BIT(FLASH->CR, FLASH_CR_OPTPG);
 685:Drivers/STM32F3xx_HAL_Driver/Src/stm32f3xx_hal_flash_ex.c **** 
 686:Drivers/STM32F3xx_HAL_Driver/Src/stm32f3xx_hal_flash_ex.c **** #if defined(OB_WRP0_WRP0)
 687:Drivers/STM32F3xx_HAL_Driver/Src/stm32f3xx_hal_flash_ex.c ****       if(WRP0_Data != 0xFFU)
 688:Drivers/STM32F3xx_HAL_Driver/Src/stm32f3xx_hal_flash_ex.c ****       {
 689:Drivers/STM32F3xx_HAL_Driver/Src/stm32f3xx_hal_flash_ex.c ****         OB->WRP0 |= WRP0_Data;
 690:Drivers/STM32F3xx_HAL_Driver/Src/stm32f3xx_hal_flash_ex.c ****         
 691:Drivers/STM32F3xx_HAL_Driver/Src/stm32f3xx_hal_flash_ex.c ****         /* Wait for last operation to be completed */
 692:Drivers/STM32F3xx_HAL_Driver/Src/stm32f3xx_hal_flash_ex.c ****         status = FLASH_WaitForLastOperation((uint32_t)FLASH_TIMEOUT_VALUE);
 693:Drivers/STM32F3xx_HAL_Driver/Src/stm32f3xx_hal_flash_ex.c ****       }
 694:Drivers/STM32F3xx_HAL_Driver/Src/stm32f3xx_hal_flash_ex.c **** #endif /* OB_WRP0_WRP0 */
 695:Drivers/STM32F3xx_HAL_Driver/Src/stm32f3xx_hal_flash_ex.c **** 
 696:Drivers/STM32F3xx_HAL_Driver/Src/stm32f3xx_hal_flash_ex.c **** #if defined(OB_WRP1_WRP1)
 697:Drivers/STM32F3xx_HAL_Driver/Src/stm32f3xx_hal_flash_ex.c ****       if((status == HAL_OK) && (WRP1_Data != 0xFFU))
 698:Drivers/STM32F3xx_HAL_Driver/Src/stm32f3xx_hal_flash_ex.c ****       {
 699:Drivers/STM32F3xx_HAL_Driver/Src/stm32f3xx_hal_flash_ex.c ****         OB->WRP1 |= WRP1_Data;
 700:Drivers/STM32F3xx_HAL_Driver/Src/stm32f3xx_hal_flash_ex.c ****         
 701:Drivers/STM32F3xx_HAL_Driver/Src/stm32f3xx_hal_flash_ex.c ****         /* Wait for last operation to be completed */
 702:Drivers/STM32F3xx_HAL_Driver/Src/stm32f3xx_hal_flash_ex.c ****         status = FLASH_WaitForLastOperation((uint32_t)FLASH_TIMEOUT_VALUE);
 703:Drivers/STM32F3xx_HAL_Driver/Src/stm32f3xx_hal_flash_ex.c ****       }
 704:Drivers/STM32F3xx_HAL_Driver/Src/stm32f3xx_hal_flash_ex.c **** #endif /* OB_WRP1_WRP1 */
 705:Drivers/STM32F3xx_HAL_Driver/Src/stm32f3xx_hal_flash_ex.c **** 
 706:Drivers/STM32F3xx_HAL_Driver/Src/stm32f3xx_hal_flash_ex.c **** #if defined(OB_WRP2_WRP2)
 707:Drivers/STM32F3xx_HAL_Driver/Src/stm32f3xx_hal_flash_ex.c ****       if((status == HAL_OK) && (WRP2_Data != 0xFFU))
 708:Drivers/STM32F3xx_HAL_Driver/Src/stm32f3xx_hal_flash_ex.c ****       {
 709:Drivers/STM32F3xx_HAL_Driver/Src/stm32f3xx_hal_flash_ex.c ****         OB->WRP2 |= WRP2_Data;
 710:Drivers/STM32F3xx_HAL_Driver/Src/stm32f3xx_hal_flash_ex.c ****         
 711:Drivers/STM32F3xx_HAL_Driver/Src/stm32f3xx_hal_flash_ex.c ****         /* Wait for last operation to be completed */
 712:Drivers/STM32F3xx_HAL_Driver/Src/stm32f3xx_hal_flash_ex.c ****         status = FLASH_WaitForLastOperation((uint32_t)FLASH_TIMEOUT_VALUE);
 713:Drivers/STM32F3xx_HAL_Driver/Src/stm32f3xx_hal_flash_ex.c ****       }
 714:Drivers/STM32F3xx_HAL_Driver/Src/stm32f3xx_hal_flash_ex.c **** #endif /* OB_WRP2_WRP2 */
 715:Drivers/STM32F3xx_HAL_Driver/Src/stm32f3xx_hal_flash_ex.c **** 
 716:Drivers/STM32F3xx_HAL_Driver/Src/stm32f3xx_hal_flash_ex.c **** #if defined(OB_WRP3_WRP3)
 717:Drivers/STM32F3xx_HAL_Driver/Src/stm32f3xx_hal_flash_ex.c ****       if((status == HAL_OK) && (WRP3_Data != 0xFFU))
 718:Drivers/STM32F3xx_HAL_Driver/Src/stm32f3xx_hal_flash_ex.c ****       {
 719:Drivers/STM32F3xx_HAL_Driver/Src/stm32f3xx_hal_flash_ex.c ****         OB->WRP3 |= WRP3_Data;
 720:Drivers/STM32F3xx_HAL_Driver/Src/stm32f3xx_hal_flash_ex.c ****         
 721:Drivers/STM32F3xx_HAL_Driver/Src/stm32f3xx_hal_flash_ex.c ****         /* Wait for last operation to be completed */
 722:Drivers/STM32F3xx_HAL_Driver/Src/stm32f3xx_hal_flash_ex.c ****         status = FLASH_WaitForLastOperation((uint32_t)FLASH_TIMEOUT_VALUE);
 723:Drivers/STM32F3xx_HAL_Driver/Src/stm32f3xx_hal_flash_ex.c ****       }
 724:Drivers/STM32F3xx_HAL_Driver/Src/stm32f3xx_hal_flash_ex.c **** #endif /* OB_WRP3_WRP3 */
 725:Drivers/STM32F3xx_HAL_Driver/Src/stm32f3xx_hal_flash_ex.c **** 
 726:Drivers/STM32F3xx_HAL_Driver/Src/stm32f3xx_hal_flash_ex.c ****       /* if the program operation is completed, disable the OPTPG Bit */
 727:Drivers/STM32F3xx_HAL_Driver/Src/stm32f3xx_hal_flash_ex.c ****       CLEAR_BIT(FLASH->CR, FLASH_CR_OPTPG);
 728:Drivers/STM32F3xx_HAL_Driver/Src/stm32f3xx_hal_flash_ex.c ****     }
 729:Drivers/STM32F3xx_HAL_Driver/Src/stm32f3xx_hal_flash_ex.c ****   }
 730:Drivers/STM32F3xx_HAL_Driver/Src/stm32f3xx_hal_flash_ex.c ****   return status;
 731:Drivers/STM32F3xx_HAL_Driver/Src/stm32f3xx_hal_flash_ex.c **** }
 732:Drivers/STM32F3xx_HAL_Driver/Src/stm32f3xx_hal_flash_ex.c **** 
 733:Drivers/STM32F3xx_HAL_Driver/Src/stm32f3xx_hal_flash_ex.c **** /**
 734:Drivers/STM32F3xx_HAL_Driver/Src/stm32f3xx_hal_flash_ex.c ****   * @brief  Set the read protection level.
 735:Drivers/STM32F3xx_HAL_Driver/Src/stm32f3xx_hal_flash_ex.c ****   * @param  ReadProtectLevel specifies the read protection level.
 736:Drivers/STM32F3xx_HAL_Driver/Src/stm32f3xx_hal_flash_ex.c ****   *         This parameter can be one of the following values:
ARM GAS  /var/folders/jw/jcj5j9_530958b2rm5vp9wn00000gn/T//ccXdJM12.s 			page 15


 737:Drivers/STM32F3xx_HAL_Driver/Src/stm32f3xx_hal_flash_ex.c ****   *            @arg @ref OB_RDP_LEVEL_0 No protection
 738:Drivers/STM32F3xx_HAL_Driver/Src/stm32f3xx_hal_flash_ex.c ****   *            @arg @ref OB_RDP_LEVEL_1 Read protection of the memory
 739:Drivers/STM32F3xx_HAL_Driver/Src/stm32f3xx_hal_flash_ex.c ****   *            @arg @ref OB_RDP_LEVEL_2 Full chip protection
 740:Drivers/STM32F3xx_HAL_Driver/Src/stm32f3xx_hal_flash_ex.c ****   * @note   Warning: When enabling OB_RDP level 2 it's no more possible to go back to level 1 or 0
 741:Drivers/STM32F3xx_HAL_Driver/Src/stm32f3xx_hal_flash_ex.c ****   * @retval HAL status
 742:Drivers/STM32F3xx_HAL_Driver/Src/stm32f3xx_hal_flash_ex.c ****   */
 743:Drivers/STM32F3xx_HAL_Driver/Src/stm32f3xx_hal_flash_ex.c **** static HAL_StatusTypeDef FLASH_OB_RDP_LevelConfig(uint8_t ReadProtectLevel)
 744:Drivers/STM32F3xx_HAL_Driver/Src/stm32f3xx_hal_flash_ex.c **** {
 745:Drivers/STM32F3xx_HAL_Driver/Src/stm32f3xx_hal_flash_ex.c ****   HAL_StatusTypeDef status = HAL_OK;
 746:Drivers/STM32F3xx_HAL_Driver/Src/stm32f3xx_hal_flash_ex.c ****   
 747:Drivers/STM32F3xx_HAL_Driver/Src/stm32f3xx_hal_flash_ex.c ****   /* Check the parameters */
 748:Drivers/STM32F3xx_HAL_Driver/Src/stm32f3xx_hal_flash_ex.c ****   assert_param(IS_OB_RDP_LEVEL(ReadProtectLevel));
 749:Drivers/STM32F3xx_HAL_Driver/Src/stm32f3xx_hal_flash_ex.c ****   
 750:Drivers/STM32F3xx_HAL_Driver/Src/stm32f3xx_hal_flash_ex.c ****   /* Wait for last operation to be completed */
 751:Drivers/STM32F3xx_HAL_Driver/Src/stm32f3xx_hal_flash_ex.c ****   status = FLASH_WaitForLastOperation((uint32_t)FLASH_TIMEOUT_VALUE);
 752:Drivers/STM32F3xx_HAL_Driver/Src/stm32f3xx_hal_flash_ex.c ****   
 753:Drivers/STM32F3xx_HAL_Driver/Src/stm32f3xx_hal_flash_ex.c ****   if(status == HAL_OK)
 754:Drivers/STM32F3xx_HAL_Driver/Src/stm32f3xx_hal_flash_ex.c ****   { 
 755:Drivers/STM32F3xx_HAL_Driver/Src/stm32f3xx_hal_flash_ex.c ****     /* Clean the error context */
 756:Drivers/STM32F3xx_HAL_Driver/Src/stm32f3xx_hal_flash_ex.c ****     pFlash.ErrorCode = HAL_FLASH_ERROR_NONE;
 757:Drivers/STM32F3xx_HAL_Driver/Src/stm32f3xx_hal_flash_ex.c ****     
 758:Drivers/STM32F3xx_HAL_Driver/Src/stm32f3xx_hal_flash_ex.c ****     /* If the previous operation is completed, proceed to erase the option bytes */
 759:Drivers/STM32F3xx_HAL_Driver/Src/stm32f3xx_hal_flash_ex.c ****     SET_BIT(FLASH->CR, FLASH_CR_OPTER);
 760:Drivers/STM32F3xx_HAL_Driver/Src/stm32f3xx_hal_flash_ex.c ****     SET_BIT(FLASH->CR, FLASH_CR_STRT);
 761:Drivers/STM32F3xx_HAL_Driver/Src/stm32f3xx_hal_flash_ex.c **** 
 762:Drivers/STM32F3xx_HAL_Driver/Src/stm32f3xx_hal_flash_ex.c ****     /* Wait for last operation to be completed */
 763:Drivers/STM32F3xx_HAL_Driver/Src/stm32f3xx_hal_flash_ex.c ****     status = FLASH_WaitForLastOperation((uint32_t)FLASH_TIMEOUT_VALUE);
 764:Drivers/STM32F3xx_HAL_Driver/Src/stm32f3xx_hal_flash_ex.c **** 
 765:Drivers/STM32F3xx_HAL_Driver/Src/stm32f3xx_hal_flash_ex.c ****     /* If the erase operation is completed, disable the OPTER Bit */
 766:Drivers/STM32F3xx_HAL_Driver/Src/stm32f3xx_hal_flash_ex.c ****     CLEAR_BIT(FLASH->CR, FLASH_CR_OPTER);
 767:Drivers/STM32F3xx_HAL_Driver/Src/stm32f3xx_hal_flash_ex.c **** 
 768:Drivers/STM32F3xx_HAL_Driver/Src/stm32f3xx_hal_flash_ex.c ****     if(status == HAL_OK)
 769:Drivers/STM32F3xx_HAL_Driver/Src/stm32f3xx_hal_flash_ex.c ****     {
 770:Drivers/STM32F3xx_HAL_Driver/Src/stm32f3xx_hal_flash_ex.c ****       /* Enable the Option Bytes Programming operation */
 771:Drivers/STM32F3xx_HAL_Driver/Src/stm32f3xx_hal_flash_ex.c ****       SET_BIT(FLASH->CR, FLASH_CR_OPTPG);
 772:Drivers/STM32F3xx_HAL_Driver/Src/stm32f3xx_hal_flash_ex.c ****       
 773:Drivers/STM32F3xx_HAL_Driver/Src/stm32f3xx_hal_flash_ex.c ****       WRITE_REG(OB->RDP, ReadProtectLevel);
 774:Drivers/STM32F3xx_HAL_Driver/Src/stm32f3xx_hal_flash_ex.c ****       
 775:Drivers/STM32F3xx_HAL_Driver/Src/stm32f3xx_hal_flash_ex.c ****       /* Wait for last operation to be completed */
 776:Drivers/STM32F3xx_HAL_Driver/Src/stm32f3xx_hal_flash_ex.c ****       status = FLASH_WaitForLastOperation((uint32_t)FLASH_TIMEOUT_VALUE); 
 777:Drivers/STM32F3xx_HAL_Driver/Src/stm32f3xx_hal_flash_ex.c ****       
 778:Drivers/STM32F3xx_HAL_Driver/Src/stm32f3xx_hal_flash_ex.c ****       /* if the program operation is completed, disable the OPTPG Bit */
 779:Drivers/STM32F3xx_HAL_Driver/Src/stm32f3xx_hal_flash_ex.c ****       CLEAR_BIT(FLASH->CR, FLASH_CR_OPTPG);
 780:Drivers/STM32F3xx_HAL_Driver/Src/stm32f3xx_hal_flash_ex.c ****     }
 781:Drivers/STM32F3xx_HAL_Driver/Src/stm32f3xx_hal_flash_ex.c ****   }
 782:Drivers/STM32F3xx_HAL_Driver/Src/stm32f3xx_hal_flash_ex.c ****   
 783:Drivers/STM32F3xx_HAL_Driver/Src/stm32f3xx_hal_flash_ex.c ****   return status;
 784:Drivers/STM32F3xx_HAL_Driver/Src/stm32f3xx_hal_flash_ex.c **** }
 785:Drivers/STM32F3xx_HAL_Driver/Src/stm32f3xx_hal_flash_ex.c **** 
 786:Drivers/STM32F3xx_HAL_Driver/Src/stm32f3xx_hal_flash_ex.c **** /**
 787:Drivers/STM32F3xx_HAL_Driver/Src/stm32f3xx_hal_flash_ex.c ****   * @brief  Program the FLASH User Option Byte.    
 788:Drivers/STM32F3xx_HAL_Driver/Src/stm32f3xx_hal_flash_ex.c ****   * @note   Programming of the OB should be performed only after an erase (otherwise PGERR occurs)
 789:Drivers/STM32F3xx_HAL_Driver/Src/stm32f3xx_hal_flash_ex.c ****   * @param  UserConfig The FLASH User Option Bytes values: IWDG_SW(Bit0), RST_STOP(Bit1), RST_STDBY
 790:Drivers/STM32F3xx_HAL_Driver/Src/stm32f3xx_hal_flash_ex.c ****   *         VDDA_Analog_Monitoring(Bit5) and SRAM_Parity_Enable(Bit6). 
 791:Drivers/STM32F3xx_HAL_Driver/Src/stm32f3xx_hal_flash_ex.c ****   *         And SDADC12_VDD_MONITOR(Bit7) for STM32F373 or STM32F378 . 
 792:Drivers/STM32F3xx_HAL_Driver/Src/stm32f3xx_hal_flash_ex.c ****   * @retval HAL status
 793:Drivers/STM32F3xx_HAL_Driver/Src/stm32f3xx_hal_flash_ex.c ****   */
ARM GAS  /var/folders/jw/jcj5j9_530958b2rm5vp9wn00000gn/T//ccXdJM12.s 			page 16


 794:Drivers/STM32F3xx_HAL_Driver/Src/stm32f3xx_hal_flash_ex.c **** static HAL_StatusTypeDef FLASH_OB_UserConfig(uint8_t UserConfig)
 795:Drivers/STM32F3xx_HAL_Driver/Src/stm32f3xx_hal_flash_ex.c **** {
 796:Drivers/STM32F3xx_HAL_Driver/Src/stm32f3xx_hal_flash_ex.c ****   HAL_StatusTypeDef status = HAL_OK;
 797:Drivers/STM32F3xx_HAL_Driver/Src/stm32f3xx_hal_flash_ex.c **** 
 798:Drivers/STM32F3xx_HAL_Driver/Src/stm32f3xx_hal_flash_ex.c ****   /* Check the parameters */
 799:Drivers/STM32F3xx_HAL_Driver/Src/stm32f3xx_hal_flash_ex.c ****   assert_param(IS_OB_IWDG_SOURCE((UserConfig&OB_IWDG_SW)));
 800:Drivers/STM32F3xx_HAL_Driver/Src/stm32f3xx_hal_flash_ex.c ****   assert_param(IS_OB_STOP_SOURCE((UserConfig&OB_STOP_NO_RST)));
 801:Drivers/STM32F3xx_HAL_Driver/Src/stm32f3xx_hal_flash_ex.c ****   assert_param(IS_OB_STDBY_SOURCE((UserConfig&OB_STDBY_NO_RST)));
 802:Drivers/STM32F3xx_HAL_Driver/Src/stm32f3xx_hal_flash_ex.c ****   assert_param(IS_OB_BOOT1((UserConfig&OB_BOOT1_SET)));
 803:Drivers/STM32F3xx_HAL_Driver/Src/stm32f3xx_hal_flash_ex.c ****   assert_param(IS_OB_VDDA_ANALOG((UserConfig&OB_VDDA_ANALOG_ON)));
 804:Drivers/STM32F3xx_HAL_Driver/Src/stm32f3xx_hal_flash_ex.c ****   assert_param(IS_OB_SRAM_PARITY((UserConfig&OB_SRAM_PARITY_RESET)));
 805:Drivers/STM32F3xx_HAL_Driver/Src/stm32f3xx_hal_flash_ex.c **** #if defined(FLASH_OBR_SDADC12_VDD_MONITOR)
 806:Drivers/STM32F3xx_HAL_Driver/Src/stm32f3xx_hal_flash_ex.c ****   assert_param(IS_OB_SDACD_VDD_MONITOR((UserConfig&OB_SDACD_VDD_MONITOR_SET)));
 807:Drivers/STM32F3xx_HAL_Driver/Src/stm32f3xx_hal_flash_ex.c **** #endif /* FLASH_OBR_SDADC12_VDD_MONITOR */
 808:Drivers/STM32F3xx_HAL_Driver/Src/stm32f3xx_hal_flash_ex.c **** 
 809:Drivers/STM32F3xx_HAL_Driver/Src/stm32f3xx_hal_flash_ex.c ****   /* Wait for last operation to be completed */
 810:Drivers/STM32F3xx_HAL_Driver/Src/stm32f3xx_hal_flash_ex.c ****   status = FLASH_WaitForLastOperation((uint32_t)FLASH_TIMEOUT_VALUE);
 811:Drivers/STM32F3xx_HAL_Driver/Src/stm32f3xx_hal_flash_ex.c ****   
 812:Drivers/STM32F3xx_HAL_Driver/Src/stm32f3xx_hal_flash_ex.c ****   if(status == HAL_OK)
 813:Drivers/STM32F3xx_HAL_Driver/Src/stm32f3xx_hal_flash_ex.c ****   {     
 814:Drivers/STM32F3xx_HAL_Driver/Src/stm32f3xx_hal_flash_ex.c ****     /* Clean the error context */
 815:Drivers/STM32F3xx_HAL_Driver/Src/stm32f3xx_hal_flash_ex.c ****     pFlash.ErrorCode = HAL_FLASH_ERROR_NONE;
 816:Drivers/STM32F3xx_HAL_Driver/Src/stm32f3xx_hal_flash_ex.c **** 
 817:Drivers/STM32F3xx_HAL_Driver/Src/stm32f3xx_hal_flash_ex.c ****     /* Enable the Option Bytes Programming operation */
 818:Drivers/STM32F3xx_HAL_Driver/Src/stm32f3xx_hal_flash_ex.c ****     SET_BIT(FLASH->CR, FLASH_CR_OPTPG); 
 819:Drivers/STM32F3xx_HAL_Driver/Src/stm32f3xx_hal_flash_ex.c ****  
 820:Drivers/STM32F3xx_HAL_Driver/Src/stm32f3xx_hal_flash_ex.c **** #if   defined(FLASH_OBR_SDADC12_VDD_MONITOR)
 821:Drivers/STM32F3xx_HAL_Driver/Src/stm32f3xx_hal_flash_ex.c ****     OB->USER = (UserConfig | 0x08U);
 822:Drivers/STM32F3xx_HAL_Driver/Src/stm32f3xx_hal_flash_ex.c **** #else
 823:Drivers/STM32F3xx_HAL_Driver/Src/stm32f3xx_hal_flash_ex.c ****     OB->USER = (UserConfig | 0x88U);
 824:Drivers/STM32F3xx_HAL_Driver/Src/stm32f3xx_hal_flash_ex.c **** #endif
 825:Drivers/STM32F3xx_HAL_Driver/Src/stm32f3xx_hal_flash_ex.c **** 
 826:Drivers/STM32F3xx_HAL_Driver/Src/stm32f3xx_hal_flash_ex.c ****     /* Wait for last operation to be completed */
 827:Drivers/STM32F3xx_HAL_Driver/Src/stm32f3xx_hal_flash_ex.c ****     status = FLASH_WaitForLastOperation((uint32_t)FLASH_TIMEOUT_VALUE);
 828:Drivers/STM32F3xx_HAL_Driver/Src/stm32f3xx_hal_flash_ex.c **** 
 829:Drivers/STM32F3xx_HAL_Driver/Src/stm32f3xx_hal_flash_ex.c ****     /* if the program operation is completed, disable the OPTPG Bit */
 830:Drivers/STM32F3xx_HAL_Driver/Src/stm32f3xx_hal_flash_ex.c ****     CLEAR_BIT(FLASH->CR, FLASH_CR_OPTPG);
 831:Drivers/STM32F3xx_HAL_Driver/Src/stm32f3xx_hal_flash_ex.c ****   }
 832:Drivers/STM32F3xx_HAL_Driver/Src/stm32f3xx_hal_flash_ex.c ****   
 833:Drivers/STM32F3xx_HAL_Driver/Src/stm32f3xx_hal_flash_ex.c ****   return status; 
 834:Drivers/STM32F3xx_HAL_Driver/Src/stm32f3xx_hal_flash_ex.c **** }
 835:Drivers/STM32F3xx_HAL_Driver/Src/stm32f3xx_hal_flash_ex.c **** 
 836:Drivers/STM32F3xx_HAL_Driver/Src/stm32f3xx_hal_flash_ex.c **** /**
 837:Drivers/STM32F3xx_HAL_Driver/Src/stm32f3xx_hal_flash_ex.c ****   * @brief  Programs a half word at a specified Option Byte Data address.
 838:Drivers/STM32F3xx_HAL_Driver/Src/stm32f3xx_hal_flash_ex.c ****   * @note   The function @ref HAL_FLASH_Unlock() should be called before to unlock the FLASH interf
 839:Drivers/STM32F3xx_HAL_Driver/Src/stm32f3xx_hal_flash_ex.c ****   *         The function @ref HAL_FLASH_OB_Unlock() should be called before to unlock the options b
 840:Drivers/STM32F3xx_HAL_Driver/Src/stm32f3xx_hal_flash_ex.c ****   *         The function @ref HAL_FLASH_OB_Launch() should be called after to force the reload of t
 841:Drivers/STM32F3xx_HAL_Driver/Src/stm32f3xx_hal_flash_ex.c ****   *         (system reset will occur)
 842:Drivers/STM32F3xx_HAL_Driver/Src/stm32f3xx_hal_flash_ex.c ****   *         Programming of the OB should be performed only after an erase (otherwise PGERR occurs)
 843:Drivers/STM32F3xx_HAL_Driver/Src/stm32f3xx_hal_flash_ex.c ****   * @param  Address specifies the address to be programmed.
 844:Drivers/STM32F3xx_HAL_Driver/Src/stm32f3xx_hal_flash_ex.c ****   *         This parameter can be 0x1FFFF804 or 0x1FFFF806. 
 845:Drivers/STM32F3xx_HAL_Driver/Src/stm32f3xx_hal_flash_ex.c ****   * @param  Data specifies the data to be programmed.
 846:Drivers/STM32F3xx_HAL_Driver/Src/stm32f3xx_hal_flash_ex.c ****   * @retval HAL status
 847:Drivers/STM32F3xx_HAL_Driver/Src/stm32f3xx_hal_flash_ex.c ****   */
 848:Drivers/STM32F3xx_HAL_Driver/Src/stm32f3xx_hal_flash_ex.c **** static HAL_StatusTypeDef FLASH_OB_ProgramData(uint32_t Address, uint8_t Data)
 849:Drivers/STM32F3xx_HAL_Driver/Src/stm32f3xx_hal_flash_ex.c **** {
 850:Drivers/STM32F3xx_HAL_Driver/Src/stm32f3xx_hal_flash_ex.c ****   HAL_StatusTypeDef status = HAL_ERROR;
ARM GAS  /var/folders/jw/jcj5j9_530958b2rm5vp9wn00000gn/T//ccXdJM12.s 			page 17


 851:Drivers/STM32F3xx_HAL_Driver/Src/stm32f3xx_hal_flash_ex.c ****   
 852:Drivers/STM32F3xx_HAL_Driver/Src/stm32f3xx_hal_flash_ex.c ****   /* Check the parameters */
 853:Drivers/STM32F3xx_HAL_Driver/Src/stm32f3xx_hal_flash_ex.c ****   assert_param(IS_OB_DATA_ADDRESS(Address));
 854:Drivers/STM32F3xx_HAL_Driver/Src/stm32f3xx_hal_flash_ex.c ****   
 855:Drivers/STM32F3xx_HAL_Driver/Src/stm32f3xx_hal_flash_ex.c ****   /* Wait for last operation to be completed */
 856:Drivers/STM32F3xx_HAL_Driver/Src/stm32f3xx_hal_flash_ex.c ****   status = FLASH_WaitForLastOperation((uint32_t)FLASH_TIMEOUT_VALUE);
 857:Drivers/STM32F3xx_HAL_Driver/Src/stm32f3xx_hal_flash_ex.c ****   
 858:Drivers/STM32F3xx_HAL_Driver/Src/stm32f3xx_hal_flash_ex.c ****   if(status == HAL_OK)
 859:Drivers/STM32F3xx_HAL_Driver/Src/stm32f3xx_hal_flash_ex.c ****   {
 860:Drivers/STM32F3xx_HAL_Driver/Src/stm32f3xx_hal_flash_ex.c ****     /* Clean the error context */
 861:Drivers/STM32F3xx_HAL_Driver/Src/stm32f3xx_hal_flash_ex.c ****     pFlash.ErrorCode = HAL_FLASH_ERROR_NONE;
 862:Drivers/STM32F3xx_HAL_Driver/Src/stm32f3xx_hal_flash_ex.c **** 
 863:Drivers/STM32F3xx_HAL_Driver/Src/stm32f3xx_hal_flash_ex.c ****     /* Enables the Option Bytes Programming operation */
 864:Drivers/STM32F3xx_HAL_Driver/Src/stm32f3xx_hal_flash_ex.c ****     SET_BIT(FLASH->CR, FLASH_CR_OPTPG); 
 865:Drivers/STM32F3xx_HAL_Driver/Src/stm32f3xx_hal_flash_ex.c ****     *(__IO uint16_t*)Address = Data;
 866:Drivers/STM32F3xx_HAL_Driver/Src/stm32f3xx_hal_flash_ex.c ****     
 867:Drivers/STM32F3xx_HAL_Driver/Src/stm32f3xx_hal_flash_ex.c ****     /* Wait for last operation to be completed */
 868:Drivers/STM32F3xx_HAL_Driver/Src/stm32f3xx_hal_flash_ex.c ****     status = FLASH_WaitForLastOperation((uint32_t)FLASH_TIMEOUT_VALUE);
 869:Drivers/STM32F3xx_HAL_Driver/Src/stm32f3xx_hal_flash_ex.c ****     
 870:Drivers/STM32F3xx_HAL_Driver/Src/stm32f3xx_hal_flash_ex.c ****     /* If the program operation is completed, disable the OPTPG Bit */
 871:Drivers/STM32F3xx_HAL_Driver/Src/stm32f3xx_hal_flash_ex.c ****     CLEAR_BIT(FLASH->CR, FLASH_CR_OPTPG);
 872:Drivers/STM32F3xx_HAL_Driver/Src/stm32f3xx_hal_flash_ex.c ****   }
 873:Drivers/STM32F3xx_HAL_Driver/Src/stm32f3xx_hal_flash_ex.c ****   /* Return the Option Byte Data Program Status */
 874:Drivers/STM32F3xx_HAL_Driver/Src/stm32f3xx_hal_flash_ex.c ****   return status;
 875:Drivers/STM32F3xx_HAL_Driver/Src/stm32f3xx_hal_flash_ex.c **** }
 876:Drivers/STM32F3xx_HAL_Driver/Src/stm32f3xx_hal_flash_ex.c **** 
 877:Drivers/STM32F3xx_HAL_Driver/Src/stm32f3xx_hal_flash_ex.c **** /**
 878:Drivers/STM32F3xx_HAL_Driver/Src/stm32f3xx_hal_flash_ex.c ****   * @brief  Return the FLASH Write Protection Option Bytes value.
 879:Drivers/STM32F3xx_HAL_Driver/Src/stm32f3xx_hal_flash_ex.c ****   * @retval The FLASH Write Protection Option Bytes value
 880:Drivers/STM32F3xx_HAL_Driver/Src/stm32f3xx_hal_flash_ex.c ****   */
 881:Drivers/STM32F3xx_HAL_Driver/Src/stm32f3xx_hal_flash_ex.c **** static uint32_t FLASH_OB_GetWRP(void)
 882:Drivers/STM32F3xx_HAL_Driver/Src/stm32f3xx_hal_flash_ex.c **** {
  66              		.loc 1 882 1 is_stmt 1 view -0
  67              		.cfi_startproc
  68              		@ args = 0, pretend = 0, frame = 0
  69              		@ frame_needed = 0, uses_anonymous_args = 0
  70              		@ link register save eliminated.
 883:Drivers/STM32F3xx_HAL_Driver/Src/stm32f3xx_hal_flash_ex.c ****   /* Return the FLASH write protection Register value */
 884:Drivers/STM32F3xx_HAL_Driver/Src/stm32f3xx_hal_flash_ex.c ****   return (uint32_t)(READ_REG(FLASH->WRPR));
  71              		.loc 1 884 3 view .LVU7
  72              		.loc 1 884 10 is_stmt 0 view .LVU8
  73 0000 014B     		ldr	r3, .L5
  74 0002 186A     		ldr	r0, [r3, #32]
 885:Drivers/STM32F3xx_HAL_Driver/Src/stm32f3xx_hal_flash_ex.c **** }
  75              		.loc 1 885 1 view .LVU9
  76 0004 7047     		bx	lr
  77              	.L6:
  78 0006 00BF     		.align	2
  79              	.L5:
  80 0008 00200240 		.word	1073881088
  81              		.cfi_endproc
  82              	.LFE142:
  84              		.section	.text.FLASH_OB_GetRDP,"ax",%progbits
  85              		.align	1
  86              		.syntax unified
  87              		.thumb
  88              		.thumb_func
ARM GAS  /var/folders/jw/jcj5j9_530958b2rm5vp9wn00000gn/T//ccXdJM12.s 			page 18


  89              		.fpu fpv4-sp-d16
  91              	FLASH_OB_GetRDP:
  92              	.LFB143:
 886:Drivers/STM32F3xx_HAL_Driver/Src/stm32f3xx_hal_flash_ex.c **** 
 887:Drivers/STM32F3xx_HAL_Driver/Src/stm32f3xx_hal_flash_ex.c **** /**
 888:Drivers/STM32F3xx_HAL_Driver/Src/stm32f3xx_hal_flash_ex.c ****   * @brief  Returns the FLASH Read Protection level.
 889:Drivers/STM32F3xx_HAL_Driver/Src/stm32f3xx_hal_flash_ex.c ****   * @retval FLASH RDP level
 890:Drivers/STM32F3xx_HAL_Driver/Src/stm32f3xx_hal_flash_ex.c ****   *         This parameter can be one of the following values:
 891:Drivers/STM32F3xx_HAL_Driver/Src/stm32f3xx_hal_flash_ex.c ****   *            @arg @ref OB_RDP_LEVEL_0 No protection
 892:Drivers/STM32F3xx_HAL_Driver/Src/stm32f3xx_hal_flash_ex.c ****   *            @arg @ref OB_RDP_LEVEL_1 Read protection of the memory
 893:Drivers/STM32F3xx_HAL_Driver/Src/stm32f3xx_hal_flash_ex.c ****   *            @arg @ref OB_RDP_LEVEL_2 Full chip protection
 894:Drivers/STM32F3xx_HAL_Driver/Src/stm32f3xx_hal_flash_ex.c ****   */
 895:Drivers/STM32F3xx_HAL_Driver/Src/stm32f3xx_hal_flash_ex.c **** static uint32_t FLASH_OB_GetRDP(void)
 896:Drivers/STM32F3xx_HAL_Driver/Src/stm32f3xx_hal_flash_ex.c **** {
  93              		.loc 1 896 1 is_stmt 1 view -0
  94              		.cfi_startproc
  95              		@ args = 0, pretend = 0, frame = 0
  96              		@ frame_needed = 0, uses_anonymous_args = 0
  97              		@ link register save eliminated.
 897:Drivers/STM32F3xx_HAL_Driver/Src/stm32f3xx_hal_flash_ex.c ****   uint32_t tmp_reg = 0U;
  98              		.loc 1 897 3 view .LVU11
  99              	.LVL0:
 898:Drivers/STM32F3xx_HAL_Driver/Src/stm32f3xx_hal_flash_ex.c ****   
 899:Drivers/STM32F3xx_HAL_Driver/Src/stm32f3xx_hal_flash_ex.c ****   /* Read RDP level bits */
 900:Drivers/STM32F3xx_HAL_Driver/Src/stm32f3xx_hal_flash_ex.c **** #if defined(FLASH_OBR_RDPRT)
 901:Drivers/STM32F3xx_HAL_Driver/Src/stm32f3xx_hal_flash_ex.c ****   tmp_reg = READ_BIT(FLASH->OBR, FLASH_OBR_RDPRT);
 902:Drivers/STM32F3xx_HAL_Driver/Src/stm32f3xx_hal_flash_ex.c **** #elif defined(FLASH_OBR_LEVEL1_PROT)
 903:Drivers/STM32F3xx_HAL_Driver/Src/stm32f3xx_hal_flash_ex.c ****   tmp_reg = READ_BIT(FLASH->OBR, (FLASH_OBR_LEVEL1_PROT | FLASH_OBR_LEVEL2_PROT));
 100              		.loc 1 903 3 view .LVU12
 101              		.loc 1 903 13 is_stmt 0 view .LVU13
 102 0000 064B     		ldr	r3, .L11
 103 0002 DB69     		ldr	r3, [r3, #28]
 104              		.loc 1 903 11 view .LVU14
 105 0004 03F00603 		and	r3, r3, #6
 106              	.LVL1:
 904:Drivers/STM32F3xx_HAL_Driver/Src/stm32f3xx_hal_flash_ex.c **** #endif /* FLASH_OBR_RDPRT */
 905:Drivers/STM32F3xx_HAL_Driver/Src/stm32f3xx_hal_flash_ex.c **** 
 906:Drivers/STM32F3xx_HAL_Driver/Src/stm32f3xx_hal_flash_ex.c **** #if defined(FLASH_OBR_RDPRT)
 907:Drivers/STM32F3xx_HAL_Driver/Src/stm32f3xx_hal_flash_ex.c ****   if (tmp_reg == FLASH_OBR_RDPRT_2)
 908:Drivers/STM32F3xx_HAL_Driver/Src/stm32f3xx_hal_flash_ex.c **** #elif defined(FLASH_OBR_LEVEL1_PROT)
 909:Drivers/STM32F3xx_HAL_Driver/Src/stm32f3xx_hal_flash_ex.c ****   if (tmp_reg == FLASH_OBR_LEVEL2_PROT)
 107              		.loc 1 909 3 is_stmt 1 view .LVU15
 108              		.loc 1 909 6 is_stmt 0 view .LVU16
 109 0008 042B     		cmp	r3, #4
 110 000a 02D0     		beq	.L9
 910:Drivers/STM32F3xx_HAL_Driver/Src/stm32f3xx_hal_flash_ex.c **** #endif /* FLASH_OBR_RDPRT */
 911:Drivers/STM32F3xx_HAL_Driver/Src/stm32f3xx_hal_flash_ex.c ****   {
 912:Drivers/STM32F3xx_HAL_Driver/Src/stm32f3xx_hal_flash_ex.c ****     return OB_RDP_LEVEL_2;
 913:Drivers/STM32F3xx_HAL_Driver/Src/stm32f3xx_hal_flash_ex.c ****   }
 914:Drivers/STM32F3xx_HAL_Driver/Src/stm32f3xx_hal_flash_ex.c ****   else if (tmp_reg == 0U)
 111              		.loc 1 914 8 is_stmt 1 view .LVU17
 112              		.loc 1 914 11 is_stmt 0 view .LVU18
 113 000c 1BB9     		cbnz	r3, .L10
 915:Drivers/STM32F3xx_HAL_Driver/Src/stm32f3xx_hal_flash_ex.c ****   {
 916:Drivers/STM32F3xx_HAL_Driver/Src/stm32f3xx_hal_flash_ex.c ****     return OB_RDP_LEVEL_0;
 114              		.loc 1 916 12 view .LVU19
 115 000e AA20     		movs	r0, #170
ARM GAS  /var/folders/jw/jcj5j9_530958b2rm5vp9wn00000gn/T//ccXdJM12.s 			page 19


 116 0010 7047     		bx	lr
 117              	.L9:
 912:Drivers/STM32F3xx_HAL_Driver/Src/stm32f3xx_hal_flash_ex.c ****   }
 118              		.loc 1 912 12 view .LVU20
 119 0012 CC20     		movs	r0, #204
 120 0014 7047     		bx	lr
 121              	.L10:
 917:Drivers/STM32F3xx_HAL_Driver/Src/stm32f3xx_hal_flash_ex.c ****   }
 918:Drivers/STM32F3xx_HAL_Driver/Src/stm32f3xx_hal_flash_ex.c ****   else 
 919:Drivers/STM32F3xx_HAL_Driver/Src/stm32f3xx_hal_flash_ex.c ****   {
 920:Drivers/STM32F3xx_HAL_Driver/Src/stm32f3xx_hal_flash_ex.c ****     return OB_RDP_LEVEL_1;
 122              		.loc 1 920 12 view .LVU21
 123 0016 BB20     		movs	r0, #187
 921:Drivers/STM32F3xx_HAL_Driver/Src/stm32f3xx_hal_flash_ex.c ****   }
 922:Drivers/STM32F3xx_HAL_Driver/Src/stm32f3xx_hal_flash_ex.c **** }
 124              		.loc 1 922 1 view .LVU22
 125 0018 7047     		bx	lr
 126              	.L12:
 127 001a 00BF     		.align	2
 128              	.L11:
 129 001c 00200240 		.word	1073881088
 130              		.cfi_endproc
 131              	.LFE143:
 133              		.section	.text.FLASH_OB_RDP_LevelConfig,"ax",%progbits
 134              		.align	1
 135              		.syntax unified
 136              		.thumb
 137              		.thumb_func
 138              		.fpu fpv4-sp-d16
 140              	FLASH_OB_RDP_LevelConfig:
 141              	.LVL2:
 142              	.LFB139:
 744:Drivers/STM32F3xx_HAL_Driver/Src/stm32f3xx_hal_flash_ex.c ****   HAL_StatusTypeDef status = HAL_OK;
 143              		.loc 1 744 1 is_stmt 1 view -0
 144              		.cfi_startproc
 145              		@ args = 0, pretend = 0, frame = 0
 146              		@ frame_needed = 0, uses_anonymous_args = 0
 744:Drivers/STM32F3xx_HAL_Driver/Src/stm32f3xx_hal_flash_ex.c ****   HAL_StatusTypeDef status = HAL_OK;
 147              		.loc 1 744 1 is_stmt 0 view .LVU24
 148 0000 38B5     		push	{r3, r4, r5, lr}
 149              	.LCFI0:
 150              		.cfi_def_cfa_offset 16
 151              		.cfi_offset 3, -16
 152              		.cfi_offset 4, -12
 153              		.cfi_offset 5, -8
 154              		.cfi_offset 14, -4
 155 0002 0546     		mov	r5, r0
 745:Drivers/STM32F3xx_HAL_Driver/Src/stm32f3xx_hal_flash_ex.c ****   
 156              		.loc 1 745 3 is_stmt 1 view .LVU25
 157              	.LVL3:
 748:Drivers/STM32F3xx_HAL_Driver/Src/stm32f3xx_hal_flash_ex.c ****   
 158              		.loc 1 748 3 view .LVU26
 751:Drivers/STM32F3xx_HAL_Driver/Src/stm32f3xx_hal_flash_ex.c ****   
 159              		.loc 1 751 3 view .LVU27
 751:Drivers/STM32F3xx_HAL_Driver/Src/stm32f3xx_hal_flash_ex.c ****   
 160              		.loc 1 751 12 is_stmt 0 view .LVU28
 161 0004 4CF25030 		movw	r0, #50000
ARM GAS  /var/folders/jw/jcj5j9_530958b2rm5vp9wn00000gn/T//ccXdJM12.s 			page 20


 162              	.LVL4:
 751:Drivers/STM32F3xx_HAL_Driver/Src/stm32f3xx_hal_flash_ex.c ****   
 163              		.loc 1 751 12 view .LVU29
 164 0008 FFF7FEFF 		bl	FLASH_WaitForLastOperation
 165              	.LVL5:
 753:Drivers/STM32F3xx_HAL_Driver/Src/stm32f3xx_hal_flash_ex.c ****   { 
 166              		.loc 1 753 3 is_stmt 1 view .LVU30
 753:Drivers/STM32F3xx_HAL_Driver/Src/stm32f3xx_hal_flash_ex.c ****   { 
 167              		.loc 1 753 5 is_stmt 0 view .LVU31
 168 000c 00B1     		cbz	r0, .L16
 169              	.L14:
 170              	.LVL6:
 783:Drivers/STM32F3xx_HAL_Driver/Src/stm32f3xx_hal_flash_ex.c **** }
 171              		.loc 1 783 3 is_stmt 1 view .LVU32
 784:Drivers/STM32F3xx_HAL_Driver/Src/stm32f3xx_hal_flash_ex.c **** 
 172              		.loc 1 784 1 is_stmt 0 view .LVU33
 173 000e 38BD     		pop	{r3, r4, r5, pc}
 174              	.LVL7:
 175              	.L16:
 756:Drivers/STM32F3xx_HAL_Driver/Src/stm32f3xx_hal_flash_ex.c ****     
 176              		.loc 1 756 5 is_stmt 1 view .LVU34
 756:Drivers/STM32F3xx_HAL_Driver/Src/stm32f3xx_hal_flash_ex.c ****     
 177              		.loc 1 756 22 is_stmt 0 view .LVU35
 178 0010 124B     		ldr	r3, .L17
 179 0012 0022     		movs	r2, #0
 180 0014 DA61     		str	r2, [r3, #28]
 759:Drivers/STM32F3xx_HAL_Driver/Src/stm32f3xx_hal_flash_ex.c ****     SET_BIT(FLASH->CR, FLASH_CR_STRT);
 181              		.loc 1 759 5 is_stmt 1 view .LVU36
 182 0016 124C     		ldr	r4, .L17+4
 183 0018 2369     		ldr	r3, [r4, #16]
 184 001a 43F02003 		orr	r3, r3, #32
 185 001e 2361     		str	r3, [r4, #16]
 760:Drivers/STM32F3xx_HAL_Driver/Src/stm32f3xx_hal_flash_ex.c **** 
 186              		.loc 1 760 5 view .LVU37
 187 0020 2369     		ldr	r3, [r4, #16]
 188 0022 43F04003 		orr	r3, r3, #64
 189 0026 2361     		str	r3, [r4, #16]
 763:Drivers/STM32F3xx_HAL_Driver/Src/stm32f3xx_hal_flash_ex.c **** 
 190              		.loc 1 763 5 view .LVU38
 763:Drivers/STM32F3xx_HAL_Driver/Src/stm32f3xx_hal_flash_ex.c **** 
 191              		.loc 1 763 14 is_stmt 0 view .LVU39
 192 0028 4CF25030 		movw	r0, #50000
 193 002c FFF7FEFF 		bl	FLASH_WaitForLastOperation
 194              	.LVL8:
 766:Drivers/STM32F3xx_HAL_Driver/Src/stm32f3xx_hal_flash_ex.c **** 
 195              		.loc 1 766 5 is_stmt 1 view .LVU40
 196 0030 2369     		ldr	r3, [r4, #16]
 197 0032 23F02003 		bic	r3, r3, #32
 198 0036 2361     		str	r3, [r4, #16]
 768:Drivers/STM32F3xx_HAL_Driver/Src/stm32f3xx_hal_flash_ex.c ****     {
 199              		.loc 1 768 5 view .LVU41
 768:Drivers/STM32F3xx_HAL_Driver/Src/stm32f3xx_hal_flash_ex.c ****     {
 200              		.loc 1 768 7 is_stmt 0 view .LVU42
 201 0038 0028     		cmp	r0, #0
 202 003a E8D1     		bne	.L14
 771:Drivers/STM32F3xx_HAL_Driver/Src/stm32f3xx_hal_flash_ex.c ****       
 203              		.loc 1 771 7 is_stmt 1 view .LVU43
ARM GAS  /var/folders/jw/jcj5j9_530958b2rm5vp9wn00000gn/T//ccXdJM12.s 			page 21


 204 003c 2369     		ldr	r3, [r4, #16]
 205 003e 43F01003 		orr	r3, r3, #16
 206 0042 2361     		str	r3, [r4, #16]
 773:Drivers/STM32F3xx_HAL_Driver/Src/stm32f3xx_hal_flash_ex.c ****       
 207              		.loc 1 773 7 view .LVU44
 208 0044 A8B2     		uxth	r0, r5
 209              	.LVL9:
 773:Drivers/STM32F3xx_HAL_Driver/Src/stm32f3xx_hal_flash_ex.c ****       
 210              		.loc 1 773 7 is_stmt 0 view .LVU45
 211 0046 074B     		ldr	r3, .L17+8
 212 0048 1880     		strh	r0, [r3]	@ movhi
 776:Drivers/STM32F3xx_HAL_Driver/Src/stm32f3xx_hal_flash_ex.c ****       
 213              		.loc 1 776 7 is_stmt 1 view .LVU46
 776:Drivers/STM32F3xx_HAL_Driver/Src/stm32f3xx_hal_flash_ex.c ****       
 214              		.loc 1 776 16 is_stmt 0 view .LVU47
 215 004a 4CF25030 		movw	r0, #50000
 216 004e FFF7FEFF 		bl	FLASH_WaitForLastOperation
 217              	.LVL10:
 779:Drivers/STM32F3xx_HAL_Driver/Src/stm32f3xx_hal_flash_ex.c ****     }
 218              		.loc 1 779 7 is_stmt 1 view .LVU48
 219 0052 2369     		ldr	r3, [r4, #16]
 220 0054 23F01003 		bic	r3, r3, #16
 221 0058 2361     		str	r3, [r4, #16]
 222 005a D8E7     		b	.L14
 223              	.L18:
 224              		.align	2
 225              	.L17:
 226 005c 00000000 		.word	pFlash
 227 0060 00200240 		.word	1073881088
 228 0064 00F8FF1F 		.word	536868864
 229              		.cfi_endproc
 230              	.LFE139:
 232              		.section	.text.FLASH_OB_UserConfig,"ax",%progbits
 233              		.align	1
 234              		.syntax unified
 235              		.thumb
 236              		.thumb_func
 237              		.fpu fpv4-sp-d16
 239              	FLASH_OB_UserConfig:
 240              	.LVL11:
 241              	.LFB140:
 795:Drivers/STM32F3xx_HAL_Driver/Src/stm32f3xx_hal_flash_ex.c ****   HAL_StatusTypeDef status = HAL_OK;
 242              		.loc 1 795 1 view -0
 243              		.cfi_startproc
 244              		@ args = 0, pretend = 0, frame = 0
 245              		@ frame_needed = 0, uses_anonymous_args = 0
 795:Drivers/STM32F3xx_HAL_Driver/Src/stm32f3xx_hal_flash_ex.c ****   HAL_StatusTypeDef status = HAL_OK;
 246              		.loc 1 795 1 is_stmt 0 view .LVU50
 247 0000 38B5     		push	{r3, r4, r5, lr}
 248              	.LCFI1:
 249              		.cfi_def_cfa_offset 16
 250              		.cfi_offset 3, -16
 251              		.cfi_offset 4, -12
 252              		.cfi_offset 5, -8
 253              		.cfi_offset 14, -4
 254 0002 0446     		mov	r4, r0
 796:Drivers/STM32F3xx_HAL_Driver/Src/stm32f3xx_hal_flash_ex.c **** 
ARM GAS  /var/folders/jw/jcj5j9_530958b2rm5vp9wn00000gn/T//ccXdJM12.s 			page 22


 255              		.loc 1 796 3 is_stmt 1 view .LVU51
 256              	.LVL12:
 799:Drivers/STM32F3xx_HAL_Driver/Src/stm32f3xx_hal_flash_ex.c ****   assert_param(IS_OB_STOP_SOURCE((UserConfig&OB_STOP_NO_RST)));
 257              		.loc 1 799 3 view .LVU52
 800:Drivers/STM32F3xx_HAL_Driver/Src/stm32f3xx_hal_flash_ex.c ****   assert_param(IS_OB_STDBY_SOURCE((UserConfig&OB_STDBY_NO_RST)));
 258              		.loc 1 800 3 view .LVU53
 801:Drivers/STM32F3xx_HAL_Driver/Src/stm32f3xx_hal_flash_ex.c ****   assert_param(IS_OB_BOOT1((UserConfig&OB_BOOT1_SET)));
 259              		.loc 1 801 3 view .LVU54
 802:Drivers/STM32F3xx_HAL_Driver/Src/stm32f3xx_hal_flash_ex.c ****   assert_param(IS_OB_VDDA_ANALOG((UserConfig&OB_VDDA_ANALOG_ON)));
 260              		.loc 1 802 3 view .LVU55
 803:Drivers/STM32F3xx_HAL_Driver/Src/stm32f3xx_hal_flash_ex.c ****   assert_param(IS_OB_SRAM_PARITY((UserConfig&OB_SRAM_PARITY_RESET)));
 261              		.loc 1 803 3 view .LVU56
 804:Drivers/STM32F3xx_HAL_Driver/Src/stm32f3xx_hal_flash_ex.c **** #if defined(FLASH_OBR_SDADC12_VDD_MONITOR)
 262              		.loc 1 804 3 view .LVU57
 806:Drivers/STM32F3xx_HAL_Driver/Src/stm32f3xx_hal_flash_ex.c **** #endif /* FLASH_OBR_SDADC12_VDD_MONITOR */
 263              		.loc 1 806 3 view .LVU58
 810:Drivers/STM32F3xx_HAL_Driver/Src/stm32f3xx_hal_flash_ex.c ****   
 264              		.loc 1 810 3 view .LVU59
 810:Drivers/STM32F3xx_HAL_Driver/Src/stm32f3xx_hal_flash_ex.c ****   
 265              		.loc 1 810 12 is_stmt 0 view .LVU60
 266 0004 4CF25030 		movw	r0, #50000
 267              	.LVL13:
 810:Drivers/STM32F3xx_HAL_Driver/Src/stm32f3xx_hal_flash_ex.c ****   
 268              		.loc 1 810 12 view .LVU61
 269 0008 FFF7FEFF 		bl	FLASH_WaitForLastOperation
 270              	.LVL14:
 812:Drivers/STM32F3xx_HAL_Driver/Src/stm32f3xx_hal_flash_ex.c ****   {     
 271              		.loc 1 812 3 is_stmt 1 view .LVU62
 812:Drivers/STM32F3xx_HAL_Driver/Src/stm32f3xx_hal_flash_ex.c ****   {     
 272              		.loc 1 812 5 is_stmt 0 view .LVU63
 273 000c 00B1     		cbz	r0, .L22
 274              	.L20:
 275              	.LVL15:
 833:Drivers/STM32F3xx_HAL_Driver/Src/stm32f3xx_hal_flash_ex.c **** }
 276              		.loc 1 833 3 is_stmt 1 view .LVU64
 834:Drivers/STM32F3xx_HAL_Driver/Src/stm32f3xx_hal_flash_ex.c **** 
 277              		.loc 1 834 1 is_stmt 0 view .LVU65
 278 000e 38BD     		pop	{r3, r4, r5, pc}
 279              	.LVL16:
 280              	.L22:
 815:Drivers/STM32F3xx_HAL_Driver/Src/stm32f3xx_hal_flash_ex.c **** 
 281              		.loc 1 815 5 is_stmt 1 view .LVU66
 815:Drivers/STM32F3xx_HAL_Driver/Src/stm32f3xx_hal_flash_ex.c **** 
 282              		.loc 1 815 22 is_stmt 0 view .LVU67
 283 0010 0A4B     		ldr	r3, .L23
 284 0012 0022     		movs	r2, #0
 285 0014 DA61     		str	r2, [r3, #28]
 818:Drivers/STM32F3xx_HAL_Driver/Src/stm32f3xx_hal_flash_ex.c ****  
 286              		.loc 1 818 5 is_stmt 1 view .LVU68
 287 0016 0A4D     		ldr	r5, .L23+4
 288 0018 2B69     		ldr	r3, [r5, #16]
 289 001a 43F01003 		orr	r3, r3, #16
 290 001e 2B61     		str	r3, [r5, #16]
 821:Drivers/STM32F3xx_HAL_Driver/Src/stm32f3xx_hal_flash_ex.c **** #else
 291              		.loc 1 821 5 view .LVU69
 821:Drivers/STM32F3xx_HAL_Driver/Src/stm32f3xx_hal_flash_ex.c **** #else
 292              		.loc 1 821 14 is_stmt 0 view .LVU70
ARM GAS  /var/folders/jw/jcj5j9_530958b2rm5vp9wn00000gn/T//ccXdJM12.s 			page 23


 293 0020 44F00800 		orr	r0, r4, #8
 294 0024 074B     		ldr	r3, .L23+8
 295 0026 5880     		strh	r0, [r3, #2]	@ movhi
 827:Drivers/STM32F3xx_HAL_Driver/Src/stm32f3xx_hal_flash_ex.c **** 
 296              		.loc 1 827 5 is_stmt 1 view .LVU71
 827:Drivers/STM32F3xx_HAL_Driver/Src/stm32f3xx_hal_flash_ex.c **** 
 297              		.loc 1 827 14 is_stmt 0 view .LVU72
 298 0028 4CF25030 		movw	r0, #50000
 299 002c FFF7FEFF 		bl	FLASH_WaitForLastOperation
 300              	.LVL17:
 830:Drivers/STM32F3xx_HAL_Driver/Src/stm32f3xx_hal_flash_ex.c ****   }
 301              		.loc 1 830 5 is_stmt 1 view .LVU73
 302 0030 2B69     		ldr	r3, [r5, #16]
 303 0032 23F01003 		bic	r3, r3, #16
 304 0036 2B61     		str	r3, [r5, #16]
 305 0038 E9E7     		b	.L20
 306              	.L24:
 307 003a 00BF     		.align	2
 308              	.L23:
 309 003c 00000000 		.word	pFlash
 310 0040 00200240 		.word	1073881088
 311 0044 00F8FF1F 		.word	536868864
 312              		.cfi_endproc
 313              	.LFE140:
 315              		.section	.text.FLASH_OB_ProgramData,"ax",%progbits
 316              		.align	1
 317              		.syntax unified
 318              		.thumb
 319              		.thumb_func
 320              		.fpu fpv4-sp-d16
 322              	FLASH_OB_ProgramData:
 323              	.LVL18:
 324              	.LFB141:
 849:Drivers/STM32F3xx_HAL_Driver/Src/stm32f3xx_hal_flash_ex.c ****   HAL_StatusTypeDef status = HAL_ERROR;
 325              		.loc 1 849 1 view -0
 326              		.cfi_startproc
 327              		@ args = 0, pretend = 0, frame = 0
 328              		@ frame_needed = 0, uses_anonymous_args = 0
 849:Drivers/STM32F3xx_HAL_Driver/Src/stm32f3xx_hal_flash_ex.c ****   HAL_StatusTypeDef status = HAL_ERROR;
 329              		.loc 1 849 1 is_stmt 0 view .LVU75
 330 0000 70B5     		push	{r4, r5, r6, lr}
 331              	.LCFI2:
 332              		.cfi_def_cfa_offset 16
 333              		.cfi_offset 4, -16
 334              		.cfi_offset 5, -12
 335              		.cfi_offset 6, -8
 336              		.cfi_offset 14, -4
 337 0002 0546     		mov	r5, r0
 338 0004 0C46     		mov	r4, r1
 850:Drivers/STM32F3xx_HAL_Driver/Src/stm32f3xx_hal_flash_ex.c ****   
 339              		.loc 1 850 3 is_stmt 1 view .LVU76
 340              	.LVL19:
 853:Drivers/STM32F3xx_HAL_Driver/Src/stm32f3xx_hal_flash_ex.c ****   
 341              		.loc 1 853 3 view .LVU77
 856:Drivers/STM32F3xx_HAL_Driver/Src/stm32f3xx_hal_flash_ex.c ****   
 342              		.loc 1 856 3 view .LVU78
 856:Drivers/STM32F3xx_HAL_Driver/Src/stm32f3xx_hal_flash_ex.c ****   
ARM GAS  /var/folders/jw/jcj5j9_530958b2rm5vp9wn00000gn/T//ccXdJM12.s 			page 24


 343              		.loc 1 856 12 is_stmt 0 view .LVU79
 344 0006 4CF25030 		movw	r0, #50000
 345              	.LVL20:
 856:Drivers/STM32F3xx_HAL_Driver/Src/stm32f3xx_hal_flash_ex.c ****   
 346              		.loc 1 856 12 view .LVU80
 347 000a FFF7FEFF 		bl	FLASH_WaitForLastOperation
 348              	.LVL21:
 858:Drivers/STM32F3xx_HAL_Driver/Src/stm32f3xx_hal_flash_ex.c ****   {
 349              		.loc 1 858 3 is_stmt 1 view .LVU81
 858:Drivers/STM32F3xx_HAL_Driver/Src/stm32f3xx_hal_flash_ex.c ****   {
 350              		.loc 1 858 5 is_stmt 0 view .LVU82
 351 000e 00B1     		cbz	r0, .L28
 352              	.L26:
 353              	.LVL22:
 874:Drivers/STM32F3xx_HAL_Driver/Src/stm32f3xx_hal_flash_ex.c **** }
 354              		.loc 1 874 3 is_stmt 1 view .LVU83
 875:Drivers/STM32F3xx_HAL_Driver/Src/stm32f3xx_hal_flash_ex.c **** 
 355              		.loc 1 875 1 is_stmt 0 view .LVU84
 356 0010 70BD     		pop	{r4, r5, r6, pc}
 357              	.LVL23:
 358              	.L28:
 861:Drivers/STM32F3xx_HAL_Driver/Src/stm32f3xx_hal_flash_ex.c **** 
 359              		.loc 1 861 5 is_stmt 1 view .LVU85
 861:Drivers/STM32F3xx_HAL_Driver/Src/stm32f3xx_hal_flash_ex.c **** 
 360              		.loc 1 861 22 is_stmt 0 view .LVU86
 361 0012 094B     		ldr	r3, .L29
 362 0014 0022     		movs	r2, #0
 363 0016 DA61     		str	r2, [r3, #28]
 864:Drivers/STM32F3xx_HAL_Driver/Src/stm32f3xx_hal_flash_ex.c ****     *(__IO uint16_t*)Address = Data;
 364              		.loc 1 864 5 is_stmt 1 view .LVU87
 365 0018 084E     		ldr	r6, .L29+4
 366 001a 3369     		ldr	r3, [r6, #16]
 367 001c 43F01003 		orr	r3, r3, #16
 368 0020 3361     		str	r3, [r6, #16]
 865:Drivers/STM32F3xx_HAL_Driver/Src/stm32f3xx_hal_flash_ex.c ****     
 369              		.loc 1 865 5 view .LVU88
 865:Drivers/STM32F3xx_HAL_Driver/Src/stm32f3xx_hal_flash_ex.c ****     
 370              		.loc 1 865 30 is_stmt 0 view .LVU89
 371 0022 A1B2     		uxth	r1, r4
 372 0024 2980     		strh	r1, [r5]	@ movhi
 868:Drivers/STM32F3xx_HAL_Driver/Src/stm32f3xx_hal_flash_ex.c ****     
 373              		.loc 1 868 5 is_stmt 1 view .LVU90
 868:Drivers/STM32F3xx_HAL_Driver/Src/stm32f3xx_hal_flash_ex.c ****     
 374              		.loc 1 868 14 is_stmt 0 view .LVU91
 375 0026 4CF25030 		movw	r0, #50000
 376 002a FFF7FEFF 		bl	FLASH_WaitForLastOperation
 377              	.LVL24:
 871:Drivers/STM32F3xx_HAL_Driver/Src/stm32f3xx_hal_flash_ex.c ****   }
 378              		.loc 1 871 5 is_stmt 1 view .LVU92
 379 002e 3369     		ldr	r3, [r6, #16]
 380 0030 23F01003 		bic	r3, r3, #16
 381 0034 3361     		str	r3, [r6, #16]
 382 0036 EBE7     		b	.L26
 383              	.L30:
 384              		.align	2
 385              	.L29:
 386 0038 00000000 		.word	pFlash
ARM GAS  /var/folders/jw/jcj5j9_530958b2rm5vp9wn00000gn/T//ccXdJM12.s 			page 25


 387 003c 00200240 		.word	1073881088
 388              		.cfi_endproc
 389              	.LFE141:
 391              		.section	.text.FLASH_OB_GetUser,"ax",%progbits
 392              		.align	1
 393              		.syntax unified
 394              		.thumb
 395              		.thumb_func
 396              		.fpu fpv4-sp-d16
 398              	FLASH_OB_GetUser:
 399              	.LFB144:
 923:Drivers/STM32F3xx_HAL_Driver/Src/stm32f3xx_hal_flash_ex.c **** 
 924:Drivers/STM32F3xx_HAL_Driver/Src/stm32f3xx_hal_flash_ex.c **** /**
 925:Drivers/STM32F3xx_HAL_Driver/Src/stm32f3xx_hal_flash_ex.c ****   * @brief  Return the FLASH User Option Byte value.
 926:Drivers/STM32F3xx_HAL_Driver/Src/stm32f3xx_hal_flash_ex.c ****   * @retval  The FLASH User Option Bytes values: IWDG_SW(Bit0), RST_STOP(Bit1), RST_STDBY(Bit2), nB
 927:Drivers/STM32F3xx_HAL_Driver/Src/stm32f3xx_hal_flash_ex.c ****   *         VDDA_Analog_Monitoring(Bit5) and SRAM_Parity_Enable(Bit6). 
 928:Drivers/STM32F3xx_HAL_Driver/Src/stm32f3xx_hal_flash_ex.c ****   *         And SDADC12_VDD_MONITOR(Bit7) for STM32F373 or STM32F378 . 
 929:Drivers/STM32F3xx_HAL_Driver/Src/stm32f3xx_hal_flash_ex.c ****   */
 930:Drivers/STM32F3xx_HAL_Driver/Src/stm32f3xx_hal_flash_ex.c **** static uint8_t FLASH_OB_GetUser(void)
 931:Drivers/STM32F3xx_HAL_Driver/Src/stm32f3xx_hal_flash_ex.c **** {
 400              		.loc 1 931 1 view -0
 401              		.cfi_startproc
 402              		@ args = 0, pretend = 0, frame = 0
 403              		@ frame_needed = 0, uses_anonymous_args = 0
 404              		@ link register save eliminated.
 932:Drivers/STM32F3xx_HAL_Driver/Src/stm32f3xx_hal_flash_ex.c ****   /* Return the User Option Byte */
 933:Drivers/STM32F3xx_HAL_Driver/Src/stm32f3xx_hal_flash_ex.c ****   return (uint8_t)((READ_REG(FLASH->OBR) & FLASH_OBR_USER) >> FLASH_POSITION_IWDGSW_BIT);
 405              		.loc 1 933 3 view .LVU94
 406              		.loc 1 933 21 is_stmt 0 view .LVU95
 407 0000 064B     		ldr	r3, .L32
 408 0002 D869     		ldr	r0, [r3, #28]
 409              		.loc 1 933 42 view .LVU96
 410 0004 00F47740 		and	r0, r0, #63232
 411              	.LVL25:
 412              	.LBB8:
 413              	.LBI8:
 414              		.file 2 "Drivers/CMSIS/Include/cmsis_gcc.h"
   1:Drivers/CMSIS/Include/cmsis_gcc.h **** /**************************************************************************//**
   2:Drivers/CMSIS/Include/cmsis_gcc.h ****  * @file     cmsis_gcc.h
   3:Drivers/CMSIS/Include/cmsis_gcc.h ****  * @brief    CMSIS compiler GCC header file
   4:Drivers/CMSIS/Include/cmsis_gcc.h ****  * @version  V5.0.4
   5:Drivers/CMSIS/Include/cmsis_gcc.h ****  * @date     09. April 2018
   6:Drivers/CMSIS/Include/cmsis_gcc.h ****  ******************************************************************************/
   7:Drivers/CMSIS/Include/cmsis_gcc.h **** /*
   8:Drivers/CMSIS/Include/cmsis_gcc.h ****  * Copyright (c) 2009-2018 Arm Limited. All rights reserved.
   9:Drivers/CMSIS/Include/cmsis_gcc.h ****  *
  10:Drivers/CMSIS/Include/cmsis_gcc.h ****  * SPDX-License-Identifier: Apache-2.0
  11:Drivers/CMSIS/Include/cmsis_gcc.h ****  *
  12:Drivers/CMSIS/Include/cmsis_gcc.h ****  * Licensed under the Apache License, Version 2.0 (the License); you may
  13:Drivers/CMSIS/Include/cmsis_gcc.h ****  * not use this file except in compliance with the License.
  14:Drivers/CMSIS/Include/cmsis_gcc.h ****  * You may obtain a copy of the License at
  15:Drivers/CMSIS/Include/cmsis_gcc.h ****  *
  16:Drivers/CMSIS/Include/cmsis_gcc.h ****  * www.apache.org/licenses/LICENSE-2.0
  17:Drivers/CMSIS/Include/cmsis_gcc.h ****  *
  18:Drivers/CMSIS/Include/cmsis_gcc.h ****  * Unless required by applicable law or agreed to in writing, software
  19:Drivers/CMSIS/Include/cmsis_gcc.h ****  * distributed under the License is distributed on an AS IS BASIS, WITHOUT
  20:Drivers/CMSIS/Include/cmsis_gcc.h ****  * WARRANTIES OR CONDITIONS OF ANY KIND, either express or implied.
ARM GAS  /var/folders/jw/jcj5j9_530958b2rm5vp9wn00000gn/T//ccXdJM12.s 			page 26


  21:Drivers/CMSIS/Include/cmsis_gcc.h ****  * See the License for the specific language governing permissions and
  22:Drivers/CMSIS/Include/cmsis_gcc.h ****  * limitations under the License.
  23:Drivers/CMSIS/Include/cmsis_gcc.h ****  */
  24:Drivers/CMSIS/Include/cmsis_gcc.h **** 
  25:Drivers/CMSIS/Include/cmsis_gcc.h **** #ifndef __CMSIS_GCC_H
  26:Drivers/CMSIS/Include/cmsis_gcc.h **** #define __CMSIS_GCC_H
  27:Drivers/CMSIS/Include/cmsis_gcc.h **** 
  28:Drivers/CMSIS/Include/cmsis_gcc.h **** /* ignore some GCC warnings */
  29:Drivers/CMSIS/Include/cmsis_gcc.h **** #pragma GCC diagnostic push
  30:Drivers/CMSIS/Include/cmsis_gcc.h **** #pragma GCC diagnostic ignored "-Wsign-conversion"
  31:Drivers/CMSIS/Include/cmsis_gcc.h **** #pragma GCC diagnostic ignored "-Wconversion"
  32:Drivers/CMSIS/Include/cmsis_gcc.h **** #pragma GCC diagnostic ignored "-Wunused-parameter"
  33:Drivers/CMSIS/Include/cmsis_gcc.h **** 
  34:Drivers/CMSIS/Include/cmsis_gcc.h **** /* Fallback for __has_builtin */
  35:Drivers/CMSIS/Include/cmsis_gcc.h **** #ifndef __has_builtin
  36:Drivers/CMSIS/Include/cmsis_gcc.h ****   #define __has_builtin(x) (0)
  37:Drivers/CMSIS/Include/cmsis_gcc.h **** #endif
  38:Drivers/CMSIS/Include/cmsis_gcc.h **** 
  39:Drivers/CMSIS/Include/cmsis_gcc.h **** /* CMSIS compiler specific defines */
  40:Drivers/CMSIS/Include/cmsis_gcc.h **** #ifndef   __ASM
  41:Drivers/CMSIS/Include/cmsis_gcc.h ****   #define __ASM                                  __asm
  42:Drivers/CMSIS/Include/cmsis_gcc.h **** #endif
  43:Drivers/CMSIS/Include/cmsis_gcc.h **** #ifndef   __INLINE
  44:Drivers/CMSIS/Include/cmsis_gcc.h ****   #define __INLINE                               inline
  45:Drivers/CMSIS/Include/cmsis_gcc.h **** #endif
  46:Drivers/CMSIS/Include/cmsis_gcc.h **** #ifndef   __STATIC_INLINE
  47:Drivers/CMSIS/Include/cmsis_gcc.h ****   #define __STATIC_INLINE                        static inline
  48:Drivers/CMSIS/Include/cmsis_gcc.h **** #endif
  49:Drivers/CMSIS/Include/cmsis_gcc.h **** #ifndef   __STATIC_FORCEINLINE                 
  50:Drivers/CMSIS/Include/cmsis_gcc.h ****   #define __STATIC_FORCEINLINE                   __attribute__((always_inline)) static inline
  51:Drivers/CMSIS/Include/cmsis_gcc.h **** #endif                                           
  52:Drivers/CMSIS/Include/cmsis_gcc.h **** #ifndef   __NO_RETURN
  53:Drivers/CMSIS/Include/cmsis_gcc.h ****   #define __NO_RETURN                            __attribute__((__noreturn__))
  54:Drivers/CMSIS/Include/cmsis_gcc.h **** #endif
  55:Drivers/CMSIS/Include/cmsis_gcc.h **** #ifndef   __USED
  56:Drivers/CMSIS/Include/cmsis_gcc.h ****   #define __USED                                 __attribute__((used))
  57:Drivers/CMSIS/Include/cmsis_gcc.h **** #endif
  58:Drivers/CMSIS/Include/cmsis_gcc.h **** #ifndef   __WEAK
  59:Drivers/CMSIS/Include/cmsis_gcc.h ****   #define __WEAK                                 __attribute__((weak))
  60:Drivers/CMSIS/Include/cmsis_gcc.h **** #endif
  61:Drivers/CMSIS/Include/cmsis_gcc.h **** #ifndef   __PACKED
  62:Drivers/CMSIS/Include/cmsis_gcc.h ****   #define __PACKED                               __attribute__((packed, aligned(1)))
  63:Drivers/CMSIS/Include/cmsis_gcc.h **** #endif
  64:Drivers/CMSIS/Include/cmsis_gcc.h **** #ifndef   __PACKED_STRUCT
  65:Drivers/CMSIS/Include/cmsis_gcc.h ****   #define __PACKED_STRUCT                        struct __attribute__((packed, aligned(1)))
  66:Drivers/CMSIS/Include/cmsis_gcc.h **** #endif
  67:Drivers/CMSIS/Include/cmsis_gcc.h **** #ifndef   __PACKED_UNION
  68:Drivers/CMSIS/Include/cmsis_gcc.h ****   #define __PACKED_UNION                         union __attribute__((packed, aligned(1)))
  69:Drivers/CMSIS/Include/cmsis_gcc.h **** #endif
  70:Drivers/CMSIS/Include/cmsis_gcc.h **** #ifndef   __UNALIGNED_UINT32        /* deprecated */
  71:Drivers/CMSIS/Include/cmsis_gcc.h ****   #pragma GCC diagnostic push
  72:Drivers/CMSIS/Include/cmsis_gcc.h ****   #pragma GCC diagnostic ignored "-Wpacked"
  73:Drivers/CMSIS/Include/cmsis_gcc.h ****   #pragma GCC diagnostic ignored "-Wattributes"
  74:Drivers/CMSIS/Include/cmsis_gcc.h ****   struct __attribute__((packed)) T_UINT32 { uint32_t v; };
  75:Drivers/CMSIS/Include/cmsis_gcc.h ****   #pragma GCC diagnostic pop
  76:Drivers/CMSIS/Include/cmsis_gcc.h ****   #define __UNALIGNED_UINT32(x)                  (((struct T_UINT32 *)(x))->v)
  77:Drivers/CMSIS/Include/cmsis_gcc.h **** #endif
ARM GAS  /var/folders/jw/jcj5j9_530958b2rm5vp9wn00000gn/T//ccXdJM12.s 			page 27


  78:Drivers/CMSIS/Include/cmsis_gcc.h **** #ifndef   __UNALIGNED_UINT16_WRITE
  79:Drivers/CMSIS/Include/cmsis_gcc.h ****   #pragma GCC diagnostic push
  80:Drivers/CMSIS/Include/cmsis_gcc.h ****   #pragma GCC diagnostic ignored "-Wpacked"
  81:Drivers/CMSIS/Include/cmsis_gcc.h ****   #pragma GCC diagnostic ignored "-Wattributes"
  82:Drivers/CMSIS/Include/cmsis_gcc.h ****   __PACKED_STRUCT T_UINT16_WRITE { uint16_t v; };
  83:Drivers/CMSIS/Include/cmsis_gcc.h ****   #pragma GCC diagnostic pop
  84:Drivers/CMSIS/Include/cmsis_gcc.h ****   #define __UNALIGNED_UINT16_WRITE(addr, val)    (void)((((struct T_UINT16_WRITE *)(void *)(addr))-
  85:Drivers/CMSIS/Include/cmsis_gcc.h **** #endif
  86:Drivers/CMSIS/Include/cmsis_gcc.h **** #ifndef   __UNALIGNED_UINT16_READ
  87:Drivers/CMSIS/Include/cmsis_gcc.h ****   #pragma GCC diagnostic push
  88:Drivers/CMSIS/Include/cmsis_gcc.h ****   #pragma GCC diagnostic ignored "-Wpacked"
  89:Drivers/CMSIS/Include/cmsis_gcc.h ****   #pragma GCC diagnostic ignored "-Wattributes"
  90:Drivers/CMSIS/Include/cmsis_gcc.h ****   __PACKED_STRUCT T_UINT16_READ { uint16_t v; };
  91:Drivers/CMSIS/Include/cmsis_gcc.h ****   #pragma GCC diagnostic pop
  92:Drivers/CMSIS/Include/cmsis_gcc.h ****   #define __UNALIGNED_UINT16_READ(addr)          (((const struct T_UINT16_READ *)(const void *)(add
  93:Drivers/CMSIS/Include/cmsis_gcc.h **** #endif
  94:Drivers/CMSIS/Include/cmsis_gcc.h **** #ifndef   __UNALIGNED_UINT32_WRITE
  95:Drivers/CMSIS/Include/cmsis_gcc.h ****   #pragma GCC diagnostic push
  96:Drivers/CMSIS/Include/cmsis_gcc.h ****   #pragma GCC diagnostic ignored "-Wpacked"
  97:Drivers/CMSIS/Include/cmsis_gcc.h ****   #pragma GCC diagnostic ignored "-Wattributes"
  98:Drivers/CMSIS/Include/cmsis_gcc.h ****   __PACKED_STRUCT T_UINT32_WRITE { uint32_t v; };
  99:Drivers/CMSIS/Include/cmsis_gcc.h ****   #pragma GCC diagnostic pop
 100:Drivers/CMSIS/Include/cmsis_gcc.h ****   #define __UNALIGNED_UINT32_WRITE(addr, val)    (void)((((struct T_UINT32_WRITE *)(void *)(addr))-
 101:Drivers/CMSIS/Include/cmsis_gcc.h **** #endif
 102:Drivers/CMSIS/Include/cmsis_gcc.h **** #ifndef   __UNALIGNED_UINT32_READ
 103:Drivers/CMSIS/Include/cmsis_gcc.h ****   #pragma GCC diagnostic push
 104:Drivers/CMSIS/Include/cmsis_gcc.h ****   #pragma GCC diagnostic ignored "-Wpacked"
 105:Drivers/CMSIS/Include/cmsis_gcc.h ****   #pragma GCC diagnostic ignored "-Wattributes"
 106:Drivers/CMSIS/Include/cmsis_gcc.h ****   __PACKED_STRUCT T_UINT32_READ { uint32_t v; };
 107:Drivers/CMSIS/Include/cmsis_gcc.h ****   #pragma GCC diagnostic pop
 108:Drivers/CMSIS/Include/cmsis_gcc.h ****   #define __UNALIGNED_UINT32_READ(addr)          (((const struct T_UINT32_READ *)(const void *)(add
 109:Drivers/CMSIS/Include/cmsis_gcc.h **** #endif
 110:Drivers/CMSIS/Include/cmsis_gcc.h **** #ifndef   __ALIGNED
 111:Drivers/CMSIS/Include/cmsis_gcc.h ****   #define __ALIGNED(x)                           __attribute__((aligned(x)))
 112:Drivers/CMSIS/Include/cmsis_gcc.h **** #endif
 113:Drivers/CMSIS/Include/cmsis_gcc.h **** #ifndef   __RESTRICT
 114:Drivers/CMSIS/Include/cmsis_gcc.h ****   #define __RESTRICT                             __restrict
 115:Drivers/CMSIS/Include/cmsis_gcc.h **** #endif
 116:Drivers/CMSIS/Include/cmsis_gcc.h **** 
 117:Drivers/CMSIS/Include/cmsis_gcc.h **** 
 118:Drivers/CMSIS/Include/cmsis_gcc.h **** /* ###########################  Core Function Access  ########################### */
 119:Drivers/CMSIS/Include/cmsis_gcc.h **** /** \ingroup  CMSIS_Core_FunctionInterface
 120:Drivers/CMSIS/Include/cmsis_gcc.h ****     \defgroup CMSIS_Core_RegAccFunctions CMSIS Core Register Access Functions
 121:Drivers/CMSIS/Include/cmsis_gcc.h ****   @{
 122:Drivers/CMSIS/Include/cmsis_gcc.h ****  */
 123:Drivers/CMSIS/Include/cmsis_gcc.h **** 
 124:Drivers/CMSIS/Include/cmsis_gcc.h **** /**
 125:Drivers/CMSIS/Include/cmsis_gcc.h ****   \brief   Enable IRQ Interrupts
 126:Drivers/CMSIS/Include/cmsis_gcc.h ****   \details Enables IRQ interrupts by clearing the I-bit in the CPSR.
 127:Drivers/CMSIS/Include/cmsis_gcc.h ****            Can only be executed in Privileged modes.
 128:Drivers/CMSIS/Include/cmsis_gcc.h ****  */
 129:Drivers/CMSIS/Include/cmsis_gcc.h **** __STATIC_FORCEINLINE void __enable_irq(void)
 130:Drivers/CMSIS/Include/cmsis_gcc.h **** {
 131:Drivers/CMSIS/Include/cmsis_gcc.h ****   __ASM volatile ("cpsie i" : : : "memory");
 132:Drivers/CMSIS/Include/cmsis_gcc.h **** }
 133:Drivers/CMSIS/Include/cmsis_gcc.h **** 
 134:Drivers/CMSIS/Include/cmsis_gcc.h **** 
ARM GAS  /var/folders/jw/jcj5j9_530958b2rm5vp9wn00000gn/T//ccXdJM12.s 			page 28


 135:Drivers/CMSIS/Include/cmsis_gcc.h **** /**
 136:Drivers/CMSIS/Include/cmsis_gcc.h ****   \brief   Disable IRQ Interrupts
 137:Drivers/CMSIS/Include/cmsis_gcc.h ****   \details Disables IRQ interrupts by setting the I-bit in the CPSR.
 138:Drivers/CMSIS/Include/cmsis_gcc.h ****            Can only be executed in Privileged modes.
 139:Drivers/CMSIS/Include/cmsis_gcc.h ****  */
 140:Drivers/CMSIS/Include/cmsis_gcc.h **** __STATIC_FORCEINLINE void __disable_irq(void)
 141:Drivers/CMSIS/Include/cmsis_gcc.h **** {
 142:Drivers/CMSIS/Include/cmsis_gcc.h ****   __ASM volatile ("cpsid i" : : : "memory");
 143:Drivers/CMSIS/Include/cmsis_gcc.h **** }
 144:Drivers/CMSIS/Include/cmsis_gcc.h **** 
 145:Drivers/CMSIS/Include/cmsis_gcc.h **** 
 146:Drivers/CMSIS/Include/cmsis_gcc.h **** /**
 147:Drivers/CMSIS/Include/cmsis_gcc.h ****   \brief   Get Control Register
 148:Drivers/CMSIS/Include/cmsis_gcc.h ****   \details Returns the content of the Control Register.
 149:Drivers/CMSIS/Include/cmsis_gcc.h ****   \return               Control Register value
 150:Drivers/CMSIS/Include/cmsis_gcc.h ****  */
 151:Drivers/CMSIS/Include/cmsis_gcc.h **** __STATIC_FORCEINLINE uint32_t __get_CONTROL(void)
 152:Drivers/CMSIS/Include/cmsis_gcc.h **** {
 153:Drivers/CMSIS/Include/cmsis_gcc.h ****   uint32_t result;
 154:Drivers/CMSIS/Include/cmsis_gcc.h **** 
 155:Drivers/CMSIS/Include/cmsis_gcc.h ****   __ASM volatile ("MRS %0, control" : "=r" (result) );
 156:Drivers/CMSIS/Include/cmsis_gcc.h ****   return(result);
 157:Drivers/CMSIS/Include/cmsis_gcc.h **** }
 158:Drivers/CMSIS/Include/cmsis_gcc.h **** 
 159:Drivers/CMSIS/Include/cmsis_gcc.h **** 
 160:Drivers/CMSIS/Include/cmsis_gcc.h **** #if (defined (__ARM_FEATURE_CMSE ) && (__ARM_FEATURE_CMSE == 3))
 161:Drivers/CMSIS/Include/cmsis_gcc.h **** /**
 162:Drivers/CMSIS/Include/cmsis_gcc.h ****   \brief   Get Control Register (non-secure)
 163:Drivers/CMSIS/Include/cmsis_gcc.h ****   \details Returns the content of the non-secure Control Register when in secure mode.
 164:Drivers/CMSIS/Include/cmsis_gcc.h ****   \return               non-secure Control Register value
 165:Drivers/CMSIS/Include/cmsis_gcc.h ****  */
 166:Drivers/CMSIS/Include/cmsis_gcc.h **** __STATIC_FORCEINLINE uint32_t __TZ_get_CONTROL_NS(void)
 167:Drivers/CMSIS/Include/cmsis_gcc.h **** {
 168:Drivers/CMSIS/Include/cmsis_gcc.h ****   uint32_t result;
 169:Drivers/CMSIS/Include/cmsis_gcc.h **** 
 170:Drivers/CMSIS/Include/cmsis_gcc.h ****   __ASM volatile ("MRS %0, control_ns" : "=r" (result) );
 171:Drivers/CMSIS/Include/cmsis_gcc.h ****   return(result);
 172:Drivers/CMSIS/Include/cmsis_gcc.h **** }
 173:Drivers/CMSIS/Include/cmsis_gcc.h **** #endif
 174:Drivers/CMSIS/Include/cmsis_gcc.h **** 
 175:Drivers/CMSIS/Include/cmsis_gcc.h **** 
 176:Drivers/CMSIS/Include/cmsis_gcc.h **** /**
 177:Drivers/CMSIS/Include/cmsis_gcc.h ****   \brief   Set Control Register
 178:Drivers/CMSIS/Include/cmsis_gcc.h ****   \details Writes the given value to the Control Register.
 179:Drivers/CMSIS/Include/cmsis_gcc.h ****   \param [in]    control  Control Register value to set
 180:Drivers/CMSIS/Include/cmsis_gcc.h ****  */
 181:Drivers/CMSIS/Include/cmsis_gcc.h **** __STATIC_FORCEINLINE void __set_CONTROL(uint32_t control)
 182:Drivers/CMSIS/Include/cmsis_gcc.h **** {
 183:Drivers/CMSIS/Include/cmsis_gcc.h ****   __ASM volatile ("MSR control, %0" : : "r" (control) : "memory");
 184:Drivers/CMSIS/Include/cmsis_gcc.h **** }
 185:Drivers/CMSIS/Include/cmsis_gcc.h **** 
 186:Drivers/CMSIS/Include/cmsis_gcc.h **** 
 187:Drivers/CMSIS/Include/cmsis_gcc.h **** #if (defined (__ARM_FEATURE_CMSE ) && (__ARM_FEATURE_CMSE == 3))
 188:Drivers/CMSIS/Include/cmsis_gcc.h **** /**
 189:Drivers/CMSIS/Include/cmsis_gcc.h ****   \brief   Set Control Register (non-secure)
 190:Drivers/CMSIS/Include/cmsis_gcc.h ****   \details Writes the given value to the non-secure Control Register when in secure state.
 191:Drivers/CMSIS/Include/cmsis_gcc.h ****   \param [in]    control  Control Register value to set
ARM GAS  /var/folders/jw/jcj5j9_530958b2rm5vp9wn00000gn/T//ccXdJM12.s 			page 29


 192:Drivers/CMSIS/Include/cmsis_gcc.h ****  */
 193:Drivers/CMSIS/Include/cmsis_gcc.h **** __STATIC_FORCEINLINE void __TZ_set_CONTROL_NS(uint32_t control)
 194:Drivers/CMSIS/Include/cmsis_gcc.h **** {
 195:Drivers/CMSIS/Include/cmsis_gcc.h ****   __ASM volatile ("MSR control_ns, %0" : : "r" (control) : "memory");
 196:Drivers/CMSIS/Include/cmsis_gcc.h **** }
 197:Drivers/CMSIS/Include/cmsis_gcc.h **** #endif
 198:Drivers/CMSIS/Include/cmsis_gcc.h **** 
 199:Drivers/CMSIS/Include/cmsis_gcc.h **** 
 200:Drivers/CMSIS/Include/cmsis_gcc.h **** /**
 201:Drivers/CMSIS/Include/cmsis_gcc.h ****   \brief   Get IPSR Register
 202:Drivers/CMSIS/Include/cmsis_gcc.h ****   \details Returns the content of the IPSR Register.
 203:Drivers/CMSIS/Include/cmsis_gcc.h ****   \return               IPSR Register value
 204:Drivers/CMSIS/Include/cmsis_gcc.h ****  */
 205:Drivers/CMSIS/Include/cmsis_gcc.h **** __STATIC_FORCEINLINE uint32_t __get_IPSR(void)
 206:Drivers/CMSIS/Include/cmsis_gcc.h **** {
 207:Drivers/CMSIS/Include/cmsis_gcc.h ****   uint32_t result;
 208:Drivers/CMSIS/Include/cmsis_gcc.h **** 
 209:Drivers/CMSIS/Include/cmsis_gcc.h ****   __ASM volatile ("MRS %0, ipsr" : "=r" (result) );
 210:Drivers/CMSIS/Include/cmsis_gcc.h ****   return(result);
 211:Drivers/CMSIS/Include/cmsis_gcc.h **** }
 212:Drivers/CMSIS/Include/cmsis_gcc.h **** 
 213:Drivers/CMSIS/Include/cmsis_gcc.h **** 
 214:Drivers/CMSIS/Include/cmsis_gcc.h **** /**
 215:Drivers/CMSIS/Include/cmsis_gcc.h ****   \brief   Get APSR Register
 216:Drivers/CMSIS/Include/cmsis_gcc.h ****   \details Returns the content of the APSR Register.
 217:Drivers/CMSIS/Include/cmsis_gcc.h ****   \return               APSR Register value
 218:Drivers/CMSIS/Include/cmsis_gcc.h ****  */
 219:Drivers/CMSIS/Include/cmsis_gcc.h **** __STATIC_FORCEINLINE uint32_t __get_APSR(void)
 220:Drivers/CMSIS/Include/cmsis_gcc.h **** {
 221:Drivers/CMSIS/Include/cmsis_gcc.h ****   uint32_t result;
 222:Drivers/CMSIS/Include/cmsis_gcc.h **** 
 223:Drivers/CMSIS/Include/cmsis_gcc.h ****   __ASM volatile ("MRS %0, apsr" : "=r" (result) );
 224:Drivers/CMSIS/Include/cmsis_gcc.h ****   return(result);
 225:Drivers/CMSIS/Include/cmsis_gcc.h **** }
 226:Drivers/CMSIS/Include/cmsis_gcc.h **** 
 227:Drivers/CMSIS/Include/cmsis_gcc.h **** 
 228:Drivers/CMSIS/Include/cmsis_gcc.h **** /**
 229:Drivers/CMSIS/Include/cmsis_gcc.h ****   \brief   Get xPSR Register
 230:Drivers/CMSIS/Include/cmsis_gcc.h ****   \details Returns the content of the xPSR Register.
 231:Drivers/CMSIS/Include/cmsis_gcc.h ****   \return               xPSR Register value
 232:Drivers/CMSIS/Include/cmsis_gcc.h ****  */
 233:Drivers/CMSIS/Include/cmsis_gcc.h **** __STATIC_FORCEINLINE uint32_t __get_xPSR(void)
 234:Drivers/CMSIS/Include/cmsis_gcc.h **** {
 235:Drivers/CMSIS/Include/cmsis_gcc.h ****   uint32_t result;
 236:Drivers/CMSIS/Include/cmsis_gcc.h **** 
 237:Drivers/CMSIS/Include/cmsis_gcc.h ****   __ASM volatile ("MRS %0, xpsr" : "=r" (result) );
 238:Drivers/CMSIS/Include/cmsis_gcc.h ****   return(result);
 239:Drivers/CMSIS/Include/cmsis_gcc.h **** }
 240:Drivers/CMSIS/Include/cmsis_gcc.h **** 
 241:Drivers/CMSIS/Include/cmsis_gcc.h **** 
 242:Drivers/CMSIS/Include/cmsis_gcc.h **** /**
 243:Drivers/CMSIS/Include/cmsis_gcc.h ****   \brief   Get Process Stack Pointer
 244:Drivers/CMSIS/Include/cmsis_gcc.h ****   \details Returns the current value of the Process Stack Pointer (PSP).
 245:Drivers/CMSIS/Include/cmsis_gcc.h ****   \return               PSP Register value
 246:Drivers/CMSIS/Include/cmsis_gcc.h ****  */
 247:Drivers/CMSIS/Include/cmsis_gcc.h **** __STATIC_FORCEINLINE uint32_t __get_PSP(void)
 248:Drivers/CMSIS/Include/cmsis_gcc.h **** {
ARM GAS  /var/folders/jw/jcj5j9_530958b2rm5vp9wn00000gn/T//ccXdJM12.s 			page 30


 249:Drivers/CMSIS/Include/cmsis_gcc.h ****   uint32_t result;
 250:Drivers/CMSIS/Include/cmsis_gcc.h **** 
 251:Drivers/CMSIS/Include/cmsis_gcc.h ****   __ASM volatile ("MRS %0, psp"  : "=r" (result) );
 252:Drivers/CMSIS/Include/cmsis_gcc.h ****   return(result);
 253:Drivers/CMSIS/Include/cmsis_gcc.h **** }
 254:Drivers/CMSIS/Include/cmsis_gcc.h **** 
 255:Drivers/CMSIS/Include/cmsis_gcc.h **** 
 256:Drivers/CMSIS/Include/cmsis_gcc.h **** #if (defined (__ARM_FEATURE_CMSE ) && (__ARM_FEATURE_CMSE == 3))
 257:Drivers/CMSIS/Include/cmsis_gcc.h **** /**
 258:Drivers/CMSIS/Include/cmsis_gcc.h ****   \brief   Get Process Stack Pointer (non-secure)
 259:Drivers/CMSIS/Include/cmsis_gcc.h ****   \details Returns the current value of the non-secure Process Stack Pointer (PSP) when in secure s
 260:Drivers/CMSIS/Include/cmsis_gcc.h ****   \return               PSP Register value
 261:Drivers/CMSIS/Include/cmsis_gcc.h ****  */
 262:Drivers/CMSIS/Include/cmsis_gcc.h **** __STATIC_FORCEINLINE uint32_t __TZ_get_PSP_NS(void)
 263:Drivers/CMSIS/Include/cmsis_gcc.h **** {
 264:Drivers/CMSIS/Include/cmsis_gcc.h ****   uint32_t result;
 265:Drivers/CMSIS/Include/cmsis_gcc.h **** 
 266:Drivers/CMSIS/Include/cmsis_gcc.h ****   __ASM volatile ("MRS %0, psp_ns"  : "=r" (result) );
 267:Drivers/CMSIS/Include/cmsis_gcc.h ****   return(result);
 268:Drivers/CMSIS/Include/cmsis_gcc.h **** }
 269:Drivers/CMSIS/Include/cmsis_gcc.h **** #endif
 270:Drivers/CMSIS/Include/cmsis_gcc.h **** 
 271:Drivers/CMSIS/Include/cmsis_gcc.h **** 
 272:Drivers/CMSIS/Include/cmsis_gcc.h **** /**
 273:Drivers/CMSIS/Include/cmsis_gcc.h ****   \brief   Set Process Stack Pointer
 274:Drivers/CMSIS/Include/cmsis_gcc.h ****   \details Assigns the given value to the Process Stack Pointer (PSP).
 275:Drivers/CMSIS/Include/cmsis_gcc.h ****   \param [in]    topOfProcStack  Process Stack Pointer value to set
 276:Drivers/CMSIS/Include/cmsis_gcc.h ****  */
 277:Drivers/CMSIS/Include/cmsis_gcc.h **** __STATIC_FORCEINLINE void __set_PSP(uint32_t topOfProcStack)
 278:Drivers/CMSIS/Include/cmsis_gcc.h **** {
 279:Drivers/CMSIS/Include/cmsis_gcc.h ****   __ASM volatile ("MSR psp, %0" : : "r" (topOfProcStack) : );
 280:Drivers/CMSIS/Include/cmsis_gcc.h **** }
 281:Drivers/CMSIS/Include/cmsis_gcc.h **** 
 282:Drivers/CMSIS/Include/cmsis_gcc.h **** 
 283:Drivers/CMSIS/Include/cmsis_gcc.h **** #if (defined (__ARM_FEATURE_CMSE ) && (__ARM_FEATURE_CMSE == 3))
 284:Drivers/CMSIS/Include/cmsis_gcc.h **** /**
 285:Drivers/CMSIS/Include/cmsis_gcc.h ****   \brief   Set Process Stack Pointer (non-secure)
 286:Drivers/CMSIS/Include/cmsis_gcc.h ****   \details Assigns the given value to the non-secure Process Stack Pointer (PSP) when in secure sta
 287:Drivers/CMSIS/Include/cmsis_gcc.h ****   \param [in]    topOfProcStack  Process Stack Pointer value to set
 288:Drivers/CMSIS/Include/cmsis_gcc.h ****  */
 289:Drivers/CMSIS/Include/cmsis_gcc.h **** __STATIC_FORCEINLINE void __TZ_set_PSP_NS(uint32_t topOfProcStack)
 290:Drivers/CMSIS/Include/cmsis_gcc.h **** {
 291:Drivers/CMSIS/Include/cmsis_gcc.h ****   __ASM volatile ("MSR psp_ns, %0" : : "r" (topOfProcStack) : );
 292:Drivers/CMSIS/Include/cmsis_gcc.h **** }
 293:Drivers/CMSIS/Include/cmsis_gcc.h **** #endif
 294:Drivers/CMSIS/Include/cmsis_gcc.h **** 
 295:Drivers/CMSIS/Include/cmsis_gcc.h **** 
 296:Drivers/CMSIS/Include/cmsis_gcc.h **** /**
 297:Drivers/CMSIS/Include/cmsis_gcc.h ****   \brief   Get Main Stack Pointer
 298:Drivers/CMSIS/Include/cmsis_gcc.h ****   \details Returns the current value of the Main Stack Pointer (MSP).
 299:Drivers/CMSIS/Include/cmsis_gcc.h ****   \return               MSP Register value
 300:Drivers/CMSIS/Include/cmsis_gcc.h ****  */
 301:Drivers/CMSIS/Include/cmsis_gcc.h **** __STATIC_FORCEINLINE uint32_t __get_MSP(void)
 302:Drivers/CMSIS/Include/cmsis_gcc.h **** {
 303:Drivers/CMSIS/Include/cmsis_gcc.h ****   uint32_t result;
 304:Drivers/CMSIS/Include/cmsis_gcc.h **** 
 305:Drivers/CMSIS/Include/cmsis_gcc.h ****   __ASM volatile ("MRS %0, msp" : "=r" (result) );
ARM GAS  /var/folders/jw/jcj5j9_530958b2rm5vp9wn00000gn/T//ccXdJM12.s 			page 31


 306:Drivers/CMSIS/Include/cmsis_gcc.h ****   return(result);
 307:Drivers/CMSIS/Include/cmsis_gcc.h **** }
 308:Drivers/CMSIS/Include/cmsis_gcc.h **** 
 309:Drivers/CMSIS/Include/cmsis_gcc.h **** 
 310:Drivers/CMSIS/Include/cmsis_gcc.h **** #if (defined (__ARM_FEATURE_CMSE ) && (__ARM_FEATURE_CMSE == 3))
 311:Drivers/CMSIS/Include/cmsis_gcc.h **** /**
 312:Drivers/CMSIS/Include/cmsis_gcc.h ****   \brief   Get Main Stack Pointer (non-secure)
 313:Drivers/CMSIS/Include/cmsis_gcc.h ****   \details Returns the current value of the non-secure Main Stack Pointer (MSP) when in secure stat
 314:Drivers/CMSIS/Include/cmsis_gcc.h ****   \return               MSP Register value
 315:Drivers/CMSIS/Include/cmsis_gcc.h ****  */
 316:Drivers/CMSIS/Include/cmsis_gcc.h **** __STATIC_FORCEINLINE uint32_t __TZ_get_MSP_NS(void)
 317:Drivers/CMSIS/Include/cmsis_gcc.h **** {
 318:Drivers/CMSIS/Include/cmsis_gcc.h ****   uint32_t result;
 319:Drivers/CMSIS/Include/cmsis_gcc.h **** 
 320:Drivers/CMSIS/Include/cmsis_gcc.h ****   __ASM volatile ("MRS %0, msp_ns" : "=r" (result) );
 321:Drivers/CMSIS/Include/cmsis_gcc.h ****   return(result);
 322:Drivers/CMSIS/Include/cmsis_gcc.h **** }
 323:Drivers/CMSIS/Include/cmsis_gcc.h **** #endif
 324:Drivers/CMSIS/Include/cmsis_gcc.h **** 
 325:Drivers/CMSIS/Include/cmsis_gcc.h **** 
 326:Drivers/CMSIS/Include/cmsis_gcc.h **** /**
 327:Drivers/CMSIS/Include/cmsis_gcc.h ****   \brief   Set Main Stack Pointer
 328:Drivers/CMSIS/Include/cmsis_gcc.h ****   \details Assigns the given value to the Main Stack Pointer (MSP).
 329:Drivers/CMSIS/Include/cmsis_gcc.h ****   \param [in]    topOfMainStack  Main Stack Pointer value to set
 330:Drivers/CMSIS/Include/cmsis_gcc.h ****  */
 331:Drivers/CMSIS/Include/cmsis_gcc.h **** __STATIC_FORCEINLINE void __set_MSP(uint32_t topOfMainStack)
 332:Drivers/CMSIS/Include/cmsis_gcc.h **** {
 333:Drivers/CMSIS/Include/cmsis_gcc.h ****   __ASM volatile ("MSR msp, %0" : : "r" (topOfMainStack) : );
 334:Drivers/CMSIS/Include/cmsis_gcc.h **** }
 335:Drivers/CMSIS/Include/cmsis_gcc.h **** 
 336:Drivers/CMSIS/Include/cmsis_gcc.h **** 
 337:Drivers/CMSIS/Include/cmsis_gcc.h **** #if (defined (__ARM_FEATURE_CMSE ) && (__ARM_FEATURE_CMSE == 3))
 338:Drivers/CMSIS/Include/cmsis_gcc.h **** /**
 339:Drivers/CMSIS/Include/cmsis_gcc.h ****   \brief   Set Main Stack Pointer (non-secure)
 340:Drivers/CMSIS/Include/cmsis_gcc.h ****   \details Assigns the given value to the non-secure Main Stack Pointer (MSP) when in secure state.
 341:Drivers/CMSIS/Include/cmsis_gcc.h ****   \param [in]    topOfMainStack  Main Stack Pointer value to set
 342:Drivers/CMSIS/Include/cmsis_gcc.h ****  */
 343:Drivers/CMSIS/Include/cmsis_gcc.h **** __STATIC_FORCEINLINE void __TZ_set_MSP_NS(uint32_t topOfMainStack)
 344:Drivers/CMSIS/Include/cmsis_gcc.h **** {
 345:Drivers/CMSIS/Include/cmsis_gcc.h ****   __ASM volatile ("MSR msp_ns, %0" : : "r" (topOfMainStack) : );
 346:Drivers/CMSIS/Include/cmsis_gcc.h **** }
 347:Drivers/CMSIS/Include/cmsis_gcc.h **** #endif
 348:Drivers/CMSIS/Include/cmsis_gcc.h **** 
 349:Drivers/CMSIS/Include/cmsis_gcc.h **** 
 350:Drivers/CMSIS/Include/cmsis_gcc.h **** #if (defined (__ARM_FEATURE_CMSE ) && (__ARM_FEATURE_CMSE == 3))
 351:Drivers/CMSIS/Include/cmsis_gcc.h **** /**
 352:Drivers/CMSIS/Include/cmsis_gcc.h ****   \brief   Get Stack Pointer (non-secure)
 353:Drivers/CMSIS/Include/cmsis_gcc.h ****   \details Returns the current value of the non-secure Stack Pointer (SP) when in secure state.
 354:Drivers/CMSIS/Include/cmsis_gcc.h ****   \return               SP Register value
 355:Drivers/CMSIS/Include/cmsis_gcc.h ****  */
 356:Drivers/CMSIS/Include/cmsis_gcc.h **** __STATIC_FORCEINLINE uint32_t __TZ_get_SP_NS(void)
 357:Drivers/CMSIS/Include/cmsis_gcc.h **** {
 358:Drivers/CMSIS/Include/cmsis_gcc.h ****   uint32_t result;
 359:Drivers/CMSIS/Include/cmsis_gcc.h **** 
 360:Drivers/CMSIS/Include/cmsis_gcc.h ****   __ASM volatile ("MRS %0, sp_ns" : "=r" (result) );
 361:Drivers/CMSIS/Include/cmsis_gcc.h ****   return(result);
 362:Drivers/CMSIS/Include/cmsis_gcc.h **** }
ARM GAS  /var/folders/jw/jcj5j9_530958b2rm5vp9wn00000gn/T//ccXdJM12.s 			page 32


 363:Drivers/CMSIS/Include/cmsis_gcc.h **** 
 364:Drivers/CMSIS/Include/cmsis_gcc.h **** 
 365:Drivers/CMSIS/Include/cmsis_gcc.h **** /**
 366:Drivers/CMSIS/Include/cmsis_gcc.h ****   \brief   Set Stack Pointer (non-secure)
 367:Drivers/CMSIS/Include/cmsis_gcc.h ****   \details Assigns the given value to the non-secure Stack Pointer (SP) when in secure state.
 368:Drivers/CMSIS/Include/cmsis_gcc.h ****   \param [in]    topOfStack  Stack Pointer value to set
 369:Drivers/CMSIS/Include/cmsis_gcc.h ****  */
 370:Drivers/CMSIS/Include/cmsis_gcc.h **** __STATIC_FORCEINLINE void __TZ_set_SP_NS(uint32_t topOfStack)
 371:Drivers/CMSIS/Include/cmsis_gcc.h **** {
 372:Drivers/CMSIS/Include/cmsis_gcc.h ****   __ASM volatile ("MSR sp_ns, %0" : : "r" (topOfStack) : );
 373:Drivers/CMSIS/Include/cmsis_gcc.h **** }
 374:Drivers/CMSIS/Include/cmsis_gcc.h **** #endif
 375:Drivers/CMSIS/Include/cmsis_gcc.h **** 
 376:Drivers/CMSIS/Include/cmsis_gcc.h **** 
 377:Drivers/CMSIS/Include/cmsis_gcc.h **** /**
 378:Drivers/CMSIS/Include/cmsis_gcc.h ****   \brief   Get Priority Mask
 379:Drivers/CMSIS/Include/cmsis_gcc.h ****   \details Returns the current state of the priority mask bit from the Priority Mask Register.
 380:Drivers/CMSIS/Include/cmsis_gcc.h ****   \return               Priority Mask value
 381:Drivers/CMSIS/Include/cmsis_gcc.h ****  */
 382:Drivers/CMSIS/Include/cmsis_gcc.h **** __STATIC_FORCEINLINE uint32_t __get_PRIMASK(void)
 383:Drivers/CMSIS/Include/cmsis_gcc.h **** {
 384:Drivers/CMSIS/Include/cmsis_gcc.h ****   uint32_t result;
 385:Drivers/CMSIS/Include/cmsis_gcc.h **** 
 386:Drivers/CMSIS/Include/cmsis_gcc.h ****   __ASM volatile ("MRS %0, primask" : "=r" (result) :: "memory");
 387:Drivers/CMSIS/Include/cmsis_gcc.h ****   return(result);
 388:Drivers/CMSIS/Include/cmsis_gcc.h **** }
 389:Drivers/CMSIS/Include/cmsis_gcc.h **** 
 390:Drivers/CMSIS/Include/cmsis_gcc.h **** 
 391:Drivers/CMSIS/Include/cmsis_gcc.h **** #if (defined (__ARM_FEATURE_CMSE ) && (__ARM_FEATURE_CMSE == 3))
 392:Drivers/CMSIS/Include/cmsis_gcc.h **** /**
 393:Drivers/CMSIS/Include/cmsis_gcc.h ****   \brief   Get Priority Mask (non-secure)
 394:Drivers/CMSIS/Include/cmsis_gcc.h ****   \details Returns the current state of the non-secure priority mask bit from the Priority Mask Reg
 395:Drivers/CMSIS/Include/cmsis_gcc.h ****   \return               Priority Mask value
 396:Drivers/CMSIS/Include/cmsis_gcc.h ****  */
 397:Drivers/CMSIS/Include/cmsis_gcc.h **** __STATIC_FORCEINLINE uint32_t __TZ_get_PRIMASK_NS(void)
 398:Drivers/CMSIS/Include/cmsis_gcc.h **** {
 399:Drivers/CMSIS/Include/cmsis_gcc.h ****   uint32_t result;
 400:Drivers/CMSIS/Include/cmsis_gcc.h **** 
 401:Drivers/CMSIS/Include/cmsis_gcc.h ****   __ASM volatile ("MRS %0, primask_ns" : "=r" (result) :: "memory");
 402:Drivers/CMSIS/Include/cmsis_gcc.h ****   return(result);
 403:Drivers/CMSIS/Include/cmsis_gcc.h **** }
 404:Drivers/CMSIS/Include/cmsis_gcc.h **** #endif
 405:Drivers/CMSIS/Include/cmsis_gcc.h **** 
 406:Drivers/CMSIS/Include/cmsis_gcc.h **** 
 407:Drivers/CMSIS/Include/cmsis_gcc.h **** /**
 408:Drivers/CMSIS/Include/cmsis_gcc.h ****   \brief   Set Priority Mask
 409:Drivers/CMSIS/Include/cmsis_gcc.h ****   \details Assigns the given value to the Priority Mask Register.
 410:Drivers/CMSIS/Include/cmsis_gcc.h ****   \param [in]    priMask  Priority Mask
 411:Drivers/CMSIS/Include/cmsis_gcc.h ****  */
 412:Drivers/CMSIS/Include/cmsis_gcc.h **** __STATIC_FORCEINLINE void __set_PRIMASK(uint32_t priMask)
 413:Drivers/CMSIS/Include/cmsis_gcc.h **** {
 414:Drivers/CMSIS/Include/cmsis_gcc.h ****   __ASM volatile ("MSR primask, %0" : : "r" (priMask) : "memory");
 415:Drivers/CMSIS/Include/cmsis_gcc.h **** }
 416:Drivers/CMSIS/Include/cmsis_gcc.h **** 
 417:Drivers/CMSIS/Include/cmsis_gcc.h **** 
 418:Drivers/CMSIS/Include/cmsis_gcc.h **** #if (defined (__ARM_FEATURE_CMSE ) && (__ARM_FEATURE_CMSE == 3))
 419:Drivers/CMSIS/Include/cmsis_gcc.h **** /**
ARM GAS  /var/folders/jw/jcj5j9_530958b2rm5vp9wn00000gn/T//ccXdJM12.s 			page 33


 420:Drivers/CMSIS/Include/cmsis_gcc.h ****   \brief   Set Priority Mask (non-secure)
 421:Drivers/CMSIS/Include/cmsis_gcc.h ****   \details Assigns the given value to the non-secure Priority Mask Register when in secure state.
 422:Drivers/CMSIS/Include/cmsis_gcc.h ****   \param [in]    priMask  Priority Mask
 423:Drivers/CMSIS/Include/cmsis_gcc.h ****  */
 424:Drivers/CMSIS/Include/cmsis_gcc.h **** __STATIC_FORCEINLINE void __TZ_set_PRIMASK_NS(uint32_t priMask)
 425:Drivers/CMSIS/Include/cmsis_gcc.h **** {
 426:Drivers/CMSIS/Include/cmsis_gcc.h ****   __ASM volatile ("MSR primask_ns, %0" : : "r" (priMask) : "memory");
 427:Drivers/CMSIS/Include/cmsis_gcc.h **** }
 428:Drivers/CMSIS/Include/cmsis_gcc.h **** #endif
 429:Drivers/CMSIS/Include/cmsis_gcc.h **** 
 430:Drivers/CMSIS/Include/cmsis_gcc.h **** 
 431:Drivers/CMSIS/Include/cmsis_gcc.h **** #if ((defined (__ARM_ARCH_7M__      ) && (__ARM_ARCH_7M__      == 1)) || \
 432:Drivers/CMSIS/Include/cmsis_gcc.h ****      (defined (__ARM_ARCH_7EM__     ) && (__ARM_ARCH_7EM__     == 1)) || \
 433:Drivers/CMSIS/Include/cmsis_gcc.h ****      (defined (__ARM_ARCH_8M_MAIN__ ) && (__ARM_ARCH_8M_MAIN__ == 1))    )
 434:Drivers/CMSIS/Include/cmsis_gcc.h **** /**
 435:Drivers/CMSIS/Include/cmsis_gcc.h ****   \brief   Enable FIQ
 436:Drivers/CMSIS/Include/cmsis_gcc.h ****   \details Enables FIQ interrupts by clearing the F-bit in the CPSR.
 437:Drivers/CMSIS/Include/cmsis_gcc.h ****            Can only be executed in Privileged modes.
 438:Drivers/CMSIS/Include/cmsis_gcc.h ****  */
 439:Drivers/CMSIS/Include/cmsis_gcc.h **** __STATIC_FORCEINLINE void __enable_fault_irq(void)
 440:Drivers/CMSIS/Include/cmsis_gcc.h **** {
 441:Drivers/CMSIS/Include/cmsis_gcc.h ****   __ASM volatile ("cpsie f" : : : "memory");
 442:Drivers/CMSIS/Include/cmsis_gcc.h **** }
 443:Drivers/CMSIS/Include/cmsis_gcc.h **** 
 444:Drivers/CMSIS/Include/cmsis_gcc.h **** 
 445:Drivers/CMSIS/Include/cmsis_gcc.h **** /**
 446:Drivers/CMSIS/Include/cmsis_gcc.h ****   \brief   Disable FIQ
 447:Drivers/CMSIS/Include/cmsis_gcc.h ****   \details Disables FIQ interrupts by setting the F-bit in the CPSR.
 448:Drivers/CMSIS/Include/cmsis_gcc.h ****            Can only be executed in Privileged modes.
 449:Drivers/CMSIS/Include/cmsis_gcc.h ****  */
 450:Drivers/CMSIS/Include/cmsis_gcc.h **** __STATIC_FORCEINLINE void __disable_fault_irq(void)
 451:Drivers/CMSIS/Include/cmsis_gcc.h **** {
 452:Drivers/CMSIS/Include/cmsis_gcc.h ****   __ASM volatile ("cpsid f" : : : "memory");
 453:Drivers/CMSIS/Include/cmsis_gcc.h **** }
 454:Drivers/CMSIS/Include/cmsis_gcc.h **** 
 455:Drivers/CMSIS/Include/cmsis_gcc.h **** 
 456:Drivers/CMSIS/Include/cmsis_gcc.h **** /**
 457:Drivers/CMSIS/Include/cmsis_gcc.h ****   \brief   Get Base Priority
 458:Drivers/CMSIS/Include/cmsis_gcc.h ****   \details Returns the current value of the Base Priority register.
 459:Drivers/CMSIS/Include/cmsis_gcc.h ****   \return               Base Priority register value
 460:Drivers/CMSIS/Include/cmsis_gcc.h ****  */
 461:Drivers/CMSIS/Include/cmsis_gcc.h **** __STATIC_FORCEINLINE uint32_t __get_BASEPRI(void)
 462:Drivers/CMSIS/Include/cmsis_gcc.h **** {
 463:Drivers/CMSIS/Include/cmsis_gcc.h ****   uint32_t result;
 464:Drivers/CMSIS/Include/cmsis_gcc.h **** 
 465:Drivers/CMSIS/Include/cmsis_gcc.h ****   __ASM volatile ("MRS %0, basepri" : "=r" (result) );
 466:Drivers/CMSIS/Include/cmsis_gcc.h ****   return(result);
 467:Drivers/CMSIS/Include/cmsis_gcc.h **** }
 468:Drivers/CMSIS/Include/cmsis_gcc.h **** 
 469:Drivers/CMSIS/Include/cmsis_gcc.h **** 
 470:Drivers/CMSIS/Include/cmsis_gcc.h **** #if (defined (__ARM_FEATURE_CMSE ) && (__ARM_FEATURE_CMSE == 3))
 471:Drivers/CMSIS/Include/cmsis_gcc.h **** /**
 472:Drivers/CMSIS/Include/cmsis_gcc.h ****   \brief   Get Base Priority (non-secure)
 473:Drivers/CMSIS/Include/cmsis_gcc.h ****   \details Returns the current value of the non-secure Base Priority register when in secure state.
 474:Drivers/CMSIS/Include/cmsis_gcc.h ****   \return               Base Priority register value
 475:Drivers/CMSIS/Include/cmsis_gcc.h ****  */
 476:Drivers/CMSIS/Include/cmsis_gcc.h **** __STATIC_FORCEINLINE uint32_t __TZ_get_BASEPRI_NS(void)
ARM GAS  /var/folders/jw/jcj5j9_530958b2rm5vp9wn00000gn/T//ccXdJM12.s 			page 34


 477:Drivers/CMSIS/Include/cmsis_gcc.h **** {
 478:Drivers/CMSIS/Include/cmsis_gcc.h ****   uint32_t result;
 479:Drivers/CMSIS/Include/cmsis_gcc.h **** 
 480:Drivers/CMSIS/Include/cmsis_gcc.h ****   __ASM volatile ("MRS %0, basepri_ns" : "=r" (result) );
 481:Drivers/CMSIS/Include/cmsis_gcc.h ****   return(result);
 482:Drivers/CMSIS/Include/cmsis_gcc.h **** }
 483:Drivers/CMSIS/Include/cmsis_gcc.h **** #endif
 484:Drivers/CMSIS/Include/cmsis_gcc.h **** 
 485:Drivers/CMSIS/Include/cmsis_gcc.h **** 
 486:Drivers/CMSIS/Include/cmsis_gcc.h **** /**
 487:Drivers/CMSIS/Include/cmsis_gcc.h ****   \brief   Set Base Priority
 488:Drivers/CMSIS/Include/cmsis_gcc.h ****   \details Assigns the given value to the Base Priority register.
 489:Drivers/CMSIS/Include/cmsis_gcc.h ****   \param [in]    basePri  Base Priority value to set
 490:Drivers/CMSIS/Include/cmsis_gcc.h ****  */
 491:Drivers/CMSIS/Include/cmsis_gcc.h **** __STATIC_FORCEINLINE void __set_BASEPRI(uint32_t basePri)
 492:Drivers/CMSIS/Include/cmsis_gcc.h **** {
 493:Drivers/CMSIS/Include/cmsis_gcc.h ****   __ASM volatile ("MSR basepri, %0" : : "r" (basePri) : "memory");
 494:Drivers/CMSIS/Include/cmsis_gcc.h **** }
 495:Drivers/CMSIS/Include/cmsis_gcc.h **** 
 496:Drivers/CMSIS/Include/cmsis_gcc.h **** 
 497:Drivers/CMSIS/Include/cmsis_gcc.h **** #if (defined (__ARM_FEATURE_CMSE ) && (__ARM_FEATURE_CMSE == 3))
 498:Drivers/CMSIS/Include/cmsis_gcc.h **** /**
 499:Drivers/CMSIS/Include/cmsis_gcc.h ****   \brief   Set Base Priority (non-secure)
 500:Drivers/CMSIS/Include/cmsis_gcc.h ****   \details Assigns the given value to the non-secure Base Priority register when in secure state.
 501:Drivers/CMSIS/Include/cmsis_gcc.h ****   \param [in]    basePri  Base Priority value to set
 502:Drivers/CMSIS/Include/cmsis_gcc.h ****  */
 503:Drivers/CMSIS/Include/cmsis_gcc.h **** __STATIC_FORCEINLINE void __TZ_set_BASEPRI_NS(uint32_t basePri)
 504:Drivers/CMSIS/Include/cmsis_gcc.h **** {
 505:Drivers/CMSIS/Include/cmsis_gcc.h ****   __ASM volatile ("MSR basepri_ns, %0" : : "r" (basePri) : "memory");
 506:Drivers/CMSIS/Include/cmsis_gcc.h **** }
 507:Drivers/CMSIS/Include/cmsis_gcc.h **** #endif
 508:Drivers/CMSIS/Include/cmsis_gcc.h **** 
 509:Drivers/CMSIS/Include/cmsis_gcc.h **** 
 510:Drivers/CMSIS/Include/cmsis_gcc.h **** /**
 511:Drivers/CMSIS/Include/cmsis_gcc.h ****   \brief   Set Base Priority with condition
 512:Drivers/CMSIS/Include/cmsis_gcc.h ****   \details Assigns the given value to the Base Priority register only if BASEPRI masking is disable
 513:Drivers/CMSIS/Include/cmsis_gcc.h ****            or the new value increases the BASEPRI priority level.
 514:Drivers/CMSIS/Include/cmsis_gcc.h ****   \param [in]    basePri  Base Priority value to set
 515:Drivers/CMSIS/Include/cmsis_gcc.h ****  */
 516:Drivers/CMSIS/Include/cmsis_gcc.h **** __STATIC_FORCEINLINE void __set_BASEPRI_MAX(uint32_t basePri)
 517:Drivers/CMSIS/Include/cmsis_gcc.h **** {
 518:Drivers/CMSIS/Include/cmsis_gcc.h ****   __ASM volatile ("MSR basepri_max, %0" : : "r" (basePri) : "memory");
 519:Drivers/CMSIS/Include/cmsis_gcc.h **** }
 520:Drivers/CMSIS/Include/cmsis_gcc.h **** 
 521:Drivers/CMSIS/Include/cmsis_gcc.h **** 
 522:Drivers/CMSIS/Include/cmsis_gcc.h **** /**
 523:Drivers/CMSIS/Include/cmsis_gcc.h ****   \brief   Get Fault Mask
 524:Drivers/CMSIS/Include/cmsis_gcc.h ****   \details Returns the current value of the Fault Mask register.
 525:Drivers/CMSIS/Include/cmsis_gcc.h ****   \return               Fault Mask register value
 526:Drivers/CMSIS/Include/cmsis_gcc.h ****  */
 527:Drivers/CMSIS/Include/cmsis_gcc.h **** __STATIC_FORCEINLINE uint32_t __get_FAULTMASK(void)
 528:Drivers/CMSIS/Include/cmsis_gcc.h **** {
 529:Drivers/CMSIS/Include/cmsis_gcc.h ****   uint32_t result;
 530:Drivers/CMSIS/Include/cmsis_gcc.h **** 
 531:Drivers/CMSIS/Include/cmsis_gcc.h ****   __ASM volatile ("MRS %0, faultmask" : "=r" (result) );
 532:Drivers/CMSIS/Include/cmsis_gcc.h ****   return(result);
 533:Drivers/CMSIS/Include/cmsis_gcc.h **** }
ARM GAS  /var/folders/jw/jcj5j9_530958b2rm5vp9wn00000gn/T//ccXdJM12.s 			page 35


 534:Drivers/CMSIS/Include/cmsis_gcc.h **** 
 535:Drivers/CMSIS/Include/cmsis_gcc.h **** 
 536:Drivers/CMSIS/Include/cmsis_gcc.h **** #if (defined (__ARM_FEATURE_CMSE ) && (__ARM_FEATURE_CMSE == 3))
 537:Drivers/CMSIS/Include/cmsis_gcc.h **** /**
 538:Drivers/CMSIS/Include/cmsis_gcc.h ****   \brief   Get Fault Mask (non-secure)
 539:Drivers/CMSIS/Include/cmsis_gcc.h ****   \details Returns the current value of the non-secure Fault Mask register when in secure state.
 540:Drivers/CMSIS/Include/cmsis_gcc.h ****   \return               Fault Mask register value
 541:Drivers/CMSIS/Include/cmsis_gcc.h ****  */
 542:Drivers/CMSIS/Include/cmsis_gcc.h **** __STATIC_FORCEINLINE uint32_t __TZ_get_FAULTMASK_NS(void)
 543:Drivers/CMSIS/Include/cmsis_gcc.h **** {
 544:Drivers/CMSIS/Include/cmsis_gcc.h ****   uint32_t result;
 545:Drivers/CMSIS/Include/cmsis_gcc.h **** 
 546:Drivers/CMSIS/Include/cmsis_gcc.h ****   __ASM volatile ("MRS %0, faultmask_ns" : "=r" (result) );
 547:Drivers/CMSIS/Include/cmsis_gcc.h ****   return(result);
 548:Drivers/CMSIS/Include/cmsis_gcc.h **** }
 549:Drivers/CMSIS/Include/cmsis_gcc.h **** #endif
 550:Drivers/CMSIS/Include/cmsis_gcc.h **** 
 551:Drivers/CMSIS/Include/cmsis_gcc.h **** 
 552:Drivers/CMSIS/Include/cmsis_gcc.h **** /**
 553:Drivers/CMSIS/Include/cmsis_gcc.h ****   \brief   Set Fault Mask
 554:Drivers/CMSIS/Include/cmsis_gcc.h ****   \details Assigns the given value to the Fault Mask register.
 555:Drivers/CMSIS/Include/cmsis_gcc.h ****   \param [in]    faultMask  Fault Mask value to set
 556:Drivers/CMSIS/Include/cmsis_gcc.h ****  */
 557:Drivers/CMSIS/Include/cmsis_gcc.h **** __STATIC_FORCEINLINE void __set_FAULTMASK(uint32_t faultMask)
 558:Drivers/CMSIS/Include/cmsis_gcc.h **** {
 559:Drivers/CMSIS/Include/cmsis_gcc.h ****   __ASM volatile ("MSR faultmask, %0" : : "r" (faultMask) : "memory");
 560:Drivers/CMSIS/Include/cmsis_gcc.h **** }
 561:Drivers/CMSIS/Include/cmsis_gcc.h **** 
 562:Drivers/CMSIS/Include/cmsis_gcc.h **** 
 563:Drivers/CMSIS/Include/cmsis_gcc.h **** #if (defined (__ARM_FEATURE_CMSE ) && (__ARM_FEATURE_CMSE == 3))
 564:Drivers/CMSIS/Include/cmsis_gcc.h **** /**
 565:Drivers/CMSIS/Include/cmsis_gcc.h ****   \brief   Set Fault Mask (non-secure)
 566:Drivers/CMSIS/Include/cmsis_gcc.h ****   \details Assigns the given value to the non-secure Fault Mask register when in secure state.
 567:Drivers/CMSIS/Include/cmsis_gcc.h ****   \param [in]    faultMask  Fault Mask value to set
 568:Drivers/CMSIS/Include/cmsis_gcc.h ****  */
 569:Drivers/CMSIS/Include/cmsis_gcc.h **** __STATIC_FORCEINLINE void __TZ_set_FAULTMASK_NS(uint32_t faultMask)
 570:Drivers/CMSIS/Include/cmsis_gcc.h **** {
 571:Drivers/CMSIS/Include/cmsis_gcc.h ****   __ASM volatile ("MSR faultmask_ns, %0" : : "r" (faultMask) : "memory");
 572:Drivers/CMSIS/Include/cmsis_gcc.h **** }
 573:Drivers/CMSIS/Include/cmsis_gcc.h **** #endif
 574:Drivers/CMSIS/Include/cmsis_gcc.h **** 
 575:Drivers/CMSIS/Include/cmsis_gcc.h **** #endif /* ((defined (__ARM_ARCH_7M__      ) && (__ARM_ARCH_7M__      == 1)) || \
 576:Drivers/CMSIS/Include/cmsis_gcc.h ****            (defined (__ARM_ARCH_7EM__     ) && (__ARM_ARCH_7EM__     == 1)) || \
 577:Drivers/CMSIS/Include/cmsis_gcc.h ****            (defined (__ARM_ARCH_8M_MAIN__ ) && (__ARM_ARCH_8M_MAIN__ == 1))    ) */
 578:Drivers/CMSIS/Include/cmsis_gcc.h **** 
 579:Drivers/CMSIS/Include/cmsis_gcc.h **** 
 580:Drivers/CMSIS/Include/cmsis_gcc.h **** #if ((defined (__ARM_ARCH_8M_MAIN__ ) && (__ARM_ARCH_8M_MAIN__ == 1)) || \
 581:Drivers/CMSIS/Include/cmsis_gcc.h ****      (defined (__ARM_ARCH_8M_BASE__ ) && (__ARM_ARCH_8M_BASE__ == 1))    )
 582:Drivers/CMSIS/Include/cmsis_gcc.h **** 
 583:Drivers/CMSIS/Include/cmsis_gcc.h **** /**
 584:Drivers/CMSIS/Include/cmsis_gcc.h ****   \brief   Get Process Stack Pointer Limit
 585:Drivers/CMSIS/Include/cmsis_gcc.h ****   Devices without ARMv8-M Main Extensions (i.e. Cortex-M23) lack the non-secure
 586:Drivers/CMSIS/Include/cmsis_gcc.h ****   Stack Pointer Limit register hence zero is returned always in non-secure
 587:Drivers/CMSIS/Include/cmsis_gcc.h ****   mode.
 588:Drivers/CMSIS/Include/cmsis_gcc.h ****   
 589:Drivers/CMSIS/Include/cmsis_gcc.h ****   \details Returns the current value of the Process Stack Pointer Limit (PSPLIM).
 590:Drivers/CMSIS/Include/cmsis_gcc.h ****   \return               PSPLIM Register value
ARM GAS  /var/folders/jw/jcj5j9_530958b2rm5vp9wn00000gn/T//ccXdJM12.s 			page 36


 591:Drivers/CMSIS/Include/cmsis_gcc.h ****  */
 592:Drivers/CMSIS/Include/cmsis_gcc.h **** __STATIC_FORCEINLINE uint32_t __get_PSPLIM(void)
 593:Drivers/CMSIS/Include/cmsis_gcc.h **** {
 594:Drivers/CMSIS/Include/cmsis_gcc.h **** #if (!(defined (__ARM_ARCH_8M_MAIN__ ) && (__ARM_ARCH_8M_MAIN__ == 1)) && \
 595:Drivers/CMSIS/Include/cmsis_gcc.h ****     (!defined (__ARM_FEATURE_CMSE) || (__ARM_FEATURE_CMSE < 3)))
 596:Drivers/CMSIS/Include/cmsis_gcc.h ****     // without main extensions, the non-secure PSPLIM is RAZ/WI
 597:Drivers/CMSIS/Include/cmsis_gcc.h ****   return 0U;
 598:Drivers/CMSIS/Include/cmsis_gcc.h **** #else
 599:Drivers/CMSIS/Include/cmsis_gcc.h ****   uint32_t result;
 600:Drivers/CMSIS/Include/cmsis_gcc.h ****   __ASM volatile ("MRS %0, psplim"  : "=r" (result) );
 601:Drivers/CMSIS/Include/cmsis_gcc.h ****   return result;
 602:Drivers/CMSIS/Include/cmsis_gcc.h **** #endif
 603:Drivers/CMSIS/Include/cmsis_gcc.h **** }
 604:Drivers/CMSIS/Include/cmsis_gcc.h **** 
 605:Drivers/CMSIS/Include/cmsis_gcc.h **** #if (defined (__ARM_FEATURE_CMSE) && (__ARM_FEATURE_CMSE == 3))
 606:Drivers/CMSIS/Include/cmsis_gcc.h **** /**
 607:Drivers/CMSIS/Include/cmsis_gcc.h ****   \brief   Get Process Stack Pointer Limit (non-secure)
 608:Drivers/CMSIS/Include/cmsis_gcc.h ****   Devices without ARMv8-M Main Extensions (i.e. Cortex-M23) lack the non-secure
 609:Drivers/CMSIS/Include/cmsis_gcc.h ****   Stack Pointer Limit register hence zero is returned always.
 610:Drivers/CMSIS/Include/cmsis_gcc.h **** 
 611:Drivers/CMSIS/Include/cmsis_gcc.h ****   \details Returns the current value of the non-secure Process Stack Pointer Limit (PSPLIM) when in
 612:Drivers/CMSIS/Include/cmsis_gcc.h ****   \return               PSPLIM Register value
 613:Drivers/CMSIS/Include/cmsis_gcc.h ****  */
 614:Drivers/CMSIS/Include/cmsis_gcc.h **** __STATIC_FORCEINLINE uint32_t __TZ_get_PSPLIM_NS(void)
 615:Drivers/CMSIS/Include/cmsis_gcc.h **** {
 616:Drivers/CMSIS/Include/cmsis_gcc.h **** #if (!(defined (__ARM_ARCH_8M_MAIN__ ) && (__ARM_ARCH_8M_MAIN__ == 1)))
 617:Drivers/CMSIS/Include/cmsis_gcc.h ****   // without main extensions, the non-secure PSPLIM is RAZ/WI
 618:Drivers/CMSIS/Include/cmsis_gcc.h ****   return 0U;
 619:Drivers/CMSIS/Include/cmsis_gcc.h **** #else
 620:Drivers/CMSIS/Include/cmsis_gcc.h ****   uint32_t result;
 621:Drivers/CMSIS/Include/cmsis_gcc.h ****   __ASM volatile ("MRS %0, psplim_ns"  : "=r" (result) );
 622:Drivers/CMSIS/Include/cmsis_gcc.h ****   return result;
 623:Drivers/CMSIS/Include/cmsis_gcc.h **** #endif
 624:Drivers/CMSIS/Include/cmsis_gcc.h **** }
 625:Drivers/CMSIS/Include/cmsis_gcc.h **** #endif
 626:Drivers/CMSIS/Include/cmsis_gcc.h **** 
 627:Drivers/CMSIS/Include/cmsis_gcc.h **** 
 628:Drivers/CMSIS/Include/cmsis_gcc.h **** /**
 629:Drivers/CMSIS/Include/cmsis_gcc.h ****   \brief   Set Process Stack Pointer Limit
 630:Drivers/CMSIS/Include/cmsis_gcc.h ****   Devices without ARMv8-M Main Extensions (i.e. Cortex-M23) lack the non-secure
 631:Drivers/CMSIS/Include/cmsis_gcc.h ****   Stack Pointer Limit register hence the write is silently ignored in non-secure
 632:Drivers/CMSIS/Include/cmsis_gcc.h ****   mode.
 633:Drivers/CMSIS/Include/cmsis_gcc.h ****   
 634:Drivers/CMSIS/Include/cmsis_gcc.h ****   \details Assigns the given value to the Process Stack Pointer Limit (PSPLIM).
 635:Drivers/CMSIS/Include/cmsis_gcc.h ****   \param [in]    ProcStackPtrLimit  Process Stack Pointer Limit value to set
 636:Drivers/CMSIS/Include/cmsis_gcc.h ****  */
 637:Drivers/CMSIS/Include/cmsis_gcc.h **** __STATIC_FORCEINLINE void __set_PSPLIM(uint32_t ProcStackPtrLimit)
 638:Drivers/CMSIS/Include/cmsis_gcc.h **** {
 639:Drivers/CMSIS/Include/cmsis_gcc.h **** #if (!(defined (__ARM_ARCH_8M_MAIN__ ) && (__ARM_ARCH_8M_MAIN__ == 1)) && \
 640:Drivers/CMSIS/Include/cmsis_gcc.h ****     (!defined (__ARM_FEATURE_CMSE) || (__ARM_FEATURE_CMSE < 3)))
 641:Drivers/CMSIS/Include/cmsis_gcc.h ****   // without main extensions, the non-secure PSPLIM is RAZ/WI
 642:Drivers/CMSIS/Include/cmsis_gcc.h ****   (void)ProcStackPtrLimit;
 643:Drivers/CMSIS/Include/cmsis_gcc.h **** #else
 644:Drivers/CMSIS/Include/cmsis_gcc.h ****   __ASM volatile ("MSR psplim, %0" : : "r" (ProcStackPtrLimit));
 645:Drivers/CMSIS/Include/cmsis_gcc.h **** #endif
 646:Drivers/CMSIS/Include/cmsis_gcc.h **** }
 647:Drivers/CMSIS/Include/cmsis_gcc.h **** 
ARM GAS  /var/folders/jw/jcj5j9_530958b2rm5vp9wn00000gn/T//ccXdJM12.s 			page 37


 648:Drivers/CMSIS/Include/cmsis_gcc.h **** 
 649:Drivers/CMSIS/Include/cmsis_gcc.h **** #if (defined (__ARM_FEATURE_CMSE  ) && (__ARM_FEATURE_CMSE   == 3))
 650:Drivers/CMSIS/Include/cmsis_gcc.h **** /**
 651:Drivers/CMSIS/Include/cmsis_gcc.h ****   \brief   Set Process Stack Pointer (non-secure)
 652:Drivers/CMSIS/Include/cmsis_gcc.h ****   Devices without ARMv8-M Main Extensions (i.e. Cortex-M23) lack the non-secure
 653:Drivers/CMSIS/Include/cmsis_gcc.h ****   Stack Pointer Limit register hence the write is silently ignored.
 654:Drivers/CMSIS/Include/cmsis_gcc.h **** 
 655:Drivers/CMSIS/Include/cmsis_gcc.h ****   \details Assigns the given value to the non-secure Process Stack Pointer Limit (PSPLIM) when in s
 656:Drivers/CMSIS/Include/cmsis_gcc.h ****   \param [in]    ProcStackPtrLimit  Process Stack Pointer Limit value to set
 657:Drivers/CMSIS/Include/cmsis_gcc.h ****  */
 658:Drivers/CMSIS/Include/cmsis_gcc.h **** __STATIC_FORCEINLINE void __TZ_set_PSPLIM_NS(uint32_t ProcStackPtrLimit)
 659:Drivers/CMSIS/Include/cmsis_gcc.h **** {
 660:Drivers/CMSIS/Include/cmsis_gcc.h **** #if (!(defined (__ARM_ARCH_8M_MAIN__ ) && (__ARM_ARCH_8M_MAIN__ == 1)))
 661:Drivers/CMSIS/Include/cmsis_gcc.h ****   // without main extensions, the non-secure PSPLIM is RAZ/WI
 662:Drivers/CMSIS/Include/cmsis_gcc.h ****   (void)ProcStackPtrLimit;
 663:Drivers/CMSIS/Include/cmsis_gcc.h **** #else
 664:Drivers/CMSIS/Include/cmsis_gcc.h ****   __ASM volatile ("MSR psplim_ns, %0\n" : : "r" (ProcStackPtrLimit));
 665:Drivers/CMSIS/Include/cmsis_gcc.h **** #endif
 666:Drivers/CMSIS/Include/cmsis_gcc.h **** }
 667:Drivers/CMSIS/Include/cmsis_gcc.h **** #endif
 668:Drivers/CMSIS/Include/cmsis_gcc.h **** 
 669:Drivers/CMSIS/Include/cmsis_gcc.h **** 
 670:Drivers/CMSIS/Include/cmsis_gcc.h **** /**
 671:Drivers/CMSIS/Include/cmsis_gcc.h ****   \brief   Get Main Stack Pointer Limit
 672:Drivers/CMSIS/Include/cmsis_gcc.h ****   Devices without ARMv8-M Main Extensions (i.e. Cortex-M23) lack the non-secure
 673:Drivers/CMSIS/Include/cmsis_gcc.h ****   Stack Pointer Limit register hence zero is returned always in non-secure
 674:Drivers/CMSIS/Include/cmsis_gcc.h ****   mode.
 675:Drivers/CMSIS/Include/cmsis_gcc.h **** 
 676:Drivers/CMSIS/Include/cmsis_gcc.h ****   \details Returns the current value of the Main Stack Pointer Limit (MSPLIM).
 677:Drivers/CMSIS/Include/cmsis_gcc.h ****   \return               MSPLIM Register value
 678:Drivers/CMSIS/Include/cmsis_gcc.h ****  */
 679:Drivers/CMSIS/Include/cmsis_gcc.h **** __STATIC_FORCEINLINE uint32_t __get_MSPLIM(void)
 680:Drivers/CMSIS/Include/cmsis_gcc.h **** {
 681:Drivers/CMSIS/Include/cmsis_gcc.h **** #if (!(defined (__ARM_ARCH_8M_MAIN__ ) && (__ARM_ARCH_8M_MAIN__ == 1)) && \
 682:Drivers/CMSIS/Include/cmsis_gcc.h ****     (!defined (__ARM_FEATURE_CMSE) || (__ARM_FEATURE_CMSE < 3)))
 683:Drivers/CMSIS/Include/cmsis_gcc.h ****   // without main extensions, the non-secure MSPLIM is RAZ/WI
 684:Drivers/CMSIS/Include/cmsis_gcc.h ****   return 0U;
 685:Drivers/CMSIS/Include/cmsis_gcc.h **** #else
 686:Drivers/CMSIS/Include/cmsis_gcc.h ****   uint32_t result;
 687:Drivers/CMSIS/Include/cmsis_gcc.h ****   __ASM volatile ("MRS %0, msplim" : "=r" (result) );
 688:Drivers/CMSIS/Include/cmsis_gcc.h ****   return result;
 689:Drivers/CMSIS/Include/cmsis_gcc.h **** #endif
 690:Drivers/CMSIS/Include/cmsis_gcc.h **** }
 691:Drivers/CMSIS/Include/cmsis_gcc.h **** 
 692:Drivers/CMSIS/Include/cmsis_gcc.h **** 
 693:Drivers/CMSIS/Include/cmsis_gcc.h **** #if (defined (__ARM_FEATURE_CMSE  ) && (__ARM_FEATURE_CMSE   == 3))
 694:Drivers/CMSIS/Include/cmsis_gcc.h **** /**
 695:Drivers/CMSIS/Include/cmsis_gcc.h ****   \brief   Get Main Stack Pointer Limit (non-secure)
 696:Drivers/CMSIS/Include/cmsis_gcc.h ****   Devices without ARMv8-M Main Extensions (i.e. Cortex-M23) lack the non-secure
 697:Drivers/CMSIS/Include/cmsis_gcc.h ****   Stack Pointer Limit register hence zero is returned always.
 698:Drivers/CMSIS/Include/cmsis_gcc.h **** 
 699:Drivers/CMSIS/Include/cmsis_gcc.h ****   \details Returns the current value of the non-secure Main Stack Pointer Limit(MSPLIM) when in sec
 700:Drivers/CMSIS/Include/cmsis_gcc.h ****   \return               MSPLIM Register value
 701:Drivers/CMSIS/Include/cmsis_gcc.h ****  */
 702:Drivers/CMSIS/Include/cmsis_gcc.h **** __STATIC_FORCEINLINE uint32_t __TZ_get_MSPLIM_NS(void)
 703:Drivers/CMSIS/Include/cmsis_gcc.h **** {
 704:Drivers/CMSIS/Include/cmsis_gcc.h **** #if (!(defined (__ARM_ARCH_8M_MAIN__ ) && (__ARM_ARCH_8M_MAIN__ == 1)))
ARM GAS  /var/folders/jw/jcj5j9_530958b2rm5vp9wn00000gn/T//ccXdJM12.s 			page 38


 705:Drivers/CMSIS/Include/cmsis_gcc.h ****   // without main extensions, the non-secure MSPLIM is RAZ/WI
 706:Drivers/CMSIS/Include/cmsis_gcc.h ****   return 0U;
 707:Drivers/CMSIS/Include/cmsis_gcc.h **** #else
 708:Drivers/CMSIS/Include/cmsis_gcc.h ****   uint32_t result;
 709:Drivers/CMSIS/Include/cmsis_gcc.h ****   __ASM volatile ("MRS %0, msplim_ns" : "=r" (result) );
 710:Drivers/CMSIS/Include/cmsis_gcc.h ****   return result;
 711:Drivers/CMSIS/Include/cmsis_gcc.h **** #endif
 712:Drivers/CMSIS/Include/cmsis_gcc.h **** }
 713:Drivers/CMSIS/Include/cmsis_gcc.h **** #endif
 714:Drivers/CMSIS/Include/cmsis_gcc.h **** 
 715:Drivers/CMSIS/Include/cmsis_gcc.h **** 
 716:Drivers/CMSIS/Include/cmsis_gcc.h **** /**
 717:Drivers/CMSIS/Include/cmsis_gcc.h ****   \brief   Set Main Stack Pointer Limit
 718:Drivers/CMSIS/Include/cmsis_gcc.h ****   Devices without ARMv8-M Main Extensions (i.e. Cortex-M23) lack the non-secure
 719:Drivers/CMSIS/Include/cmsis_gcc.h ****   Stack Pointer Limit register hence the write is silently ignored in non-secure
 720:Drivers/CMSIS/Include/cmsis_gcc.h ****   mode.
 721:Drivers/CMSIS/Include/cmsis_gcc.h **** 
 722:Drivers/CMSIS/Include/cmsis_gcc.h ****   \details Assigns the given value to the Main Stack Pointer Limit (MSPLIM).
 723:Drivers/CMSIS/Include/cmsis_gcc.h ****   \param [in]    MainStackPtrLimit  Main Stack Pointer Limit value to set
 724:Drivers/CMSIS/Include/cmsis_gcc.h ****  */
 725:Drivers/CMSIS/Include/cmsis_gcc.h **** __STATIC_FORCEINLINE void __set_MSPLIM(uint32_t MainStackPtrLimit)
 726:Drivers/CMSIS/Include/cmsis_gcc.h **** {
 727:Drivers/CMSIS/Include/cmsis_gcc.h **** #if (!(defined (__ARM_ARCH_8M_MAIN__ ) && (__ARM_ARCH_8M_MAIN__ == 1)) && \
 728:Drivers/CMSIS/Include/cmsis_gcc.h ****     (!defined (__ARM_FEATURE_CMSE) || (__ARM_FEATURE_CMSE < 3)))
 729:Drivers/CMSIS/Include/cmsis_gcc.h ****   // without main extensions, the non-secure MSPLIM is RAZ/WI
 730:Drivers/CMSIS/Include/cmsis_gcc.h ****   (void)MainStackPtrLimit;
 731:Drivers/CMSIS/Include/cmsis_gcc.h **** #else
 732:Drivers/CMSIS/Include/cmsis_gcc.h ****   __ASM volatile ("MSR msplim, %0" : : "r" (MainStackPtrLimit));
 733:Drivers/CMSIS/Include/cmsis_gcc.h **** #endif
 734:Drivers/CMSIS/Include/cmsis_gcc.h **** }
 735:Drivers/CMSIS/Include/cmsis_gcc.h **** 
 736:Drivers/CMSIS/Include/cmsis_gcc.h **** 
 737:Drivers/CMSIS/Include/cmsis_gcc.h **** #if (defined (__ARM_FEATURE_CMSE  ) && (__ARM_FEATURE_CMSE   == 3))
 738:Drivers/CMSIS/Include/cmsis_gcc.h **** /**
 739:Drivers/CMSIS/Include/cmsis_gcc.h ****   \brief   Set Main Stack Pointer Limit (non-secure)
 740:Drivers/CMSIS/Include/cmsis_gcc.h ****   Devices without ARMv8-M Main Extensions (i.e. Cortex-M23) lack the non-secure
 741:Drivers/CMSIS/Include/cmsis_gcc.h ****   Stack Pointer Limit register hence the write is silently ignored.
 742:Drivers/CMSIS/Include/cmsis_gcc.h **** 
 743:Drivers/CMSIS/Include/cmsis_gcc.h ****   \details Assigns the given value to the non-secure Main Stack Pointer Limit (MSPLIM) when in secu
 744:Drivers/CMSIS/Include/cmsis_gcc.h ****   \param [in]    MainStackPtrLimit  Main Stack Pointer value to set
 745:Drivers/CMSIS/Include/cmsis_gcc.h ****  */
 746:Drivers/CMSIS/Include/cmsis_gcc.h **** __STATIC_FORCEINLINE void __TZ_set_MSPLIM_NS(uint32_t MainStackPtrLimit)
 747:Drivers/CMSIS/Include/cmsis_gcc.h **** {
 748:Drivers/CMSIS/Include/cmsis_gcc.h **** #if (!(defined (__ARM_ARCH_8M_MAIN__ ) && (__ARM_ARCH_8M_MAIN__ == 1)))
 749:Drivers/CMSIS/Include/cmsis_gcc.h ****   // without main extensions, the non-secure MSPLIM is RAZ/WI
 750:Drivers/CMSIS/Include/cmsis_gcc.h ****   (void)MainStackPtrLimit;
 751:Drivers/CMSIS/Include/cmsis_gcc.h **** #else
 752:Drivers/CMSIS/Include/cmsis_gcc.h ****   __ASM volatile ("MSR msplim_ns, %0" : : "r" (MainStackPtrLimit));
 753:Drivers/CMSIS/Include/cmsis_gcc.h **** #endif
 754:Drivers/CMSIS/Include/cmsis_gcc.h **** }
 755:Drivers/CMSIS/Include/cmsis_gcc.h **** #endif
 756:Drivers/CMSIS/Include/cmsis_gcc.h **** 
 757:Drivers/CMSIS/Include/cmsis_gcc.h **** #endif /* ((defined (__ARM_ARCH_8M_MAIN__ ) && (__ARM_ARCH_8M_MAIN__ == 1)) || \
 758:Drivers/CMSIS/Include/cmsis_gcc.h ****            (defined (__ARM_ARCH_8M_BASE__ ) && (__ARM_ARCH_8M_BASE__ == 1))    ) */
 759:Drivers/CMSIS/Include/cmsis_gcc.h **** 
 760:Drivers/CMSIS/Include/cmsis_gcc.h **** 
 761:Drivers/CMSIS/Include/cmsis_gcc.h **** /**
ARM GAS  /var/folders/jw/jcj5j9_530958b2rm5vp9wn00000gn/T//ccXdJM12.s 			page 39


 762:Drivers/CMSIS/Include/cmsis_gcc.h ****   \brief   Get FPSCR
 763:Drivers/CMSIS/Include/cmsis_gcc.h ****   \details Returns the current value of the Floating Point Status/Control register.
 764:Drivers/CMSIS/Include/cmsis_gcc.h ****   \return               Floating Point Status/Control register value
 765:Drivers/CMSIS/Include/cmsis_gcc.h ****  */
 766:Drivers/CMSIS/Include/cmsis_gcc.h **** __STATIC_FORCEINLINE uint32_t __get_FPSCR(void)
 767:Drivers/CMSIS/Include/cmsis_gcc.h **** {
 768:Drivers/CMSIS/Include/cmsis_gcc.h **** #if ((defined (__FPU_PRESENT) && (__FPU_PRESENT == 1U)) && \
 769:Drivers/CMSIS/Include/cmsis_gcc.h ****      (defined (__FPU_USED   ) && (__FPU_USED    == 1U))     )
 770:Drivers/CMSIS/Include/cmsis_gcc.h **** #if __has_builtin(__builtin_arm_get_fpscr) 
 771:Drivers/CMSIS/Include/cmsis_gcc.h **** // Re-enable using built-in when GCC has been fixed
 772:Drivers/CMSIS/Include/cmsis_gcc.h **** // || (__GNUC__ > 7) || (__GNUC__ == 7 && __GNUC_MINOR__ >= 2)
 773:Drivers/CMSIS/Include/cmsis_gcc.h ****   /* see https://gcc.gnu.org/ml/gcc-patches/2017-04/msg00443.html */
 774:Drivers/CMSIS/Include/cmsis_gcc.h ****   return __builtin_arm_get_fpscr();
 775:Drivers/CMSIS/Include/cmsis_gcc.h **** #else
 776:Drivers/CMSIS/Include/cmsis_gcc.h ****   uint32_t result;
 777:Drivers/CMSIS/Include/cmsis_gcc.h **** 
 778:Drivers/CMSIS/Include/cmsis_gcc.h ****   __ASM volatile ("VMRS %0, fpscr" : "=r" (result) );
 779:Drivers/CMSIS/Include/cmsis_gcc.h ****   return(result);
 780:Drivers/CMSIS/Include/cmsis_gcc.h **** #endif
 781:Drivers/CMSIS/Include/cmsis_gcc.h **** #else
 782:Drivers/CMSIS/Include/cmsis_gcc.h ****   return(0U);
 783:Drivers/CMSIS/Include/cmsis_gcc.h **** #endif
 784:Drivers/CMSIS/Include/cmsis_gcc.h **** }
 785:Drivers/CMSIS/Include/cmsis_gcc.h **** 
 786:Drivers/CMSIS/Include/cmsis_gcc.h **** 
 787:Drivers/CMSIS/Include/cmsis_gcc.h **** /**
 788:Drivers/CMSIS/Include/cmsis_gcc.h ****   \brief   Set FPSCR
 789:Drivers/CMSIS/Include/cmsis_gcc.h ****   \details Assigns the given value to the Floating Point Status/Control register.
 790:Drivers/CMSIS/Include/cmsis_gcc.h ****   \param [in]    fpscr  Floating Point Status/Control value to set
 791:Drivers/CMSIS/Include/cmsis_gcc.h ****  */
 792:Drivers/CMSIS/Include/cmsis_gcc.h **** __STATIC_FORCEINLINE void __set_FPSCR(uint32_t fpscr)
 793:Drivers/CMSIS/Include/cmsis_gcc.h **** {
 794:Drivers/CMSIS/Include/cmsis_gcc.h **** #if ((defined (__FPU_PRESENT) && (__FPU_PRESENT == 1U)) && \
 795:Drivers/CMSIS/Include/cmsis_gcc.h ****      (defined (__FPU_USED   ) && (__FPU_USED    == 1U))     )
 796:Drivers/CMSIS/Include/cmsis_gcc.h **** #if __has_builtin(__builtin_arm_set_fpscr)
 797:Drivers/CMSIS/Include/cmsis_gcc.h **** // Re-enable using built-in when GCC has been fixed
 798:Drivers/CMSIS/Include/cmsis_gcc.h **** // || (__GNUC__ > 7) || (__GNUC__ == 7 && __GNUC_MINOR__ >= 2)
 799:Drivers/CMSIS/Include/cmsis_gcc.h ****   /* see https://gcc.gnu.org/ml/gcc-patches/2017-04/msg00443.html */
 800:Drivers/CMSIS/Include/cmsis_gcc.h ****   __builtin_arm_set_fpscr(fpscr);
 801:Drivers/CMSIS/Include/cmsis_gcc.h **** #else
 802:Drivers/CMSIS/Include/cmsis_gcc.h ****   __ASM volatile ("VMSR fpscr, %0" : : "r" (fpscr) : "vfpcc", "memory");
 803:Drivers/CMSIS/Include/cmsis_gcc.h **** #endif
 804:Drivers/CMSIS/Include/cmsis_gcc.h **** #else
 805:Drivers/CMSIS/Include/cmsis_gcc.h ****   (void)fpscr;
 806:Drivers/CMSIS/Include/cmsis_gcc.h **** #endif
 807:Drivers/CMSIS/Include/cmsis_gcc.h **** }
 808:Drivers/CMSIS/Include/cmsis_gcc.h **** 
 809:Drivers/CMSIS/Include/cmsis_gcc.h **** 
 810:Drivers/CMSIS/Include/cmsis_gcc.h **** /*@} end of CMSIS_Core_RegAccFunctions */
 811:Drivers/CMSIS/Include/cmsis_gcc.h **** 
 812:Drivers/CMSIS/Include/cmsis_gcc.h **** 
 813:Drivers/CMSIS/Include/cmsis_gcc.h **** /* ##########################  Core Instruction Access  ######################### */
 814:Drivers/CMSIS/Include/cmsis_gcc.h **** /** \defgroup CMSIS_Core_InstructionInterface CMSIS Core Instruction Interface
 815:Drivers/CMSIS/Include/cmsis_gcc.h ****   Access to dedicated instructions
 816:Drivers/CMSIS/Include/cmsis_gcc.h ****   @{
 817:Drivers/CMSIS/Include/cmsis_gcc.h **** */
 818:Drivers/CMSIS/Include/cmsis_gcc.h **** 
ARM GAS  /var/folders/jw/jcj5j9_530958b2rm5vp9wn00000gn/T//ccXdJM12.s 			page 40


 819:Drivers/CMSIS/Include/cmsis_gcc.h **** /* Define macros for porting to both thumb1 and thumb2.
 820:Drivers/CMSIS/Include/cmsis_gcc.h ****  * For thumb1, use low register (r0-r7), specified by constraint "l"
 821:Drivers/CMSIS/Include/cmsis_gcc.h ****  * Otherwise, use general registers, specified by constraint "r" */
 822:Drivers/CMSIS/Include/cmsis_gcc.h **** #if defined (__thumb__) && !defined (__thumb2__)
 823:Drivers/CMSIS/Include/cmsis_gcc.h **** #define __CMSIS_GCC_OUT_REG(r) "=l" (r)
 824:Drivers/CMSIS/Include/cmsis_gcc.h **** #define __CMSIS_GCC_RW_REG(r) "+l" (r)
 825:Drivers/CMSIS/Include/cmsis_gcc.h **** #define __CMSIS_GCC_USE_REG(r) "l" (r)
 826:Drivers/CMSIS/Include/cmsis_gcc.h **** #else
 827:Drivers/CMSIS/Include/cmsis_gcc.h **** #define __CMSIS_GCC_OUT_REG(r) "=r" (r)
 828:Drivers/CMSIS/Include/cmsis_gcc.h **** #define __CMSIS_GCC_RW_REG(r) "+r" (r)
 829:Drivers/CMSIS/Include/cmsis_gcc.h **** #define __CMSIS_GCC_USE_REG(r) "r" (r)
 830:Drivers/CMSIS/Include/cmsis_gcc.h **** #endif
 831:Drivers/CMSIS/Include/cmsis_gcc.h **** 
 832:Drivers/CMSIS/Include/cmsis_gcc.h **** /**
 833:Drivers/CMSIS/Include/cmsis_gcc.h ****   \brief   No Operation
 834:Drivers/CMSIS/Include/cmsis_gcc.h ****   \details No Operation does nothing. This instruction can be used for code alignment purposes.
 835:Drivers/CMSIS/Include/cmsis_gcc.h ****  */
 836:Drivers/CMSIS/Include/cmsis_gcc.h **** #define __NOP()                             __ASM volatile ("nop")
 837:Drivers/CMSIS/Include/cmsis_gcc.h **** 
 838:Drivers/CMSIS/Include/cmsis_gcc.h **** /**
 839:Drivers/CMSIS/Include/cmsis_gcc.h ****   \brief   Wait For Interrupt
 840:Drivers/CMSIS/Include/cmsis_gcc.h ****   \details Wait For Interrupt is a hint instruction that suspends execution until one of a number o
 841:Drivers/CMSIS/Include/cmsis_gcc.h ****  */
 842:Drivers/CMSIS/Include/cmsis_gcc.h **** #define __WFI()                             __ASM volatile ("wfi")
 843:Drivers/CMSIS/Include/cmsis_gcc.h **** 
 844:Drivers/CMSIS/Include/cmsis_gcc.h **** 
 845:Drivers/CMSIS/Include/cmsis_gcc.h **** /**
 846:Drivers/CMSIS/Include/cmsis_gcc.h ****   \brief   Wait For Event
 847:Drivers/CMSIS/Include/cmsis_gcc.h ****   \details Wait For Event is a hint instruction that permits the processor to enter
 848:Drivers/CMSIS/Include/cmsis_gcc.h ****            a low-power state until one of a number of events occurs.
 849:Drivers/CMSIS/Include/cmsis_gcc.h ****  */
 850:Drivers/CMSIS/Include/cmsis_gcc.h **** #define __WFE()                             __ASM volatile ("wfe")
 851:Drivers/CMSIS/Include/cmsis_gcc.h **** 
 852:Drivers/CMSIS/Include/cmsis_gcc.h **** 
 853:Drivers/CMSIS/Include/cmsis_gcc.h **** /**
 854:Drivers/CMSIS/Include/cmsis_gcc.h ****   \brief   Send Event
 855:Drivers/CMSIS/Include/cmsis_gcc.h ****   \details Send Event is a hint instruction. It causes an event to be signaled to the CPU.
 856:Drivers/CMSIS/Include/cmsis_gcc.h ****  */
 857:Drivers/CMSIS/Include/cmsis_gcc.h **** #define __SEV()                             __ASM volatile ("sev")
 858:Drivers/CMSIS/Include/cmsis_gcc.h **** 
 859:Drivers/CMSIS/Include/cmsis_gcc.h **** 
 860:Drivers/CMSIS/Include/cmsis_gcc.h **** /**
 861:Drivers/CMSIS/Include/cmsis_gcc.h ****   \brief   Instruction Synchronization Barrier
 862:Drivers/CMSIS/Include/cmsis_gcc.h ****   \details Instruction Synchronization Barrier flushes the pipeline in the processor,
 863:Drivers/CMSIS/Include/cmsis_gcc.h ****            so that all instructions following the ISB are fetched from cache or memory,
 864:Drivers/CMSIS/Include/cmsis_gcc.h ****            after the instruction has been completed.
 865:Drivers/CMSIS/Include/cmsis_gcc.h ****  */
 866:Drivers/CMSIS/Include/cmsis_gcc.h **** __STATIC_FORCEINLINE void __ISB(void)
 867:Drivers/CMSIS/Include/cmsis_gcc.h **** {
 868:Drivers/CMSIS/Include/cmsis_gcc.h ****   __ASM volatile ("isb 0xF":::"memory");
 869:Drivers/CMSIS/Include/cmsis_gcc.h **** }
 870:Drivers/CMSIS/Include/cmsis_gcc.h **** 
 871:Drivers/CMSIS/Include/cmsis_gcc.h **** 
 872:Drivers/CMSIS/Include/cmsis_gcc.h **** /**
 873:Drivers/CMSIS/Include/cmsis_gcc.h ****   \brief   Data Synchronization Barrier
 874:Drivers/CMSIS/Include/cmsis_gcc.h ****   \details Acts as a special kind of Data Memory Barrier.
 875:Drivers/CMSIS/Include/cmsis_gcc.h ****            It completes when all explicit memory accesses before this instruction complete.
ARM GAS  /var/folders/jw/jcj5j9_530958b2rm5vp9wn00000gn/T//ccXdJM12.s 			page 41


 876:Drivers/CMSIS/Include/cmsis_gcc.h ****  */
 877:Drivers/CMSIS/Include/cmsis_gcc.h **** __STATIC_FORCEINLINE void __DSB(void)
 878:Drivers/CMSIS/Include/cmsis_gcc.h **** {
 879:Drivers/CMSIS/Include/cmsis_gcc.h ****   __ASM volatile ("dsb 0xF":::"memory");
 880:Drivers/CMSIS/Include/cmsis_gcc.h **** }
 881:Drivers/CMSIS/Include/cmsis_gcc.h **** 
 882:Drivers/CMSIS/Include/cmsis_gcc.h **** 
 883:Drivers/CMSIS/Include/cmsis_gcc.h **** /**
 884:Drivers/CMSIS/Include/cmsis_gcc.h ****   \brief   Data Memory Barrier
 885:Drivers/CMSIS/Include/cmsis_gcc.h ****   \details Ensures the apparent order of the explicit memory operations before
 886:Drivers/CMSIS/Include/cmsis_gcc.h ****            and after the instruction, without ensuring their completion.
 887:Drivers/CMSIS/Include/cmsis_gcc.h ****  */
 888:Drivers/CMSIS/Include/cmsis_gcc.h **** __STATIC_FORCEINLINE void __DMB(void)
 889:Drivers/CMSIS/Include/cmsis_gcc.h **** {
 890:Drivers/CMSIS/Include/cmsis_gcc.h ****   __ASM volatile ("dmb 0xF":::"memory");
 891:Drivers/CMSIS/Include/cmsis_gcc.h **** }
 892:Drivers/CMSIS/Include/cmsis_gcc.h **** 
 893:Drivers/CMSIS/Include/cmsis_gcc.h **** 
 894:Drivers/CMSIS/Include/cmsis_gcc.h **** /**
 895:Drivers/CMSIS/Include/cmsis_gcc.h ****   \brief   Reverse byte order (32 bit)
 896:Drivers/CMSIS/Include/cmsis_gcc.h ****   \details Reverses the byte order in unsigned integer value. For example, 0x12345678 becomes 0x785
 897:Drivers/CMSIS/Include/cmsis_gcc.h ****   \param [in]    value  Value to reverse
 898:Drivers/CMSIS/Include/cmsis_gcc.h ****   \return               Reversed value
 899:Drivers/CMSIS/Include/cmsis_gcc.h ****  */
 900:Drivers/CMSIS/Include/cmsis_gcc.h **** __STATIC_FORCEINLINE uint32_t __REV(uint32_t value)
 901:Drivers/CMSIS/Include/cmsis_gcc.h **** {
 902:Drivers/CMSIS/Include/cmsis_gcc.h **** #if (__GNUC__ > 4) || (__GNUC__ == 4 && __GNUC_MINOR__ >= 5)
 903:Drivers/CMSIS/Include/cmsis_gcc.h ****   return __builtin_bswap32(value);
 904:Drivers/CMSIS/Include/cmsis_gcc.h **** #else
 905:Drivers/CMSIS/Include/cmsis_gcc.h ****   uint32_t result;
 906:Drivers/CMSIS/Include/cmsis_gcc.h **** 
 907:Drivers/CMSIS/Include/cmsis_gcc.h ****   __ASM volatile ("rev %0, %1" : __CMSIS_GCC_OUT_REG (result) : __CMSIS_GCC_USE_REG (value) );
 908:Drivers/CMSIS/Include/cmsis_gcc.h ****   return result;
 909:Drivers/CMSIS/Include/cmsis_gcc.h **** #endif
 910:Drivers/CMSIS/Include/cmsis_gcc.h **** }
 911:Drivers/CMSIS/Include/cmsis_gcc.h **** 
 912:Drivers/CMSIS/Include/cmsis_gcc.h **** 
 913:Drivers/CMSIS/Include/cmsis_gcc.h **** /**
 914:Drivers/CMSIS/Include/cmsis_gcc.h ****   \brief   Reverse byte order (16 bit)
 915:Drivers/CMSIS/Include/cmsis_gcc.h ****   \details Reverses the byte order within each halfword of a word. For example, 0x12345678 becomes 
 916:Drivers/CMSIS/Include/cmsis_gcc.h ****   \param [in]    value  Value to reverse
 917:Drivers/CMSIS/Include/cmsis_gcc.h ****   \return               Reversed value
 918:Drivers/CMSIS/Include/cmsis_gcc.h ****  */
 919:Drivers/CMSIS/Include/cmsis_gcc.h **** __STATIC_FORCEINLINE uint32_t __REV16(uint32_t value)
 920:Drivers/CMSIS/Include/cmsis_gcc.h **** {
 921:Drivers/CMSIS/Include/cmsis_gcc.h ****   uint32_t result;
 922:Drivers/CMSIS/Include/cmsis_gcc.h **** 
 923:Drivers/CMSIS/Include/cmsis_gcc.h ****   __ASM volatile ("rev16 %0, %1" : __CMSIS_GCC_OUT_REG (result) : __CMSIS_GCC_USE_REG (value) );
 924:Drivers/CMSIS/Include/cmsis_gcc.h ****   return result;
 925:Drivers/CMSIS/Include/cmsis_gcc.h **** }
 926:Drivers/CMSIS/Include/cmsis_gcc.h **** 
 927:Drivers/CMSIS/Include/cmsis_gcc.h **** 
 928:Drivers/CMSIS/Include/cmsis_gcc.h **** /**
 929:Drivers/CMSIS/Include/cmsis_gcc.h ****   \brief   Reverse byte order (16 bit)
 930:Drivers/CMSIS/Include/cmsis_gcc.h ****   \details Reverses the byte order in a 16-bit value and returns the signed 16-bit result. For exam
 931:Drivers/CMSIS/Include/cmsis_gcc.h ****   \param [in]    value  Value to reverse
 932:Drivers/CMSIS/Include/cmsis_gcc.h ****   \return               Reversed value
ARM GAS  /var/folders/jw/jcj5j9_530958b2rm5vp9wn00000gn/T//ccXdJM12.s 			page 42


 933:Drivers/CMSIS/Include/cmsis_gcc.h ****  */
 934:Drivers/CMSIS/Include/cmsis_gcc.h **** __STATIC_FORCEINLINE int16_t __REVSH(int16_t value)
 935:Drivers/CMSIS/Include/cmsis_gcc.h **** {
 936:Drivers/CMSIS/Include/cmsis_gcc.h **** #if (__GNUC__ > 4) || (__GNUC__ == 4 && __GNUC_MINOR__ >= 8)
 937:Drivers/CMSIS/Include/cmsis_gcc.h ****   return (int16_t)__builtin_bswap16(value);
 938:Drivers/CMSIS/Include/cmsis_gcc.h **** #else
 939:Drivers/CMSIS/Include/cmsis_gcc.h ****   int16_t result;
 940:Drivers/CMSIS/Include/cmsis_gcc.h **** 
 941:Drivers/CMSIS/Include/cmsis_gcc.h ****   __ASM volatile ("revsh %0, %1" : __CMSIS_GCC_OUT_REG (result) : __CMSIS_GCC_USE_REG (value) );
 942:Drivers/CMSIS/Include/cmsis_gcc.h ****   return result;
 943:Drivers/CMSIS/Include/cmsis_gcc.h **** #endif
 944:Drivers/CMSIS/Include/cmsis_gcc.h **** }
 945:Drivers/CMSIS/Include/cmsis_gcc.h **** 
 946:Drivers/CMSIS/Include/cmsis_gcc.h **** 
 947:Drivers/CMSIS/Include/cmsis_gcc.h **** /**
 948:Drivers/CMSIS/Include/cmsis_gcc.h ****   \brief   Rotate Right in unsigned value (32 bit)
 949:Drivers/CMSIS/Include/cmsis_gcc.h ****   \details Rotate Right (immediate) provides the value of the contents of a register rotated by a v
 950:Drivers/CMSIS/Include/cmsis_gcc.h ****   \param [in]    op1  Value to rotate
 951:Drivers/CMSIS/Include/cmsis_gcc.h ****   \param [in]    op2  Number of Bits to rotate
 952:Drivers/CMSIS/Include/cmsis_gcc.h ****   \return               Rotated value
 953:Drivers/CMSIS/Include/cmsis_gcc.h ****  */
 954:Drivers/CMSIS/Include/cmsis_gcc.h **** __STATIC_FORCEINLINE uint32_t __ROR(uint32_t op1, uint32_t op2)
 955:Drivers/CMSIS/Include/cmsis_gcc.h **** {
 956:Drivers/CMSIS/Include/cmsis_gcc.h ****   op2 %= 32U;
 957:Drivers/CMSIS/Include/cmsis_gcc.h ****   if (op2 == 0U)
 958:Drivers/CMSIS/Include/cmsis_gcc.h ****   {
 959:Drivers/CMSIS/Include/cmsis_gcc.h ****     return op1;
 960:Drivers/CMSIS/Include/cmsis_gcc.h ****   }
 961:Drivers/CMSIS/Include/cmsis_gcc.h ****   return (op1 >> op2) | (op1 << (32U - op2));
 962:Drivers/CMSIS/Include/cmsis_gcc.h **** }
 963:Drivers/CMSIS/Include/cmsis_gcc.h **** 
 964:Drivers/CMSIS/Include/cmsis_gcc.h **** 
 965:Drivers/CMSIS/Include/cmsis_gcc.h **** /**
 966:Drivers/CMSIS/Include/cmsis_gcc.h ****   \brief   Breakpoint
 967:Drivers/CMSIS/Include/cmsis_gcc.h ****   \details Causes the processor to enter Debug state.
 968:Drivers/CMSIS/Include/cmsis_gcc.h ****            Debug tools can use this to investigate system state when the instruction at a particula
 969:Drivers/CMSIS/Include/cmsis_gcc.h ****   \param [in]    value  is ignored by the processor.
 970:Drivers/CMSIS/Include/cmsis_gcc.h ****                  If required, a debugger can use it to store additional information about the break
 971:Drivers/CMSIS/Include/cmsis_gcc.h ****  */
 972:Drivers/CMSIS/Include/cmsis_gcc.h **** #define __BKPT(value)                       __ASM volatile ("bkpt "#value)
 973:Drivers/CMSIS/Include/cmsis_gcc.h **** 
 974:Drivers/CMSIS/Include/cmsis_gcc.h **** 
 975:Drivers/CMSIS/Include/cmsis_gcc.h **** /**
 976:Drivers/CMSIS/Include/cmsis_gcc.h ****   \brief   Reverse bit order of value
 977:Drivers/CMSIS/Include/cmsis_gcc.h ****   \details Reverses the bit order of the given value.
 978:Drivers/CMSIS/Include/cmsis_gcc.h ****   \param [in]    value  Value to reverse
 979:Drivers/CMSIS/Include/cmsis_gcc.h ****   \return               Reversed value
 980:Drivers/CMSIS/Include/cmsis_gcc.h ****  */
 981:Drivers/CMSIS/Include/cmsis_gcc.h **** __STATIC_FORCEINLINE uint32_t __RBIT(uint32_t value)
 415              		.loc 2 981 31 is_stmt 1 view .LVU97
 416              	.LBB9:
 982:Drivers/CMSIS/Include/cmsis_gcc.h **** {
 983:Drivers/CMSIS/Include/cmsis_gcc.h ****   uint32_t result;
 417              		.loc 2 983 3 view .LVU98
 984:Drivers/CMSIS/Include/cmsis_gcc.h **** 
 985:Drivers/CMSIS/Include/cmsis_gcc.h **** #if ((defined (__ARM_ARCH_7M__      ) && (__ARM_ARCH_7M__      == 1)) || \
 986:Drivers/CMSIS/Include/cmsis_gcc.h ****      (defined (__ARM_ARCH_7EM__     ) && (__ARM_ARCH_7EM__     == 1)) || \
ARM GAS  /var/folders/jw/jcj5j9_530958b2rm5vp9wn00000gn/T//ccXdJM12.s 			page 43


 987:Drivers/CMSIS/Include/cmsis_gcc.h ****      (defined (__ARM_ARCH_8M_MAIN__ ) && (__ARM_ARCH_8M_MAIN__ == 1))    )
 988:Drivers/CMSIS/Include/cmsis_gcc.h ****    __ASM volatile ("rbit %0, %1" : "=r" (result) : "r" (value) );
 418              		.loc 2 988 4 view .LVU99
 419 0008 4FF48073 		mov	r3, #256
 420              		.syntax unified
 421              	@ 988 "Drivers/CMSIS/Include/cmsis_gcc.h" 1
 422 000c 93FAA3F3 		rbit r3, r3
 423              	@ 0 "" 2
 424              	.LVL26:
 989:Drivers/CMSIS/Include/cmsis_gcc.h **** #else
 990:Drivers/CMSIS/Include/cmsis_gcc.h ****   uint32_t s = (4U /*sizeof(v)*/ * 8U) - 1U; /* extra shift needed at end */
 991:Drivers/CMSIS/Include/cmsis_gcc.h **** 
 992:Drivers/CMSIS/Include/cmsis_gcc.h ****   result = value;                      /* r will be reversed bits of v; first get LSB of v */
 993:Drivers/CMSIS/Include/cmsis_gcc.h ****   for (value >>= 1U; value != 0U; value >>= 1U)
 994:Drivers/CMSIS/Include/cmsis_gcc.h ****   {
 995:Drivers/CMSIS/Include/cmsis_gcc.h ****     result <<= 1U;
 996:Drivers/CMSIS/Include/cmsis_gcc.h ****     result |= value & 1U;
 997:Drivers/CMSIS/Include/cmsis_gcc.h ****     s--;
 998:Drivers/CMSIS/Include/cmsis_gcc.h ****   }
 999:Drivers/CMSIS/Include/cmsis_gcc.h ****   result <<= s;                        /* shift when v's highest bits are zero */
1000:Drivers/CMSIS/Include/cmsis_gcc.h **** #endif
1001:Drivers/CMSIS/Include/cmsis_gcc.h ****   return result;
 425              		.loc 2 1001 3 view .LVU100
 426              		.loc 2 1001 3 is_stmt 0 view .LVU101
 427              		.thumb
 428              		.syntax unified
 429              	.LBE9:
 430              	.LBE8:
 431              		.loc 1 933 63 view .LVU102
 432 0010 B3FA83F3 		clz	r3, r3
 433              		.loc 1 933 60 view .LVU103
 434 0014 D840     		lsrs	r0, r0, r3
 934:Drivers/STM32F3xx_HAL_Driver/Src/stm32f3xx_hal_flash_ex.c **** }
 435              		.loc 1 934 1 view .LVU104
 436 0016 C0B2     		uxtb	r0, r0
 437 0018 7047     		bx	lr
 438              	.L33:
 439 001a 00BF     		.align	2
 440              	.L32:
 441 001c 00200240 		.word	1073881088
 442              		.cfi_endproc
 443              	.LFE144:
 445              		.section	.text.HAL_FLASHEx_OBErase,"ax",%progbits
 446              		.align	1
 447              		.global	HAL_FLASHEx_OBErase
 448              		.syntax unified
 449              		.thumb
 450              		.thumb_func
 451              		.fpu fpv4-sp-d16
 453              	HAL_FLASHEx_OBErase:
 454              	.LFB132:
 314:Drivers/STM32F3xx_HAL_Driver/Src/stm32f3xx_hal_flash_ex.c ****   uint8_t rdptmp = OB_RDP_LEVEL_0;
 455              		.loc 1 314 1 is_stmt 1 view -0
 456              		.cfi_startproc
 457              		@ args = 0, pretend = 0, frame = 0
 458              		@ frame_needed = 0, uses_anonymous_args = 0
 459 0000 38B5     		push	{r3, r4, r5, lr}
ARM GAS  /var/folders/jw/jcj5j9_530958b2rm5vp9wn00000gn/T//ccXdJM12.s 			page 44


 460              	.LCFI3:
 461              		.cfi_def_cfa_offset 16
 462              		.cfi_offset 3, -16
 463              		.cfi_offset 4, -12
 464              		.cfi_offset 5, -8
 465              		.cfi_offset 14, -4
 315:Drivers/STM32F3xx_HAL_Driver/Src/stm32f3xx_hal_flash_ex.c ****   HAL_StatusTypeDef status = HAL_ERROR;
 466              		.loc 1 315 3 view .LVU106
 467              	.LVL27:
 316:Drivers/STM32F3xx_HAL_Driver/Src/stm32f3xx_hal_flash_ex.c **** 
 468              		.loc 1 316 3 view .LVU107
 319:Drivers/STM32F3xx_HAL_Driver/Src/stm32f3xx_hal_flash_ex.c **** 
 469              		.loc 1 319 3 view .LVU108
 319:Drivers/STM32F3xx_HAL_Driver/Src/stm32f3xx_hal_flash_ex.c **** 
 470              		.loc 1 319 12 is_stmt 0 view .LVU109
 471 0002 FFF7FEFF 		bl	FLASH_OB_GetRDP
 472              	.LVL28:
 319:Drivers/STM32F3xx_HAL_Driver/Src/stm32f3xx_hal_flash_ex.c **** 
 473              		.loc 1 319 10 view .LVU110
 474 0006 C5B2     		uxtb	r5, r0
 475              	.LVL29:
 322:Drivers/STM32F3xx_HAL_Driver/Src/stm32f3xx_hal_flash_ex.c **** 
 476              		.loc 1 322 3 is_stmt 1 view .LVU111
 322:Drivers/STM32F3xx_HAL_Driver/Src/stm32f3xx_hal_flash_ex.c **** 
 477              		.loc 1 322 12 is_stmt 0 view .LVU112
 478 0008 4CF25030 		movw	r0, #50000
 479 000c FFF7FEFF 		bl	FLASH_WaitForLastOperation
 480              	.LVL30:
 324:Drivers/STM32F3xx_HAL_Driver/Src/stm32f3xx_hal_flash_ex.c ****   {
 481              		.loc 1 324 3 is_stmt 1 view .LVU113
 324:Drivers/STM32F3xx_HAL_Driver/Src/stm32f3xx_hal_flash_ex.c ****   {
 482              		.loc 1 324 5 is_stmt 0 view .LVU114
 483 0010 00B1     		cbz	r0, .L37
 484              	.L35:
 485              	.LVL31:
 347:Drivers/STM32F3xx_HAL_Driver/Src/stm32f3xx_hal_flash_ex.c **** }
 486              		.loc 1 347 3 is_stmt 1 view .LVU115
 348:Drivers/STM32F3xx_HAL_Driver/Src/stm32f3xx_hal_flash_ex.c **** 
 487              		.loc 1 348 1 is_stmt 0 view .LVU116
 488 0012 38BD     		pop	{r3, r4, r5, pc}
 489              	.LVL32:
 490              	.L37:
 327:Drivers/STM32F3xx_HAL_Driver/Src/stm32f3xx_hal_flash_ex.c **** 
 491              		.loc 1 327 5 is_stmt 1 view .LVU117
 327:Drivers/STM32F3xx_HAL_Driver/Src/stm32f3xx_hal_flash_ex.c **** 
 492              		.loc 1 327 22 is_stmt 0 view .LVU118
 493 0014 0C4B     		ldr	r3, .L38
 494 0016 0022     		movs	r2, #0
 495 0018 DA61     		str	r2, [r3, #28]
 330:Drivers/STM32F3xx_HAL_Driver/Src/stm32f3xx_hal_flash_ex.c ****     SET_BIT(FLASH->CR, FLASH_CR_STRT);
 496              		.loc 1 330 5 is_stmt 1 view .LVU119
 497 001a 0C4C     		ldr	r4, .L38+4
 498 001c 2369     		ldr	r3, [r4, #16]
 499 001e 43F02003 		orr	r3, r3, #32
 500 0022 2361     		str	r3, [r4, #16]
 331:Drivers/STM32F3xx_HAL_Driver/Src/stm32f3xx_hal_flash_ex.c **** 
 501              		.loc 1 331 5 view .LVU120
ARM GAS  /var/folders/jw/jcj5j9_530958b2rm5vp9wn00000gn/T//ccXdJM12.s 			page 45


 502 0024 2369     		ldr	r3, [r4, #16]
 503 0026 43F04003 		orr	r3, r3, #64
 504 002a 2361     		str	r3, [r4, #16]
 334:Drivers/STM32F3xx_HAL_Driver/Src/stm32f3xx_hal_flash_ex.c **** 
 505              		.loc 1 334 5 view .LVU121
 334:Drivers/STM32F3xx_HAL_Driver/Src/stm32f3xx_hal_flash_ex.c **** 
 506              		.loc 1 334 14 is_stmt 0 view .LVU122
 507 002c 4CF25030 		movw	r0, #50000
 508 0030 FFF7FEFF 		bl	FLASH_WaitForLastOperation
 509              	.LVL33:
 337:Drivers/STM32F3xx_HAL_Driver/Src/stm32f3xx_hal_flash_ex.c **** 
 510              		.loc 1 337 5 is_stmt 1 view .LVU123
 511 0034 2369     		ldr	r3, [r4, #16]
 512 0036 23F02003 		bic	r3, r3, #32
 513 003a 2361     		str	r3, [r4, #16]
 339:Drivers/STM32F3xx_HAL_Driver/Src/stm32f3xx_hal_flash_ex.c ****     {
 514              		.loc 1 339 5 view .LVU124
 339:Drivers/STM32F3xx_HAL_Driver/Src/stm32f3xx_hal_flash_ex.c ****     {
 515              		.loc 1 339 7 is_stmt 0 view .LVU125
 516 003c 0028     		cmp	r0, #0
 517 003e E8D1     		bne	.L35
 342:Drivers/STM32F3xx_HAL_Driver/Src/stm32f3xx_hal_flash_ex.c ****     }
 518              		.loc 1 342 7 is_stmt 1 view .LVU126
 342:Drivers/STM32F3xx_HAL_Driver/Src/stm32f3xx_hal_flash_ex.c ****     }
 519              		.loc 1 342 16 is_stmt 0 view .LVU127
 520 0040 2846     		mov	r0, r5
 521              	.LVL34:
 342:Drivers/STM32F3xx_HAL_Driver/Src/stm32f3xx_hal_flash_ex.c ****     }
 522              		.loc 1 342 16 view .LVU128
 523 0042 FFF7FEFF 		bl	FLASH_OB_RDP_LevelConfig
 524              	.LVL35:
 342:Drivers/STM32F3xx_HAL_Driver/Src/stm32f3xx_hal_flash_ex.c ****     }
 525              		.loc 1 342 16 view .LVU129
 526 0046 E4E7     		b	.L35
 527              	.L39:
 528              		.align	2
 529              	.L38:
 530 0048 00000000 		.word	pFlash
 531 004c 00200240 		.word	1073881088
 532              		.cfi_endproc
 533              	.LFE132:
 535              		.section	.text.FLASH_OB_EnableWRP,"ax",%progbits
 536              		.align	1
 537              		.syntax unified
 538              		.thumb
 539              		.thumb_func
 540              		.fpu fpv4-sp-d16
 542              	FLASH_OB_EnableWRP:
 543              	.LVL36:
 544              	.LFB137:
 522:Drivers/STM32F3xx_HAL_Driver/Src/stm32f3xx_hal_flash_ex.c ****   HAL_StatusTypeDef status = HAL_OK;
 545              		.loc 1 522 1 is_stmt 1 view -0
 546              		.cfi_startproc
 547              		@ args = 0, pretend = 0, frame = 0
 548              		@ frame_needed = 0, uses_anonymous_args = 0
 522:Drivers/STM32F3xx_HAL_Driver/Src/stm32f3xx_hal_flash_ex.c ****   HAL_StatusTypeDef status = HAL_OK;
 549              		.loc 1 522 1 is_stmt 0 view .LVU131
ARM GAS  /var/folders/jw/jcj5j9_530958b2rm5vp9wn00000gn/T//ccXdJM12.s 			page 46


 550 0000 F8B5     		push	{r3, r4, r5, r6, r7, lr}
 551              	.LCFI4:
 552              		.cfi_def_cfa_offset 24
 553              		.cfi_offset 3, -24
 554              		.cfi_offset 4, -20
 555              		.cfi_offset 5, -16
 556              		.cfi_offset 6, -12
 557              		.cfi_offset 7, -8
 558              		.cfi_offset 14, -4
 559 0002 0446     		mov	r4, r0
 523:Drivers/STM32F3xx_HAL_Driver/Src/stm32f3xx_hal_flash_ex.c ****   uint16_t WRP0_Data = 0xFFFFU;
 560              		.loc 1 523 3 is_stmt 1 view .LVU132
 561              	.LVL37:
 524:Drivers/STM32F3xx_HAL_Driver/Src/stm32f3xx_hal_flash_ex.c **** #if defined(OB_WRP1_WRP1)
 562              		.loc 1 524 3 view .LVU133
 526:Drivers/STM32F3xx_HAL_Driver/Src/stm32f3xx_hal_flash_ex.c **** #endif /* OB_WRP1_WRP1 */
 563              		.loc 1 526 3 view .LVU134
 529:Drivers/STM32F3xx_HAL_Driver/Src/stm32f3xx_hal_flash_ex.c **** #endif /* OB_WRP2_WRP2 */
 564              		.loc 1 529 3 view .LVU135
 532:Drivers/STM32F3xx_HAL_Driver/Src/stm32f3xx_hal_flash_ex.c **** #endif /* OB_WRP3_WRP3 */
 565              		.loc 1 532 3 view .LVU136
 536:Drivers/STM32F3xx_HAL_Driver/Src/stm32f3xx_hal_flash_ex.c ****     
 566              		.loc 1 536 3 view .LVU137
 539:Drivers/STM32F3xx_HAL_Driver/Src/stm32f3xx_hal_flash_ex.c ****   
 567              		.loc 1 539 3 view .LVU138
 539:Drivers/STM32F3xx_HAL_Driver/Src/stm32f3xx_hal_flash_ex.c ****   
 568              		.loc 1 539 37 is_stmt 0 view .LVU139
 569 0004 FFF7FEFF 		bl	FLASH_OB_GetWRP
 570              	.LVL38:
 539:Drivers/STM32F3xx_HAL_Driver/Src/stm32f3xx_hal_flash_ex.c ****   
 571              		.loc 1 539 20 view .LVU140
 572 0008 20EA0400 		bic	r0, r0, r4
 573              	.LVL39:
 542:Drivers/STM32F3xx_HAL_Driver/Src/stm32f3xx_hal_flash_ex.c **** #endif /* OB_WRP_PAGES0TO31MASK */
 574              		.loc 1 542 3 is_stmt 1 view .LVU141
 542:Drivers/STM32F3xx_HAL_Driver/Src/stm32f3xx_hal_flash_ex.c **** #endif /* OB_WRP_PAGES0TO31MASK */
 575              		.loc 1 542 13 is_stmt 0 view .LVU142
 576 000c C5B2     		uxtb	r5, r0
 577              	.LVL40:
 546:Drivers/STM32F3xx_HAL_Driver/Src/stm32f3xx_hal_flash_ex.c **** #endif /* OB_WRP_PAGES32TO63MASK */
 578              		.loc 1 546 3 is_stmt 1 view .LVU143
 546:Drivers/STM32F3xx_HAL_Driver/Src/stm32f3xx_hal_flash_ex.c **** #endif /* OB_WRP_PAGES32TO63MASK */
 579              		.loc 1 546 13 is_stmt 0 view .LVU144
 580 000e C0F30727 		ubfx	r7, r0, #8, #8
 581              	.LVL41:
 550:Drivers/STM32F3xx_HAL_Driver/Src/stm32f3xx_hal_flash_ex.c **** #endif /* OB_WRP_PAGES32TO47MASK */
 582              		.loc 1 550 3 is_stmt 1 view .LVU145
 550:Drivers/STM32F3xx_HAL_Driver/Src/stm32f3xx_hal_flash_ex.c **** #endif /* OB_WRP_PAGES32TO47MASK */
 583              		.loc 1 550 13 is_stmt 0 view .LVU146
 584 0012 C0F30746 		ubfx	r6, r0, #16, #8
 585              	.LVL42:
 554:Drivers/STM32F3xx_HAL_Driver/Src/stm32f3xx_hal_flash_ex.c **** #elif defined(OB_WRP_PAGES48TO255MASK)
 586              		.loc 1 554 3 is_stmt 1 view .LVU147
 554:Drivers/STM32F3xx_HAL_Driver/Src/stm32f3xx_hal_flash_ex.c **** #elif defined(OB_WRP_PAGES48TO255MASK)
 587              		.loc 1 554 13 is_stmt 0 view .LVU148
 588 0016 040E     		lsrs	r4, r0, #24
 589              	.LVL43:
ARM GAS  /var/folders/jw/jcj5j9_530958b2rm5vp9wn00000gn/T//ccXdJM12.s 			page 47


 560:Drivers/STM32F3xx_HAL_Driver/Src/stm32f3xx_hal_flash_ex.c **** 
 590              		.loc 1 560 3 is_stmt 1 view .LVU149
 560:Drivers/STM32F3xx_HAL_Driver/Src/stm32f3xx_hal_flash_ex.c **** 
 591              		.loc 1 560 12 is_stmt 0 view .LVU150
 592 0018 4CF25030 		movw	r0, #50000
 593              	.LVL44:
 560:Drivers/STM32F3xx_HAL_Driver/Src/stm32f3xx_hal_flash_ex.c **** 
 594              		.loc 1 560 12 view .LVU151
 595 001c FFF7FEFF 		bl	FLASH_WaitForLastOperation
 596              	.LVL45:
 562:Drivers/STM32F3xx_HAL_Driver/Src/stm32f3xx_hal_flash_ex.c ****   { 
 597              		.loc 1 562 3 is_stmt 1 view .LVU152
 562:Drivers/STM32F3xx_HAL_Driver/Src/stm32f3xx_hal_flash_ex.c ****   { 
 598              		.loc 1 562 5 is_stmt 0 view .LVU153
 599 0020 0346     		mov	r3, r0
 600 0022 08B1     		cbz	r0, .L47
 601              	.LVL46:
 602              	.L41:
 619:Drivers/STM32F3xx_HAL_Driver/Src/stm32f3xx_hal_flash_ex.c **** }
 603              		.loc 1 619 3 is_stmt 1 view .LVU154
 620:Drivers/STM32F3xx_HAL_Driver/Src/stm32f3xx_hal_flash_ex.c **** 
 604              		.loc 1 620 1 is_stmt 0 view .LVU155
 605 0024 1846     		mov	r0, r3
 606 0026 F8BD     		pop	{r3, r4, r5, r6, r7, pc}
 607              	.LVL47:
 608              	.L47:
 565:Drivers/STM32F3xx_HAL_Driver/Src/stm32f3xx_hal_flash_ex.c **** 
 609              		.loc 1 565 5 is_stmt 1 view .LVU156
 565:Drivers/STM32F3xx_HAL_Driver/Src/stm32f3xx_hal_flash_ex.c **** 
 610              		.loc 1 565 22 is_stmt 0 view .LVU157
 611 0028 224B     		ldr	r3, .L52
 612 002a 0022     		movs	r2, #0
 613 002c DA61     		str	r2, [r3, #28]
 568:Drivers/STM32F3xx_HAL_Driver/Src/stm32f3xx_hal_flash_ex.c ****     if (status == HAL_OK)  
 614              		.loc 1 568 5 is_stmt 1 view .LVU158
 568:Drivers/STM32F3xx_HAL_Driver/Src/stm32f3xx_hal_flash_ex.c ****     if (status == HAL_OK)  
 615              		.loc 1 568 14 is_stmt 0 view .LVU159
 616 002e FFF7FEFF 		bl	HAL_FLASHEx_OBErase
 617              	.LVL48:
 569:Drivers/STM32F3xx_HAL_Driver/Src/stm32f3xx_hal_flash_ex.c ****     {
 618              		.loc 1 569 5 is_stmt 1 view .LVU160
 569:Drivers/STM32F3xx_HAL_Driver/Src/stm32f3xx_hal_flash_ex.c ****     {
 619              		.loc 1 569 8 is_stmt 0 view .LVU161
 620 0032 0346     		mov	r3, r0
 621 0034 0028     		cmp	r0, #0
 622 0036 F5D1     		bne	.L41
 572:Drivers/STM32F3xx_HAL_Driver/Src/stm32f3xx_hal_flash_ex.c **** 
 623              		.loc 1 572 7 is_stmt 1 view .LVU162
 624 0038 1F49     		ldr	r1, .L52+4
 625 003a 0A69     		ldr	r2, [r1, #16]
 626 003c 42F01002 		orr	r2, r2, #16
 627 0040 0A61     		str	r2, [r1, #16]
 575:Drivers/STM32F3xx_HAL_Driver/Src/stm32f3xx_hal_flash_ex.c ****       {
 628              		.loc 1 575 7 view .LVU163
 575:Drivers/STM32F3xx_HAL_Driver/Src/stm32f3xx_hal_flash_ex.c ****       {
 629              		.loc 1 575 9 is_stmt 0 view .LVU164
 630 0042 FF2D     		cmp	r5, #255
ARM GAS  /var/folders/jw/jcj5j9_530958b2rm5vp9wn00000gn/T//ccXdJM12.s 			page 48


 631 0044 0ED1     		bne	.L48
 632              	.LVL49:
 633              	.L42:
 585:Drivers/STM32F3xx_HAL_Driver/Src/stm32f3xx_hal_flash_ex.c ****       {
 634              		.loc 1 585 7 is_stmt 1 view .LVU165
 585:Drivers/STM32F3xx_HAL_Driver/Src/stm32f3xx_hal_flash_ex.c ****       {
 635              		.loc 1 585 9 is_stmt 0 view .LVU166
 636 0046 0BB9     		cbnz	r3, .L43
 585:Drivers/STM32F3xx_HAL_Driver/Src/stm32f3xx_hal_flash_ex.c ****       {
 637              		.loc 1 585 29 discriminator 1 view .LVU167
 638 0048 FF2F     		cmp	r7, #255
 639 004a 15D1     		bne	.L49
 640              	.LVL50:
 641              	.L43:
 595:Drivers/STM32F3xx_HAL_Driver/Src/stm32f3xx_hal_flash_ex.c ****       {
 642              		.loc 1 595 7 is_stmt 1 view .LVU168
 595:Drivers/STM32F3xx_HAL_Driver/Src/stm32f3xx_hal_flash_ex.c ****       {
 643              		.loc 1 595 9 is_stmt 0 view .LVU169
 644 004c 0BB9     		cbnz	r3, .L44
 595:Drivers/STM32F3xx_HAL_Driver/Src/stm32f3xx_hal_flash_ex.c ****       {
 645              		.loc 1 595 29 discriminator 1 view .LVU170
 646 004e FF2E     		cmp	r6, #255
 647 0050 1CD1     		bne	.L50
 648              	.LVL51:
 649              	.L44:
 605:Drivers/STM32F3xx_HAL_Driver/Src/stm32f3xx_hal_flash_ex.c ****       {
 650              		.loc 1 605 7 is_stmt 1 view .LVU171
 605:Drivers/STM32F3xx_HAL_Driver/Src/stm32f3xx_hal_flash_ex.c ****       {
 651              		.loc 1 605 9 is_stmt 0 view .LVU172
 652 0052 0BB9     		cbnz	r3, .L45
 605:Drivers/STM32F3xx_HAL_Driver/Src/stm32f3xx_hal_flash_ex.c ****       {
 653              		.loc 1 605 29 discriminator 1 view .LVU173
 654 0054 FF2C     		cmp	r4, #255
 655 0056 23D1     		bne	.L51
 656              	.L45:
 615:Drivers/STM32F3xx_HAL_Driver/Src/stm32f3xx_hal_flash_ex.c ****     }
 657              		.loc 1 615 7 is_stmt 1 view .LVU174
 658 0058 1749     		ldr	r1, .L52+4
 659 005a 0A69     		ldr	r2, [r1, #16]
 660 005c 22F01002 		bic	r2, r2, #16
 661 0060 0A61     		str	r2, [r1, #16]
 662 0062 DFE7     		b	.L41
 663              	.LVL52:
 664              	.L48:
 577:Drivers/STM32F3xx_HAL_Driver/Src/stm32f3xx_hal_flash_ex.c ****         
 665              		.loc 1 577 9 view .LVU175
 577:Drivers/STM32F3xx_HAL_Driver/Src/stm32f3xx_hal_flash_ex.c ****         
 666              		.loc 1 577 18 is_stmt 0 view .LVU176
 667 0064 154B     		ldr	r3, .L52+8
 668 0066 1A89     		ldrh	r2, [r3, #8]
 669 0068 1540     		ands	r5, r5, r2
 670              	.LVL53:
 577:Drivers/STM32F3xx_HAL_Driver/Src/stm32f3xx_hal_flash_ex.c ****         
 671              		.loc 1 577 18 view .LVU177
 672 006a 1D81     		strh	r5, [r3, #8]	@ movhi
 580:Drivers/STM32F3xx_HAL_Driver/Src/stm32f3xx_hal_flash_ex.c ****       }
 673              		.loc 1 580 9 is_stmt 1 view .LVU178
ARM GAS  /var/folders/jw/jcj5j9_530958b2rm5vp9wn00000gn/T//ccXdJM12.s 			page 49


 580:Drivers/STM32F3xx_HAL_Driver/Src/stm32f3xx_hal_flash_ex.c ****       }
 674              		.loc 1 580 18 is_stmt 0 view .LVU179
 675 006c 4CF25030 		movw	r0, #50000
 676              	.LVL54:
 580:Drivers/STM32F3xx_HAL_Driver/Src/stm32f3xx_hal_flash_ex.c ****       }
 677              		.loc 1 580 18 view .LVU180
 678 0070 FFF7FEFF 		bl	FLASH_WaitForLastOperation
 679              	.LVL55:
 680 0074 0346     		mov	r3, r0
 681              	.LVL56:
 580:Drivers/STM32F3xx_HAL_Driver/Src/stm32f3xx_hal_flash_ex.c ****       }
 682              		.loc 1 580 18 view .LVU181
 683 0076 E6E7     		b	.L42
 684              	.L49:
 587:Drivers/STM32F3xx_HAL_Driver/Src/stm32f3xx_hal_flash_ex.c ****         
 685              		.loc 1 587 9 is_stmt 1 view .LVU182
 587:Drivers/STM32F3xx_HAL_Driver/Src/stm32f3xx_hal_flash_ex.c ****         
 686              		.loc 1 587 18 is_stmt 0 view .LVU183
 687 0078 104B     		ldr	r3, .L52+8
 688              	.LVL57:
 587:Drivers/STM32F3xx_HAL_Driver/Src/stm32f3xx_hal_flash_ex.c ****         
 689              		.loc 1 587 18 view .LVU184
 690 007a 5A89     		ldrh	r2, [r3, #10]
 691 007c 1740     		ands	r7, r7, r2
 692              	.LVL58:
 587:Drivers/STM32F3xx_HAL_Driver/Src/stm32f3xx_hal_flash_ex.c ****         
 693              		.loc 1 587 18 view .LVU185
 694 007e 5F81     		strh	r7, [r3, #10]	@ movhi
 590:Drivers/STM32F3xx_HAL_Driver/Src/stm32f3xx_hal_flash_ex.c ****       }
 695              		.loc 1 590 9 is_stmt 1 view .LVU186
 590:Drivers/STM32F3xx_HAL_Driver/Src/stm32f3xx_hal_flash_ex.c ****       }
 696              		.loc 1 590 18 is_stmt 0 view .LVU187
 697 0080 4CF25030 		movw	r0, #50000
 698 0084 FFF7FEFF 		bl	FLASH_WaitForLastOperation
 699              	.LVL59:
 700 0088 0346     		mov	r3, r0
 701              	.LVL60:
 590:Drivers/STM32F3xx_HAL_Driver/Src/stm32f3xx_hal_flash_ex.c ****       }
 702              		.loc 1 590 18 view .LVU188
 703 008a DFE7     		b	.L43
 704              	.L50:
 597:Drivers/STM32F3xx_HAL_Driver/Src/stm32f3xx_hal_flash_ex.c ****         
 705              		.loc 1 597 9 is_stmt 1 view .LVU189
 597:Drivers/STM32F3xx_HAL_Driver/Src/stm32f3xx_hal_flash_ex.c ****         
 706              		.loc 1 597 18 is_stmt 0 view .LVU190
 707 008c 0B4B     		ldr	r3, .L52+8
 708              	.LVL61:
 597:Drivers/STM32F3xx_HAL_Driver/Src/stm32f3xx_hal_flash_ex.c ****         
 709              		.loc 1 597 18 view .LVU191
 710 008e 9A89     		ldrh	r2, [r3, #12]
 711 0090 1640     		ands	r6, r6, r2
 712              	.LVL62:
 597:Drivers/STM32F3xx_HAL_Driver/Src/stm32f3xx_hal_flash_ex.c ****         
 713              		.loc 1 597 18 view .LVU192
 714 0092 9E81     		strh	r6, [r3, #12]	@ movhi
 600:Drivers/STM32F3xx_HAL_Driver/Src/stm32f3xx_hal_flash_ex.c ****       }
 715              		.loc 1 600 9 is_stmt 1 view .LVU193
ARM GAS  /var/folders/jw/jcj5j9_530958b2rm5vp9wn00000gn/T//ccXdJM12.s 			page 50


 600:Drivers/STM32F3xx_HAL_Driver/Src/stm32f3xx_hal_flash_ex.c ****       }
 716              		.loc 1 600 18 is_stmt 0 view .LVU194
 717 0094 4CF25030 		movw	r0, #50000
 718 0098 FFF7FEFF 		bl	FLASH_WaitForLastOperation
 719              	.LVL63:
 720 009c 0346     		mov	r3, r0
 721              	.LVL64:
 600:Drivers/STM32F3xx_HAL_Driver/Src/stm32f3xx_hal_flash_ex.c ****       }
 722              		.loc 1 600 18 view .LVU195
 723 009e D8E7     		b	.L44
 724              	.L51:
 607:Drivers/STM32F3xx_HAL_Driver/Src/stm32f3xx_hal_flash_ex.c ****         
 725              		.loc 1 607 9 is_stmt 1 view .LVU196
 607:Drivers/STM32F3xx_HAL_Driver/Src/stm32f3xx_hal_flash_ex.c ****         
 726              		.loc 1 607 18 is_stmt 0 view .LVU197
 727 00a0 064B     		ldr	r3, .L52+8
 728              	.LVL65:
 607:Drivers/STM32F3xx_HAL_Driver/Src/stm32f3xx_hal_flash_ex.c ****         
 729              		.loc 1 607 18 view .LVU198
 730 00a2 D889     		ldrh	r0, [r3, #14]
 731 00a4 2040     		ands	r0, r0, r4
 732 00a6 D881     		strh	r0, [r3, #14]	@ movhi
 610:Drivers/STM32F3xx_HAL_Driver/Src/stm32f3xx_hal_flash_ex.c ****       }
 733              		.loc 1 610 9 is_stmt 1 view .LVU199
 610:Drivers/STM32F3xx_HAL_Driver/Src/stm32f3xx_hal_flash_ex.c ****       }
 734              		.loc 1 610 18 is_stmt 0 view .LVU200
 735 00a8 4CF25030 		movw	r0, #50000
 736 00ac FFF7FEFF 		bl	FLASH_WaitForLastOperation
 737              	.LVL66:
 738 00b0 0346     		mov	r3, r0
 739              	.LVL67:
 610:Drivers/STM32F3xx_HAL_Driver/Src/stm32f3xx_hal_flash_ex.c ****       }
 740              		.loc 1 610 18 view .LVU201
 741 00b2 D1E7     		b	.L45
 742              	.L53:
 743              		.align	2
 744              	.L52:
 745 00b4 00000000 		.word	pFlash
 746 00b8 00200240 		.word	1073881088
 747 00bc 00F8FF1F 		.word	536868864
 748              		.cfi_endproc
 749              	.LFE137:
 751              		.section	.text.FLASH_OB_DisableWRP,"ax",%progbits
 752              		.align	1
 753              		.syntax unified
 754              		.thumb
 755              		.thumb_func
 756              		.fpu fpv4-sp-d16
 758              	FLASH_OB_DisableWRP:
 759              	.LVL68:
 760              	.LFB138:
 634:Drivers/STM32F3xx_HAL_Driver/Src/stm32f3xx_hal_flash_ex.c ****   HAL_StatusTypeDef status = HAL_OK;
 761              		.loc 1 634 1 is_stmt 1 view -0
 762              		.cfi_startproc
 763              		@ args = 0, pretend = 0, frame = 0
 764              		@ frame_needed = 0, uses_anonymous_args = 0
 634:Drivers/STM32F3xx_HAL_Driver/Src/stm32f3xx_hal_flash_ex.c ****   HAL_StatusTypeDef status = HAL_OK;
ARM GAS  /var/folders/jw/jcj5j9_530958b2rm5vp9wn00000gn/T//ccXdJM12.s 			page 51


 765              		.loc 1 634 1 is_stmt 0 view .LVU203
 766 0000 F8B5     		push	{r3, r4, r5, r6, r7, lr}
 767              	.LCFI5:
 768              		.cfi_def_cfa_offset 24
 769              		.cfi_offset 3, -24
 770              		.cfi_offset 4, -20
 771              		.cfi_offset 5, -16
 772              		.cfi_offset 6, -12
 773              		.cfi_offset 7, -8
 774              		.cfi_offset 14, -4
 775 0002 0446     		mov	r4, r0
 635:Drivers/STM32F3xx_HAL_Driver/Src/stm32f3xx_hal_flash_ex.c ****   uint16_t WRP0_Data = 0xFFFFU;
 776              		.loc 1 635 3 is_stmt 1 view .LVU204
 777              	.LVL69:
 636:Drivers/STM32F3xx_HAL_Driver/Src/stm32f3xx_hal_flash_ex.c **** #if defined(OB_WRP1_WRP1)
 778              		.loc 1 636 3 view .LVU205
 638:Drivers/STM32F3xx_HAL_Driver/Src/stm32f3xx_hal_flash_ex.c **** #endif /* OB_WRP1_WRP1 */
 779              		.loc 1 638 3 view .LVU206
 641:Drivers/STM32F3xx_HAL_Driver/Src/stm32f3xx_hal_flash_ex.c **** #endif /* OB_WRP2_WRP2 */
 780              		.loc 1 641 3 view .LVU207
 644:Drivers/STM32F3xx_HAL_Driver/Src/stm32f3xx_hal_flash_ex.c **** #endif /* OB_WRP3_WRP3 */
 781              		.loc 1 644 3 view .LVU208
 648:Drivers/STM32F3xx_HAL_Driver/Src/stm32f3xx_hal_flash_ex.c **** 
 782              		.loc 1 648 3 view .LVU209
 651:Drivers/STM32F3xx_HAL_Driver/Src/stm32f3xx_hal_flash_ex.c **** 
 783              		.loc 1 651 3 view .LVU210
 651:Drivers/STM32F3xx_HAL_Driver/Src/stm32f3xx_hal_flash_ex.c **** 
 784              		.loc 1 651 23 is_stmt 0 view .LVU211
 785 0004 FFF7FEFF 		bl	FLASH_OB_GetWRP
 786              	.LVL70:
 651:Drivers/STM32F3xx_HAL_Driver/Src/stm32f3xx_hal_flash_ex.c **** 
 787              		.loc 1 651 20 view .LVU212
 788 0008 2043     		orrs	r0, r0, r4
 789              	.LVL71:
 654:Drivers/STM32F3xx_HAL_Driver/Src/stm32f3xx_hal_flash_ex.c **** #endif /* OB_WRP_PAGES0TO31MASK */
 790              		.loc 1 654 3 is_stmt 1 view .LVU213
 654:Drivers/STM32F3xx_HAL_Driver/Src/stm32f3xx_hal_flash_ex.c **** #endif /* OB_WRP_PAGES0TO31MASK */
 791              		.loc 1 654 13 is_stmt 0 view .LVU214
 792 000a C5B2     		uxtb	r5, r0
 793              	.LVL72:
 658:Drivers/STM32F3xx_HAL_Driver/Src/stm32f3xx_hal_flash_ex.c **** #endif /* OB_WRP_PAGES32TO63MASK */
 794              		.loc 1 658 3 is_stmt 1 view .LVU215
 658:Drivers/STM32F3xx_HAL_Driver/Src/stm32f3xx_hal_flash_ex.c **** #endif /* OB_WRP_PAGES32TO63MASK */
 795              		.loc 1 658 13 is_stmt 0 view .LVU216
 796 000c C0F30727 		ubfx	r7, r0, #8, #8
 797              	.LVL73:
 662:Drivers/STM32F3xx_HAL_Driver/Src/stm32f3xx_hal_flash_ex.c **** #endif /* OB_WRP_PAGES32TO47MASK */
 798              		.loc 1 662 3 is_stmt 1 view .LVU217
 662:Drivers/STM32F3xx_HAL_Driver/Src/stm32f3xx_hal_flash_ex.c **** #endif /* OB_WRP_PAGES32TO47MASK */
 799              		.loc 1 662 13 is_stmt 0 view .LVU218
 800 0010 C0F30746 		ubfx	r6, r0, #16, #8
 801              	.LVL74:
 666:Drivers/STM32F3xx_HAL_Driver/Src/stm32f3xx_hal_flash_ex.c **** #elif defined(OB_WRP_PAGES48TO255MASK)
 802              		.loc 1 666 3 is_stmt 1 view .LVU219
 666:Drivers/STM32F3xx_HAL_Driver/Src/stm32f3xx_hal_flash_ex.c **** #elif defined(OB_WRP_PAGES48TO255MASK)
 803              		.loc 1 666 13 is_stmt 0 view .LVU220
 804 0014 040E     		lsrs	r4, r0, #24
ARM GAS  /var/folders/jw/jcj5j9_530958b2rm5vp9wn00000gn/T//ccXdJM12.s 			page 52


 805              	.LVL75:
 673:Drivers/STM32F3xx_HAL_Driver/Src/stm32f3xx_hal_flash_ex.c **** 
 806              		.loc 1 673 3 is_stmt 1 view .LVU221
 673:Drivers/STM32F3xx_HAL_Driver/Src/stm32f3xx_hal_flash_ex.c **** 
 807              		.loc 1 673 12 is_stmt 0 view .LVU222
 808 0016 4CF25030 		movw	r0, #50000
 809              	.LVL76:
 673:Drivers/STM32F3xx_HAL_Driver/Src/stm32f3xx_hal_flash_ex.c **** 
 810              		.loc 1 673 12 view .LVU223
 811 001a FFF7FEFF 		bl	FLASH_WaitForLastOperation
 812              	.LVL77:
 675:Drivers/STM32F3xx_HAL_Driver/Src/stm32f3xx_hal_flash_ex.c ****   { 
 813              		.loc 1 675 3 is_stmt 1 view .LVU224
 675:Drivers/STM32F3xx_HAL_Driver/Src/stm32f3xx_hal_flash_ex.c ****   { 
 814              		.loc 1 675 5 is_stmt 0 view .LVU225
 815 001e 0346     		mov	r3, r0
 816 0020 08B1     		cbz	r0, .L61
 817              	.LVL78:
 818              	.L55:
 730:Drivers/STM32F3xx_HAL_Driver/Src/stm32f3xx_hal_flash_ex.c **** }
 819              		.loc 1 730 3 is_stmt 1 view .LVU226
 731:Drivers/STM32F3xx_HAL_Driver/Src/stm32f3xx_hal_flash_ex.c **** 
 820              		.loc 1 731 1 is_stmt 0 view .LVU227
 821 0022 1846     		mov	r0, r3
 822 0024 F8BD     		pop	{r3, r4, r5, r6, r7, pc}
 823              	.LVL79:
 824              	.L61:
 678:Drivers/STM32F3xx_HAL_Driver/Src/stm32f3xx_hal_flash_ex.c **** 
 825              		.loc 1 678 5 is_stmt 1 view .LVU228
 678:Drivers/STM32F3xx_HAL_Driver/Src/stm32f3xx_hal_flash_ex.c **** 
 826              		.loc 1 678 22 is_stmt 0 view .LVU229
 827 0026 254B     		ldr	r3, .L66
 828 0028 0022     		movs	r2, #0
 829 002a DA61     		str	r2, [r3, #28]
 681:Drivers/STM32F3xx_HAL_Driver/Src/stm32f3xx_hal_flash_ex.c ****     if (status == HAL_OK)  
 830              		.loc 1 681 5 is_stmt 1 view .LVU230
 681:Drivers/STM32F3xx_HAL_Driver/Src/stm32f3xx_hal_flash_ex.c ****     if (status == HAL_OK)  
 831              		.loc 1 681 14 is_stmt 0 view .LVU231
 832 002c FFF7FEFF 		bl	HAL_FLASHEx_OBErase
 833              	.LVL80:
 682:Drivers/STM32F3xx_HAL_Driver/Src/stm32f3xx_hal_flash_ex.c ****     {
 834              		.loc 1 682 5 is_stmt 1 view .LVU232
 682:Drivers/STM32F3xx_HAL_Driver/Src/stm32f3xx_hal_flash_ex.c ****     {
 835              		.loc 1 682 8 is_stmt 0 view .LVU233
 836 0030 0346     		mov	r3, r0
 837 0032 0028     		cmp	r0, #0
 838 0034 F5D1     		bne	.L55
 684:Drivers/STM32F3xx_HAL_Driver/Src/stm32f3xx_hal_flash_ex.c **** 
 839              		.loc 1 684 7 is_stmt 1 view .LVU234
 840 0036 2249     		ldr	r1, .L66+4
 841 0038 0A69     		ldr	r2, [r1, #16]
 842 003a 42F01002 		orr	r2, r2, #16
 843 003e 0A61     		str	r2, [r1, #16]
 687:Drivers/STM32F3xx_HAL_Driver/Src/stm32f3xx_hal_flash_ex.c ****       {
 844              		.loc 1 687 7 view .LVU235
 687:Drivers/STM32F3xx_HAL_Driver/Src/stm32f3xx_hal_flash_ex.c ****       {
 845              		.loc 1 687 9 is_stmt 0 view .LVU236
ARM GAS  /var/folders/jw/jcj5j9_530958b2rm5vp9wn00000gn/T//ccXdJM12.s 			page 53


 846 0040 FF2D     		cmp	r5, #255
 847 0042 0ED1     		bne	.L62
 848              	.LVL81:
 849              	.L56:
 697:Drivers/STM32F3xx_HAL_Driver/Src/stm32f3xx_hal_flash_ex.c ****       {
 850              		.loc 1 697 7 is_stmt 1 view .LVU237
 697:Drivers/STM32F3xx_HAL_Driver/Src/stm32f3xx_hal_flash_ex.c ****       {
 851              		.loc 1 697 9 is_stmt 0 view .LVU238
 852 0044 0BB9     		cbnz	r3, .L57
 697:Drivers/STM32F3xx_HAL_Driver/Src/stm32f3xx_hal_flash_ex.c ****       {
 853              		.loc 1 697 29 discriminator 1 view .LVU239
 854 0046 FF2F     		cmp	r7, #255
 855 0048 16D1     		bne	.L63
 856              	.LVL82:
 857              	.L57:
 707:Drivers/STM32F3xx_HAL_Driver/Src/stm32f3xx_hal_flash_ex.c ****       {
 858              		.loc 1 707 7 is_stmt 1 view .LVU240
 707:Drivers/STM32F3xx_HAL_Driver/Src/stm32f3xx_hal_flash_ex.c ****       {
 859              		.loc 1 707 9 is_stmt 0 view .LVU241
 860 004a 0BB9     		cbnz	r3, .L58
 707:Drivers/STM32F3xx_HAL_Driver/Src/stm32f3xx_hal_flash_ex.c ****       {
 861              		.loc 1 707 29 discriminator 1 view .LVU242
 862 004c FF2E     		cmp	r6, #255
 863 004e 1ED1     		bne	.L64
 864              	.LVL83:
 865              	.L58:
 717:Drivers/STM32F3xx_HAL_Driver/Src/stm32f3xx_hal_flash_ex.c ****       {
 866              		.loc 1 717 7 is_stmt 1 view .LVU243
 717:Drivers/STM32F3xx_HAL_Driver/Src/stm32f3xx_hal_flash_ex.c ****       {
 867              		.loc 1 717 9 is_stmt 0 view .LVU244
 868 0050 0BB9     		cbnz	r3, .L59
 717:Drivers/STM32F3xx_HAL_Driver/Src/stm32f3xx_hal_flash_ex.c ****       {
 869              		.loc 1 717 29 discriminator 1 view .LVU245
 870 0052 FF2C     		cmp	r4, #255
 871 0054 26D1     		bne	.L65
 872              	.L59:
 727:Drivers/STM32F3xx_HAL_Driver/Src/stm32f3xx_hal_flash_ex.c ****     }
 873              		.loc 1 727 7 is_stmt 1 view .LVU246
 874 0056 1A49     		ldr	r1, .L66+4
 875 0058 0A69     		ldr	r2, [r1, #16]
 876 005a 22F01002 		bic	r2, r2, #16
 877 005e 0A61     		str	r2, [r1, #16]
 878 0060 DFE7     		b	.L55
 879              	.LVL84:
 880              	.L62:
 689:Drivers/STM32F3xx_HAL_Driver/Src/stm32f3xx_hal_flash_ex.c ****         
 881              		.loc 1 689 9 view .LVU247
 689:Drivers/STM32F3xx_HAL_Driver/Src/stm32f3xx_hal_flash_ex.c ****         
 882              		.loc 1 689 18 is_stmt 0 view .LVU248
 883 0062 184A     		ldr	r2, .L66+8
 884 0064 1389     		ldrh	r3, [r2, #8]
 885 0066 9BB2     		uxth	r3, r3
 886 0068 1D43     		orrs	r5, r5, r3
 887              	.LVL85:
 689:Drivers/STM32F3xx_HAL_Driver/Src/stm32f3xx_hal_flash_ex.c ****         
 888              		.loc 1 689 18 view .LVU249
 889 006a 1581     		strh	r5, [r2, #8]	@ movhi
ARM GAS  /var/folders/jw/jcj5j9_530958b2rm5vp9wn00000gn/T//ccXdJM12.s 			page 54


 692:Drivers/STM32F3xx_HAL_Driver/Src/stm32f3xx_hal_flash_ex.c ****       }
 890              		.loc 1 692 9 is_stmt 1 view .LVU250
 692:Drivers/STM32F3xx_HAL_Driver/Src/stm32f3xx_hal_flash_ex.c ****       }
 891              		.loc 1 692 18 is_stmt 0 view .LVU251
 892 006c 4CF25030 		movw	r0, #50000
 893              	.LVL86:
 692:Drivers/STM32F3xx_HAL_Driver/Src/stm32f3xx_hal_flash_ex.c ****       }
 894              		.loc 1 692 18 view .LVU252
 895 0070 FFF7FEFF 		bl	FLASH_WaitForLastOperation
 896              	.LVL87:
 897 0074 0346     		mov	r3, r0
 898              	.LVL88:
 692:Drivers/STM32F3xx_HAL_Driver/Src/stm32f3xx_hal_flash_ex.c ****       }
 899              		.loc 1 692 18 view .LVU253
 900 0076 E5E7     		b	.L56
 901              	.L63:
 699:Drivers/STM32F3xx_HAL_Driver/Src/stm32f3xx_hal_flash_ex.c ****         
 902              		.loc 1 699 9 is_stmt 1 view .LVU254
 699:Drivers/STM32F3xx_HAL_Driver/Src/stm32f3xx_hal_flash_ex.c ****         
 903              		.loc 1 699 18 is_stmt 0 view .LVU255
 904 0078 124A     		ldr	r2, .L66+8
 905 007a 5389     		ldrh	r3, [r2, #10]
 906              	.LVL89:
 699:Drivers/STM32F3xx_HAL_Driver/Src/stm32f3xx_hal_flash_ex.c ****         
 907              		.loc 1 699 18 view .LVU256
 908 007c 9BB2     		uxth	r3, r3
 909 007e 1F43     		orrs	r7, r7, r3
 910              	.LVL90:
 699:Drivers/STM32F3xx_HAL_Driver/Src/stm32f3xx_hal_flash_ex.c ****         
 911              		.loc 1 699 18 view .LVU257
 912 0080 5781     		strh	r7, [r2, #10]	@ movhi
 702:Drivers/STM32F3xx_HAL_Driver/Src/stm32f3xx_hal_flash_ex.c ****       }
 913              		.loc 1 702 9 is_stmt 1 view .LVU258
 702:Drivers/STM32F3xx_HAL_Driver/Src/stm32f3xx_hal_flash_ex.c ****       }
 914              		.loc 1 702 18 is_stmt 0 view .LVU259
 915 0082 4CF25030 		movw	r0, #50000
 916 0086 FFF7FEFF 		bl	FLASH_WaitForLastOperation
 917              	.LVL91:
 918 008a 0346     		mov	r3, r0
 919              	.LVL92:
 702:Drivers/STM32F3xx_HAL_Driver/Src/stm32f3xx_hal_flash_ex.c ****       }
 920              		.loc 1 702 18 view .LVU260
 921 008c DDE7     		b	.L57
 922              	.L64:
 709:Drivers/STM32F3xx_HAL_Driver/Src/stm32f3xx_hal_flash_ex.c ****         
 923              		.loc 1 709 9 is_stmt 1 view .LVU261
 709:Drivers/STM32F3xx_HAL_Driver/Src/stm32f3xx_hal_flash_ex.c ****         
 924              		.loc 1 709 18 is_stmt 0 view .LVU262
 925 008e 0D4A     		ldr	r2, .L66+8
 926 0090 9389     		ldrh	r3, [r2, #12]
 927              	.LVL93:
 709:Drivers/STM32F3xx_HAL_Driver/Src/stm32f3xx_hal_flash_ex.c ****         
 928              		.loc 1 709 18 view .LVU263
 929 0092 9BB2     		uxth	r3, r3
 930 0094 1E43     		orrs	r6, r6, r3
 931              	.LVL94:
 709:Drivers/STM32F3xx_HAL_Driver/Src/stm32f3xx_hal_flash_ex.c ****         
ARM GAS  /var/folders/jw/jcj5j9_530958b2rm5vp9wn00000gn/T//ccXdJM12.s 			page 55


 932              		.loc 1 709 18 view .LVU264
 933 0096 9681     		strh	r6, [r2, #12]	@ movhi
 712:Drivers/STM32F3xx_HAL_Driver/Src/stm32f3xx_hal_flash_ex.c ****       }
 934              		.loc 1 712 9 is_stmt 1 view .LVU265
 712:Drivers/STM32F3xx_HAL_Driver/Src/stm32f3xx_hal_flash_ex.c ****       }
 935              		.loc 1 712 18 is_stmt 0 view .LVU266
 936 0098 4CF25030 		movw	r0, #50000
 937 009c FFF7FEFF 		bl	FLASH_WaitForLastOperation
 938              	.LVL95:
 939 00a0 0346     		mov	r3, r0
 940              	.LVL96:
 712:Drivers/STM32F3xx_HAL_Driver/Src/stm32f3xx_hal_flash_ex.c ****       }
 941              		.loc 1 712 18 view .LVU267
 942 00a2 D5E7     		b	.L58
 943              	.L65:
 719:Drivers/STM32F3xx_HAL_Driver/Src/stm32f3xx_hal_flash_ex.c ****         
 944              		.loc 1 719 9 is_stmt 1 view .LVU268
 719:Drivers/STM32F3xx_HAL_Driver/Src/stm32f3xx_hal_flash_ex.c ****         
 945              		.loc 1 719 18 is_stmt 0 view .LVU269
 946 00a4 074B     		ldr	r3, .L66+8
 947              	.LVL97:
 719:Drivers/STM32F3xx_HAL_Driver/Src/stm32f3xx_hal_flash_ex.c ****         
 948              		.loc 1 719 18 view .LVU270
 949 00a6 D889     		ldrh	r0, [r3, #14]
 950 00a8 80B2     		uxth	r0, r0
 951 00aa 2043     		orrs	r0, r0, r4
 952 00ac D881     		strh	r0, [r3, #14]	@ movhi
 722:Drivers/STM32F3xx_HAL_Driver/Src/stm32f3xx_hal_flash_ex.c ****       }
 953              		.loc 1 722 9 is_stmt 1 view .LVU271
 722:Drivers/STM32F3xx_HAL_Driver/Src/stm32f3xx_hal_flash_ex.c ****       }
 954              		.loc 1 722 18 is_stmt 0 view .LVU272
 955 00ae 4CF25030 		movw	r0, #50000
 956 00b2 FFF7FEFF 		bl	FLASH_WaitForLastOperation
 957              	.LVL98:
 958 00b6 0346     		mov	r3, r0
 959              	.LVL99:
 722:Drivers/STM32F3xx_HAL_Driver/Src/stm32f3xx_hal_flash_ex.c ****       }
 960              		.loc 1 722 18 view .LVU273
 961 00b8 CDE7     		b	.L59
 962              	.L67:
 963 00ba 00BF     		.align	2
 964              	.L66:
 965 00bc 00000000 		.word	pFlash
 966 00c0 00200240 		.word	1073881088
 967 00c4 00F8FF1F 		.word	536868864
 968              		.cfi_endproc
 969              	.LFE138:
 971              		.section	.text.HAL_FLASHEx_OBProgram,"ax",%progbits
 972              		.align	1
 973              		.global	HAL_FLASHEx_OBProgram
 974              		.syntax unified
 975              		.thumb
 976              		.thumb_func
 977              		.fpu fpv4-sp-d16
 979              	HAL_FLASHEx_OBProgram:
 980              	.LVL100:
 981              	.LFB133:
ARM GAS  /var/folders/jw/jcj5j9_530958b2rm5vp9wn00000gn/T//ccXdJM12.s 			page 56


 363:Drivers/STM32F3xx_HAL_Driver/Src/stm32f3xx_hal_flash_ex.c ****   HAL_StatusTypeDef status = HAL_ERROR;
 982              		.loc 1 363 1 is_stmt 1 view -0
 983              		.cfi_startproc
 984              		@ args = 0, pretend = 0, frame = 0
 985              		@ frame_needed = 0, uses_anonymous_args = 0
 364:Drivers/STM32F3xx_HAL_Driver/Src/stm32f3xx_hal_flash_ex.c **** 
 986              		.loc 1 364 3 view .LVU275
 367:Drivers/STM32F3xx_HAL_Driver/Src/stm32f3xx_hal_flash_ex.c **** 
 987              		.loc 1 367 3 view .LVU276
 367:Drivers/STM32F3xx_HAL_Driver/Src/stm32f3xx_hal_flash_ex.c **** 
 988              		.loc 1 367 3 view .LVU277
 989 0000 254B     		ldr	r3, .L86
 990 0002 1B7E     		ldrb	r3, [r3, #24]	@ zero_extendqisi2
 991 0004 012B     		cmp	r3, #1
 992 0006 44D0     		beq	.L76
 363:Drivers/STM32F3xx_HAL_Driver/Src/stm32f3xx_hal_flash_ex.c ****   HAL_StatusTypeDef status = HAL_ERROR;
 993              		.loc 1 363 1 is_stmt 0 discriminator 2 view .LVU278
 994 0008 10B5     		push	{r4, lr}
 995              	.LCFI6:
 996              		.cfi_def_cfa_offset 8
 997              		.cfi_offset 4, -8
 998              		.cfi_offset 14, -4
 999 000a 0446     		mov	r4, r0
 367:Drivers/STM32F3xx_HAL_Driver/Src/stm32f3xx_hal_flash_ex.c **** 
 1000              		.loc 1 367 3 is_stmt 1 discriminator 2 view .LVU279
 1001 000c 224B     		ldr	r3, .L86
 1002 000e 0122     		movs	r2, #1
 1003 0010 1A76     		strb	r2, [r3, #24]
 367:Drivers/STM32F3xx_HAL_Driver/Src/stm32f3xx_hal_flash_ex.c **** 
 1004              		.loc 1 367 3 discriminator 2 view .LVU280
 370:Drivers/STM32F3xx_HAL_Driver/Src/stm32f3xx_hal_flash_ex.c **** 
 1005              		.loc 1 370 3 discriminator 2 view .LVU281
 373:Drivers/STM32F3xx_HAL_Driver/Src/stm32f3xx_hal_flash_ex.c ****   {
 1006              		.loc 1 373 3 discriminator 2 view .LVU282
 373:Drivers/STM32F3xx_HAL_Driver/Src/stm32f3xx_hal_flash_ex.c ****   {
 1007              		.loc 1 373 14 is_stmt 0 discriminator 2 view .LVU283
 1008 0012 0368     		ldr	r3, [r0]
 373:Drivers/STM32F3xx_HAL_Driver/Src/stm32f3xx_hal_flash_ex.c ****   {
 1009              		.loc 1 373 5 discriminator 2 view .LVU284
 1010 0014 13F0010F 		tst	r3, #1
 1011 0018 0ED0     		beq	.L77
 375:Drivers/STM32F3xx_HAL_Driver/Src/stm32f3xx_hal_flash_ex.c ****     if (pOBInit->WRPState == OB_WRPSTATE_ENABLE)
 1012              		.loc 1 375 5 is_stmt 1 view .LVU285
 376:Drivers/STM32F3xx_HAL_Driver/Src/stm32f3xx_hal_flash_ex.c ****     {
 1013              		.loc 1 376 5 view .LVU286
 376:Drivers/STM32F3xx_HAL_Driver/Src/stm32f3xx_hal_flash_ex.c ****     {
 1014              		.loc 1 376 16 is_stmt 0 view .LVU287
 1015 001a 4368     		ldr	r3, [r0, #4]
 376:Drivers/STM32F3xx_HAL_Driver/Src/stm32f3xx_hal_flash_ex.c ****     {
 1016              		.loc 1 376 8 view .LVU288
 1017 001c 9342     		cmp	r3, r2
 1018 001e 07D0     		beq	.L82
 384:Drivers/STM32F3xx_HAL_Driver/Src/stm32f3xx_hal_flash_ex.c ****     }
 1019              		.loc 1 384 7 is_stmt 1 view .LVU289
 384:Drivers/STM32F3xx_HAL_Driver/Src/stm32f3xx_hal_flash_ex.c ****     }
 1020              		.loc 1 384 16 is_stmt 0 view .LVU290
 1021 0020 8068     		ldr	r0, [r0, #8]
ARM GAS  /var/folders/jw/jcj5j9_530958b2rm5vp9wn00000gn/T//ccXdJM12.s 			page 57


 1022              	.LVL101:
 384:Drivers/STM32F3xx_HAL_Driver/Src/stm32f3xx_hal_flash_ex.c ****     }
 1023              		.loc 1 384 16 view .LVU291
 1024 0022 FFF7FEFF 		bl	FLASH_OB_DisableWRP
 1025              	.LVL102:
 1026              	.L72:
 386:Drivers/STM32F3xx_HAL_Driver/Src/stm32f3xx_hal_flash_ex.c ****     {
 1027              		.loc 1 386 5 is_stmt 1 view .LVU292
 386:Drivers/STM32F3xx_HAL_Driver/Src/stm32f3xx_hal_flash_ex.c ****     {
 1028              		.loc 1 386 8 is_stmt 0 view .LVU293
 1029 0026 40B1     		cbz	r0, .L70
 389:Drivers/STM32F3xx_HAL_Driver/Src/stm32f3xx_hal_flash_ex.c ****       return status;
 1030              		.loc 1 389 7 is_stmt 1 view .LVU294
 389:Drivers/STM32F3xx_HAL_Driver/Src/stm32f3xx_hal_flash_ex.c ****       return status;
 1031              		.loc 1 389 7 view .LVU295
 1032 0028 1B4B     		ldr	r3, .L86
 1033 002a 0022     		movs	r2, #0
 1034 002c 1A76     		strb	r2, [r3, #24]
 389:Drivers/STM32F3xx_HAL_Driver/Src/stm32f3xx_hal_flash_ex.c ****       return status;
 1035              		.loc 1 389 7 view .LVU296
 390:Drivers/STM32F3xx_HAL_Driver/Src/stm32f3xx_hal_flash_ex.c ****     }
 1036              		.loc 1 390 7 view .LVU297
 390:Drivers/STM32F3xx_HAL_Driver/Src/stm32f3xx_hal_flash_ex.c ****     }
 1037              		.loc 1 390 14 is_stmt 0 view .LVU298
 1038 002e 13E0     		b	.L69
 1039              	.LVL103:
 1040              	.L82:
 379:Drivers/STM32F3xx_HAL_Driver/Src/stm32f3xx_hal_flash_ex.c ****     }
 1041              		.loc 1 379 7 is_stmt 1 view .LVU299
 379:Drivers/STM32F3xx_HAL_Driver/Src/stm32f3xx_hal_flash_ex.c ****     }
 1042              		.loc 1 379 16 is_stmt 0 view .LVU300
 1043 0030 8068     		ldr	r0, [r0, #8]
 1044              	.LVL104:
 379:Drivers/STM32F3xx_HAL_Driver/Src/stm32f3xx_hal_flash_ex.c ****     }
 1045              		.loc 1 379 16 view .LVU301
 1046 0032 FFF7FEFF 		bl	FLASH_OB_EnableWRP
 1047              	.LVL105:
 379:Drivers/STM32F3xx_HAL_Driver/Src/stm32f3xx_hal_flash_ex.c ****     }
 1048              		.loc 1 379 16 view .LVU302
 1049 0036 F6E7     		b	.L72
 1050              	.LVL106:
 1051              	.L77:
 364:Drivers/STM32F3xx_HAL_Driver/Src/stm32f3xx_hal_flash_ex.c **** 
 1052              		.loc 1 364 21 view .LVU303
 1053 0038 0120     		movs	r0, #1
 1054              	.LVL107:
 1055              	.L70:
 395:Drivers/STM32F3xx_HAL_Driver/Src/stm32f3xx_hal_flash_ex.c ****   {
 1056              		.loc 1 395 3 is_stmt 1 view .LVU304
 395:Drivers/STM32F3xx_HAL_Driver/Src/stm32f3xx_hal_flash_ex.c ****   {
 1057              		.loc 1 395 14 is_stmt 0 view .LVU305
 1058 003a 2368     		ldr	r3, [r4]
 395:Drivers/STM32F3xx_HAL_Driver/Src/stm32f3xx_hal_flash_ex.c ****   {
 1059              		.loc 1 395 5 view .LVU306
 1060 003c 13F0020F 		tst	r3, #2
 1061 0040 0BD1     		bne	.L83
 1062              	.L73:
ARM GAS  /var/folders/jw/jcj5j9_530958b2rm5vp9wn00000gn/T//ccXdJM12.s 			page 58


 407:Drivers/STM32F3xx_HAL_Driver/Src/stm32f3xx_hal_flash_ex.c ****   {
 1063              		.loc 1 407 3 is_stmt 1 view .LVU307
 407:Drivers/STM32F3xx_HAL_Driver/Src/stm32f3xx_hal_flash_ex.c ****   {
 1064              		.loc 1 407 14 is_stmt 0 view .LVU308
 1065 0042 2368     		ldr	r3, [r4]
 407:Drivers/STM32F3xx_HAL_Driver/Src/stm32f3xx_hal_flash_ex.c ****   {
 1066              		.loc 1 407 5 view .LVU309
 1067 0044 13F0040F 		tst	r3, #4
 1068 0048 10D1     		bne	.L84
 1069              	.L74:
 419:Drivers/STM32F3xx_HAL_Driver/Src/stm32f3xx_hal_flash_ex.c ****   {
 1070              		.loc 1 419 3 is_stmt 1 view .LVU310
 419:Drivers/STM32F3xx_HAL_Driver/Src/stm32f3xx_hal_flash_ex.c ****   {
 1071              		.loc 1 419 14 is_stmt 0 view .LVU311
 1072 004a 2368     		ldr	r3, [r4]
 419:Drivers/STM32F3xx_HAL_Driver/Src/stm32f3xx_hal_flash_ex.c ****   {
 1073              		.loc 1 419 5 view .LVU312
 1074 004c 13F0080F 		tst	r3, #8
 1075 0050 15D1     		bne	.L85
 1076              	.L75:
 431:Drivers/STM32F3xx_HAL_Driver/Src/stm32f3xx_hal_flash_ex.c **** 
 1077              		.loc 1 431 3 is_stmt 1 view .LVU313
 431:Drivers/STM32F3xx_HAL_Driver/Src/stm32f3xx_hal_flash_ex.c **** 
 1078              		.loc 1 431 3 view .LVU314
 1079 0052 114B     		ldr	r3, .L86
 1080 0054 0022     		movs	r2, #0
 1081 0056 1A76     		strb	r2, [r3, #24]
 431:Drivers/STM32F3xx_HAL_Driver/Src/stm32f3xx_hal_flash_ex.c **** 
 1082              		.loc 1 431 3 view .LVU315
 433:Drivers/STM32F3xx_HAL_Driver/Src/stm32f3xx_hal_flash_ex.c **** }
 1083              		.loc 1 433 3 view .LVU316
 1084              	.L69:
 434:Drivers/STM32F3xx_HAL_Driver/Src/stm32f3xx_hal_flash_ex.c **** 
 1085              		.loc 1 434 1 is_stmt 0 view .LVU317
 1086 0058 10BD     		pop	{r4, pc}
 1087              	.LVL108:
 1088              	.L83:
 397:Drivers/STM32F3xx_HAL_Driver/Src/stm32f3xx_hal_flash_ex.c ****     if (status != HAL_OK)
 1089              		.loc 1 397 5 is_stmt 1 view .LVU318
 397:Drivers/STM32F3xx_HAL_Driver/Src/stm32f3xx_hal_flash_ex.c ****     if (status != HAL_OK)
 1090              		.loc 1 397 14 is_stmt 0 view .LVU319
 1091 005a 207B     		ldrb	r0, [r4, #12]	@ zero_extendqisi2
 1092              	.LVL109:
 397:Drivers/STM32F3xx_HAL_Driver/Src/stm32f3xx_hal_flash_ex.c ****     if (status != HAL_OK)
 1093              		.loc 1 397 14 view .LVU320
 1094 005c FFF7FEFF 		bl	FLASH_OB_RDP_LevelConfig
 1095              	.LVL110:
 398:Drivers/STM32F3xx_HAL_Driver/Src/stm32f3xx_hal_flash_ex.c ****     {
 1096              		.loc 1 398 5 is_stmt 1 view .LVU321
 398:Drivers/STM32F3xx_HAL_Driver/Src/stm32f3xx_hal_flash_ex.c ****     {
 1097              		.loc 1 398 8 is_stmt 0 view .LVU322
 1098 0060 0028     		cmp	r0, #0
 1099 0062 EED0     		beq	.L73
 401:Drivers/STM32F3xx_HAL_Driver/Src/stm32f3xx_hal_flash_ex.c ****       return status;
 1100              		.loc 1 401 7 is_stmt 1 view .LVU323
 401:Drivers/STM32F3xx_HAL_Driver/Src/stm32f3xx_hal_flash_ex.c ****       return status;
 1101              		.loc 1 401 7 view .LVU324
ARM GAS  /var/folders/jw/jcj5j9_530958b2rm5vp9wn00000gn/T//ccXdJM12.s 			page 59


 1102 0064 0C4B     		ldr	r3, .L86
 1103 0066 0022     		movs	r2, #0
 1104 0068 1A76     		strb	r2, [r3, #24]
 401:Drivers/STM32F3xx_HAL_Driver/Src/stm32f3xx_hal_flash_ex.c ****       return status;
 1105              		.loc 1 401 7 view .LVU325
 402:Drivers/STM32F3xx_HAL_Driver/Src/stm32f3xx_hal_flash_ex.c ****     }
 1106              		.loc 1 402 7 view .LVU326
 402:Drivers/STM32F3xx_HAL_Driver/Src/stm32f3xx_hal_flash_ex.c ****     }
 1107              		.loc 1 402 14 is_stmt 0 view .LVU327
 1108 006a F5E7     		b	.L69
 1109              	.L84:
 409:Drivers/STM32F3xx_HAL_Driver/Src/stm32f3xx_hal_flash_ex.c ****     if (status != HAL_OK)
 1110              		.loc 1 409 5 is_stmt 1 view .LVU328
 409:Drivers/STM32F3xx_HAL_Driver/Src/stm32f3xx_hal_flash_ex.c ****     if (status != HAL_OK)
 1111              		.loc 1 409 14 is_stmt 0 view .LVU329
 1112 006c 607B     		ldrb	r0, [r4, #13]	@ zero_extendqisi2
 1113              	.LVL111:
 409:Drivers/STM32F3xx_HAL_Driver/Src/stm32f3xx_hal_flash_ex.c ****     if (status != HAL_OK)
 1114              		.loc 1 409 14 view .LVU330
 1115 006e FFF7FEFF 		bl	FLASH_OB_UserConfig
 1116              	.LVL112:
 410:Drivers/STM32F3xx_HAL_Driver/Src/stm32f3xx_hal_flash_ex.c ****     {
 1117              		.loc 1 410 5 is_stmt 1 view .LVU331
 410:Drivers/STM32F3xx_HAL_Driver/Src/stm32f3xx_hal_flash_ex.c ****     {
 1118              		.loc 1 410 8 is_stmt 0 view .LVU332
 1119 0072 0028     		cmp	r0, #0
 1120 0074 E9D0     		beq	.L74
 413:Drivers/STM32F3xx_HAL_Driver/Src/stm32f3xx_hal_flash_ex.c ****       return status;
 1121              		.loc 1 413 7 is_stmt 1 view .LVU333
 413:Drivers/STM32F3xx_HAL_Driver/Src/stm32f3xx_hal_flash_ex.c ****       return status;
 1122              		.loc 1 413 7 view .LVU334
 1123 0076 084B     		ldr	r3, .L86
 1124 0078 0022     		movs	r2, #0
 1125 007a 1A76     		strb	r2, [r3, #24]
 413:Drivers/STM32F3xx_HAL_Driver/Src/stm32f3xx_hal_flash_ex.c ****       return status;
 1126              		.loc 1 413 7 view .LVU335
 414:Drivers/STM32F3xx_HAL_Driver/Src/stm32f3xx_hal_flash_ex.c ****     }
 1127              		.loc 1 414 7 view .LVU336
 414:Drivers/STM32F3xx_HAL_Driver/Src/stm32f3xx_hal_flash_ex.c ****     }
 1128              		.loc 1 414 14 is_stmt 0 view .LVU337
 1129 007c ECE7     		b	.L69
 1130              	.L85:
 421:Drivers/STM32F3xx_HAL_Driver/Src/stm32f3xx_hal_flash_ex.c ****     if (status != HAL_OK)
 1131              		.loc 1 421 5 is_stmt 1 view .LVU338
 421:Drivers/STM32F3xx_HAL_Driver/Src/stm32f3xx_hal_flash_ex.c ****     if (status != HAL_OK)
 1132              		.loc 1 421 14 is_stmt 0 view .LVU339
 1133 007e 217D     		ldrb	r1, [r4, #20]	@ zero_extendqisi2
 1134 0080 2069     		ldr	r0, [r4, #16]
 1135              	.LVL113:
 421:Drivers/STM32F3xx_HAL_Driver/Src/stm32f3xx_hal_flash_ex.c ****     if (status != HAL_OK)
 1136              		.loc 1 421 14 view .LVU340
 1137 0082 FFF7FEFF 		bl	FLASH_OB_ProgramData
 1138              	.LVL114:
 422:Drivers/STM32F3xx_HAL_Driver/Src/stm32f3xx_hal_flash_ex.c ****     {
 1139              		.loc 1 422 5 is_stmt 1 view .LVU341
 422:Drivers/STM32F3xx_HAL_Driver/Src/stm32f3xx_hal_flash_ex.c ****     {
 1140              		.loc 1 422 8 is_stmt 0 view .LVU342
ARM GAS  /var/folders/jw/jcj5j9_530958b2rm5vp9wn00000gn/T//ccXdJM12.s 			page 60


 1141 0086 0028     		cmp	r0, #0
 1142 0088 E3D0     		beq	.L75
 425:Drivers/STM32F3xx_HAL_Driver/Src/stm32f3xx_hal_flash_ex.c ****       return status;
 1143              		.loc 1 425 7 is_stmt 1 view .LVU343
 425:Drivers/STM32F3xx_HAL_Driver/Src/stm32f3xx_hal_flash_ex.c ****       return status;
 1144              		.loc 1 425 7 view .LVU344
 1145 008a 034B     		ldr	r3, .L86
 1146 008c 0022     		movs	r2, #0
 1147 008e 1A76     		strb	r2, [r3, #24]
 425:Drivers/STM32F3xx_HAL_Driver/Src/stm32f3xx_hal_flash_ex.c ****       return status;
 1148              		.loc 1 425 7 view .LVU345
 426:Drivers/STM32F3xx_HAL_Driver/Src/stm32f3xx_hal_flash_ex.c ****     }
 1149              		.loc 1 426 7 view .LVU346
 426:Drivers/STM32F3xx_HAL_Driver/Src/stm32f3xx_hal_flash_ex.c ****     }
 1150              		.loc 1 426 14 is_stmt 0 view .LVU347
 1151 0090 E2E7     		b	.L69
 1152              	.LVL115:
 1153              	.L76:
 1154              	.LCFI7:
 1155              		.cfi_def_cfa_offset 0
 1156              		.cfi_restore 4
 1157              		.cfi_restore 14
 367:Drivers/STM32F3xx_HAL_Driver/Src/stm32f3xx_hal_flash_ex.c **** 
 1158              		.loc 1 367 3 view .LVU348
 1159 0092 0220     		movs	r0, #2
 1160              	.LVL116:
 434:Drivers/STM32F3xx_HAL_Driver/Src/stm32f3xx_hal_flash_ex.c **** 
 1161              		.loc 1 434 1 view .LVU349
 1162 0094 7047     		bx	lr
 1163              	.L87:
 1164 0096 00BF     		.align	2
 1165              	.L86:
 1166 0098 00000000 		.word	pFlash
 1167              		.cfi_endproc
 1168              	.LFE133:
 1170              		.section	.text.HAL_FLASHEx_OBGetConfig,"ax",%progbits
 1171              		.align	1
 1172              		.global	HAL_FLASHEx_OBGetConfig
 1173              		.syntax unified
 1174              		.thumb
 1175              		.thumb_func
 1176              		.fpu fpv4-sp-d16
 1178              	HAL_FLASHEx_OBGetConfig:
 1179              	.LVL117:
 1180              	.LFB134:
 444:Drivers/STM32F3xx_HAL_Driver/Src/stm32f3xx_hal_flash_ex.c ****   pOBInit->OptionType = OPTIONBYTE_WRP | OPTIONBYTE_RDP | OPTIONBYTE_USER;
 1181              		.loc 1 444 1 is_stmt 1 view -0
 1182              		.cfi_startproc
 1183              		@ args = 0, pretend = 0, frame = 0
 1184              		@ frame_needed = 0, uses_anonymous_args = 0
 444:Drivers/STM32F3xx_HAL_Driver/Src/stm32f3xx_hal_flash_ex.c ****   pOBInit->OptionType = OPTIONBYTE_WRP | OPTIONBYTE_RDP | OPTIONBYTE_USER;
 1185              		.loc 1 444 1 is_stmt 0 view .LVU351
 1186 0000 10B5     		push	{r4, lr}
 1187              	.LCFI8:
 1188              		.cfi_def_cfa_offset 8
 1189              		.cfi_offset 4, -8
 1190              		.cfi_offset 14, -4
ARM GAS  /var/folders/jw/jcj5j9_530958b2rm5vp9wn00000gn/T//ccXdJM12.s 			page 61


 1191 0002 0446     		mov	r4, r0
 445:Drivers/STM32F3xx_HAL_Driver/Src/stm32f3xx_hal_flash_ex.c **** 
 1192              		.loc 1 445 3 is_stmt 1 view .LVU352
 445:Drivers/STM32F3xx_HAL_Driver/Src/stm32f3xx_hal_flash_ex.c **** 
 1193              		.loc 1 445 23 is_stmt 0 view .LVU353
 1194 0004 0723     		movs	r3, #7
 1195 0006 0360     		str	r3, [r0]
 448:Drivers/STM32F3xx_HAL_Driver/Src/stm32f3xx_hal_flash_ex.c **** 
 1196              		.loc 1 448 3 is_stmt 1 view .LVU354
 448:Drivers/STM32F3xx_HAL_Driver/Src/stm32f3xx_hal_flash_ex.c **** 
 1197              		.loc 1 448 22 is_stmt 0 view .LVU355
 1198 0008 FFF7FEFF 		bl	FLASH_OB_GetWRP
 1199              	.LVL118:
 448:Drivers/STM32F3xx_HAL_Driver/Src/stm32f3xx_hal_flash_ex.c **** 
 1200              		.loc 1 448 20 view .LVU356
 1201 000c A060     		str	r0, [r4, #8]
 451:Drivers/STM32F3xx_HAL_Driver/Src/stm32f3xx_hal_flash_ex.c **** 
 1202              		.loc 1 451 3 is_stmt 1 view .LVU357
 451:Drivers/STM32F3xx_HAL_Driver/Src/stm32f3xx_hal_flash_ex.c **** 
 1203              		.loc 1 451 23 is_stmt 0 view .LVU358
 1204 000e FFF7FEFF 		bl	FLASH_OB_GetRDP
 1205              	.LVL119:
 451:Drivers/STM32F3xx_HAL_Driver/Src/stm32f3xx_hal_flash_ex.c **** 
 1206              		.loc 1 451 21 view .LVU359
 1207 0012 2073     		strb	r0, [r4, #12]
 454:Drivers/STM32F3xx_HAL_Driver/Src/stm32f3xx_hal_flash_ex.c **** }
 1208              		.loc 1 454 3 is_stmt 1 view .LVU360
 454:Drivers/STM32F3xx_HAL_Driver/Src/stm32f3xx_hal_flash_ex.c **** }
 1209              		.loc 1 454 25 is_stmt 0 view .LVU361
 1210 0014 FFF7FEFF 		bl	FLASH_OB_GetUser
 1211              	.LVL120:
 454:Drivers/STM32F3xx_HAL_Driver/Src/stm32f3xx_hal_flash_ex.c **** }
 1212              		.loc 1 454 23 view .LVU362
 1213 0018 6073     		strb	r0, [r4, #13]
 455:Drivers/STM32F3xx_HAL_Driver/Src/stm32f3xx_hal_flash_ex.c **** 
 1214              		.loc 1 455 1 view .LVU363
 1215 001a 10BD     		pop	{r4, pc}
 455:Drivers/STM32F3xx_HAL_Driver/Src/stm32f3xx_hal_flash_ex.c **** 
 1216              		.loc 1 455 1 view .LVU364
 1217              		.cfi_endproc
 1218              	.LFE134:
 1220              		.section	.text.HAL_FLASHEx_OBGetUserData,"ax",%progbits
 1221              		.align	1
 1222              		.global	HAL_FLASHEx_OBGetUserData
 1223              		.syntax unified
 1224              		.thumb
 1225              		.thumb_func
 1226              		.fpu fpv4-sp-d16
 1228              	HAL_FLASHEx_OBGetUserData:
 1229              	.LVL121:
 1230              	.LFB135:
 466:Drivers/STM32F3xx_HAL_Driver/Src/stm32f3xx_hal_flash_ex.c ****   uint32_t value = 0U;
 1231              		.loc 1 466 1 is_stmt 1 view -0
 1232              		.cfi_startproc
 1233              		@ args = 0, pretend = 0, frame = 0
 1234              		@ frame_needed = 0, uses_anonymous_args = 0
 1235              		@ link register save eliminated.
ARM GAS  /var/folders/jw/jcj5j9_530958b2rm5vp9wn00000gn/T//ccXdJM12.s 			page 62


 467:Drivers/STM32F3xx_HAL_Driver/Src/stm32f3xx_hal_flash_ex.c ****   
 1236              		.loc 1 467 3 view .LVU366
 469:Drivers/STM32F3xx_HAL_Driver/Src/stm32f3xx_hal_flash_ex.c ****   {
 1237              		.loc 1 469 3 view .LVU367
 469:Drivers/STM32F3xx_HAL_Driver/Src/stm32f3xx_hal_flash_ex.c ****   {
 1238              		.loc 1 469 6 is_stmt 0 view .LVU368
 1239 0000 0D4B     		ldr	r3, .L94
 1240 0002 9842     		cmp	r0, r3
 1241 0004 0BD0     		beq	.L93
 477:Drivers/STM32F3xx_HAL_Driver/Src/stm32f3xx_hal_flash_ex.c ****   }
 1242              		.loc 1 477 5 is_stmt 1 view .LVU369
 477:Drivers/STM32F3xx_HAL_Driver/Src/stm32f3xx_hal_flash_ex.c ****   }
 1243              		.loc 1 477 13 is_stmt 0 view .LVU370
 1244 0006 0D4B     		ldr	r3, .L94+4
 1245 0008 D869     		ldr	r0, [r3, #28]
 1246              	.LVL122:
 477:Drivers/STM32F3xx_HAL_Driver/Src/stm32f3xx_hal_flash_ex.c ****   }
