ARM GAS  /var/folders/jw/jcj5j9_530958b2rm5vp9wn00000gn/T//ccr4Tk6P.s 			page 1


   1              		.cpu cortex-m4
   2              		.eabi_attribute 27, 1
   3              		.eabi_attribute 28, 1
   4              		.eabi_attribute 20, 1
   5              		.eabi_attribute 21, 1
   6              		.eabi_attribute 23, 3
   7              		.eabi_attribute 24, 1
   8              		.eabi_attribute 25, 1
   9              		.eabi_attribute 26, 1
  10              		.eabi_attribute 30, 1
  11              		.eabi_attribute 34, 1
  12              		.eabi_attribute 18, 4
  13              		.file	"stm32f3xx_hal_dac.c"
  14              		.text
  15              	.Ltext0:
  16              		.cfi_sections	.debug_frame
  17              		.section	.text.HAL_DAC_MspInit,"ax",%progbits
  18              		.align	1
  19              		.weak	HAL_DAC_MspInit
  20              		.arch armv7e-m
  21              		.syntax unified
  22              		.thumb
  23              		.thumb_func
  24              		.fpu fpv4-sp-d16
  26              	HAL_DAC_MspInit:
  27              	.LVL0:
  28              	.LFB132:
  29              		.file 1 "Drivers/STM32F3xx_HAL_Driver/Src/stm32f3xx_hal_dac.c"
   1:Drivers/STM32F3xx_HAL_Driver/Src/stm32f3xx_hal_dac.c **** /**
   2:Drivers/STM32F3xx_HAL_Driver/Src/stm32f3xx_hal_dac.c ****   ******************************************************************************
   3:Drivers/STM32F3xx_HAL_Driver/Src/stm32f3xx_hal_dac.c ****   * @file    stm32f3xx_hal_dac.c
   4:Drivers/STM32F3xx_HAL_Driver/Src/stm32f3xx_hal_dac.c ****   * @author  MCD Application Team
   5:Drivers/STM32F3xx_HAL_Driver/Src/stm32f3xx_hal_dac.c ****   * @brief   DAC HAL module driver.
   6:Drivers/STM32F3xx_HAL_Driver/Src/stm32f3xx_hal_dac.c ****   *         This file provides firmware functions to manage the following 
   7:Drivers/STM32F3xx_HAL_Driver/Src/stm32f3xx_hal_dac.c ****   *         functionalities of the Digital to Analog Converter (DAC) peripheral:
   8:Drivers/STM32F3xx_HAL_Driver/Src/stm32f3xx_hal_dac.c ****   *           + Initialization and de-initialization functions
   9:Drivers/STM32F3xx_HAL_Driver/Src/stm32f3xx_hal_dac.c ****   *           + IO operation functions
  10:Drivers/STM32F3xx_HAL_Driver/Src/stm32f3xx_hal_dac.c ****   *           + Peripheral Control functions
  11:Drivers/STM32F3xx_HAL_Driver/Src/stm32f3xx_hal_dac.c ****   *           + Peripheral State and Errors functions      
  12:Drivers/STM32F3xx_HAL_Driver/Src/stm32f3xx_hal_dac.c ****   *
  13:Drivers/STM32F3xx_HAL_Driver/Src/stm32f3xx_hal_dac.c ****   *
  14:Drivers/STM32F3xx_HAL_Driver/Src/stm32f3xx_hal_dac.c ****  @verbatim      
  15:Drivers/STM32F3xx_HAL_Driver/Src/stm32f3xx_hal_dac.c ****   ==============================================================================
  16:Drivers/STM32F3xx_HAL_Driver/Src/stm32f3xx_hal_dac.c ****                       ##### DAC Peripheral features #####
  17:Drivers/STM32F3xx_HAL_Driver/Src/stm32f3xx_hal_dac.c ****   ==============================================================================
  18:Drivers/STM32F3xx_HAL_Driver/Src/stm32f3xx_hal_dac.c ****     [..]        
  19:Drivers/STM32F3xx_HAL_Driver/Src/stm32f3xx_hal_dac.c ****       *** DAC Channels ***
  20:Drivers/STM32F3xx_HAL_Driver/Src/stm32f3xx_hal_dac.c ****       ====================  
  21:Drivers/STM32F3xx_HAL_Driver/Src/stm32f3xx_hal_dac.c ****     [..]  
  22:Drivers/STM32F3xx_HAL_Driver/Src/stm32f3xx_hal_dac.c ****     The device integrates up to 3 12-bit Digital Analog Converters that can 
  23:Drivers/STM32F3xx_HAL_Driver/Src/stm32f3xx_hal_dac.c ****     be used independently or simultaneously (dual mode):
  24:Drivers/STM32F3xx_HAL_Driver/Src/stm32f3xx_hal_dac.c ****       (#) DAC1 channel1 with DAC1_OUT1 (PA4) as output
  25:Drivers/STM32F3xx_HAL_Driver/Src/stm32f3xx_hal_dac.c ****       (#) DAC1 channel2 with DAC1_OUT2 (PA5) as output 
  26:Drivers/STM32F3xx_HAL_Driver/Src/stm32f3xx_hal_dac.c ****           (for STM32F3 devices having 2 channels on DAC1)
  27:Drivers/STM32F3xx_HAL_Driver/Src/stm32f3xx_hal_dac.c ****       (#) DAC2 channel1 with DAC2_OUT1 (PA6) as output 
  28:Drivers/STM32F3xx_HAL_Driver/Src/stm32f3xx_hal_dac.c ****           (for STM32F3 devices having 2 DAC)
  29:Drivers/STM32F3xx_HAL_Driver/Src/stm32f3xx_hal_dac.c **** 
ARM GAS  /var/folders/jw/jcj5j9_530958b2rm5vp9wn00000gn/T//ccr4Tk6P.s 			page 2


  30:Drivers/STM32F3xx_HAL_Driver/Src/stm32f3xx_hal_dac.c ****       *** DAC Triggers ***
  31:Drivers/STM32F3xx_HAL_Driver/Src/stm32f3xx_hal_dac.c ****       ====================
  32:Drivers/STM32F3xx_HAL_Driver/Src/stm32f3xx_hal_dac.c ****     [..]
  33:Drivers/STM32F3xx_HAL_Driver/Src/stm32f3xx_hal_dac.c ****     Digital to Analog conversion can be non-triggered using DAC_TRIGGER_NONE
  34:Drivers/STM32F3xx_HAL_Driver/Src/stm32f3xx_hal_dac.c ****     and DAC1_OUT1/DAC1_OUT2/DAC2_OUT1 is available once writing to DHRx register. 
  35:Drivers/STM32F3xx_HAL_Driver/Src/stm32f3xx_hal_dac.c ****     [..] 
  36:Drivers/STM32F3xx_HAL_Driver/Src/stm32f3xx_hal_dac.c ****     Digital to Analog conversion can be triggered by:
  37:Drivers/STM32F3xx_HAL_Driver/Src/stm32f3xx_hal_dac.c ****       (#) External event: EXTI Line 9 (any GPIOx_PIN_9) using DAC_TRIGGER_EXT_IT9.
  38:Drivers/STM32F3xx_HAL_Driver/Src/stm32f3xx_hal_dac.c ****           The used pin (GPIOx_PIN_9) must be configured in input mode.
  39:Drivers/STM32F3xx_HAL_Driver/Src/stm32f3xx_hal_dac.c ****   
  40:Drivers/STM32F3xx_HAL_Driver/Src/stm32f3xx_hal_dac.c ****       (#) Timers TRGO: TIM2, TIM4, TIM5, TIM6, TIM7 and TIM8 
  41:Drivers/STM32F3xx_HAL_Driver/Src/stm32f3xx_hal_dac.c ****           (DAC_TRIGGER_T2_TRGO, DAC_TRIGGER_T4_TRGO...)
  42:Drivers/STM32F3xx_HAL_Driver/Src/stm32f3xx_hal_dac.c ****   
  43:Drivers/STM32F3xx_HAL_Driver/Src/stm32f3xx_hal_dac.c ****       (#) Software using DAC_TRIGGER_SOFTWARE
  44:Drivers/STM32F3xx_HAL_Driver/Src/stm32f3xx_hal_dac.c ****   
  45:Drivers/STM32F3xx_HAL_Driver/Src/stm32f3xx_hal_dac.c ****       *** DAC Buffer mode feature ***
  46:Drivers/STM32F3xx_HAL_Driver/Src/stm32f3xx_hal_dac.c ****       =============================== 
  47:Drivers/STM32F3xx_HAL_Driver/Src/stm32f3xx_hal_dac.c ****       [..] 
  48:Drivers/STM32F3xx_HAL_Driver/Src/stm32f3xx_hal_dac.c ****       Each DAC channel integrates an output buffer that can be used to 
  49:Drivers/STM32F3xx_HAL_Driver/Src/stm32f3xx_hal_dac.c ****       reduce the output impedance, and to drive external loads directly
  50:Drivers/STM32F3xx_HAL_Driver/Src/stm32f3xx_hal_dac.c ****       without having to add an external operational amplifier.
  51:Drivers/STM32F3xx_HAL_Driver/Src/stm32f3xx_hal_dac.c ****       To enable, the output buffer use  
  52:Drivers/STM32F3xx_HAL_Driver/Src/stm32f3xx_hal_dac.c ****       sConfig.DAC_OutputBuffer = DAC_OUTPUTBUFFER_ENABLE;
  53:Drivers/STM32F3xx_HAL_Driver/Src/stm32f3xx_hal_dac.c ****       Or
  54:Drivers/STM32F3xx_HAL_Driver/Src/stm32f3xx_hal_dac.c ****       An output switch 
  55:Drivers/STM32F3xx_HAL_Driver/Src/stm32f3xx_hal_dac.c ****          (in STM32F303x4, STM32F303x6, STM32F303x8
  56:Drivers/STM32F3xx_HAL_Driver/Src/stm32f3xx_hal_dac.c ****              c, STM32F334x6, STM32F334x8
  57:Drivers/STM32F3xx_HAL_Driver/Src/stm32f3xx_hal_dac.c ****            & STM32F334xx).
  58:Drivers/STM32F3xx_HAL_Driver/Src/stm32f3xx_hal_dac.c ****       To enable, the output switch
  59:Drivers/STM32F3xx_HAL_Driver/Src/stm32f3xx_hal_dac.c ****       sConfig.DAC_OutputSwitch = DAC_OUTPUTSWITCH_ENABLE;
  60:Drivers/STM32F3xx_HAL_Driver/Src/stm32f3xx_hal_dac.c ****       [..]         
  61:Drivers/STM32F3xx_HAL_Driver/Src/stm32f3xx_hal_dac.c ****       (@) Refer to the device datasheet for more details about output 
  62:Drivers/STM32F3xx_HAL_Driver/Src/stm32f3xx_hal_dac.c ****           impedance value with and without output buffer.
  63:Drivers/STM32F3xx_HAL_Driver/Src/stm32f3xx_hal_dac.c **** 
  64:Drivers/STM32F3xx_HAL_Driver/Src/stm32f3xx_hal_dac.c ****       *** GPIO configurations guidelines ***
  65:Drivers/STM32F3xx_HAL_Driver/Src/stm32f3xx_hal_dac.c ****       =====================
  66:Drivers/STM32F3xx_HAL_Driver/Src/stm32f3xx_hal_dac.c ****       [..] 
  67:Drivers/STM32F3xx_HAL_Driver/Src/stm32f3xx_hal_dac.c ****       When a DAC channel is used (ex channel1 on PA4) and the other is not 
  68:Drivers/STM32F3xx_HAL_Driver/Src/stm32f3xx_hal_dac.c ****       (ex channel2 on PA5 is configured in Analog and disabled).
  69:Drivers/STM32F3xx_HAL_Driver/Src/stm32f3xx_hal_dac.c ****       Channel1 may disturb channel2 as coupling effect.
  70:Drivers/STM32F3xx_HAL_Driver/Src/stm32f3xx_hal_dac.c ****       Note that there is no coupling on channel2 as soon as channel2 is turned on.
  71:Drivers/STM32F3xx_HAL_Driver/Src/stm32f3xx_hal_dac.c ****       Coupling on adjacent channel could be avoided as follows:
  72:Drivers/STM32F3xx_HAL_Driver/Src/stm32f3xx_hal_dac.c ****       when unused PA5 is configured as INPUT PULL-UP or DOWN. 
  73:Drivers/STM32F3xx_HAL_Driver/Src/stm32f3xx_hal_dac.c ****       PA5 is configured in ANALOG just before it is turned on.     
  74:Drivers/STM32F3xx_HAL_Driver/Src/stm32f3xx_hal_dac.c **** 
  75:Drivers/STM32F3xx_HAL_Driver/Src/stm32f3xx_hal_dac.c ****             
  76:Drivers/STM32F3xx_HAL_Driver/Src/stm32f3xx_hal_dac.c ****        *** DAC wave generation feature ***
  77:Drivers/STM32F3xx_HAL_Driver/Src/stm32f3xx_hal_dac.c ****        =================================== 
  78:Drivers/STM32F3xx_HAL_Driver/Src/stm32f3xx_hal_dac.c ****        [..]     
  79:Drivers/STM32F3xx_HAL_Driver/Src/stm32f3xx_hal_dac.c ****        Both DAC channels of DAC1 can be used to generate
  80:Drivers/STM32F3xx_HAL_Driver/Src/stm32f3xx_hal_dac.c ****        note that wave generation is not available in DAC2.
  81:Drivers/STM32F3xx_HAL_Driver/Src/stm32f3xx_hal_dac.c ****          (#) Noise wave
  82:Drivers/STM32F3xx_HAL_Driver/Src/stm32f3xx_hal_dac.c ****          (#) Triangle wave
  83:Drivers/STM32F3xx_HAL_Driver/Src/stm32f3xx_hal_dac.c ****       
  84:Drivers/STM32F3xx_HAL_Driver/Src/stm32f3xx_hal_dac.c ****        Wave generation is NOT available in DAC2.
  85:Drivers/STM32F3xx_HAL_Driver/Src/stm32f3xx_hal_dac.c **** 
  86:Drivers/STM32F3xx_HAL_Driver/Src/stm32f3xx_hal_dac.c ****        *** DAC data format ***
ARM GAS  /var/folders/jw/jcj5j9_530958b2rm5vp9wn00000gn/T//ccr4Tk6P.s 			page 3


  87:Drivers/STM32F3xx_HAL_Driver/Src/stm32f3xx_hal_dac.c ****        =======================
  88:Drivers/STM32F3xx_HAL_Driver/Src/stm32f3xx_hal_dac.c ****        [..]   
  89:Drivers/STM32F3xx_HAL_Driver/Src/stm32f3xx_hal_dac.c ****        The DAC data format can be:
  90:Drivers/STM32F3xx_HAL_Driver/Src/stm32f3xx_hal_dac.c ****          (#) 8-bit right alignment using DAC_ALIGN_8B_R
  91:Drivers/STM32F3xx_HAL_Driver/Src/stm32f3xx_hal_dac.c ****          (#) 12-bit left alignment using DAC_ALIGN_12B_L
  92:Drivers/STM32F3xx_HAL_Driver/Src/stm32f3xx_hal_dac.c ****          (#) 12-bit right alignment using DAC_ALIGN_12B_R
  93:Drivers/STM32F3xx_HAL_Driver/Src/stm32f3xx_hal_dac.c ****   
  94:Drivers/STM32F3xx_HAL_Driver/Src/stm32f3xx_hal_dac.c ****        *** DAC data value to voltage correspondance ***  
  95:Drivers/STM32F3xx_HAL_Driver/Src/stm32f3xx_hal_dac.c ****        ================================================ 
  96:Drivers/STM32F3xx_HAL_Driver/Src/stm32f3xx_hal_dac.c ****        [..] 
  97:Drivers/STM32F3xx_HAL_Driver/Src/stm32f3xx_hal_dac.c ****        The analog output voltage on each DAC channel pin is determined
  98:Drivers/STM32F3xx_HAL_Driver/Src/stm32f3xx_hal_dac.c ****        by the following equation: 
  99:Drivers/STM32F3xx_HAL_Driver/Src/stm32f3xx_hal_dac.c ****        [..] 
 100:Drivers/STM32F3xx_HAL_Driver/Src/stm32f3xx_hal_dac.c ****        DAC_OUTx = VREF+ * DOR / 4095     
 101:Drivers/STM32F3xx_HAL_Driver/Src/stm32f3xx_hal_dac.c ****        (+) with  DOR is the Data Output Register
 102:Drivers/STM32F3xx_HAL_Driver/Src/stm32f3xx_hal_dac.c ****        [..]  
 103:Drivers/STM32F3xx_HAL_Driver/Src/stm32f3xx_hal_dac.c ****           VEF+ is the input voltage reference (refer to the device datasheet)
 104:Drivers/STM32F3xx_HAL_Driver/Src/stm32f3xx_hal_dac.c ****        [..]        
 105:Drivers/STM32F3xx_HAL_Driver/Src/stm32f3xx_hal_dac.c ****         e.g. To set DAC_OUT1 to 0.7V, use
 106:Drivers/STM32F3xx_HAL_Driver/Src/stm32f3xx_hal_dac.c ****        (+)  Assuming that VREF+ = 3.3V, DAC_OUT1 = (3.3U * 868U) / 4095U = 0.7V
 107:Drivers/STM32F3xx_HAL_Driver/Src/stm32f3xx_hal_dac.c ****   
 108:Drivers/STM32F3xx_HAL_Driver/Src/stm32f3xx_hal_dac.c ****        *** DMA requests  ***
 109:Drivers/STM32F3xx_HAL_Driver/Src/stm32f3xx_hal_dac.c ****        =====================
 110:Drivers/STM32F3xx_HAL_Driver/Src/stm32f3xx_hal_dac.c ****        [..]    
 111:Drivers/STM32F3xx_HAL_Driver/Src/stm32f3xx_hal_dac.c ****        A DMA1 or DMA2 request can be generated when an external trigger 
 112:Drivers/STM32F3xx_HAL_Driver/Src/stm32f3xx_hal_dac.c ****        (but not a software trigger) occurs if DMA1 or DMA2 requests are 
 113:Drivers/STM32F3xx_HAL_Driver/Src/stm32f3xx_hal_dac.c ****        enabled using HAL_DAC_Start_DMA().
 114:Drivers/STM32F3xx_HAL_Driver/Src/stm32f3xx_hal_dac.c ****        [..]
 115:Drivers/STM32F3xx_HAL_Driver/Src/stm32f3xx_hal_dac.c ****        DMA1 requests are mapped as following:
 116:Drivers/STM32F3xx_HAL_Driver/Src/stm32f3xx_hal_dac.c ****          (#) DAC1 channel1: mapped either on
 117:Drivers/STM32F3xx_HAL_Driver/Src/stm32f3xx_hal_dac.c ****          (++) DMA1 channel3 
 118:Drivers/STM32F3xx_HAL_Driver/Src/stm32f3xx_hal_dac.c ****          (++) or DMA2 channel3 (for STM32F3 devices having 2 DMA)
 119:Drivers/STM32F3xx_HAL_Driver/Src/stm32f3xx_hal_dac.c ****              which must be already configured
 120:Drivers/STM32F3xx_HAL_Driver/Src/stm32f3xx_hal_dac.c ****          (#) DAC1 channel2: 
 121:Drivers/STM32F3xx_HAL_Driver/Src/stm32f3xx_hal_dac.c ****              (for STM32F3 devices having 2 channels on DAC1)
 122:Drivers/STM32F3xx_HAL_Driver/Src/stm32f3xx_hal_dac.c ****              mapped either on
 123:Drivers/STM32F3xx_HAL_Driver/Src/stm32f3xx_hal_dac.c ****          (++) DMA1 channel4 
 124:Drivers/STM32F3xx_HAL_Driver/Src/stm32f3xx_hal_dac.c ****          (++) or DMA2 channel4 (for STM32F3 devices having 2 DMA)
 125:Drivers/STM32F3xx_HAL_Driver/Src/stm32f3xx_hal_dac.c ****              which must be already configured
 126:Drivers/STM32F3xx_HAL_Driver/Src/stm32f3xx_hal_dac.c ****       
 127:Drivers/STM32F3xx_HAL_Driver/Src/stm32f3xx_hal_dac.c ****          (#) DAC2 channel1: mapped either on 
 128:Drivers/STM32F3xx_HAL_Driver/Src/stm32f3xx_hal_dac.c ****              (for STM32F3 devices having 2 DAC)
 129:Drivers/STM32F3xx_HAL_Driver/Src/stm32f3xx_hal_dac.c ****          (++) DMA1 channel4 
 130:Drivers/STM32F3xx_HAL_Driver/Src/stm32f3xx_hal_dac.c ****          (++) or DMA2 channel4 (for STM32F3 devices having 2 DMA)
 131:Drivers/STM32F3xx_HAL_Driver/Src/stm32f3xx_hal_dac.c ****              which must be already configured
 132:Drivers/STM32F3xx_HAL_Driver/Src/stm32f3xx_hal_dac.c ****     
 133:Drivers/STM32F3xx_HAL_Driver/Src/stm32f3xx_hal_dac.c **** 
 134:Drivers/STM32F3xx_HAL_Driver/Src/stm32f3xx_hal_dac.c ****        (@) For Dual mode and specific signal (Triangle and noise) generation please 
 135:Drivers/STM32F3xx_HAL_Driver/Src/stm32f3xx_hal_dac.c ****        refer to Extended Features Driver description        
 136:Drivers/STM32F3xx_HAL_Driver/Src/stm32f3xx_hal_dac.c **** 
 137:Drivers/STM32F3xx_HAL_Driver/Src/stm32f3xx_hal_dac.c ****                       ##### How to use this driver #####
 138:Drivers/STM32F3xx_HAL_Driver/Src/stm32f3xx_hal_dac.c ****   ==============================================================================
 139:Drivers/STM32F3xx_HAL_Driver/Src/stm32f3xx_hal_dac.c ****     [..]          
 140:Drivers/STM32F3xx_HAL_Driver/Src/stm32f3xx_hal_dac.c ****       (+) DAC APB clock must be enabled to get write access to DAC
 141:Drivers/STM32F3xx_HAL_Driver/Src/stm32f3xx_hal_dac.c ****           registers using HAL_DAC_Init()
 142:Drivers/STM32F3xx_HAL_Driver/Src/stm32f3xx_hal_dac.c ****       (+) Configure DAC_OUTx (DAC_OUT1: PA4, DAC_OUT2: PA5) in analog mode.
 143:Drivers/STM32F3xx_HAL_Driver/Src/stm32f3xx_hal_dac.c ****       (+) Configure the DAC channel using HAL_DAC_ConfigChannel() function.
ARM GAS  /var/folders/jw/jcj5j9_530958b2rm5vp9wn00000gn/T//ccr4Tk6P.s 			page 4


 144:Drivers/STM32F3xx_HAL_Driver/Src/stm32f3xx_hal_dac.c ****       (+) Enable the DAC channel using HAL_DAC_Start() or HAL_DAC_Start_DMA() functions
 145:Drivers/STM32F3xx_HAL_Driver/Src/stm32f3xx_hal_dac.c **** 
 146:Drivers/STM32F3xx_HAL_Driver/Src/stm32f3xx_hal_dac.c ****      *** Polling mode IO operation ***
 147:Drivers/STM32F3xx_HAL_Driver/Src/stm32f3xx_hal_dac.c ****      =================================
 148:Drivers/STM32F3xx_HAL_Driver/Src/stm32f3xx_hal_dac.c ****      [..]    
 149:Drivers/STM32F3xx_HAL_Driver/Src/stm32f3xx_hal_dac.c ****        (+) Start the DAC peripheral using HAL_DAC_Start() 
 150:Drivers/STM32F3xx_HAL_Driver/Src/stm32f3xx_hal_dac.c ****        (+) To read the DAC last data output value, use the HAL_DAC_GetValue() function.
 151:Drivers/STM32F3xx_HAL_Driver/Src/stm32f3xx_hal_dac.c ****        (+) Stop the DAC peripheral using HAL_DAC_Stop()
 152:Drivers/STM32F3xx_HAL_Driver/Src/stm32f3xx_hal_dac.c ****        
 153:Drivers/STM32F3xx_HAL_Driver/Src/stm32f3xx_hal_dac.c ****      *** DMA mode IO operation ***    
 154:Drivers/STM32F3xx_HAL_Driver/Src/stm32f3xx_hal_dac.c ****      ==============================
 155:Drivers/STM32F3xx_HAL_Driver/Src/stm32f3xx_hal_dac.c ****      [..]    
 156:Drivers/STM32F3xx_HAL_Driver/Src/stm32f3xx_hal_dac.c ****        (+) Start the DAC peripheral using HAL_DAC_Start_DMA(), at this stage the user specify the l
 157:Drivers/STM32F3xx_HAL_Driver/Src/stm32f3xx_hal_dac.c ****            of data to be transferred at each end of conversion
 158:Drivers/STM32F3xx_HAL_Driver/Src/stm32f3xx_hal_dac.c ****        (+) At the middle of data transfer HAL_DAC_ConvHalfCpltCallbackCh1() or HAL_DACEx_ConvHalfCp
 159:Drivers/STM32F3xx_HAL_Driver/Src/stm32f3xx_hal_dac.c ****            function is executed and user can add his own code by customization of function pointer 
 160:Drivers/STM32F3xx_HAL_Driver/Src/stm32f3xx_hal_dac.c ****            HAL_DAC_ConvHalfCpltCallbackCh1() or HAL_DACEx_ConvHalfCpltCallbackCh2()
 161:Drivers/STM32F3xx_HAL_Driver/Src/stm32f3xx_hal_dac.c ****        (+) At The end of data transfer HAL_DAC_ConvCpltCallbackCh1() or HAL_DACEx_ConvHalfCpltCallb
 162:Drivers/STM32F3xx_HAL_Driver/Src/stm32f3xx_hal_dac.c ****            function is executed and user can add his own code by customization of function pointer 
 163:Drivers/STM32F3xx_HAL_Driver/Src/stm32f3xx_hal_dac.c ****            HAL_DAC_ConvCpltCallbackCh1() or HAL_DACEx_ConvHalfCpltCallbackCh2()
 164:Drivers/STM32F3xx_HAL_Driver/Src/stm32f3xx_hal_dac.c ****        (+) In case of transfer Error, HAL_DAC_ErrorCallbackCh1() function is executed and user can 
 165:Drivers/STM32F3xx_HAL_Driver/Src/stm32f3xx_hal_dac.c ****             add his own code by customization of function pointer HAL_DAC_ErrorCallbackCh1
 166:Drivers/STM32F3xx_HAL_Driver/Src/stm32f3xx_hal_dac.c ****        (+) In case of DMA underrun, DAC interruption triggers and execute internal function HAL_DAC
 167:Drivers/STM32F3xx_HAL_Driver/Src/stm32f3xx_hal_dac.c ****            HAL_DAC_DMAUnderrunCallbackCh1() or HAL_DACEx_DMAUnderrunCallbackCh2()  
 168:Drivers/STM32F3xx_HAL_Driver/Src/stm32f3xx_hal_dac.c ****            function is executed and user can add his own code by customization of function pointer 
 169:Drivers/STM32F3xx_HAL_Driver/Src/stm32f3xx_hal_dac.c ****            HAL_DAC_DMAUnderrunCallbackCh1() or HAL_DACEx_DMAUnderrunCallbackCh2() and
 170:Drivers/STM32F3xx_HAL_Driver/Src/stm32f3xx_hal_dac.c ****            add his own code by customization of function pointer HAL_DAC_ErrorCallbackCh1()
 171:Drivers/STM32F3xx_HAL_Driver/Src/stm32f3xx_hal_dac.c ****        (+) Stop the DAC peripheral using HAL_DAC_Stop_DMA()
 172:Drivers/STM32F3xx_HAL_Driver/Src/stm32f3xx_hal_dac.c **** 
 173:Drivers/STM32F3xx_HAL_Driver/Src/stm32f3xx_hal_dac.c ****     *** Callback registration ***
 174:Drivers/STM32F3xx_HAL_Driver/Src/stm32f3xx_hal_dac.c ****     =============================================
 175:Drivers/STM32F3xx_HAL_Driver/Src/stm32f3xx_hal_dac.c ****     [..]
 176:Drivers/STM32F3xx_HAL_Driver/Src/stm32f3xx_hal_dac.c ****       The compilation define  USE_HAL_DAC_REGISTER_CALLBACKS when set to 1
 177:Drivers/STM32F3xx_HAL_Driver/Src/stm32f3xx_hal_dac.c ****       allows the user to configure dynamically the driver callbacks.
 178:Drivers/STM32F3xx_HAL_Driver/Src/stm32f3xx_hal_dac.c **** 
 179:Drivers/STM32F3xx_HAL_Driver/Src/stm32f3xx_hal_dac.c ****     Use Functions @ref HAL_DAC_RegisterCallback() to register a user callback,
 180:Drivers/STM32F3xx_HAL_Driver/Src/stm32f3xx_hal_dac.c ****       it allows to register following callbacks:
 181:Drivers/STM32F3xx_HAL_Driver/Src/stm32f3xx_hal_dac.c ****       (+) ConvCpltCallbackCh1     : callback when a half transfer is completed on Ch1.             
 182:Drivers/STM32F3xx_HAL_Driver/Src/stm32f3xx_hal_dac.c ****       (+) ConvHalfCpltCallbackCh1 : callback when a transfer is completed on Ch1.
 183:Drivers/STM32F3xx_HAL_Driver/Src/stm32f3xx_hal_dac.c ****       (+) ErrorCallbackCh1        : callback when an error occurs on Ch1.
 184:Drivers/STM32F3xx_HAL_Driver/Src/stm32f3xx_hal_dac.c ****       (+) DMAUnderrunCallbackCh1  : callback when an underrun error occurs on Ch1.
 185:Drivers/STM32F3xx_HAL_Driver/Src/stm32f3xx_hal_dac.c ****       (+) ConvCpltCallbackCh2     : callback when a half transfer is completed on Ch2.   
 186:Drivers/STM32F3xx_HAL_Driver/Src/stm32f3xx_hal_dac.c ****       (+) ConvHalfCpltCallbackCh2 : callback when a transfer is completed on Ch2.        
 187:Drivers/STM32F3xx_HAL_Driver/Src/stm32f3xx_hal_dac.c ****       (+) ErrorCallbackCh2        : callback when an error occurs on Ch2.                
 188:Drivers/STM32F3xx_HAL_Driver/Src/stm32f3xx_hal_dac.c ****       (+) DMAUnderrunCallbackCh2  : callback when an underrun error occurs on Ch2.
 189:Drivers/STM32F3xx_HAL_Driver/Src/stm32f3xx_hal_dac.c ****       (+) MspInitCallback         : DAC MspInit.  
 190:Drivers/STM32F3xx_HAL_Driver/Src/stm32f3xx_hal_dac.c ****       (+) MspDeInitCallback       : DAC MspdeInit.
 191:Drivers/STM32F3xx_HAL_Driver/Src/stm32f3xx_hal_dac.c ****       This function takes as parameters the HAL peripheral handle, the Callback ID
 192:Drivers/STM32F3xx_HAL_Driver/Src/stm32f3xx_hal_dac.c ****       and a pointer to the user callback function.
 193:Drivers/STM32F3xx_HAL_Driver/Src/stm32f3xx_hal_dac.c **** 
 194:Drivers/STM32F3xx_HAL_Driver/Src/stm32f3xx_hal_dac.c ****     Use function @ref HAL_DAC_UnRegisterCallback() to reset a callback to the default
 195:Drivers/STM32F3xx_HAL_Driver/Src/stm32f3xx_hal_dac.c ****       weak (surcharged) function. It allows to reset following callbacks:
 196:Drivers/STM32F3xx_HAL_Driver/Src/stm32f3xx_hal_dac.c ****       (+) ConvCpltCallbackCh1     : callback when a half transfer is completed on Ch1.             
 197:Drivers/STM32F3xx_HAL_Driver/Src/stm32f3xx_hal_dac.c ****       (+) ConvHalfCpltCallbackCh1 : callback when a transfer is completed on Ch1.
 198:Drivers/STM32F3xx_HAL_Driver/Src/stm32f3xx_hal_dac.c ****       (+) ErrorCallbackCh1        : callback when an error occurs on Ch1.
 199:Drivers/STM32F3xx_HAL_Driver/Src/stm32f3xx_hal_dac.c ****       (+) DMAUnderrunCallbackCh1  : callback when an underrun error occurs on Ch1.
 200:Drivers/STM32F3xx_HAL_Driver/Src/stm32f3xx_hal_dac.c ****       (+) ConvCpltCallbackCh2     : callback when a half transfer is completed on Ch2.   
ARM GAS  /var/folders/jw/jcj5j9_530958b2rm5vp9wn00000gn/T//ccr4Tk6P.s 			page 5


 201:Drivers/STM32F3xx_HAL_Driver/Src/stm32f3xx_hal_dac.c ****       (+) ConvHalfCpltCallbackCh2 : callback when a transfer is completed on Ch2.        
 202:Drivers/STM32F3xx_HAL_Driver/Src/stm32f3xx_hal_dac.c ****       (+) ErrorCallbackCh2        : callback when an error occurs on Ch2.                
 203:Drivers/STM32F3xx_HAL_Driver/Src/stm32f3xx_hal_dac.c ****       (+) DMAUnderrunCallbackCh2  : callback when an underrun error occurs on Ch2.
 204:Drivers/STM32F3xx_HAL_Driver/Src/stm32f3xx_hal_dac.c ****       (+) MspInitCallback         : DAC MspInit.  
 205:Drivers/STM32F3xx_HAL_Driver/Src/stm32f3xx_hal_dac.c ****       (+) MspDeInitCallback       : DAC MspdeInit.
 206:Drivers/STM32F3xx_HAL_Driver/Src/stm32f3xx_hal_dac.c ****       (+) All Callbacks
 207:Drivers/STM32F3xx_HAL_Driver/Src/stm32f3xx_hal_dac.c ****       This function) takes as parameters the HAL peripheral handle and the Callback ID.
 208:Drivers/STM32F3xx_HAL_Driver/Src/stm32f3xx_hal_dac.c **** 
 209:Drivers/STM32F3xx_HAL_Driver/Src/stm32f3xx_hal_dac.c ****       By default, after the @ref HAL_DAC_Init and if the state is HAL_DAC_STATE_RESET
 210:Drivers/STM32F3xx_HAL_Driver/Src/stm32f3xx_hal_dac.c ****       all callbacks are reset to the corresponding legacy weak (surcharged) functions.
 211:Drivers/STM32F3xx_HAL_Driver/Src/stm32f3xx_hal_dac.c ****       Exception done for MspInit and MspDeInit callbacks that are respectively
 212:Drivers/STM32F3xx_HAL_Driver/Src/stm32f3xx_hal_dac.c ****       reset to the legacy weak (surcharged) functions in the @ref HAL_DAC_Init 
 213:Drivers/STM32F3xx_HAL_Driver/Src/stm32f3xx_hal_dac.c ****       and @ref  HAL_DAC_DeInit only when these callbacks are null (not registered beforehand).
 214:Drivers/STM32F3xx_HAL_Driver/Src/stm32f3xx_hal_dac.c ****       If not, MspInit or MspDeInit are not null, the @ref HAL_DAC_Init and @ref HAL_DAC_DeInit
 215:Drivers/STM32F3xx_HAL_Driver/Src/stm32f3xx_hal_dac.c ****       keep and use the user MspInit/MspDeInit callbacks (registered beforehand)
 216:Drivers/STM32F3xx_HAL_Driver/Src/stm32f3xx_hal_dac.c **** 
 217:Drivers/STM32F3xx_HAL_Driver/Src/stm32f3xx_hal_dac.c ****       Callbacks can be registered/unregistered in READY state only.
 218:Drivers/STM32F3xx_HAL_Driver/Src/stm32f3xx_hal_dac.c ****       Exception done for MspInit/MspDeInit callbacks that can be registered/unregistered
 219:Drivers/STM32F3xx_HAL_Driver/Src/stm32f3xx_hal_dac.c ****       in READY or RESET state, thus registered (user) MspInit/DeInit callbacks can be used
 220:Drivers/STM32F3xx_HAL_Driver/Src/stm32f3xx_hal_dac.c ****       during the Init/DeInit.
 221:Drivers/STM32F3xx_HAL_Driver/Src/stm32f3xx_hal_dac.c ****       In that case first register the MspInit/MspDeInit user callbacks
 222:Drivers/STM32F3xx_HAL_Driver/Src/stm32f3xx_hal_dac.c ****       using @ref HAL_DAC_RegisterCallback before calling @ref HAL_DAC_DeInit 
 223:Drivers/STM32F3xx_HAL_Driver/Src/stm32f3xx_hal_dac.c ****       or @ref HAL_DAC_Init function.
 224:Drivers/STM32F3xx_HAL_Driver/Src/stm32f3xx_hal_dac.c **** 
 225:Drivers/STM32F3xx_HAL_Driver/Src/stm32f3xx_hal_dac.c ****       When The compilation define USE_HAL_DAC_REGISTER_CALLBACKS is set to 0 or
 226:Drivers/STM32F3xx_HAL_Driver/Src/stm32f3xx_hal_dac.c ****       not defined, the callback registering feature is not available 
 227:Drivers/STM32F3xx_HAL_Driver/Src/stm32f3xx_hal_dac.c ****       and weak (surcharged) callbacks are used.
 228:Drivers/STM32F3xx_HAL_Driver/Src/stm32f3xx_hal_dac.c **** 
 229:Drivers/STM32F3xx_HAL_Driver/Src/stm32f3xx_hal_dac.c **** 
 230:Drivers/STM32F3xx_HAL_Driver/Src/stm32f3xx_hal_dac.c ****      *** DAC HAL driver macros list ***
 231:Drivers/STM32F3xx_HAL_Driver/Src/stm32f3xx_hal_dac.c ****      ============================================= 
 232:Drivers/STM32F3xx_HAL_Driver/Src/stm32f3xx_hal_dac.c ****      [..]
 233:Drivers/STM32F3xx_HAL_Driver/Src/stm32f3xx_hal_dac.c ****        Below the list of most used macros in DAC HAL driver.
 234:Drivers/STM32F3xx_HAL_Driver/Src/stm32f3xx_hal_dac.c ****        
 235:Drivers/STM32F3xx_HAL_Driver/Src/stm32f3xx_hal_dac.c ****       (+) __HAL_DAC_ENABLE : Enable the DAC peripheral
 236:Drivers/STM32F3xx_HAL_Driver/Src/stm32f3xx_hal_dac.c ****       (+) __HAL_DAC_DISABLE : Disable the DAC peripheral
 237:Drivers/STM32F3xx_HAL_Driver/Src/stm32f3xx_hal_dac.c ****       (+) __HAL_DAC_CLEAR_FLAG: Clear the DAC's pending flags
 238:Drivers/STM32F3xx_HAL_Driver/Src/stm32f3xx_hal_dac.c ****       (+) __HAL_DAC_GET_FLAG: Get the selected DAC's flag status 
 239:Drivers/STM32F3xx_HAL_Driver/Src/stm32f3xx_hal_dac.c ****       
 240:Drivers/STM32F3xx_HAL_Driver/Src/stm32f3xx_hal_dac.c ****      [..]
 241:Drivers/STM32F3xx_HAL_Driver/Src/stm32f3xx_hal_dac.c ****       (@) You can refer to the DAC HAL driver header file for more useful macros  
 242:Drivers/STM32F3xx_HAL_Driver/Src/stm32f3xx_hal_dac.c ****    
 243:Drivers/STM32F3xx_HAL_Driver/Src/stm32f3xx_hal_dac.c ****  @endverbatim    
 244:Drivers/STM32F3xx_HAL_Driver/Src/stm32f3xx_hal_dac.c ****   ******************************************************************************
 245:Drivers/STM32F3xx_HAL_Driver/Src/stm32f3xx_hal_dac.c ****   * @attention
 246:Drivers/STM32F3xx_HAL_Driver/Src/stm32f3xx_hal_dac.c ****   *
 247:Drivers/STM32F3xx_HAL_Driver/Src/stm32f3xx_hal_dac.c ****   * <h2><center>&copy; Copyright (c) 2016 STMicroelectronics.
 248:Drivers/STM32F3xx_HAL_Driver/Src/stm32f3xx_hal_dac.c ****   * All rights reserved.</center></h2>
 249:Drivers/STM32F3xx_HAL_Driver/Src/stm32f3xx_hal_dac.c ****   *
 250:Drivers/STM32F3xx_HAL_Driver/Src/stm32f3xx_hal_dac.c ****   * This software component is licensed by ST under BSD 3-Clause license,
 251:Drivers/STM32F3xx_HAL_Driver/Src/stm32f3xx_hal_dac.c ****   * the "License"; You may not use this file except in compliance with the
 252:Drivers/STM32F3xx_HAL_Driver/Src/stm32f3xx_hal_dac.c ****   * License. You may obtain a copy of the License at:
 253:Drivers/STM32F3xx_HAL_Driver/Src/stm32f3xx_hal_dac.c ****   *                        opensource.org/licenses/BSD-3-Clause
 254:Drivers/STM32F3xx_HAL_Driver/Src/stm32f3xx_hal_dac.c ****   *
 255:Drivers/STM32F3xx_HAL_Driver/Src/stm32f3xx_hal_dac.c ****   ******************************************************************************
 256:Drivers/STM32F3xx_HAL_Driver/Src/stm32f3xx_hal_dac.c ****   */
 257:Drivers/STM32F3xx_HAL_Driver/Src/stm32f3xx_hal_dac.c **** 
ARM GAS  /var/folders/jw/jcj5j9_530958b2rm5vp9wn00000gn/T//ccr4Tk6P.s 			page 6


 258:Drivers/STM32F3xx_HAL_Driver/Src/stm32f3xx_hal_dac.c **** 
 259:Drivers/STM32F3xx_HAL_Driver/Src/stm32f3xx_hal_dac.c **** /* Includes ------------------------------------------------------------------*/
 260:Drivers/STM32F3xx_HAL_Driver/Src/stm32f3xx_hal_dac.c **** #include "stm32f3xx_hal.h"
 261:Drivers/STM32F3xx_HAL_Driver/Src/stm32f3xx_hal_dac.c **** 
 262:Drivers/STM32F3xx_HAL_Driver/Src/stm32f3xx_hal_dac.c **** /** @addtogroup STM32F3xx_HAL_Driver
 263:Drivers/STM32F3xx_HAL_Driver/Src/stm32f3xx_hal_dac.c ****   * @{
 264:Drivers/STM32F3xx_HAL_Driver/Src/stm32f3xx_hal_dac.c ****   */
 265:Drivers/STM32F3xx_HAL_Driver/Src/stm32f3xx_hal_dac.c **** 
 266:Drivers/STM32F3xx_HAL_Driver/Src/stm32f3xx_hal_dac.c **** /** @defgroup DAC DAC
 267:Drivers/STM32F3xx_HAL_Driver/Src/stm32f3xx_hal_dac.c ****   * @brief DAC HAL module driver
 268:Drivers/STM32F3xx_HAL_Driver/Src/stm32f3xx_hal_dac.c ****   * @{
 269:Drivers/STM32F3xx_HAL_Driver/Src/stm32f3xx_hal_dac.c ****   */ 
 270:Drivers/STM32F3xx_HAL_Driver/Src/stm32f3xx_hal_dac.c ****  
 271:Drivers/STM32F3xx_HAL_Driver/Src/stm32f3xx_hal_dac.c **** #ifdef HAL_DAC_MODULE_ENABLED
 272:Drivers/STM32F3xx_HAL_Driver/Src/stm32f3xx_hal_dac.c **** 
 273:Drivers/STM32F3xx_HAL_Driver/Src/stm32f3xx_hal_dac.c **** /* Private typedef -----------------------------------------------------------*/
 274:Drivers/STM32F3xx_HAL_Driver/Src/stm32f3xx_hal_dac.c **** /* Private define ------------------------------------------------------------*/
 275:Drivers/STM32F3xx_HAL_Driver/Src/stm32f3xx_hal_dac.c **** /* Private macro -------------------------------------------------------------*/
 276:Drivers/STM32F3xx_HAL_Driver/Src/stm32f3xx_hal_dac.c **** /** @defgroup DAC_Private_Macros DAC Private Macros
 277:Drivers/STM32F3xx_HAL_Driver/Src/stm32f3xx_hal_dac.c ****   * @{
 278:Drivers/STM32F3xx_HAL_Driver/Src/stm32f3xx_hal_dac.c ****   */
 279:Drivers/STM32F3xx_HAL_Driver/Src/stm32f3xx_hal_dac.c **** /**
 280:Drivers/STM32F3xx_HAL_Driver/Src/stm32f3xx_hal_dac.c ****   * @}
 281:Drivers/STM32F3xx_HAL_Driver/Src/stm32f3xx_hal_dac.c ****   */
 282:Drivers/STM32F3xx_HAL_Driver/Src/stm32f3xx_hal_dac.c **** 
 283:Drivers/STM32F3xx_HAL_Driver/Src/stm32f3xx_hal_dac.c **** /* Private variables ---------------------------------------------------------*/
 284:Drivers/STM32F3xx_HAL_Driver/Src/stm32f3xx_hal_dac.c **** /* Private function prototypes -----------------------------------------------*/
 285:Drivers/STM32F3xx_HAL_Driver/Src/stm32f3xx_hal_dac.c **** /** @defgroup DAC_Private_Functions DAC Private Functions
 286:Drivers/STM32F3xx_HAL_Driver/Src/stm32f3xx_hal_dac.c ****   * @{
 287:Drivers/STM32F3xx_HAL_Driver/Src/stm32f3xx_hal_dac.c ****   */
 288:Drivers/STM32F3xx_HAL_Driver/Src/stm32f3xx_hal_dac.c **** /**
 289:Drivers/STM32F3xx_HAL_Driver/Src/stm32f3xx_hal_dac.c ****   * @}
 290:Drivers/STM32F3xx_HAL_Driver/Src/stm32f3xx_hal_dac.c ****   */
 291:Drivers/STM32F3xx_HAL_Driver/Src/stm32f3xx_hal_dac.c **** 
 292:Drivers/STM32F3xx_HAL_Driver/Src/stm32f3xx_hal_dac.c **** /* Exported functions -------------------------------------------------------*/
 293:Drivers/STM32F3xx_HAL_Driver/Src/stm32f3xx_hal_dac.c ****     
 294:Drivers/STM32F3xx_HAL_Driver/Src/stm32f3xx_hal_dac.c **** /** @defgroup DAC_Exported_Functions DAC Exported Functions
 295:Drivers/STM32F3xx_HAL_Driver/Src/stm32f3xx_hal_dac.c ****   * @{
 296:Drivers/STM32F3xx_HAL_Driver/Src/stm32f3xx_hal_dac.c ****   */
 297:Drivers/STM32F3xx_HAL_Driver/Src/stm32f3xx_hal_dac.c **** 
 298:Drivers/STM32F3xx_HAL_Driver/Src/stm32f3xx_hal_dac.c **** /** @defgroup DAC_Exported_Functions_Group1 Initialization and de-initialization functions 
 299:Drivers/STM32F3xx_HAL_Driver/Src/stm32f3xx_hal_dac.c ****  *  @brief    Initialization and Configuration functions 
 300:Drivers/STM32F3xx_HAL_Driver/Src/stm32f3xx_hal_dac.c ****  *
 301:Drivers/STM32F3xx_HAL_Driver/Src/stm32f3xx_hal_dac.c **** @verbatim    
 302:Drivers/STM32F3xx_HAL_Driver/Src/stm32f3xx_hal_dac.c ****   ==============================================================================
 303:Drivers/STM32F3xx_HAL_Driver/Src/stm32f3xx_hal_dac.c ****               ##### Initialization and de-initialization functions #####
 304:Drivers/STM32F3xx_HAL_Driver/Src/stm32f3xx_hal_dac.c ****   ==============================================================================
 305:Drivers/STM32F3xx_HAL_Driver/Src/stm32f3xx_hal_dac.c ****     [..]  This section provides functions allowing to:
 306:Drivers/STM32F3xx_HAL_Driver/Src/stm32f3xx_hal_dac.c ****       (+) Initialize and configure the DAC. 
 307:Drivers/STM32F3xx_HAL_Driver/Src/stm32f3xx_hal_dac.c ****       (+) De-initialize the DAC. 
 308:Drivers/STM32F3xx_HAL_Driver/Src/stm32f3xx_hal_dac.c ****          
 309:Drivers/STM32F3xx_HAL_Driver/Src/stm32f3xx_hal_dac.c **** @endverbatim
 310:Drivers/STM32F3xx_HAL_Driver/Src/stm32f3xx_hal_dac.c ****   * @{
 311:Drivers/STM32F3xx_HAL_Driver/Src/stm32f3xx_hal_dac.c ****   */
 312:Drivers/STM32F3xx_HAL_Driver/Src/stm32f3xx_hal_dac.c **** 
 313:Drivers/STM32F3xx_HAL_Driver/Src/stm32f3xx_hal_dac.c **** /**
 314:Drivers/STM32F3xx_HAL_Driver/Src/stm32f3xx_hal_dac.c ****   * @brief  Initialize the DAC peripheral according to the specified parameters
ARM GAS  /var/folders/jw/jcj5j9_530958b2rm5vp9wn00000gn/T//ccr4Tk6P.s 			page 7


 315:Drivers/STM32F3xx_HAL_Driver/Src/stm32f3xx_hal_dac.c ****   *         in the DAC_InitStruct and initialize the associated handle.
 316:Drivers/STM32F3xx_HAL_Driver/Src/stm32f3xx_hal_dac.c ****   * @param  hdac pointer to a DAC_HandleTypeDef structure that contains
 317:Drivers/STM32F3xx_HAL_Driver/Src/stm32f3xx_hal_dac.c ****   *         the configuration information for the specified DAC.
 318:Drivers/STM32F3xx_HAL_Driver/Src/stm32f3xx_hal_dac.c ****   * @retval HAL status
 319:Drivers/STM32F3xx_HAL_Driver/Src/stm32f3xx_hal_dac.c ****   */
 320:Drivers/STM32F3xx_HAL_Driver/Src/stm32f3xx_hal_dac.c **** HAL_StatusTypeDef HAL_DAC_Init(DAC_HandleTypeDef* hdac)
 321:Drivers/STM32F3xx_HAL_Driver/Src/stm32f3xx_hal_dac.c **** { 
 322:Drivers/STM32F3xx_HAL_Driver/Src/stm32f3xx_hal_dac.c ****   /* Check DAC handle */
 323:Drivers/STM32F3xx_HAL_Driver/Src/stm32f3xx_hal_dac.c ****   if(hdac == NULL)
 324:Drivers/STM32F3xx_HAL_Driver/Src/stm32f3xx_hal_dac.c ****   {
 325:Drivers/STM32F3xx_HAL_Driver/Src/stm32f3xx_hal_dac.c ****      return HAL_ERROR;
 326:Drivers/STM32F3xx_HAL_Driver/Src/stm32f3xx_hal_dac.c ****   }
 327:Drivers/STM32F3xx_HAL_Driver/Src/stm32f3xx_hal_dac.c ****   /* Check the parameters */
 328:Drivers/STM32F3xx_HAL_Driver/Src/stm32f3xx_hal_dac.c ****   assert_param(IS_DAC_ALL_INSTANCE(hdac->Instance));
 329:Drivers/STM32F3xx_HAL_Driver/Src/stm32f3xx_hal_dac.c ****   
 330:Drivers/STM32F3xx_HAL_Driver/Src/stm32f3xx_hal_dac.c ****   if(hdac->State == HAL_DAC_STATE_RESET)
 331:Drivers/STM32F3xx_HAL_Driver/Src/stm32f3xx_hal_dac.c ****   {  
 332:Drivers/STM32F3xx_HAL_Driver/Src/stm32f3xx_hal_dac.c **** #if (USE_HAL_DAC_REGISTER_CALLBACKS == 1)
 333:Drivers/STM32F3xx_HAL_Driver/Src/stm32f3xx_hal_dac.c ****   /* Init the DAC Callback settings */
 334:Drivers/STM32F3xx_HAL_Driver/Src/stm32f3xx_hal_dac.c ****   hdac->ConvCpltCallbackCh1           = HAL_DAC_ConvCpltCallbackCh1;    
 335:Drivers/STM32F3xx_HAL_Driver/Src/stm32f3xx_hal_dac.c ****   hdac->ConvHalfCpltCallbackCh1       = HAL_DAC_ConvHalfCpltCallbackCh1;
 336:Drivers/STM32F3xx_HAL_Driver/Src/stm32f3xx_hal_dac.c ****   hdac->ErrorCallbackCh1              = HAL_DAC_ErrorCallbackCh1;
 337:Drivers/STM32F3xx_HAL_Driver/Src/stm32f3xx_hal_dac.c ****   hdac->DMAUnderrunCallbackCh1        = HAL_DAC_DMAUnderrunCallbackCh1;
 338:Drivers/STM32F3xx_HAL_Driver/Src/stm32f3xx_hal_dac.c **** #if defined(DAC_CHANNEL2_SUPPORT)
 339:Drivers/STM32F3xx_HAL_Driver/Src/stm32f3xx_hal_dac.c ****   hdac->ConvCpltCallbackCh2           = HAL_DACEx_ConvCpltCallbackCh2;    
 340:Drivers/STM32F3xx_HAL_Driver/Src/stm32f3xx_hal_dac.c ****   hdac->ConvHalfCpltCallbackCh2       = HAL_DACEx_ConvHalfCpltCallbackCh2;
 341:Drivers/STM32F3xx_HAL_Driver/Src/stm32f3xx_hal_dac.c ****   hdac->ErrorCallbackCh2              = HAL_DACEx_ErrorCallbackCh2;       
 342:Drivers/STM32F3xx_HAL_Driver/Src/stm32f3xx_hal_dac.c ****   hdac->DMAUnderrunCallbackCh2        = HAL_DACEx_DMAUnderrunCallbackCh2; 
 343:Drivers/STM32F3xx_HAL_Driver/Src/stm32f3xx_hal_dac.c **** #endif /* DAC_CHANNEL2_SUPPORT */
 344:Drivers/STM32F3xx_HAL_Driver/Src/stm32f3xx_hal_dac.c ****   if(hdac->MspInitCallback == NULL)
 345:Drivers/STM32F3xx_HAL_Driver/Src/stm32f3xx_hal_dac.c ****   {
 346:Drivers/STM32F3xx_HAL_Driver/Src/stm32f3xx_hal_dac.c ****     hdac->MspInitCallback               = HAL_DAC_MspInit;
 347:Drivers/STM32F3xx_HAL_Driver/Src/stm32f3xx_hal_dac.c ****   }
 348:Drivers/STM32F3xx_HAL_Driver/Src/stm32f3xx_hal_dac.c ****   if(hdac->MspDeInitCallback == NULL)
 349:Drivers/STM32F3xx_HAL_Driver/Src/stm32f3xx_hal_dac.c ****   {
 350:Drivers/STM32F3xx_HAL_Driver/Src/stm32f3xx_hal_dac.c ****     hdac->MspDeInitCallback             = HAL_DAC_MspDeInit;
 351:Drivers/STM32F3xx_HAL_Driver/Src/stm32f3xx_hal_dac.c ****   }
 352:Drivers/STM32F3xx_HAL_Driver/Src/stm32f3xx_hal_dac.c **** #endif /* USE_HAL_DAC_REGISTER_CALLBACKS */
 353:Drivers/STM32F3xx_HAL_Driver/Src/stm32f3xx_hal_dac.c ****   
 354:Drivers/STM32F3xx_HAL_Driver/Src/stm32f3xx_hal_dac.c ****     /* Allocate lock resource and initialize it */
 355:Drivers/STM32F3xx_HAL_Driver/Src/stm32f3xx_hal_dac.c ****     hdac->Lock = HAL_UNLOCKED;
 356:Drivers/STM32F3xx_HAL_Driver/Src/stm32f3xx_hal_dac.c **** 
 357:Drivers/STM32F3xx_HAL_Driver/Src/stm32f3xx_hal_dac.c **** #if (USE_HAL_DAC_REGISTER_CALLBACKS == 1)
 358:Drivers/STM32F3xx_HAL_Driver/Src/stm32f3xx_hal_dac.c ****     /* Init the low level hardware */
 359:Drivers/STM32F3xx_HAL_Driver/Src/stm32f3xx_hal_dac.c ****     hdac->MspInitCallback(hdac);
 360:Drivers/STM32F3xx_HAL_Driver/Src/stm32f3xx_hal_dac.c **** #else
 361:Drivers/STM32F3xx_HAL_Driver/Src/stm32f3xx_hal_dac.c ****     /* Init the low level hardware */
 362:Drivers/STM32F3xx_HAL_Driver/Src/stm32f3xx_hal_dac.c ****     HAL_DAC_MspInit(hdac);
 363:Drivers/STM32F3xx_HAL_Driver/Src/stm32f3xx_hal_dac.c **** #endif /* USE_HAL_DAC_REGISTER_CALLBACKS */
 364:Drivers/STM32F3xx_HAL_Driver/Src/stm32f3xx_hal_dac.c ****   }
 365:Drivers/STM32F3xx_HAL_Driver/Src/stm32f3xx_hal_dac.c ****   
 366:Drivers/STM32F3xx_HAL_Driver/Src/stm32f3xx_hal_dac.c ****   /* Initialize the DAC state*/
 367:Drivers/STM32F3xx_HAL_Driver/Src/stm32f3xx_hal_dac.c ****   hdac->State = HAL_DAC_STATE_BUSY;
 368:Drivers/STM32F3xx_HAL_Driver/Src/stm32f3xx_hal_dac.c ****        
 369:Drivers/STM32F3xx_HAL_Driver/Src/stm32f3xx_hal_dac.c ****   /* Set DAC error code to none */
 370:Drivers/STM32F3xx_HAL_Driver/Src/stm32f3xx_hal_dac.c ****   hdac->ErrorCode = HAL_DAC_ERROR_NONE;
 371:Drivers/STM32F3xx_HAL_Driver/Src/stm32f3xx_hal_dac.c ****   
ARM GAS  /var/folders/jw/jcj5j9_530958b2rm5vp9wn00000gn/T//ccr4Tk6P.s 			page 8


 372:Drivers/STM32F3xx_HAL_Driver/Src/stm32f3xx_hal_dac.c ****   /* Initialize the DAC state*/
 373:Drivers/STM32F3xx_HAL_Driver/Src/stm32f3xx_hal_dac.c ****   hdac->State = HAL_DAC_STATE_READY;
 374:Drivers/STM32F3xx_HAL_Driver/Src/stm32f3xx_hal_dac.c ****   
 375:Drivers/STM32F3xx_HAL_Driver/Src/stm32f3xx_hal_dac.c ****   /* Return function status */
 376:Drivers/STM32F3xx_HAL_Driver/Src/stm32f3xx_hal_dac.c ****   return HAL_OK;
 377:Drivers/STM32F3xx_HAL_Driver/Src/stm32f3xx_hal_dac.c **** }
 378:Drivers/STM32F3xx_HAL_Driver/Src/stm32f3xx_hal_dac.c **** 
 379:Drivers/STM32F3xx_HAL_Driver/Src/stm32f3xx_hal_dac.c **** /**
 380:Drivers/STM32F3xx_HAL_Driver/Src/stm32f3xx_hal_dac.c ****   * @brief  Deinitialize the DAC peripheral registers to their default reset values.
 381:Drivers/STM32F3xx_HAL_Driver/Src/stm32f3xx_hal_dac.c ****   * @param  hdac pointer to a DAC_HandleTypeDef structure that contains
 382:Drivers/STM32F3xx_HAL_Driver/Src/stm32f3xx_hal_dac.c ****   *         the configuration information for the specified DAC.
 383:Drivers/STM32F3xx_HAL_Driver/Src/stm32f3xx_hal_dac.c ****   * @retval HAL status
 384:Drivers/STM32F3xx_HAL_Driver/Src/stm32f3xx_hal_dac.c ****   */
 385:Drivers/STM32F3xx_HAL_Driver/Src/stm32f3xx_hal_dac.c **** HAL_StatusTypeDef HAL_DAC_DeInit(DAC_HandleTypeDef* hdac)
 386:Drivers/STM32F3xx_HAL_Driver/Src/stm32f3xx_hal_dac.c **** {
 387:Drivers/STM32F3xx_HAL_Driver/Src/stm32f3xx_hal_dac.c ****   /* Check DAC handle */
 388:Drivers/STM32F3xx_HAL_Driver/Src/stm32f3xx_hal_dac.c ****   if(hdac == NULL)
 389:Drivers/STM32F3xx_HAL_Driver/Src/stm32f3xx_hal_dac.c ****   {
 390:Drivers/STM32F3xx_HAL_Driver/Src/stm32f3xx_hal_dac.c ****     return HAL_ERROR;
 391:Drivers/STM32F3xx_HAL_Driver/Src/stm32f3xx_hal_dac.c ****   }
 392:Drivers/STM32F3xx_HAL_Driver/Src/stm32f3xx_hal_dac.c **** 
 393:Drivers/STM32F3xx_HAL_Driver/Src/stm32f3xx_hal_dac.c ****   /* Check the parameters */
 394:Drivers/STM32F3xx_HAL_Driver/Src/stm32f3xx_hal_dac.c ****   assert_param(IS_DAC_ALL_INSTANCE(hdac->Instance));
 395:Drivers/STM32F3xx_HAL_Driver/Src/stm32f3xx_hal_dac.c **** 
 396:Drivers/STM32F3xx_HAL_Driver/Src/stm32f3xx_hal_dac.c ****   /* Change DAC state */
 397:Drivers/STM32F3xx_HAL_Driver/Src/stm32f3xx_hal_dac.c ****   hdac->State = HAL_DAC_STATE_BUSY;
 398:Drivers/STM32F3xx_HAL_Driver/Src/stm32f3xx_hal_dac.c ****   
 399:Drivers/STM32F3xx_HAL_Driver/Src/stm32f3xx_hal_dac.c **** #if (USE_HAL_DAC_REGISTER_CALLBACKS == 1)
 400:Drivers/STM32F3xx_HAL_Driver/Src/stm32f3xx_hal_dac.c ****   if(hdac->MspDeInitCallback == NULL)
 401:Drivers/STM32F3xx_HAL_Driver/Src/stm32f3xx_hal_dac.c ****   {
 402:Drivers/STM32F3xx_HAL_Driver/Src/stm32f3xx_hal_dac.c ****     hdac->MspDeInitCallback = HAL_DAC_MspDeInit;
 403:Drivers/STM32F3xx_HAL_Driver/Src/stm32f3xx_hal_dac.c ****   }
 404:Drivers/STM32F3xx_HAL_Driver/Src/stm32f3xx_hal_dac.c ****   /* DeInit the low level hardware */
 405:Drivers/STM32F3xx_HAL_Driver/Src/stm32f3xx_hal_dac.c ****   hdac->MspDeInitCallback(hdac);
 406:Drivers/STM32F3xx_HAL_Driver/Src/stm32f3xx_hal_dac.c ****   
 407:Drivers/STM32F3xx_HAL_Driver/Src/stm32f3xx_hal_dac.c **** #else 
 408:Drivers/STM32F3xx_HAL_Driver/Src/stm32f3xx_hal_dac.c ****   /* DeInit the low level hardware */
 409:Drivers/STM32F3xx_HAL_Driver/Src/stm32f3xx_hal_dac.c ****   HAL_DAC_MspDeInit(hdac);
 410:Drivers/STM32F3xx_HAL_Driver/Src/stm32f3xx_hal_dac.c **** #endif /* USE_HAL_DAC_REGISTER_CALLBACKS */
 411:Drivers/STM32F3xx_HAL_Driver/Src/stm32f3xx_hal_dac.c ****   
 412:Drivers/STM32F3xx_HAL_Driver/Src/stm32f3xx_hal_dac.c ****   /* Set DAC error code to none */
 413:Drivers/STM32F3xx_HAL_Driver/Src/stm32f3xx_hal_dac.c ****   hdac->ErrorCode = HAL_DAC_ERROR_NONE;
 414:Drivers/STM32F3xx_HAL_Driver/Src/stm32f3xx_hal_dac.c ****   
 415:Drivers/STM32F3xx_HAL_Driver/Src/stm32f3xx_hal_dac.c ****   /* Change DAC state */
 416:Drivers/STM32F3xx_HAL_Driver/Src/stm32f3xx_hal_dac.c ****   hdac->State = HAL_DAC_STATE_RESET;
 417:Drivers/STM32F3xx_HAL_Driver/Src/stm32f3xx_hal_dac.c **** 
 418:Drivers/STM32F3xx_HAL_Driver/Src/stm32f3xx_hal_dac.c ****   /* Release Lock */
 419:Drivers/STM32F3xx_HAL_Driver/Src/stm32f3xx_hal_dac.c ****   __HAL_UNLOCK(hdac);
 420:Drivers/STM32F3xx_HAL_Driver/Src/stm32f3xx_hal_dac.c **** 
 421:Drivers/STM32F3xx_HAL_Driver/Src/stm32f3xx_hal_dac.c ****   /* Return function status */
 422:Drivers/STM32F3xx_HAL_Driver/Src/stm32f3xx_hal_dac.c ****   return HAL_OK;
 423:Drivers/STM32F3xx_HAL_Driver/Src/stm32f3xx_hal_dac.c **** }
 424:Drivers/STM32F3xx_HAL_Driver/Src/stm32f3xx_hal_dac.c **** 
 425:Drivers/STM32F3xx_HAL_Driver/Src/stm32f3xx_hal_dac.c **** /**
 426:Drivers/STM32F3xx_HAL_Driver/Src/stm32f3xx_hal_dac.c ****   * @brief  Initialize the DAC MSP.
 427:Drivers/STM32F3xx_HAL_Driver/Src/stm32f3xx_hal_dac.c ****   * @param  hdac pointer to a DAC_HandleTypeDef structure that contains
 428:Drivers/STM32F3xx_HAL_Driver/Src/stm32f3xx_hal_dac.c ****   *         the configuration information for the specified DAC.
ARM GAS  /var/folders/jw/jcj5j9_530958b2rm5vp9wn00000gn/T//ccr4Tk6P.s 			page 9


 429:Drivers/STM32F3xx_HAL_Driver/Src/stm32f3xx_hal_dac.c ****   * @retval None
 430:Drivers/STM32F3xx_HAL_Driver/Src/stm32f3xx_hal_dac.c ****   */
 431:Drivers/STM32F3xx_HAL_Driver/Src/stm32f3xx_hal_dac.c **** __weak void HAL_DAC_MspInit(DAC_HandleTypeDef* hdac)
 432:Drivers/STM32F3xx_HAL_Driver/Src/stm32f3xx_hal_dac.c **** {
  30              		.loc 1 432 1 view -0
  31              		.cfi_startproc
  32              		@ args = 0, pretend = 0, frame = 0
  33              		@ frame_needed = 0, uses_anonymous_args = 0
  34              		@ link register save eliminated.
 433:Drivers/STM32F3xx_HAL_Driver/Src/stm32f3xx_hal_dac.c ****   /* Prevent unused argument(s) compilation warning */
 434:Drivers/STM32F3xx_HAL_Driver/Src/stm32f3xx_hal_dac.c ****   UNUSED(hdac);
  35              		.loc 1 434 3 view .LVU1
 435:Drivers/STM32F3xx_HAL_Driver/Src/stm32f3xx_hal_dac.c **** 
 436:Drivers/STM32F3xx_HAL_Driver/Src/stm32f3xx_hal_dac.c ****   /* NOTE : This function should not be modified, when the callback is needed,
 437:Drivers/STM32F3xx_HAL_Driver/Src/stm32f3xx_hal_dac.c ****             the HAL_DAC_MspInit could be implemented in the user file
 438:Drivers/STM32F3xx_HAL_Driver/Src/stm32f3xx_hal_dac.c ****    */ 
 439:Drivers/STM32F3xx_HAL_Driver/Src/stm32f3xx_hal_dac.c **** }
  36              		.loc 1 439 1 is_stmt 0 view .LVU2
  37 0000 7047     		bx	lr
  38              		.cfi_endproc
  39              	.LFE132:
  41              		.section	.text.HAL_DAC_Init,"ax",%progbits
  42              		.align	1
  43              		.global	HAL_DAC_Init
  44              		.syntax unified
  45              		.thumb
  46              		.thumb_func
  47              		.fpu fpv4-sp-d16
  49              	HAL_DAC_Init:
  50              	.LVL1:
  51              	.LFB130:
 321:Drivers/STM32F3xx_HAL_Driver/Src/stm32f3xx_hal_dac.c ****   /* Check DAC handle */
  52              		.loc 1 321 1 is_stmt 1 view -0
  53              		.cfi_startproc
  54              		@ args = 0, pretend = 0, frame = 0
  55              		@ frame_needed = 0, uses_anonymous_args = 0
 323:Drivers/STM32F3xx_HAL_Driver/Src/stm32f3xx_hal_dac.c ****   {
  56              		.loc 1 323 3 view .LVU4
 323:Drivers/STM32F3xx_HAL_Driver/Src/stm32f3xx_hal_dac.c ****   {
  57              		.loc 1 323 5 is_stmt 0 view .LVU5
  58 0000 70B1     		cbz	r0, .L5
 321:Drivers/STM32F3xx_HAL_Driver/Src/stm32f3xx_hal_dac.c ****   /* Check DAC handle */
  59              		.loc 1 321 1 view .LVU6
  60 0002 10B5     		push	{r4, lr}
  61              	.LCFI0:
  62              		.cfi_def_cfa_offset 8
  63              		.cfi_offset 4, -8
  64              		.cfi_offset 14, -4
  65 0004 0446     		mov	r4, r0
 328:Drivers/STM32F3xx_HAL_Driver/Src/stm32f3xx_hal_dac.c ****   
  66              		.loc 1 328 3 is_stmt 1 view .LVU7
 330:Drivers/STM32F3xx_HAL_Driver/Src/stm32f3xx_hal_dac.c ****   {  
  67              		.loc 1 330 3 view .LVU8
 330:Drivers/STM32F3xx_HAL_Driver/Src/stm32f3xx_hal_dac.c ****   {  
  68              		.loc 1 330 10 is_stmt 0 view .LVU9
  69 0006 0379     		ldrb	r3, [r0, #4]	@ zero_extendqisi2
 330:Drivers/STM32F3xx_HAL_Driver/Src/stm32f3xx_hal_dac.c ****   {  
ARM GAS  /var/folders/jw/jcj5j9_530958b2rm5vp9wn00000gn/T//ccr4Tk6P.s 			page 10


  70              		.loc 1 330 5 view .LVU10
  71 0008 33B1     		cbz	r3, .L10
  72              	.LVL2:
  73              	.L4:
 367:Drivers/STM32F3xx_HAL_Driver/Src/stm32f3xx_hal_dac.c ****        
  74              		.loc 1 367 3 is_stmt 1 view .LVU11
 367:Drivers/STM32F3xx_HAL_Driver/Src/stm32f3xx_hal_dac.c ****        
  75              		.loc 1 367 15 is_stmt 0 view .LVU12
  76 000a 0223     		movs	r3, #2
  77 000c 2371     		strb	r3, [r4, #4]
 370:Drivers/STM32F3xx_HAL_Driver/Src/stm32f3xx_hal_dac.c ****   
  78              		.loc 1 370 3 is_stmt 1 view .LVU13
 370:Drivers/STM32F3xx_HAL_Driver/Src/stm32f3xx_hal_dac.c ****   
  79              		.loc 1 370 19 is_stmt 0 view .LVU14
  80 000e 0020     		movs	r0, #0
  81 0010 2061     		str	r0, [r4, #16]
 373:Drivers/STM32F3xx_HAL_Driver/Src/stm32f3xx_hal_dac.c ****   
  82              		.loc 1 373 3 is_stmt 1 view .LVU15
 373:Drivers/STM32F3xx_HAL_Driver/Src/stm32f3xx_hal_dac.c ****   
  83              		.loc 1 373 15 is_stmt 0 view .LVU16
  84 0012 0123     		movs	r3, #1
  85 0014 2371     		strb	r3, [r4, #4]
 376:Drivers/STM32F3xx_HAL_Driver/Src/stm32f3xx_hal_dac.c **** }
  86              		.loc 1 376 3 is_stmt 1 view .LVU17
 377:Drivers/STM32F3xx_HAL_Driver/Src/stm32f3xx_hal_dac.c **** 
  87              		.loc 1 377 1 is_stmt 0 view .LVU18
  88 0016 10BD     		pop	{r4, pc}
  89              	.LVL3:
  90              	.L10:
 355:Drivers/STM32F3xx_HAL_Driver/Src/stm32f3xx_hal_dac.c **** 
  91              		.loc 1 355 5 is_stmt 1 view .LVU19
 355:Drivers/STM32F3xx_HAL_Driver/Src/stm32f3xx_hal_dac.c **** 
  92              		.loc 1 355 16 is_stmt 0 view .LVU20
  93 0018 4371     		strb	r3, [r0, #5]
 362:Drivers/STM32F3xx_HAL_Driver/Src/stm32f3xx_hal_dac.c **** #endif /* USE_HAL_DAC_REGISTER_CALLBACKS */
  94              		.loc 1 362 5 is_stmt 1 view .LVU21
  95 001a FFF7FEFF 		bl	HAL_DAC_MspInit
  96              	.LVL4:
 362:Drivers/STM32F3xx_HAL_Driver/Src/stm32f3xx_hal_dac.c **** #endif /* USE_HAL_DAC_REGISTER_CALLBACKS */
  97              		.loc 1 362 5 is_stmt 0 view .LVU22
  98 001e F4E7     		b	.L4
  99              	.LVL5:
 100              	.L5:
 101              	.LCFI1:
 102              		.cfi_def_cfa_offset 0
 103              		.cfi_restore 4
 104              		.cfi_restore 14
 325:Drivers/STM32F3xx_HAL_Driver/Src/stm32f3xx_hal_dac.c ****   }
 105              		.loc 1 325 13 view .LVU23
 106 0020 0120     		movs	r0, #1
 107              	.LVL6:
 377:Drivers/STM32F3xx_HAL_Driver/Src/stm32f3xx_hal_dac.c **** 
 108              		.loc 1 377 1 view .LVU24
 109 0022 7047     		bx	lr
 110              		.cfi_endproc
 111              	.LFE130:
 113              		.section	.text.HAL_DAC_MspDeInit,"ax",%progbits
ARM GAS  /var/folders/jw/jcj5j9_530958b2rm5vp9wn00000gn/T//ccr4Tk6P.s 			page 11


 114              		.align	1
 115              		.weak	HAL_DAC_MspDeInit
 116              		.syntax unified
 117              		.thumb
 118              		.thumb_func
 119              		.fpu fpv4-sp-d16
 121              	HAL_DAC_MspDeInit:
 122              	.LVL7:
 123              	.LFB133:
 440:Drivers/STM32F3xx_HAL_Driver/Src/stm32f3xx_hal_dac.c **** 
 441:Drivers/STM32F3xx_HAL_Driver/Src/stm32f3xx_hal_dac.c **** /**
 442:Drivers/STM32F3xx_HAL_Driver/Src/stm32f3xx_hal_dac.c ****   * @brief  DeInitialize the DAC MSP.
 443:Drivers/STM32F3xx_HAL_Driver/Src/stm32f3xx_hal_dac.c ****   * @param  hdac pointer to a DAC_HandleTypeDef structure that contains
 444:Drivers/STM32F3xx_HAL_Driver/Src/stm32f3xx_hal_dac.c ****   *         the configuration information for the specified DAC.  
 445:Drivers/STM32F3xx_HAL_Driver/Src/stm32f3xx_hal_dac.c ****   * @retval None
 446:Drivers/STM32F3xx_HAL_Driver/Src/stm32f3xx_hal_dac.c ****   */
 447:Drivers/STM32F3xx_HAL_Driver/Src/stm32f3xx_hal_dac.c **** __weak void HAL_DAC_MspDeInit(DAC_HandleTypeDef* hdac)
 448:Drivers/STM32F3xx_HAL_Driver/Src/stm32f3xx_hal_dac.c **** {
 124              		.loc 1 448 1 is_stmt 1 view -0
 125              		.cfi_startproc
 126              		@ args = 0, pretend = 0, frame = 0
 127              		@ frame_needed = 0, uses_anonymous_args = 0
 128              		@ link register save eliminated.
 449:Drivers/STM32F3xx_HAL_Driver/Src/stm32f3xx_hal_dac.c ****   /* Prevent unused argument(s) compilation warning */
 450:Drivers/STM32F3xx_HAL_Driver/Src/stm32f3xx_hal_dac.c ****   UNUSED(hdac);
 129              		.loc 1 450 3 view .LVU26
 451:Drivers/STM32F3xx_HAL_Driver/Src/stm32f3xx_hal_dac.c **** 
 452:Drivers/STM32F3xx_HAL_Driver/Src/stm32f3xx_hal_dac.c ****   /* NOTE : This function should not be modified, when the callback is needed,
 453:Drivers/STM32F3xx_HAL_Driver/Src/stm32f3xx_hal_dac.c ****             the HAL_DAC_MspDeInit could be implemented in the user file
 454:Drivers/STM32F3xx_HAL_Driver/Src/stm32f3xx_hal_dac.c ****    */ 
 455:Drivers/STM32F3xx_HAL_Driver/Src/stm32f3xx_hal_dac.c **** }
 130              		.loc 1 455 1 is_stmt 0 view .LVU27
 131 0000 7047     		bx	lr
 132              		.cfi_endproc
 133              	.LFE133:
 135              		.section	.text.HAL_DAC_DeInit,"ax",%progbits
 136              		.align	1
 137              		.global	HAL_DAC_DeInit
 138              		.syntax unified
 139              		.thumb
 140              		.thumb_func
 141              		.fpu fpv4-sp-d16
 143              	HAL_DAC_DeInit:
 144              	.LVL8:
 145              	.LFB131:
 386:Drivers/STM32F3xx_HAL_Driver/Src/stm32f3xx_hal_dac.c ****   /* Check DAC handle */
 146              		.loc 1 386 1 is_stmt 1 view -0
 147              		.cfi_startproc
 148              		@ args = 0, pretend = 0, frame = 0
 149              		@ frame_needed = 0, uses_anonymous_args = 0
 388:Drivers/STM32F3xx_HAL_Driver/Src/stm32f3xx_hal_dac.c ****   {
 150              		.loc 1 388 3 view .LVU29
 388:Drivers/STM32F3xx_HAL_Driver/Src/stm32f3xx_hal_dac.c ****   {
 151              		.loc 1 388 5 is_stmt 0 view .LVU30
 152 0000 50B1     		cbz	r0, .L14
 386:Drivers/STM32F3xx_HAL_Driver/Src/stm32f3xx_hal_dac.c ****   /* Check DAC handle */
 153              		.loc 1 386 1 view .LVU31
ARM GAS  /var/folders/jw/jcj5j9_530958b2rm5vp9wn00000gn/T//ccr4Tk6P.s 			page 12


 154 0002 10B5     		push	{r4, lr}
 155              	.LCFI2:
 156              		.cfi_def_cfa_offset 8
 157              		.cfi_offset 4, -8
 158              		.cfi_offset 14, -4
 159 0004 0446     		mov	r4, r0
 394:Drivers/STM32F3xx_HAL_Driver/Src/stm32f3xx_hal_dac.c **** 
 160              		.loc 1 394 3 is_stmt 1 view .LVU32
 397:Drivers/STM32F3xx_HAL_Driver/Src/stm32f3xx_hal_dac.c ****   
 161              		.loc 1 397 3 view .LVU33
 397:Drivers/STM32F3xx_HAL_Driver/Src/stm32f3xx_hal_dac.c ****   
 162              		.loc 1 397 15 is_stmt 0 view .LVU34
 163 0006 0223     		movs	r3, #2
 164 0008 0371     		strb	r3, [r0, #4]
 409:Drivers/STM32F3xx_HAL_Driver/Src/stm32f3xx_hal_dac.c **** #endif /* USE_HAL_DAC_REGISTER_CALLBACKS */
 165              		.loc 1 409 3 is_stmt 1 view .LVU35
 166 000a FFF7FEFF 		bl	HAL_DAC_MspDeInit
 167              	.LVL9:
 413:Drivers/STM32F3xx_HAL_Driver/Src/stm32f3xx_hal_dac.c ****   
 168              		.loc 1 413 3 view .LVU36
 413:Drivers/STM32F3xx_HAL_Driver/Src/stm32f3xx_hal_dac.c ****   
 169              		.loc 1 413 19 is_stmt 0 view .LVU37
 170 000e 0020     		movs	r0, #0
 171 0010 2061     		str	r0, [r4, #16]
 416:Drivers/STM32F3xx_HAL_Driver/Src/stm32f3xx_hal_dac.c **** 
 172              		.loc 1 416 3 is_stmt 1 view .LVU38
 416:Drivers/STM32F3xx_HAL_Driver/Src/stm32f3xx_hal_dac.c **** 
 173              		.loc 1 416 15 is_stmt 0 view .LVU39
 174 0012 2071     		strb	r0, [r4, #4]
 419:Drivers/STM32F3xx_HAL_Driver/Src/stm32f3xx_hal_dac.c **** 
 175              		.loc 1 419 3 is_stmt 1 view .LVU40
 419:Drivers/STM32F3xx_HAL_Driver/Src/stm32f3xx_hal_dac.c **** 
 176              		.loc 1 419 3 view .LVU41
 177 0014 6071     		strb	r0, [r4, #5]
 419:Drivers/STM32F3xx_HAL_Driver/Src/stm32f3xx_hal_dac.c **** 
 178              		.loc 1 419 3 view .LVU42
 422:Drivers/STM32F3xx_HAL_Driver/Src/stm32f3xx_hal_dac.c **** }
 179              		.loc 1 422 3 view .LVU43
 423:Drivers/STM32F3xx_HAL_Driver/Src/stm32f3xx_hal_dac.c **** 
 180              		.loc 1 423 1 is_stmt 0 view .LVU44
 181 0016 10BD     		pop	{r4, pc}
 182              	.LVL10:
 183              	.L14:
 184              	.LCFI3:
 185              		.cfi_def_cfa_offset 0
 186              		.cfi_restore 4
 187              		.cfi_restore 14
 390:Drivers/STM32F3xx_HAL_Driver/Src/stm32f3xx_hal_dac.c ****   }
 188              		.loc 1 390 12 view .LVU45
 189 0018 0120     		movs	r0, #1
 190              	.LVL11:
 423:Drivers/STM32F3xx_HAL_Driver/Src/stm32f3xx_hal_dac.c **** 
 191              		.loc 1 423 1 view .LVU46
 192 001a 7047     		bx	lr
 193              		.cfi_endproc
 194              	.LFE131:
 196              		.section	.text.HAL_DAC_Start,"ax",%progbits
ARM GAS  /var/folders/jw/jcj5j9_530958b2rm5vp9wn00000gn/T//ccr4Tk6P.s 			page 13


 197              		.align	1
 198              		.weak	HAL_DAC_Start
 199              		.syntax unified
 200              		.thumb
 201              		.thumb_func
 202              		.fpu fpv4-sp-d16
 204              	HAL_DAC_Start:
 205              	.LVL12:
 206              	.LFB134:
 456:Drivers/STM32F3xx_HAL_Driver/Src/stm32f3xx_hal_dac.c **** 
 457:Drivers/STM32F3xx_HAL_Driver/Src/stm32f3xx_hal_dac.c **** /**
 458:Drivers/STM32F3xx_HAL_Driver/Src/stm32f3xx_hal_dac.c ****   * @}
 459:Drivers/STM32F3xx_HAL_Driver/Src/stm32f3xx_hal_dac.c ****   */
 460:Drivers/STM32F3xx_HAL_Driver/Src/stm32f3xx_hal_dac.c **** 
 461:Drivers/STM32F3xx_HAL_Driver/Src/stm32f3xx_hal_dac.c **** /** @defgroup DAC_Exported_Functions_Group2 Input and Output operation functions
 462:Drivers/STM32F3xx_HAL_Driver/Src/stm32f3xx_hal_dac.c ****  *  @brief    IO operation functions 
 463:Drivers/STM32F3xx_HAL_Driver/Src/stm32f3xx_hal_dac.c ****  *
 464:Drivers/STM32F3xx_HAL_Driver/Src/stm32f3xx_hal_dac.c **** @verbatim   
 465:Drivers/STM32F3xx_HAL_Driver/Src/stm32f3xx_hal_dac.c ****   ==============================================================================
 466:Drivers/STM32F3xx_HAL_Driver/Src/stm32f3xx_hal_dac.c ****              ##### IO operation functions #####
 467:Drivers/STM32F3xx_HAL_Driver/Src/stm32f3xx_hal_dac.c ****   ==============================================================================  
 468:Drivers/STM32F3xx_HAL_Driver/Src/stm32f3xx_hal_dac.c ****     [..]  This section provides functions allowing to:
 469:Drivers/STM32F3xx_HAL_Driver/Src/stm32f3xx_hal_dac.c ****       (+) Start conversion.
 470:Drivers/STM32F3xx_HAL_Driver/Src/stm32f3xx_hal_dac.c ****       (+) Stop conversion.
 471:Drivers/STM32F3xx_HAL_Driver/Src/stm32f3xx_hal_dac.c ****       (+) Start conversion and enable DMA transfer.
 472:Drivers/STM32F3xx_HAL_Driver/Src/stm32f3xx_hal_dac.c ****       (+) Stop conversion and disable DMA transfer.
 473:Drivers/STM32F3xx_HAL_Driver/Src/stm32f3xx_hal_dac.c ****       (+) Get result of conversion.
 474:Drivers/STM32F3xx_HAL_Driver/Src/stm32f3xx_hal_dac.c ****       (+) Get result of dual mode conversion.
 475:Drivers/STM32F3xx_HAL_Driver/Src/stm32f3xx_hal_dac.c ****                      
 476:Drivers/STM32F3xx_HAL_Driver/Src/stm32f3xx_hal_dac.c **** @endverbatim
 477:Drivers/STM32F3xx_HAL_Driver/Src/stm32f3xx_hal_dac.c ****   * @{
 478:Drivers/STM32F3xx_HAL_Driver/Src/stm32f3xx_hal_dac.c ****   */
 479:Drivers/STM32F3xx_HAL_Driver/Src/stm32f3xx_hal_dac.c **** 
 480:Drivers/STM32F3xx_HAL_Driver/Src/stm32f3xx_hal_dac.c **** /**
 481:Drivers/STM32F3xx_HAL_Driver/Src/stm32f3xx_hal_dac.c ****   * @brief  Enables DAC and starts conversion of channel.
 482:Drivers/STM32F3xx_HAL_Driver/Src/stm32f3xx_hal_dac.c ****   * @param  hdac pointer to a DAC_HandleTypeDef structure that contains
 483:Drivers/STM32F3xx_HAL_Driver/Src/stm32f3xx_hal_dac.c ****   *         the configuration information for the specified DAC.
 484:Drivers/STM32F3xx_HAL_Driver/Src/stm32f3xx_hal_dac.c ****   * @param  Channel The selected DAC channel. 
 485:Drivers/STM32F3xx_HAL_Driver/Src/stm32f3xx_hal_dac.c ****   *          This parameter can be one of the following values:
 486:Drivers/STM32F3xx_HAL_Driver/Src/stm32f3xx_hal_dac.c ****   *            @arg DAC_CHANNEL_1: DAC1 Channel1 selected
 487:Drivers/STM32F3xx_HAL_Driver/Src/stm32f3xx_hal_dac.c ****   *            @arg DAC_CHANNEL_2: DAC1 Channel2 selected  
 488:Drivers/STM32F3xx_HAL_Driver/Src/stm32f3xx_hal_dac.c ****   *            @arg DAC_CHANNEL_1: DAC2 Channel1 selected  
 489:Drivers/STM32F3xx_HAL_Driver/Src/stm32f3xx_hal_dac.c ****   * @retval HAL status
 490:Drivers/STM32F3xx_HAL_Driver/Src/stm32f3xx_hal_dac.c ****   */
 491:Drivers/STM32F3xx_HAL_Driver/Src/stm32f3xx_hal_dac.c **** __weak HAL_StatusTypeDef HAL_DAC_Start(DAC_HandleTypeDef* hdac, uint32_t Channel)
 492:Drivers/STM32F3xx_HAL_Driver/Src/stm32f3xx_hal_dac.c **** {
 207              		.loc 1 492 1 is_stmt 1 view -0
 208              		.cfi_startproc
 209              		@ args = 0, pretend = 0, frame = 0
 210              		@ frame_needed = 0, uses_anonymous_args = 0
 211              		@ link register save eliminated.
 493:Drivers/STM32F3xx_HAL_Driver/Src/stm32f3xx_hal_dac.c ****   /* Prevent unused argument(s) compilation warning */
 494:Drivers/STM32F3xx_HAL_Driver/Src/stm32f3xx_hal_dac.c ****   UNUSED(hdac);
 212              		.loc 1 494 3 view .LVU48
 495:Drivers/STM32F3xx_HAL_Driver/Src/stm32f3xx_hal_dac.c ****   UNUSED(Channel);
 213              		.loc 1 495 3 view .LVU49
 496:Drivers/STM32F3xx_HAL_Driver/Src/stm32f3xx_hal_dac.c **** 
ARM GAS  /var/folders/jw/jcj5j9_530958b2rm5vp9wn00000gn/T//ccr4Tk6P.s 			page 14


 497:Drivers/STM32F3xx_HAL_Driver/Src/stm32f3xx_hal_dac.c ****   /* Note : This function is defined into this file for library reference */
 498:Drivers/STM32F3xx_HAL_Driver/Src/stm32f3xx_hal_dac.c ****   /*        Function content is located into file stm32f3xx_hal_dac_ex.c  */
 499:Drivers/STM32F3xx_HAL_Driver/Src/stm32f3xx_hal_dac.c ****   
 500:Drivers/STM32F3xx_HAL_Driver/Src/stm32f3xx_hal_dac.c ****   /* Return function status */
 501:Drivers/STM32F3xx_HAL_Driver/Src/stm32f3xx_hal_dac.c ****   return HAL_ERROR;
 214              		.loc 1 501 3 view .LVU50
 502:Drivers/STM32F3xx_HAL_Driver/Src/stm32f3xx_hal_dac.c **** }
 215              		.loc 1 502 1 is_stmt 0 view .LVU51
 216 0000 0120     		movs	r0, #1
 217              	.LVL13:
 218              		.loc 1 502 1 view .LVU52
 219 0002 7047     		bx	lr
 220              		.cfi_endproc
 221              	.LFE134:
 223              		.section	.text.HAL_DAC_Stop,"ax",%progbits
 224              		.align	1
 225              		.global	HAL_DAC_Stop
 226              		.syntax unified
 227              		.thumb
 228              		.thumb_func
 229              		.fpu fpv4-sp-d16
 231              	HAL_DAC_Stop:
 232              	.LVL14:
 233              	.LFB135:
 503:Drivers/STM32F3xx_HAL_Driver/Src/stm32f3xx_hal_dac.c **** 
 504:Drivers/STM32F3xx_HAL_Driver/Src/stm32f3xx_hal_dac.c **** /**
 505:Drivers/STM32F3xx_HAL_Driver/Src/stm32f3xx_hal_dac.c ****   * @brief  Disables DAC and stop conversion of channel.
 506:Drivers/STM32F3xx_HAL_Driver/Src/stm32f3xx_hal_dac.c ****   * @param  hdac pointer to a DAC_HandleTypeDef structure that contains
 507:Drivers/STM32F3xx_HAL_Driver/Src/stm32f3xx_hal_dac.c ****   *         the configuration information for the specified DAC.
 508:Drivers/STM32F3xx_HAL_Driver/Src/stm32f3xx_hal_dac.c ****   * @param  Channel The selected DAC channel. 
 509:Drivers/STM32F3xx_HAL_Driver/Src/stm32f3xx_hal_dac.c ****   *          This parameter can be one of the following values:
 510:Drivers/STM32F3xx_HAL_Driver/Src/stm32f3xx_hal_dac.c ****   *            @arg DAC_CHANNEL_1: DAC1 Channel1 selected
 511:Drivers/STM32F3xx_HAL_Driver/Src/stm32f3xx_hal_dac.c ****   *            @arg DAC_CHANNEL_2: DAC1 Channel2 selected  
 512:Drivers/STM32F3xx_HAL_Driver/Src/stm32f3xx_hal_dac.c ****   *            @arg DAC_CHANNEL_1: DAC2 Channel1 selected  
 513:Drivers/STM32F3xx_HAL_Driver/Src/stm32f3xx_hal_dac.c ****   * @retval HAL status
 514:Drivers/STM32F3xx_HAL_Driver/Src/stm32f3xx_hal_dac.c ****   */
 515:Drivers/STM32F3xx_HAL_Driver/Src/stm32f3xx_hal_dac.c **** HAL_StatusTypeDef HAL_DAC_Stop(DAC_HandleTypeDef* hdac, uint32_t Channel)
 516:Drivers/STM32F3xx_HAL_Driver/Src/stm32f3xx_hal_dac.c **** {
 234              		.loc 1 516 1 is_stmt 1 view -0
 235              		.cfi_startproc
 236              		@ args = 0, pretend = 0, frame = 0
 237              		@ frame_needed = 0, uses_anonymous_args = 0
 238              		@ link register save eliminated.
 239              		.loc 1 516 1 is_stmt 0 view .LVU54
 240 0000 10B4     		push	{r4}
 241              	.LCFI4:
 242              		.cfi_def_cfa_offset 4
 243              		.cfi_offset 4, -4
 517:Drivers/STM32F3xx_HAL_Driver/Src/stm32f3xx_hal_dac.c ****   /* Check the parameters */
 518:Drivers/STM32F3xx_HAL_Driver/Src/stm32f3xx_hal_dac.c ****   assert_param(IS_DAC_CHANNEL_INSTANCE(hdac->Instance, Channel));
 244              		.loc 1 518 3 is_stmt 1 view .LVU55
 519:Drivers/STM32F3xx_HAL_Driver/Src/stm32f3xx_hal_dac.c ****   
 520:Drivers/STM32F3xx_HAL_Driver/Src/stm32f3xx_hal_dac.c ****   /* Disable the Peripheral */
 521:Drivers/STM32F3xx_HAL_Driver/Src/stm32f3xx_hal_dac.c ****   __HAL_DAC_DISABLE(hdac, Channel);
 245              		.loc 1 521 3 view .LVU56
 246 0002 0468     		ldr	r4, [r0]
 247 0004 2368     		ldr	r3, [r4]
ARM GAS  /var/folders/jw/jcj5j9_530958b2rm5vp9wn00000gn/T//ccr4Tk6P.s 			page 15


 248 0006 0122     		movs	r2, #1
 249 0008 02FA01F1 		lsl	r1, r2, r1
 250              	.LVL15:
 251              		.loc 1 521 3 is_stmt 0 view .LVU57
 252 000c 23EA0103 		bic	r3, r3, r1
 253 0010 2360     		str	r3, [r4]
 522:Drivers/STM32F3xx_HAL_Driver/Src/stm32f3xx_hal_dac.c ****   
 523:Drivers/STM32F3xx_HAL_Driver/Src/stm32f3xx_hal_dac.c ****   /* Change DAC state */
 524:Drivers/STM32F3xx_HAL_Driver/Src/stm32f3xx_hal_dac.c ****   hdac->State = HAL_DAC_STATE_READY;
 254              		.loc 1 524 3 is_stmt 1 view .LVU58
 255              		.loc 1 524 15 is_stmt 0 view .LVU59
 256 0012 0271     		strb	r2, [r0, #4]
 525:Drivers/STM32F3xx_HAL_Driver/Src/stm32f3xx_hal_dac.c ****   
 526:Drivers/STM32F3xx_HAL_Driver/Src/stm32f3xx_hal_dac.c ****   /* Return function status */
 527:Drivers/STM32F3xx_HAL_Driver/Src/stm32f3xx_hal_dac.c ****   return HAL_OK;
 257              		.loc 1 527 3 is_stmt 1 view .LVU60
 528:Drivers/STM32F3xx_HAL_Driver/Src/stm32f3xx_hal_dac.c **** }
 258              		.loc 1 528 1 is_stmt 0 view .LVU61
 259 0014 0020     		movs	r0, #0
 260              	.LVL16:
 261              		.loc 1 528 1 view .LVU62
 262 0016 5DF8044B 		ldr	r4, [sp], #4
 263              	.LCFI5:
 264              		.cfi_restore 4
 265              		.cfi_def_cfa_offset 0
 266 001a 7047     		bx	lr
 267              		.cfi_endproc
 268              	.LFE135:
 270              		.section	.text.HAL_DAC_Stop_DMA,"ax",%progbits
 271              		.align	1
 272              		.global	HAL_DAC_Stop_DMA
 273              		.syntax unified
 274              		.thumb
 275              		.thumb_func
 276              		.fpu fpv4-sp-d16
 278              	HAL_DAC_Stop_DMA:
 279              	.LVL17:
 280              	.LFB136:
 529:Drivers/STM32F3xx_HAL_Driver/Src/stm32f3xx_hal_dac.c **** 
 530:Drivers/STM32F3xx_HAL_Driver/Src/stm32f3xx_hal_dac.c **** /**
 531:Drivers/STM32F3xx_HAL_Driver/Src/stm32f3xx_hal_dac.c ****   * @brief  Disables DAC and stop conversion of channel.
 532:Drivers/STM32F3xx_HAL_Driver/Src/stm32f3xx_hal_dac.c ****   * @param  hdac pointer to a DAC_HandleTypeDef structure that contains
 533:Drivers/STM32F3xx_HAL_Driver/Src/stm32f3xx_hal_dac.c ****   *         the configuration information for the specified DAC.
 534:Drivers/STM32F3xx_HAL_Driver/Src/stm32f3xx_hal_dac.c ****   * @param  Channel The selected DAC channel. 
 535:Drivers/STM32F3xx_HAL_Driver/Src/stm32f3xx_hal_dac.c ****   *          This parameter can be one of the following values:
 536:Drivers/STM32F3xx_HAL_Driver/Src/stm32f3xx_hal_dac.c ****   *            @arg DAC_CHANNEL_1: DAC1 Channel1 selected
 537:Drivers/STM32F3xx_HAL_Driver/Src/stm32f3xx_hal_dac.c ****   *            @arg DAC_CHANNEL_2: DAC1 Channel2 selected  
 538:Drivers/STM32F3xx_HAL_Driver/Src/stm32f3xx_hal_dac.c ****   *            @arg DAC_CHANNEL_1: DAC2 Channel1 selected    
 539:Drivers/STM32F3xx_HAL_Driver/Src/stm32f3xx_hal_dac.c ****   * @retval HAL status
 540:Drivers/STM32F3xx_HAL_Driver/Src/stm32f3xx_hal_dac.c ****   */
 541:Drivers/STM32F3xx_HAL_Driver/Src/stm32f3xx_hal_dac.c **** HAL_StatusTypeDef HAL_DAC_Stop_DMA(DAC_HandleTypeDef* hdac, uint32_t Channel)
 542:Drivers/STM32F3xx_HAL_Driver/Src/stm32f3xx_hal_dac.c **** {
 281              		.loc 1 542 1 is_stmt 1 view -0
 282              		.cfi_startproc
 283              		@ args = 0, pretend = 0, frame = 0
 284              		@ frame_needed = 0, uses_anonymous_args = 0
 285              		.loc 1 542 1 is_stmt 0 view .LVU64
ARM GAS  /var/folders/jw/jcj5j9_530958b2rm5vp9wn00000gn/T//ccr4Tk6P.s 			page 16


 286 0000 10B5     		push	{r4, lr}
 287              	.LCFI6:
 288              		.cfi_def_cfa_offset 8
 289              		.cfi_offset 4, -8
 290              		.cfi_offset 14, -4
 291 0002 0446     		mov	r4, r0
 543:Drivers/STM32F3xx_HAL_Driver/Src/stm32f3xx_hal_dac.c ****   HAL_StatusTypeDef status = HAL_OK;
 292              		.loc 1 543 3 is_stmt 1 view .LVU65
 293              	.LVL18:
 544:Drivers/STM32F3xx_HAL_Driver/Src/stm32f3xx_hal_dac.c ****     
 545:Drivers/STM32F3xx_HAL_Driver/Src/stm32f3xx_hal_dac.c ****   /* Check the parameters */
 546:Drivers/STM32F3xx_HAL_Driver/Src/stm32f3xx_hal_dac.c ****   assert_param(IS_DAC_CHANNEL_INSTANCE(hdac->Instance, Channel));
 294              		.loc 1 546 3 view .LVU66
 547:Drivers/STM32F3xx_HAL_Driver/Src/stm32f3xx_hal_dac.c ****   
 548:Drivers/STM32F3xx_HAL_Driver/Src/stm32f3xx_hal_dac.c ****   /* Disable the selected DAC channel DMA request */
 549:Drivers/STM32F3xx_HAL_Driver/Src/stm32f3xx_hal_dac.c ****     hdac->Instance->CR &= ~(DAC_CR_DMAEN1 << Channel);
 295              		.loc 1 549 5 view .LVU67
 296              		.loc 1 549 9 is_stmt 0 view .LVU68
 297 0004 0068     		ldr	r0, [r0]
 298              	.LVL19:
 299              		.loc 1 549 24 view .LVU69
 300 0006 0368     		ldr	r3, [r0]
 301              		.loc 1 549 43 view .LVU70
 302 0008 4FF48052 		mov	r2, #4096
 303 000c 8A40     		lsls	r2, r2, r1
 304              		.loc 1 549 24 view .LVU71
 305 000e 23EA0203 		bic	r3, r3, r2
 306 0012 0360     		str	r3, [r0]
 550:Drivers/STM32F3xx_HAL_Driver/Src/stm32f3xx_hal_dac.c ****     
 551:Drivers/STM32F3xx_HAL_Driver/Src/stm32f3xx_hal_dac.c ****   /* Disable the Peripheral */
 552:Drivers/STM32F3xx_HAL_Driver/Src/stm32f3xx_hal_dac.c ****   __HAL_DAC_DISABLE(hdac, Channel);
 307              		.loc 1 552 3 is_stmt 1 view .LVU72
 308 0014 2068     		ldr	r0, [r4]
 309 0016 0368     		ldr	r3, [r0]
 310 0018 0122     		movs	r2, #1
 311 001a 8A40     		lsls	r2, r2, r1
 312 001c 23EA0203 		bic	r3, r3, r2
 313 0020 0360     		str	r3, [r0]
 553:Drivers/STM32F3xx_HAL_Driver/Src/stm32f3xx_hal_dac.c ****   
 554:Drivers/STM32F3xx_HAL_Driver/Src/stm32f3xx_hal_dac.c ****   /* Disable the DMA channel */
 555:Drivers/STM32F3xx_HAL_Driver/Src/stm32f3xx_hal_dac.c ****   /* Channel1 is used */
 556:Drivers/STM32F3xx_HAL_Driver/Src/stm32f3xx_hal_dac.c ****   if (Channel == DAC_CHANNEL_1)
 314              		.loc 1 556 3 view .LVU73
 315              		.loc 1 556 6 is_stmt 0 view .LVU74
 316 0022 59B9     		cbnz	r1, .L23
 557:Drivers/STM32F3xx_HAL_Driver/Src/stm32f3xx_hal_dac.c ****   {
 558:Drivers/STM32F3xx_HAL_Driver/Src/stm32f3xx_hal_dac.c ****     /* Disable the DMA channel */
 559:Drivers/STM32F3xx_HAL_Driver/Src/stm32f3xx_hal_dac.c ****     status = HAL_DMA_Abort(hdac->DMA_Handle1);   
 317              		.loc 1 559 5 is_stmt 1 view .LVU75
 318              		.loc 1 559 14 is_stmt 0 view .LVU76
 319 0024 A068     		ldr	r0, [r4, #8]
 320 0026 FFF7FEFF 		bl	HAL_DMA_Abort
 321              	.LVL20:
 560:Drivers/STM32F3xx_HAL_Driver/Src/stm32f3xx_hal_dac.c ****     
 561:Drivers/STM32F3xx_HAL_Driver/Src/stm32f3xx_hal_dac.c ****     /* Disable the DAC DMA underrun interrupt */
 562:Drivers/STM32F3xx_HAL_Driver/Src/stm32f3xx_hal_dac.c ****     __HAL_DAC_DISABLE_IT(hdac, DAC_IT_DMAUDR1);
 322              		.loc 1 562 5 is_stmt 1 view .LVU77
ARM GAS  /var/folders/jw/jcj5j9_530958b2rm5vp9wn00000gn/T//ccr4Tk6P.s 			page 17


 323 002a 2268     		ldr	r2, [r4]
 324 002c 1368     		ldr	r3, [r2]
 325 002e 23F40053 		bic	r3, r3, #8192
 326 0032 1360     		str	r3, [r2]
 327              	.L24:
 563:Drivers/STM32F3xx_HAL_Driver/Src/stm32f3xx_hal_dac.c ****   }
 564:Drivers/STM32F3xx_HAL_Driver/Src/stm32f3xx_hal_dac.c **** #if defined(DAC_CHANNEL2_SUPPORT)
 565:Drivers/STM32F3xx_HAL_Driver/Src/stm32f3xx_hal_dac.c ****   /* For all products including channel 2U */
 566:Drivers/STM32F3xx_HAL_Driver/Src/stm32f3xx_hal_dac.c ****   /* DAC channel 2 is available on top of DAC channel 1U */
 567:Drivers/STM32F3xx_HAL_Driver/Src/stm32f3xx_hal_dac.c ****   else /* Channel2 is used */
 568:Drivers/STM32F3xx_HAL_Driver/Src/stm32f3xx_hal_dac.c ****   {
 569:Drivers/STM32F3xx_HAL_Driver/Src/stm32f3xx_hal_dac.c ****     /* Disable the DMA channel */
 570:Drivers/STM32F3xx_HAL_Driver/Src/stm32f3xx_hal_dac.c ****     status = HAL_DMA_Abort(hdac->DMA_Handle2);   
 571:Drivers/STM32F3xx_HAL_Driver/Src/stm32f3xx_hal_dac.c ****     
 572:Drivers/STM32F3xx_HAL_Driver/Src/stm32f3xx_hal_dac.c ****     /* Disable the DAC DMA underrun interrupt */
 573:Drivers/STM32F3xx_HAL_Driver/Src/stm32f3xx_hal_dac.c ****     __HAL_DAC_DISABLE_IT(hdac, DAC_IT_DMAUDR2);
 574:Drivers/STM32F3xx_HAL_Driver/Src/stm32f3xx_hal_dac.c ****   }
 575:Drivers/STM32F3xx_HAL_Driver/Src/stm32f3xx_hal_dac.c **** #endif /* DAC_CHANNEL2_SUPPORT */
 576:Drivers/STM32F3xx_HAL_Driver/Src/stm32f3xx_hal_dac.c ****     
 577:Drivers/STM32F3xx_HAL_Driver/Src/stm32f3xx_hal_dac.c ****   /* Check if DMA Channel effectively disabled */
 578:Drivers/STM32F3xx_HAL_Driver/Src/stm32f3xx_hal_dac.c ****   if (status != HAL_OK)
 328              		.loc 1 578 3 view .LVU78
 329              		.loc 1 578 6 is_stmt 0 view .LVU79
 330 0034 58B1     		cbz	r0, .L25
 579:Drivers/STM32F3xx_HAL_Driver/Src/stm32f3xx_hal_dac.c ****   {
 580:Drivers/STM32F3xx_HAL_Driver/Src/stm32f3xx_hal_dac.c ****     /* Update DAC state machine to error */
 581:Drivers/STM32F3xx_HAL_Driver/Src/stm32f3xx_hal_dac.c ****     hdac->State = HAL_DAC_STATE_ERROR;      
 331              		.loc 1 581 5 is_stmt 1 view .LVU80
 332              		.loc 1 581 17 is_stmt 0 view .LVU81
 333 0036 0423     		movs	r3, #4
 334 0038 2371     		strb	r3, [r4, #4]
 335              	.L26:
 582:Drivers/STM32F3xx_HAL_Driver/Src/stm32f3xx_hal_dac.c ****   }
 583:Drivers/STM32F3xx_HAL_Driver/Src/stm32f3xx_hal_dac.c ****   else
 584:Drivers/STM32F3xx_HAL_Driver/Src/stm32f3xx_hal_dac.c ****   {
 585:Drivers/STM32F3xx_HAL_Driver/Src/stm32f3xx_hal_dac.c ****     /* Change DAC state */
 586:Drivers/STM32F3xx_HAL_Driver/Src/stm32f3xx_hal_dac.c ****     hdac->State = HAL_DAC_STATE_READY;
 587:Drivers/STM32F3xx_HAL_Driver/Src/stm32f3xx_hal_dac.c ****   }
 588:Drivers/STM32F3xx_HAL_Driver/Src/stm32f3xx_hal_dac.c ****   
 589:Drivers/STM32F3xx_HAL_Driver/Src/stm32f3xx_hal_dac.c ****   /* Return function status */
 590:Drivers/STM32F3xx_HAL_Driver/Src/stm32f3xx_hal_dac.c ****   return status;
 336              		.loc 1 590 3 is_stmt 1 view .LVU82
 591:Drivers/STM32F3xx_HAL_Driver/Src/stm32f3xx_hal_dac.c **** }
 337              		.loc 1 591 1 is_stmt 0 view .LVU83
 338 003a 10BD     		pop	{r4, pc}
 339              	.LVL21:
 340              	.L23:
 570:Drivers/STM32F3xx_HAL_Driver/Src/stm32f3xx_hal_dac.c ****     
 341              		.loc 1 570 5 is_stmt 1 view .LVU84
 570:Drivers/STM32F3xx_HAL_Driver/Src/stm32f3xx_hal_dac.c ****     
 342              		.loc 1 570 14 is_stmt 0 view .LVU85
 343 003c E068     		ldr	r0, [r4, #12]
 344 003e FFF7FEFF 		bl	HAL_DMA_Abort
 345              	.LVL22:
 573:Drivers/STM32F3xx_HAL_Driver/Src/stm32f3xx_hal_dac.c ****   }
 346              		.loc 1 573 5 is_stmt 1 view .LVU86
 347 0042 2268     		ldr	r2, [r4]
ARM GAS  /var/folders/jw/jcj5j9_530958b2rm5vp9wn00000gn/T//ccr4Tk6P.s 			page 18


 348 0044 1368     		ldr	r3, [r2]
 349 0046 23F00053 		bic	r3, r3, #536870912
 350 004a 1360     		str	r3, [r2]
 351 004c F2E7     		b	.L24
 352              	.L25:
 586:Drivers/STM32F3xx_HAL_Driver/Src/stm32f3xx_hal_dac.c ****   }
 353              		.loc 1 586 5 view .LVU87
 586:Drivers/STM32F3xx_HAL_Driver/Src/stm32f3xx_hal_dac.c ****   }
 354              		.loc 1 586 17 is_stmt 0 view .LVU88
 355 004e 0123     		movs	r3, #1
 356 0050 2371     		strb	r3, [r4, #4]
 357 0052 F2E7     		b	.L26
 358              		.cfi_endproc
 359              	.LFE136:
 361              		.section	.text.HAL_DAC_GetValue,"ax",%progbits
 362              		.align	1
 363              		.weak	HAL_DAC_GetValue
 364              		.syntax unified
 365              		.thumb
 366              		.thumb_func
 367              		.fpu fpv4-sp-d16
 369              	HAL_DAC_GetValue:
 370              	.LVL23:
 371              	.LFB137:
 592:Drivers/STM32F3xx_HAL_Driver/Src/stm32f3xx_hal_dac.c **** 
 593:Drivers/STM32F3xx_HAL_Driver/Src/stm32f3xx_hal_dac.c **** /**
 594:Drivers/STM32F3xx_HAL_Driver/Src/stm32f3xx_hal_dac.c ****   * @brief  Returns the last data output value of the selected DAC channel.
 595:Drivers/STM32F3xx_HAL_Driver/Src/stm32f3xx_hal_dac.c ****   * @param  hdac pointer to a DAC_HandleTypeDef structure that contains
 596:Drivers/STM32F3xx_HAL_Driver/Src/stm32f3xx_hal_dac.c ****   *         the configuration information for the specified DAC.
 597:Drivers/STM32F3xx_HAL_Driver/Src/stm32f3xx_hal_dac.c ****   * @param  Channel The selected DAC channel. 
 598:Drivers/STM32F3xx_HAL_Driver/Src/stm32f3xx_hal_dac.c ****   *          This parameter can be one of the following values:
 599:Drivers/STM32F3xx_HAL_Driver/Src/stm32f3xx_hal_dac.c ****   *            @arg DAC_CHANNEL_1: DAC1 Channel1 selected
 600:Drivers/STM32F3xx_HAL_Driver/Src/stm32f3xx_hal_dac.c ****   *            @arg DAC_CHANNEL_2: DAC1 Channel2 selected  
 601:Drivers/STM32F3xx_HAL_Driver/Src/stm32f3xx_hal_dac.c ****   *            @arg DAC_CHANNEL_1: DAC2 Channel1 selected 
 602:Drivers/STM32F3xx_HAL_Driver/Src/stm32f3xx_hal_dac.c ****   * @retval The selected DAC channel data output value.
 603:Drivers/STM32F3xx_HAL_Driver/Src/stm32f3xx_hal_dac.c ****   */
 604:Drivers/STM32F3xx_HAL_Driver/Src/stm32f3xx_hal_dac.c **** __weak uint32_t HAL_DAC_GetValue(DAC_HandleTypeDef* hdac, uint32_t Channel)
 605:Drivers/STM32F3xx_HAL_Driver/Src/stm32f3xx_hal_dac.c **** {
 372              		.loc 1 605 1 is_stmt 1 view -0
 373              		.cfi_startproc
 374              		@ args = 0, pretend = 0, frame = 0
 375              		@ frame_needed = 0, uses_anonymous_args = 0
 376              		@ link register save eliminated.
 606:Drivers/STM32F3xx_HAL_Driver/Src/stm32f3xx_hal_dac.c ****   /* Prevent unused argument(s) compilation warning */
 607:Drivers/STM32F3xx_HAL_Driver/Src/stm32f3xx_hal_dac.c ****   UNUSED(hdac);
 377              		.loc 1 607 3 view .LVU90
 608:Drivers/STM32F3xx_HAL_Driver/Src/stm32f3xx_hal_dac.c ****   UNUSED(Channel);
 378              		.loc 1 608 3 view .LVU91
 609:Drivers/STM32F3xx_HAL_Driver/Src/stm32f3xx_hal_dac.c **** 
 610:Drivers/STM32F3xx_HAL_Driver/Src/stm32f3xx_hal_dac.c ****   /* Note : This function is defined into this file for library reference */
 611:Drivers/STM32F3xx_HAL_Driver/Src/stm32f3xx_hal_dac.c ****   /*        Function content is located into file stm32f3xx_hal_dac_ex.c  */
 612:Drivers/STM32F3xx_HAL_Driver/Src/stm32f3xx_hal_dac.c **** 
 613:Drivers/STM32F3xx_HAL_Driver/Src/stm32f3xx_hal_dac.c ****   /* Return function status */
 614:Drivers/STM32F3xx_HAL_Driver/Src/stm32f3xx_hal_dac.c ****   return HAL_OK;
 379              		.loc 1 614 3 view .LVU92
 615:Drivers/STM32F3xx_HAL_Driver/Src/stm32f3xx_hal_dac.c **** }
 380              		.loc 1 615 1 is_stmt 0 view .LVU93
ARM GAS  /var/folders/jw/jcj5j9_530958b2rm5vp9wn00000gn/T//ccr4Tk6P.s 			page 19


 381 0000 0020     		movs	r0, #0
 382              	.LVL24:
 383              		.loc 1 615 1 view .LVU94
 384 0002 7047     		bx	lr
 385              		.cfi_endproc
 386              	.LFE137:
 388              		.section	.text.HAL_DACEx_DualGetValue,"ax",%progbits
 389              		.align	1
 390              		.weak	HAL_DACEx_DualGetValue
 391              		.syntax unified
 392              		.thumb
 393              		.thumb_func
 394              		.fpu fpv4-sp-d16
 396              	HAL_DACEx_DualGetValue:
 397              	.LVL25:
 398              	.LFB138:
 616:Drivers/STM32F3xx_HAL_Driver/Src/stm32f3xx_hal_dac.c **** 
 617:Drivers/STM32F3xx_HAL_Driver/Src/stm32f3xx_hal_dac.c **** /**
 618:Drivers/STM32F3xx_HAL_Driver/Src/stm32f3xx_hal_dac.c ****   * @brief  Returns the last data output value of the selected DAC channel.
 619:Drivers/STM32F3xx_HAL_Driver/Src/stm32f3xx_hal_dac.c ****   * @param  hdac pointer to a DAC_HandleTypeDef structure that contains
 620:Drivers/STM32F3xx_HAL_Driver/Src/stm32f3xx_hal_dac.c ****   *         the configuration information for the specified DAC.
 621:Drivers/STM32F3xx_HAL_Driver/Src/stm32f3xx_hal_dac.c ****   * @retval The selected DAC channel data output value.
 622:Drivers/STM32F3xx_HAL_Driver/Src/stm32f3xx_hal_dac.c ****   */
 623:Drivers/STM32F3xx_HAL_Driver/Src/stm32f3xx_hal_dac.c **** __weak uint32_t HAL_DACEx_DualGetValue(DAC_HandleTypeDef* hdac)
 624:Drivers/STM32F3xx_HAL_Driver/Src/stm32f3xx_hal_dac.c **** {
 399              		.loc 1 624 1 is_stmt 1 view -0
 400              		.cfi_startproc
 401              		@ args = 0, pretend = 0, frame = 0
 402              		@ frame_needed = 0, uses_anonymous_args = 0
 403              		@ link register save eliminated.
 625:Drivers/STM32F3xx_HAL_Driver/Src/stm32f3xx_hal_dac.c ****   /* Prevent unused argument(s) compilation warning */
 626:Drivers/STM32F3xx_HAL_Driver/Src/stm32f3xx_hal_dac.c ****   UNUSED(hdac);
 404              		.loc 1 626 3 view .LVU96
 627:Drivers/STM32F3xx_HAL_Driver/Src/stm32f3xx_hal_dac.c **** 
 628:Drivers/STM32F3xx_HAL_Driver/Src/stm32f3xx_hal_dac.c ****   /* Note : This function is defined into this file for library reference */
 629:Drivers/STM32F3xx_HAL_Driver/Src/stm32f3xx_hal_dac.c ****   /*        Function content is located into file stm32f3xx_hal_dac_ex.c  */
 630:Drivers/STM32F3xx_HAL_Driver/Src/stm32f3xx_hal_dac.c **** 
 631:Drivers/STM32F3xx_HAL_Driver/Src/stm32f3xx_hal_dac.c ****   /* Return function status */
 632:Drivers/STM32F3xx_HAL_Driver/Src/stm32f3xx_hal_dac.c ****   return HAL_OK;
 405              		.loc 1 632 3 view .LVU97
 633:Drivers/STM32F3xx_HAL_Driver/Src/stm32f3xx_hal_dac.c **** }
 406              		.loc 1 633 1 is_stmt 0 view .LVU98
 407 0000 0020     		movs	r0, #0
 408              	.LVL26:
 409              		.loc 1 633 1 view .LVU99
 410 0002 7047     		bx	lr
 411              		.cfi_endproc
 412              	.LFE138:
 414              		.section	.text.HAL_DAC_ConfigChannel,"ax",%progbits
 415              		.align	1
 416              		.weak	HAL_DAC_ConfigChannel
 417              		.syntax unified
 418              		.thumb
 419              		.thumb_func
 420              		.fpu fpv4-sp-d16
 422              	HAL_DAC_ConfigChannel:
 423              	.LVL27:
ARM GAS  /var/folders/jw/jcj5j9_530958b2rm5vp9wn00000gn/T//ccr4Tk6P.s 			page 20


 424              	.LFB139:
 634:Drivers/STM32F3xx_HAL_Driver/Src/stm32f3xx_hal_dac.c **** 
 635:Drivers/STM32F3xx_HAL_Driver/Src/stm32f3xx_hal_dac.c **** /**
 636:Drivers/STM32F3xx_HAL_Driver/Src/stm32f3xx_hal_dac.c ****   * @}
 637:Drivers/STM32F3xx_HAL_Driver/Src/stm32f3xx_hal_dac.c ****   */
 638:Drivers/STM32F3xx_HAL_Driver/Src/stm32f3xx_hal_dac.c ****   
 639:Drivers/STM32F3xx_HAL_Driver/Src/stm32f3xx_hal_dac.c **** /** @defgroup DAC_Exported_Functions_Group3 Peripheral Control functions
 640:Drivers/STM32F3xx_HAL_Driver/Src/stm32f3xx_hal_dac.c ****  *  @brief    Peripheral Control functions 
 641:Drivers/STM32F3xx_HAL_Driver/Src/stm32f3xx_hal_dac.c ****  *
 642:Drivers/STM32F3xx_HAL_Driver/Src/stm32f3xx_hal_dac.c **** @verbatim   
 643:Drivers/STM32F3xx_HAL_Driver/Src/stm32f3xx_hal_dac.c ****   ==============================================================================
 644:Drivers/STM32F3xx_HAL_Driver/Src/stm32f3xx_hal_dac.c ****              ##### Peripheral Control functions #####
 645:Drivers/STM32F3xx_HAL_Driver/Src/stm32f3xx_hal_dac.c ****   ==============================================================================  
 646:Drivers/STM32F3xx_HAL_Driver/Src/stm32f3xx_hal_dac.c ****     [..]  This section provides functions allowing to:
 647:Drivers/STM32F3xx_HAL_Driver/Src/stm32f3xx_hal_dac.c ****       (+) Configure channels. 
 648:Drivers/STM32F3xx_HAL_Driver/Src/stm32f3xx_hal_dac.c ****       (+) Configure Triangle wave generation.
 649:Drivers/STM32F3xx_HAL_Driver/Src/stm32f3xx_hal_dac.c ****       (+) Configure Noise wave generation.
 650:Drivers/STM32F3xx_HAL_Driver/Src/stm32f3xx_hal_dac.c ****       (+) Set the specified data holding register value for DAC channel.
 651:Drivers/STM32F3xx_HAL_Driver/Src/stm32f3xx_hal_dac.c ****       (+) Set the specified data holding register value for Dual DAC channels.
 652:Drivers/STM32F3xx_HAL_Driver/Src/stm32f3xx_hal_dac.c ****       
 653:Drivers/STM32F3xx_HAL_Driver/Src/stm32f3xx_hal_dac.c **** @endverbatim
 654:Drivers/STM32F3xx_HAL_Driver/Src/stm32f3xx_hal_dac.c ****   * @{
 655:Drivers/STM32F3xx_HAL_Driver/Src/stm32f3xx_hal_dac.c ****   */
 656:Drivers/STM32F3xx_HAL_Driver/Src/stm32f3xx_hal_dac.c **** 
 657:Drivers/STM32F3xx_HAL_Driver/Src/stm32f3xx_hal_dac.c **** /**
 658:Drivers/STM32F3xx_HAL_Driver/Src/stm32f3xx_hal_dac.c ****   * @brief  Configures the selected DAC channel.
 659:Drivers/STM32F3xx_HAL_Driver/Src/stm32f3xx_hal_dac.c ****   * @param  hdac pointer to a DAC_HandleTypeDef structure that contains
 660:Drivers/STM32F3xx_HAL_Driver/Src/stm32f3xx_hal_dac.c ****   *         the configuration information for the specified DAC.
 661:Drivers/STM32F3xx_HAL_Driver/Src/stm32f3xx_hal_dac.c ****   * @param  sConfig DAC configuration structure.
 662:Drivers/STM32F3xx_HAL_Driver/Src/stm32f3xx_hal_dac.c ****   * @param  Channel The selected DAC channel. 
 663:Drivers/STM32F3xx_HAL_Driver/Src/stm32f3xx_hal_dac.c ****   *          This parameter can be one of the following values:
 664:Drivers/STM32F3xx_HAL_Driver/Src/stm32f3xx_hal_dac.c ****   *            @arg DAC_CHANNEL_1: DAC1 Channel1 selected
 665:Drivers/STM32F3xx_HAL_Driver/Src/stm32f3xx_hal_dac.c ****   *            @arg DAC_CHANNEL_2: DAC1 Channel2 selected  
 666:Drivers/STM32F3xx_HAL_Driver/Src/stm32f3xx_hal_dac.c ****   *            @arg DAC_CHANNEL_1: DAC2 Channel1 selected 
 667:Drivers/STM32F3xx_HAL_Driver/Src/stm32f3xx_hal_dac.c ****   * @retval HAL status
 668:Drivers/STM32F3xx_HAL_Driver/Src/stm32f3xx_hal_dac.c ****   */
 669:Drivers/STM32F3xx_HAL_Driver/Src/stm32f3xx_hal_dac.c **** 
 670:Drivers/STM32F3xx_HAL_Driver/Src/stm32f3xx_hal_dac.c **** __weak HAL_StatusTypeDef HAL_DAC_ConfigChannel(DAC_HandleTypeDef* hdac, DAC_ChannelConfTypeDef* sCo
 671:Drivers/STM32F3xx_HAL_Driver/Src/stm32f3xx_hal_dac.c **** {
 425              		.loc 1 671 1 is_stmt 1 view -0
 426              		.cfi_startproc
 427              		@ args = 0, pretend = 0, frame = 0
 428              		@ frame_needed = 0, uses_anonymous_args = 0
 429              		@ link register save eliminated.
 672:Drivers/STM32F3xx_HAL_Driver/Src/stm32f3xx_hal_dac.c ****   /* Prevent unused argument(s) compilation warning */
 673:Drivers/STM32F3xx_HAL_Driver/Src/stm32f3xx_hal_dac.c ****   UNUSED(hdac);
 430              		.loc 1 673 3 view .LVU101
 674:Drivers/STM32F3xx_HAL_Driver/Src/stm32f3xx_hal_dac.c ****   UNUSED(sConfig);
 431              		.loc 1 674 3 view .LVU102
 675:Drivers/STM32F3xx_HAL_Driver/Src/stm32f3xx_hal_dac.c ****   UNUSED(Channel);
 432              		.loc 1 675 3 view .LVU103
 676:Drivers/STM32F3xx_HAL_Driver/Src/stm32f3xx_hal_dac.c **** 
 677:Drivers/STM32F3xx_HAL_Driver/Src/stm32f3xx_hal_dac.c ****   /* Return function status */
 678:Drivers/STM32F3xx_HAL_Driver/Src/stm32f3xx_hal_dac.c ****   return HAL_OK;
 433              		.loc 1 678 3 view .LVU104
 679:Drivers/STM32F3xx_HAL_Driver/Src/stm32f3xx_hal_dac.c **** }
 434              		.loc 1 679 1 is_stmt 0 view .LVU105
ARM GAS  /var/folders/jw/jcj5j9_530958b2rm5vp9wn00000gn/T//ccr4Tk6P.s 			page 21


 435 0000 0020     		movs	r0, #0
 436              	.LVL28:
 437              		.loc 1 679 1 view .LVU106
 438 0002 7047     		bx	lr
 439              		.cfi_endproc
 440              	.LFE139:
 442              		.section	.text.HAL_DAC_SetValue,"ax",%progbits
 443              		.align	1
 444              		.weak	HAL_DAC_SetValue
 445              		.syntax unified
 446              		.thumb
 447              		.thumb_func
 448              		.fpu fpv4-sp-d16
 450              	HAL_DAC_SetValue:
 451              	.LVL29:
 452              	.LFB140:
 680:Drivers/STM32F3xx_HAL_Driver/Src/stm32f3xx_hal_dac.c **** 
 681:Drivers/STM32F3xx_HAL_Driver/Src/stm32f3xx_hal_dac.c **** __weak HAL_StatusTypeDef HAL_DAC_SetValue(DAC_HandleTypeDef* hdac, uint32_t Channel, uint32_t Align
 682:Drivers/STM32F3xx_HAL_Driver/Src/stm32f3xx_hal_dac.c **** { 
 453              		.loc 1 682 1 is_stmt 1 view -0
 454              		.cfi_startproc
 455              		@ args = 0, pretend = 0, frame = 0
 456              		@ frame_needed = 0, uses_anonymous_args = 0
 457              		@ link register save eliminated.
 683:Drivers/STM32F3xx_HAL_Driver/Src/stm32f3xx_hal_dac.c ****   /* Prevent unused argument(s) compilation warning */
 684:Drivers/STM32F3xx_HAL_Driver/Src/stm32f3xx_hal_dac.c ****   UNUSED(hdac);
 458              		.loc 1 684 3 view .LVU108
 685:Drivers/STM32F3xx_HAL_Driver/Src/stm32f3xx_hal_dac.c ****   UNUSED(Channel);
 459              		.loc 1 685 3 view .LVU109
 686:Drivers/STM32F3xx_HAL_Driver/Src/stm32f3xx_hal_dac.c ****   UNUSED(Alignment);
 460              		.loc 1 686 3 view .LVU110
 687:Drivers/STM32F3xx_HAL_Driver/Src/stm32f3xx_hal_dac.c ****   UNUSED(Data);
 461              		.loc 1 687 3 view .LVU111
 688:Drivers/STM32F3xx_HAL_Driver/Src/stm32f3xx_hal_dac.c **** 
 689:Drivers/STM32F3xx_HAL_Driver/Src/stm32f3xx_hal_dac.c ****   /* Note : This function is defined into this file for library reference */
 690:Drivers/STM32F3xx_HAL_Driver/Src/stm32f3xx_hal_dac.c ****   /*        Function content is located into file stm32f3xx_hal_dac_ex.c  */
 691:Drivers/STM32F3xx_HAL_Driver/Src/stm32f3xx_hal_dac.c **** 
 692:Drivers/STM32F3xx_HAL_Driver/Src/stm32f3xx_hal_dac.c ****   /* Return function status */
 693:Drivers/STM32F3xx_HAL_Driver/Src/stm32f3xx_hal_dac.c ****   return HAL_ERROR;
 462              		.loc 1 693 3 view .LVU112
 694:Drivers/STM32F3xx_HAL_Driver/Src/stm32f3xx_hal_dac.c **** }
 463              		.loc 1 694 1 is_stmt 0 view .LVU113
 464 0000 0120     		movs	r0, #1
 465              	.LVL30:
 466              		.loc 1 694 1 view .LVU114
 467 0002 7047     		bx	lr
 468              		.cfi_endproc
 469              	.LFE140:
 471              		.section	.text.HAL_DACEx_DualSetValue,"ax",%progbits
 472              		.align	1
 473              		.weak	HAL_DACEx_DualSetValue
 474              		.syntax unified
 475              		.thumb
 476              		.thumb_func
 477              		.fpu fpv4-sp-d16
 479              	HAL_DACEx_DualSetValue:
 480              	.LVL31:
ARM GAS  /var/folders/jw/jcj5j9_530958b2rm5vp9wn00000gn/T//ccr4Tk6P.s 			page 22


 481              	.LFB141:
 695:Drivers/STM32F3xx_HAL_Driver/Src/stm32f3xx_hal_dac.c **** 
 696:Drivers/STM32F3xx_HAL_Driver/Src/stm32f3xx_hal_dac.c **** __weak HAL_StatusTypeDef HAL_DACEx_DualSetValue(DAC_HandleTypeDef* hdac, uint32_t Alignment, uint32
 697:Drivers/STM32F3xx_HAL_Driver/Src/stm32f3xx_hal_dac.c **** { 
 482              		.loc 1 697 1 is_stmt 1 view -0
 483              		.cfi_startproc
 484              		@ args = 0, pretend = 0, frame = 0
 485              		@ frame_needed = 0, uses_anonymous_args = 0
 486              		@ link register save eliminated.
 698:Drivers/STM32F3xx_HAL_Driver/Src/stm32f3xx_hal_dac.c ****   /* Prevent unused argument(s) compilation warning */
 699:Drivers/STM32F3xx_HAL_Driver/Src/stm32f3xx_hal_dac.c ****   UNUSED(hdac);
 487              		.loc 1 699 3 view .LVU116
 700:Drivers/STM32F3xx_HAL_Driver/Src/stm32f3xx_hal_dac.c ****   UNUSED(Alignment);
 488              		.loc 1 700 3 view .LVU117
 701:Drivers/STM32F3xx_HAL_Driver/Src/stm32f3xx_hal_dac.c ****   UNUSED(Data1);
 489              		.loc 1 701 3 view .LVU118
 702:Drivers/STM32F3xx_HAL_Driver/Src/stm32f3xx_hal_dac.c ****   UNUSED(Data2);
 490              		.loc 1 702 3 view .LVU119
 703:Drivers/STM32F3xx_HAL_Driver/Src/stm32f3xx_hal_dac.c **** 
 704:Drivers/STM32F3xx_HAL_Driver/Src/stm32f3xx_hal_dac.c ****   /* Note : This function is defined into this file for library reference */
 705:Drivers/STM32F3xx_HAL_Driver/Src/stm32f3xx_hal_dac.c ****   /*        Function content is located into file stm32f3xx_hal_dac_ex.c  */
 706:Drivers/STM32F3xx_HAL_Driver/Src/stm32f3xx_hal_dac.c **** 
 707:Drivers/STM32F3xx_HAL_Driver/Src/stm32f3xx_hal_dac.c ****   /* Return function status */
 708:Drivers/STM32F3xx_HAL_Driver/Src/stm32f3xx_hal_dac.c ****   return HAL_ERROR;
 491              		.loc 1 708 3 view .LVU120
 709:Drivers/STM32F3xx_HAL_Driver/Src/stm32f3xx_hal_dac.c **** }
 492              		.loc 1 709 1 is_stmt 0 view .LVU121
 493 0000 0120     		movs	r0, #1
 494              	.LVL32:
 495              		.loc 1 709 1 view .LVU122
 496 0002 7047     		bx	lr
 497              		.cfi_endproc
 498              	.LFE141:
 500              		.section	.text.HAL_DAC_GetState,"ax",%progbits
 501              		.align	1
 502              		.global	HAL_DAC_GetState
 503              		.syntax unified
 504              		.thumb
 505              		.thumb_func
 506              		.fpu fpv4-sp-d16
 508              	HAL_DAC_GetState:
 509              	.LVL33:
 510              	.LFB142:
 710:Drivers/STM32F3xx_HAL_Driver/Src/stm32f3xx_hal_dac.c **** 
 711:Drivers/STM32F3xx_HAL_Driver/Src/stm32f3xx_hal_dac.c **** /**
 712:Drivers/STM32F3xx_HAL_Driver/Src/stm32f3xx_hal_dac.c ****   * @}
 713:Drivers/STM32F3xx_HAL_Driver/Src/stm32f3xx_hal_dac.c ****   */
 714:Drivers/STM32F3xx_HAL_Driver/Src/stm32f3xx_hal_dac.c **** 
 715:Drivers/STM32F3xx_HAL_Driver/Src/stm32f3xx_hal_dac.c **** /** @defgroup DAC_Exported_Functions_Group4 Peripheral State and Error functions
 716:Drivers/STM32F3xx_HAL_Driver/Src/stm32f3xx_hal_dac.c ****  *  @brief   DAC Peripheral State and Error functions 
 717:Drivers/STM32F3xx_HAL_Driver/Src/stm32f3xx_hal_dac.c ****  *
 718:Drivers/STM32F3xx_HAL_Driver/Src/stm32f3xx_hal_dac.c **** @verbatim   
 719:Drivers/STM32F3xx_HAL_Driver/Src/stm32f3xx_hal_dac.c ****   ==============================================================================
 720:Drivers/STM32F3xx_HAL_Driver/Src/stm32f3xx_hal_dac.c ****             ##### DAC Peripheral State and Error functions #####
 721:Drivers/STM32F3xx_HAL_Driver/Src/stm32f3xx_hal_dac.c ****   ==============================================================================  
 722:Drivers/STM32F3xx_HAL_Driver/Src/stm32f3xx_hal_dac.c ****     [..]
 723:Drivers/STM32F3xx_HAL_Driver/Src/stm32f3xx_hal_dac.c ****     This subsection provides functions allowing to
ARM GAS  /var/folders/jw/jcj5j9_530958b2rm5vp9wn00000gn/T//ccr4Tk6P.s 			page 23


 724:Drivers/STM32F3xx_HAL_Driver/Src/stm32f3xx_hal_dac.c ****       (+) Check the DAC state.
 725:Drivers/STM32F3xx_HAL_Driver/Src/stm32f3xx_hal_dac.c ****       (+) Check the DAC Errors.
 726:Drivers/STM32F3xx_HAL_Driver/Src/stm32f3xx_hal_dac.c **** 
 727:Drivers/STM32F3xx_HAL_Driver/Src/stm32f3xx_hal_dac.c ****         
 728:Drivers/STM32F3xx_HAL_Driver/Src/stm32f3xx_hal_dac.c **** @endverbatim
 729:Drivers/STM32F3xx_HAL_Driver/Src/stm32f3xx_hal_dac.c ****   * @{
 730:Drivers/STM32F3xx_HAL_Driver/Src/stm32f3xx_hal_dac.c ****   */
 731:Drivers/STM32F3xx_HAL_Driver/Src/stm32f3xx_hal_dac.c **** 
 732:Drivers/STM32F3xx_HAL_Driver/Src/stm32f3xx_hal_dac.c **** /**
 733:Drivers/STM32F3xx_HAL_Driver/Src/stm32f3xx_hal_dac.c ****   * @brief  return the DAC handle state
 734:Drivers/STM32F3xx_HAL_Driver/Src/stm32f3xx_hal_dac.c ****   * @param  hdac pointer to a DAC_HandleTypeDef structure that contains
 735:Drivers/STM32F3xx_HAL_Driver/Src/stm32f3xx_hal_dac.c ****   *         the configuration information for the specified DAC.
 736:Drivers/STM32F3xx_HAL_Driver/Src/stm32f3xx_hal_dac.c ****   * @retval HAL state
 737:Drivers/STM32F3xx_HAL_Driver/Src/stm32f3xx_hal_dac.c ****   */
 738:Drivers/STM32F3xx_HAL_Driver/Src/stm32f3xx_hal_dac.c **** HAL_DAC_StateTypeDef HAL_DAC_GetState(DAC_HandleTypeDef* hdac)
 739:Drivers/STM32F3xx_HAL_Driver/Src/stm32f3xx_hal_dac.c **** {
 511              		.loc 1 739 1 is_stmt 1 view -0
 512              		.cfi_startproc
 513              		@ args = 0, pretend = 0, frame = 0
 514              		@ frame_needed = 0, uses_anonymous_args = 0
 515              		@ link register save eliminated.
 740:Drivers/STM32F3xx_HAL_Driver/Src/stm32f3xx_hal_dac.c ****   /* Return DAC handle state */
 741:Drivers/STM32F3xx_HAL_Driver/Src/stm32f3xx_hal_dac.c ****   return hdac->State;
 516              		.loc 1 741 3 view .LVU124
 517              		.loc 1 741 14 is_stmt 0 view .LVU125
 518 0000 0079     		ldrb	r0, [r0, #4]	@ zero_extendqisi2
 519              	.LVL34:
 742:Drivers/STM32F3xx_HAL_Driver/Src/stm32f3xx_hal_dac.c **** }
 520              		.loc 1 742 1 view .LVU126
 521 0002 7047     		bx	lr
 522              		.cfi_endproc
 523              	.LFE142:
 525              		.section	.text.HAL_DAC_GetError,"ax",%progbits
 526              		.align	1
 527              		.global	HAL_DAC_GetError
 528              		.syntax unified
 529              		.thumb
 530              		.thumb_func
 531              		.fpu fpv4-sp-d16
 533              	HAL_DAC_GetError:
 534              	.LVL35:
 535              	.LFB143:
 743:Drivers/STM32F3xx_HAL_Driver/Src/stm32f3xx_hal_dac.c **** 
 744:Drivers/STM32F3xx_HAL_Driver/Src/stm32f3xx_hal_dac.c **** /**
 745:Drivers/STM32F3xx_HAL_Driver/Src/stm32f3xx_hal_dac.c ****   * @brief  Return the DAC error code
 746:Drivers/STM32F3xx_HAL_Driver/Src/stm32f3xx_hal_dac.c ****   * @param  hdac pointer to a DAC_HandleTypeDef structure that contains
 747:Drivers/STM32F3xx_HAL_Driver/Src/stm32f3xx_hal_dac.c ****   *         the configuration information for the specified DAC.
 748:Drivers/STM32F3xx_HAL_Driver/Src/stm32f3xx_hal_dac.c ****   * @retval DAC Error Code
 749:Drivers/STM32F3xx_HAL_Driver/Src/stm32f3xx_hal_dac.c ****   */
 750:Drivers/STM32F3xx_HAL_Driver/Src/stm32f3xx_hal_dac.c **** uint32_t HAL_DAC_GetError(DAC_HandleTypeDef *hdac)
 751:Drivers/STM32F3xx_HAL_Driver/Src/stm32f3xx_hal_dac.c **** {
 536              		.loc 1 751 1 is_stmt 1 view -0
 537              		.cfi_startproc
 538              		@ args = 0, pretend = 0, frame = 0
 539              		@ frame_needed = 0, uses_anonymous_args = 0
 540              		@ link register save eliminated.
 752:Drivers/STM32F3xx_HAL_Driver/Src/stm32f3xx_hal_dac.c ****   return hdac->ErrorCode;
ARM GAS  /var/folders/jw/jcj5j9_530958b2rm5vp9wn00000gn/T//ccr4Tk6P.s 			page 24


 541              		.loc 1 752 3 view .LVU128
 542              		.loc 1 752 14 is_stmt 0 view .LVU129
 543 0000 0069     		ldr	r0, [r0, #16]
 544              	.LVL36:
 753:Drivers/STM32F3xx_HAL_Driver/Src/stm32f3xx_hal_dac.c **** }
 545              		.loc 1 753 1 view .LVU130
 546 0002 7047     		bx	lr
 547              		.cfi_endproc
 548              	.LFE143:
 550              		.section	.text.HAL_DAC_ConvCpltCallbackCh1,"ax",%progbits
 551              		.align	1
 552              		.weak	HAL_DAC_ConvCpltCallbackCh1
 553              		.syntax unified
 554              		.thumb
 555              		.thumb_func
 556              		.fpu fpv4-sp-d16
 558              	HAL_DAC_ConvCpltCallbackCh1:
 559              	.LVL37:
 560              	.LFB144:
 754:Drivers/STM32F3xx_HAL_Driver/Src/stm32f3xx_hal_dac.c **** 
 755:Drivers/STM32F3xx_HAL_Driver/Src/stm32f3xx_hal_dac.c **** /**
 756:Drivers/STM32F3xx_HAL_Driver/Src/stm32f3xx_hal_dac.c ****   * @}
 757:Drivers/STM32F3xx_HAL_Driver/Src/stm32f3xx_hal_dac.c ****   */
 758:Drivers/STM32F3xx_HAL_Driver/Src/stm32f3xx_hal_dac.c **** 
 759:Drivers/STM32F3xx_HAL_Driver/Src/stm32f3xx_hal_dac.c **** /** @addtogroup DAC_Exported_Functions_Group2 Input and Output operation functions
 760:Drivers/STM32F3xx_HAL_Driver/Src/stm32f3xx_hal_dac.c ****   * @{
 761:Drivers/STM32F3xx_HAL_Driver/Src/stm32f3xx_hal_dac.c ****   */
 762:Drivers/STM32F3xx_HAL_Driver/Src/stm32f3xx_hal_dac.c **** 
 763:Drivers/STM32F3xx_HAL_Driver/Src/stm32f3xx_hal_dac.c **** /**
 764:Drivers/STM32F3xx_HAL_Driver/Src/stm32f3xx_hal_dac.c ****   * @brief  Conversion complete callback in non blocking mode for Channel1 
 765:Drivers/STM32F3xx_HAL_Driver/Src/stm32f3xx_hal_dac.c ****   * @param  hdac pointer to a DAC_HandleTypeDef structure that contains
 766:Drivers/STM32F3xx_HAL_Driver/Src/stm32f3xx_hal_dac.c ****   *         the configuration information for the specified DAC.
 767:Drivers/STM32F3xx_HAL_Driver/Src/stm32f3xx_hal_dac.c ****   * @retval None
 768:Drivers/STM32F3xx_HAL_Driver/Src/stm32f3xx_hal_dac.c ****   */
 769:Drivers/STM32F3xx_HAL_Driver/Src/stm32f3xx_hal_dac.c **** __weak void HAL_DAC_ConvCpltCallbackCh1(DAC_HandleTypeDef* hdac)
 770:Drivers/STM32F3xx_HAL_Driver/Src/stm32f3xx_hal_dac.c **** {
 561              		.loc 1 770 1 is_stmt 1 view -0
 562              		.cfi_startproc
 563              		@ args = 0, pretend = 0, frame = 0
 564              		@ frame_needed = 0, uses_anonymous_args = 0
 565              		@ link register save eliminated.
 771:Drivers/STM32F3xx_HAL_Driver/Src/stm32f3xx_hal_dac.c ****   /* Prevent unused argument(s) compilation warning */
 772:Drivers/STM32F3xx_HAL_Driver/Src/stm32f3xx_hal_dac.c ****   UNUSED(hdac);
 566              		.loc 1 772 3 view .LVU132
 773:Drivers/STM32F3xx_HAL_Driver/Src/stm32f3xx_hal_dac.c **** 
 774:Drivers/STM32F3xx_HAL_Driver/Src/stm32f3xx_hal_dac.c ****   /* NOTE : This function Should not be modified, when the callback is needed,
 775:Drivers/STM32F3xx_HAL_Driver/Src/stm32f3xx_hal_dac.c ****             the HAL_DAC_ConvCpltCallback1 could be implemented in the user file
 776:Drivers/STM32F3xx_HAL_Driver/Src/stm32f3xx_hal_dac.c ****    */
 777:Drivers/STM32F3xx_HAL_Driver/Src/stm32f3xx_hal_dac.c **** }
 567              		.loc 1 777 1 is_stmt 0 view .LVU133
 568 0000 7047     		bx	lr
 569              		.cfi_endproc
 570              	.LFE144:
 572              		.section	.text.HAL_DAC_ConvHalfCpltCallbackCh1,"ax",%progbits
 573              		.align	1
 574              		.weak	HAL_DAC_ConvHalfCpltCallbackCh1
 575              		.syntax unified
ARM GAS  /var/folders/jw/jcj5j9_530958b2rm5vp9wn00000gn/T//ccr4Tk6P.s 			page 25


 576              		.thumb
 577              		.thumb_func
 578              		.fpu fpv4-sp-d16
 580              	HAL_DAC_ConvHalfCpltCallbackCh1:
 581              	.LVL38:
 582              	.LFB145:
 778:Drivers/STM32F3xx_HAL_Driver/Src/stm32f3xx_hal_dac.c **** 
 779:Drivers/STM32F3xx_HAL_Driver/Src/stm32f3xx_hal_dac.c **** /**
 780:Drivers/STM32F3xx_HAL_Driver/Src/stm32f3xx_hal_dac.c ****   * @brief  Conversion half DMA transfer callback in non blocking mode for Channel1 
 781:Drivers/STM32F3xx_HAL_Driver/Src/stm32f3xx_hal_dac.c ****   * @param  hdac pointer to a DAC_HandleTypeDef structure that contains
 782:Drivers/STM32F3xx_HAL_Driver/Src/stm32f3xx_hal_dac.c ****   *         the configuration information for the specified DAC.
 783:Drivers/STM32F3xx_HAL_Driver/Src/stm32f3xx_hal_dac.c ****   * @retval None
 784:Drivers/STM32F3xx_HAL_Driver/Src/stm32f3xx_hal_dac.c ****   */
 785:Drivers/STM32F3xx_HAL_Driver/Src/stm32f3xx_hal_dac.c **** __weak void HAL_DAC_ConvHalfCpltCallbackCh1(DAC_HandleTypeDef* hdac)
 786:Drivers/STM32F3xx_HAL_Driver/Src/stm32f3xx_hal_dac.c **** {
 583              		.loc 1 786 1 is_stmt 1 view -0
 584              		.cfi_startproc
 585              		@ args = 0, pretend = 0, frame = 0
 586              		@ frame_needed = 0, uses_anonymous_args = 0
 587              		@ link register save eliminated.
 787:Drivers/STM32F3xx_HAL_Driver/Src/stm32f3xx_hal_dac.c ****   /* Prevent unused argument(s) compilation warning */
 788:Drivers/STM32F3xx_HAL_Driver/Src/stm32f3xx_hal_dac.c ****   UNUSED(hdac);
 588              		.loc 1 788 3 view .LVU135
 789:Drivers/STM32F3xx_HAL_Driver/Src/stm32f3xx_hal_dac.c **** 
 790:Drivers/STM32F3xx_HAL_Driver/Src/stm32f3xx_hal_dac.c ****   /* NOTE : This function Should not be modified, when the callback is needed,
 791:Drivers/STM32F3xx_HAL_Driver/Src/stm32f3xx_hal_dac.c ****             the HAL_DAC_ConvHalfCpltCallbackCh1 could be implemented in the user file
 792:Drivers/STM32F3xx_HAL_Driver/Src/stm32f3xx_hal_dac.c ****    */
 793:Drivers/STM32F3xx_HAL_Driver/Src/stm32f3xx_hal_dac.c **** }
 589              		.loc 1 793 1 is_stmt 0 view .LVU136
 590 0000 7047     		bx	lr
 591              		.cfi_endproc
 592              	.LFE145:
 594              		.section	.text.HAL_DAC_ErrorCallbackCh1,"ax",%progbits
 595              		.align	1
 596              		.weak	HAL_DAC_ErrorCallbackCh1
 597              		.syntax unified
 598              		.thumb
 599              		.thumb_func
 600              		.fpu fpv4-sp-d16
 602              	HAL_DAC_ErrorCallbackCh1:
 603              	.LVL39:
 604              	.LFB146:
 794:Drivers/STM32F3xx_HAL_Driver/Src/stm32f3xx_hal_dac.c **** 
 795:Drivers/STM32F3xx_HAL_Driver/Src/stm32f3xx_hal_dac.c **** /**
 796:Drivers/STM32F3xx_HAL_Driver/Src/stm32f3xx_hal_dac.c ****   * @brief  Error DAC callback for Channel1.
 797:Drivers/STM32F3xx_HAL_Driver/Src/stm32f3xx_hal_dac.c ****   * @param  hdac pointer to a DAC_HandleTypeDef structure that contains
 798:Drivers/STM32F3xx_HAL_Driver/Src/stm32f3xx_hal_dac.c ****   *         the configuration information for the specified DAC.
 799:Drivers/STM32F3xx_HAL_Driver/Src/stm32f3xx_hal_dac.c ****   * @retval None
 800:Drivers/STM32F3xx_HAL_Driver/Src/stm32f3xx_hal_dac.c ****   */
 801:Drivers/STM32F3xx_HAL_Driver/Src/stm32f3xx_hal_dac.c **** __weak void HAL_DAC_ErrorCallbackCh1(DAC_HandleTypeDef *hdac)
 802:Drivers/STM32F3xx_HAL_Driver/Src/stm32f3xx_hal_dac.c **** {
 605              		.loc 1 802 1 is_stmt 1 view -0
 606              		.cfi_startproc
 607              		@ args = 0, pretend = 0, frame = 0
 608              		@ frame_needed = 0, uses_anonymous_args = 0
 609              		@ link register save eliminated.
 803:Drivers/STM32F3xx_HAL_Driver/Src/stm32f3xx_hal_dac.c ****   /* Prevent unused argument(s) compilation warning */
ARM GAS  /var/folders/jw/jcj5j9_530958b2rm5vp9wn00000gn/T//ccr4Tk6P.s 			page 26


 804:Drivers/STM32F3xx_HAL_Driver/Src/stm32f3xx_hal_dac.c ****   UNUSED(hdac);
 610              		.loc 1 804 3 view .LVU138
 805:Drivers/STM32F3xx_HAL_Driver/Src/stm32f3xx_hal_dac.c **** 
 806:Drivers/STM32F3xx_HAL_Driver/Src/stm32f3xx_hal_dac.c ****   /* NOTE : This function Should not be modified, when the callback is needed,
 807:Drivers/STM32F3xx_HAL_Driver/Src/stm32f3xx_hal_dac.c ****             the HAL_DAC_ErrorCallback could be implemented in the user file
 808:Drivers/STM32F3xx_HAL_Driver/Src/stm32f3xx_hal_dac.c ****    */
 809:Drivers/STM32F3xx_HAL_Driver/Src/stm32f3xx_hal_dac.c **** }
 611              		.loc 1 809 1 is_stmt 0 view .LVU139
 612 0000 7047     		bx	lr
 613              		.cfi_endproc
 614              	.LFE146:
 616              		.section	.text.HAL_DAC_DMAUnderrunCallbackCh1,"ax",%progbits
 617              		.align	1
 618              		.weak	HAL_DAC_DMAUnderrunCallbackCh1
 619              		.syntax unified
 620              		.thumb
 621              		.thumb_func
 622              		.fpu fpv4-sp-d16
 624              	HAL_DAC_DMAUnderrunCallbackCh1:
 625              	.LVL40:
 626              	.LFB147:
 810:Drivers/STM32F3xx_HAL_Driver/Src/stm32f3xx_hal_dac.c **** 
 811:Drivers/STM32F3xx_HAL_Driver/Src/stm32f3xx_hal_dac.c **** 
 812:Drivers/STM32F3xx_HAL_Driver/Src/stm32f3xx_hal_dac.c **** /**
 813:Drivers/STM32F3xx_HAL_Driver/Src/stm32f3xx_hal_dac.c ****   * @brief  DMA underrun DAC callback for Channel1.
 814:Drivers/STM32F3xx_HAL_Driver/Src/stm32f3xx_hal_dac.c ****   * @param  hdac pointer to a DAC_HandleTypeDef structure that contains
 815:Drivers/STM32F3xx_HAL_Driver/Src/stm32f3xx_hal_dac.c ****   *         the configuration information for the specified DAC.
 816:Drivers/STM32F3xx_HAL_Driver/Src/stm32f3xx_hal_dac.c ****   * @retval None
 817:Drivers/STM32F3xx_HAL_Driver/Src/stm32f3xx_hal_dac.c ****   */
 818:Drivers/STM32F3xx_HAL_Driver/Src/stm32f3xx_hal_dac.c **** __weak void HAL_DAC_DMAUnderrunCallbackCh1(DAC_HandleTypeDef *hdac)
 819:Drivers/STM32F3xx_HAL_Driver/Src/stm32f3xx_hal_dac.c **** {
 627              		.loc 1 819 1 is_stmt 1 view -0
 628              		.cfi_startproc
 629              		@ args = 0, pretend = 0, frame = 0
 630              		@ frame_needed = 0, uses_anonymous_args = 0
 631              		@ link register save eliminated.
 820:Drivers/STM32F3xx_HAL_Driver/Src/stm32f3xx_hal_dac.c ****   /* Prevent unused argument(s) compilation warning */
 821:Drivers/STM32F3xx_HAL_Driver/Src/stm32f3xx_hal_dac.c ****   UNUSED(hdac);
 632              		.loc 1 821 3 view .LVU141
 822:Drivers/STM32F3xx_HAL_Driver/Src/stm32f3xx_hal_dac.c **** 
 823:Drivers/STM32F3xx_HAL_Driver/Src/stm32f3xx_hal_dac.c ****   /* NOTE : This function Should not be modified, when the callback is needed,
 824:Drivers/STM32F3xx_HAL_Driver/Src/stm32f3xx_hal_dac.c ****             the HAL_DAC_DMAUnderrunCallbackCh1 could be implemented in the user file
 825:Drivers/STM32F3xx_HAL_Driver/Src/stm32f3xx_hal_dac.c ****    */
 826:Drivers/STM32F3xx_HAL_Driver/Src/stm32f3xx_hal_dac.c **** }
 633              		.loc 1 826 1 is_stmt 0 view .LVU142
 634 0000 7047     		bx	lr
 635              		.cfi_endproc
 636              	.LFE147:
 638              		.text
 639              	.Letext0:
 640              		.file 2 "/Users/javier/Library/xPacks/@xpack-dev-tools/arm-none-eabi-gcc/9.3.1-1.4.1/.content/arm-
 641              		.file 3 "/Users/javier/Library/xPacks/@xpack-dev-tools/arm-none-eabi-gcc/9.3.1-1.4.1/.content/arm-
 642              		.file 4 "Drivers/CMSIS/Include/core_cm4.h"
 643              		.file 5 "Drivers/CMSIS/Device/ST/STM32F3xx/Include/system_stm32f3xx.h"
 644              		.file 6 "Drivers/CMSIS/Device/ST/STM32F3xx/Include/stm32f373xc.h"
 645              		.file 7 "Drivers/STM32F3xx_HAL_Driver/Inc/stm32f3xx_hal_def.h"
 646              		.file 8 "Drivers/STM32F3xx_HAL_Driver/Inc/stm32f3xx_hal_dma.h"
ARM GAS  /var/folders/jw/jcj5j9_530958b2rm5vp9wn00000gn/T//ccr4Tk6P.s 			page 27


 647              		.file 9 "Drivers/STM32F3xx_HAL_Driver/Inc/stm32f3xx_hal_dac.h"
 648              		.file 10 "Drivers/STM32F3xx_HAL_Driver/Inc/stm32f3xx_hal.h"
ARM GAS  /var/folders/jw/jcj5j9_530958b2rm5vp9wn00000gn/T//ccr4Tk6P.s 			page 28

