ARM GAS  /var/folders/jw/jcj5j9_530958b2rm5vp9wn00000gn/T//cc3bFcpI.s 			page 1


   1              		.cpu cortex-m4
   2              		.eabi_attribute 27, 1
   3              		.eabi_attribute 28, 1
   4              		.eabi_attribute 20, 1
   5              		.eabi_attribute 21, 1
   6              		.eabi_attribute 23, 3
   7              		.eabi_attribute 24, 1
   8              		.eabi_attribute 25, 1
   9              		.eabi_attribute 26, 1
  10              		.eabi_attribute 30, 1
  11              		.eabi_attribute 34, 1
  12              		.eabi_attribute 18, 4
  13              		.file	"stm32f3xx_hal_adc.c"
  14              		.text
  15              	.Ltext0:
  16              		.cfi_sections	.debug_frame
  17              		.section	.text.HAL_ADC_Init,"ax",%progbits
  18              		.align	1
  19              		.weak	HAL_ADC_Init
  20              		.arch armv7e-m
  21              		.syntax unified
  22              		.thumb
  23              		.thumb_func
  24              		.fpu fpv4-sp-d16
  26              	HAL_ADC_Init:
  27              	.LVL0:
  28              	.LFB130:
  29              		.file 1 "Drivers/STM32F3xx_HAL_Driver/Src/stm32f3xx_hal_adc.c"
   1:Drivers/STM32F3xx_HAL_Driver/Src/stm32f3xx_hal_adc.c **** /**
   2:Drivers/STM32F3xx_HAL_Driver/Src/stm32f3xx_hal_adc.c ****   ******************************************************************************
   3:Drivers/STM32F3xx_HAL_Driver/Src/stm32f3xx_hal_adc.c ****   * @file    stm32f3xx_hal_adc.c
   4:Drivers/STM32F3xx_HAL_Driver/Src/stm32f3xx_hal_adc.c ****   * @author  MCD Application Team
   5:Drivers/STM32F3xx_HAL_Driver/Src/stm32f3xx_hal_adc.c ****   * @brief   This file provides firmware functions to manage the following 
   6:Drivers/STM32F3xx_HAL_Driver/Src/stm32f3xx_hal_adc.c ****   *          functionalities of the Analog to Digital Convertor (ADC)
   7:Drivers/STM32F3xx_HAL_Driver/Src/stm32f3xx_hal_adc.c ****   *          peripheral:
   8:Drivers/STM32F3xx_HAL_Driver/Src/stm32f3xx_hal_adc.c ****   *           + Initialization and de-initialization functions
   9:Drivers/STM32F3xx_HAL_Driver/Src/stm32f3xx_hal_adc.c ****   *             ++ Initialization and Configuration of ADC
  10:Drivers/STM32F3xx_HAL_Driver/Src/stm32f3xx_hal_adc.c ****   *           + Operation functions
  11:Drivers/STM32F3xx_HAL_Driver/Src/stm32f3xx_hal_adc.c ****   *             ++ Start, stop, get result of conversions of regular
  12:Drivers/STM32F3xx_HAL_Driver/Src/stm32f3xx_hal_adc.c ****   *                group, using 3 possible modes: polling, interruption or DMA.
  13:Drivers/STM32F3xx_HAL_Driver/Src/stm32f3xx_hal_adc.c ****   *           + Control functions
  14:Drivers/STM32F3xx_HAL_Driver/Src/stm32f3xx_hal_adc.c ****   *             ++ Channels configuration on regular group
  15:Drivers/STM32F3xx_HAL_Driver/Src/stm32f3xx_hal_adc.c ****   *             ++ Channels configuration on injected group
  16:Drivers/STM32F3xx_HAL_Driver/Src/stm32f3xx_hal_adc.c ****   *             ++ Analog Watchdog configuration
  17:Drivers/STM32F3xx_HAL_Driver/Src/stm32f3xx_hal_adc.c ****   *           + State functions
  18:Drivers/STM32F3xx_HAL_Driver/Src/stm32f3xx_hal_adc.c ****   *             ++ ADC state machine management
  19:Drivers/STM32F3xx_HAL_Driver/Src/stm32f3xx_hal_adc.c ****   *             ++ Interrupts and flags management
  20:Drivers/STM32F3xx_HAL_Driver/Src/stm32f3xx_hal_adc.c ****   *          Other functions (extended functions) are available in file 
  21:Drivers/STM32F3xx_HAL_Driver/Src/stm32f3xx_hal_adc.c ****   *          "stm32f3xx_hal_adc_ex.c".
  22:Drivers/STM32F3xx_HAL_Driver/Src/stm32f3xx_hal_adc.c ****   *
  23:Drivers/STM32F3xx_HAL_Driver/Src/stm32f3xx_hal_adc.c ****   @verbatim
  24:Drivers/STM32F3xx_HAL_Driver/Src/stm32f3xx_hal_adc.c ****   ==============================================================================
  25:Drivers/STM32F3xx_HAL_Driver/Src/stm32f3xx_hal_adc.c ****                      ##### ADC peripheral features #####
  26:Drivers/STM32F3xx_HAL_Driver/Src/stm32f3xx_hal_adc.c ****   ==============================================================================
  27:Drivers/STM32F3xx_HAL_Driver/Src/stm32f3xx_hal_adc.c ****   [..] 
  28:Drivers/STM32F3xx_HAL_Driver/Src/stm32f3xx_hal_adc.c ****   (+) 12-bit, 10-bit, 8-bit or 6-bit configurable resolution (available only on 
  29:Drivers/STM32F3xx_HAL_Driver/Src/stm32f3xx_hal_adc.c ****       STM32F30xxC devices).
ARM GAS  /var/folders/jw/jcj5j9_530958b2rm5vp9wn00000gn/T//cc3bFcpI.s 			page 2


  30:Drivers/STM32F3xx_HAL_Driver/Src/stm32f3xx_hal_adc.c **** 
  31:Drivers/STM32F3xx_HAL_Driver/Src/stm32f3xx_hal_adc.c ****   (+) Interrupt generation at the end of regular conversion, end of injected
  32:Drivers/STM32F3xx_HAL_Driver/Src/stm32f3xx_hal_adc.c ****       conversion, and in case of analog watchdog or overrun events.
  33:Drivers/STM32F3xx_HAL_Driver/Src/stm32f3xx_hal_adc.c ****   
  34:Drivers/STM32F3xx_HAL_Driver/Src/stm32f3xx_hal_adc.c ****   (+) Single and continuous conversion modes.
  35:Drivers/STM32F3xx_HAL_Driver/Src/stm32f3xx_hal_adc.c ****   
  36:Drivers/STM32F3xx_HAL_Driver/Src/stm32f3xx_hal_adc.c ****   (+) Scan mode for conversion of several channels sequentially.
  37:Drivers/STM32F3xx_HAL_Driver/Src/stm32f3xx_hal_adc.c ****   
  38:Drivers/STM32F3xx_HAL_Driver/Src/stm32f3xx_hal_adc.c ****   (+) Data alignment with in-built data coherency.
  39:Drivers/STM32F3xx_HAL_Driver/Src/stm32f3xx_hal_adc.c ****   
  40:Drivers/STM32F3xx_HAL_Driver/Src/stm32f3xx_hal_adc.c ****   (+) Programmable sampling time (channel wise)
  41:Drivers/STM32F3xx_HAL_Driver/Src/stm32f3xx_hal_adc.c ****   
  42:Drivers/STM32F3xx_HAL_Driver/Src/stm32f3xx_hal_adc.c ****   (+) ADC conversion of regular group and injected group.
  43:Drivers/STM32F3xx_HAL_Driver/Src/stm32f3xx_hal_adc.c **** 
  44:Drivers/STM32F3xx_HAL_Driver/Src/stm32f3xx_hal_adc.c ****   (+) External trigger (timer or EXTI) with configurable polarity
  45:Drivers/STM32F3xx_HAL_Driver/Src/stm32f3xx_hal_adc.c ****       for both regular and injected groups.
  46:Drivers/STM32F3xx_HAL_Driver/Src/stm32f3xx_hal_adc.c **** 
  47:Drivers/STM32F3xx_HAL_Driver/Src/stm32f3xx_hal_adc.c ****   (+) DMA request generation for transfer of conversions data of regular group.
  48:Drivers/STM32F3xx_HAL_Driver/Src/stm32f3xx_hal_adc.c **** 
  49:Drivers/STM32F3xx_HAL_Driver/Src/stm32f3xx_hal_adc.c ****   (+) Multimode dual mode (available on devices with 2 ADCs or more).
  50:Drivers/STM32F3xx_HAL_Driver/Src/stm32f3xx_hal_adc.c ****   
  51:Drivers/STM32F3xx_HAL_Driver/Src/stm32f3xx_hal_adc.c ****   (+) Configurable DMA data storage in Multimode Dual mode (available on devices
  52:Drivers/STM32F3xx_HAL_Driver/Src/stm32f3xx_hal_adc.c ****       with 2 DCs or more).
  53:Drivers/STM32F3xx_HAL_Driver/Src/stm32f3xx_hal_adc.c ****   
  54:Drivers/STM32F3xx_HAL_Driver/Src/stm32f3xx_hal_adc.c ****   (+) Configurable delay between conversions in Dual interleaved mode (available 
  55:Drivers/STM32F3xx_HAL_Driver/Src/stm32f3xx_hal_adc.c ****       on devices with 2 DCs or more).
  56:Drivers/STM32F3xx_HAL_Driver/Src/stm32f3xx_hal_adc.c ****   
  57:Drivers/STM32F3xx_HAL_Driver/Src/stm32f3xx_hal_adc.c ****   (+) ADC calibration
  58:Drivers/STM32F3xx_HAL_Driver/Src/stm32f3xx_hal_adc.c **** 
  59:Drivers/STM32F3xx_HAL_Driver/Src/stm32f3xx_hal_adc.c ****   (+) ADC channels selectable single/differential input (available only on
  60:Drivers/STM32F3xx_HAL_Driver/Src/stm32f3xx_hal_adc.c ****       STM32F30xxC devices)
  61:Drivers/STM32F3xx_HAL_Driver/Src/stm32f3xx_hal_adc.c **** 
  62:Drivers/STM32F3xx_HAL_Driver/Src/stm32f3xx_hal_adc.c ****   (+) ADC Injected sequencer&channels configuration context queue (available 
  63:Drivers/STM32F3xx_HAL_Driver/Src/stm32f3xx_hal_adc.c ****       only on STM32F30xxC devices)
  64:Drivers/STM32F3xx_HAL_Driver/Src/stm32f3xx_hal_adc.c **** 
  65:Drivers/STM32F3xx_HAL_Driver/Src/stm32f3xx_hal_adc.c ****   (+) ADC offset on injected and regular groups (offset on regular group 
  66:Drivers/STM32F3xx_HAL_Driver/Src/stm32f3xx_hal_adc.c ****       available only on STM32F30xxC devices)
  67:Drivers/STM32F3xx_HAL_Driver/Src/stm32f3xx_hal_adc.c **** 
  68:Drivers/STM32F3xx_HAL_Driver/Src/stm32f3xx_hal_adc.c ****   (+) ADC supply requirements: 2.4 V to 3.6 V at full speed and down to 1.8 V at 
  69:Drivers/STM32F3xx_HAL_Driver/Src/stm32f3xx_hal_adc.c ****       slower speed.
  70:Drivers/STM32F3xx_HAL_Driver/Src/stm32f3xx_hal_adc.c ****   
  71:Drivers/STM32F3xx_HAL_Driver/Src/stm32f3xx_hal_adc.c ****   (+) ADC input range: from Vref- (connected to Vssa) to Vref+ (connected to 
  72:Drivers/STM32F3xx_HAL_Driver/Src/stm32f3xx_hal_adc.c ****       Vdda or to an external voltage reference).
  73:Drivers/STM32F3xx_HAL_Driver/Src/stm32f3xx_hal_adc.c **** 
  74:Drivers/STM32F3xx_HAL_Driver/Src/stm32f3xx_hal_adc.c **** 
  75:Drivers/STM32F3xx_HAL_Driver/Src/stm32f3xx_hal_adc.c ****                      ##### How to use this driver #####
  76:Drivers/STM32F3xx_HAL_Driver/Src/stm32f3xx_hal_adc.c ****   ==============================================================================
  77:Drivers/STM32F3xx_HAL_Driver/Src/stm32f3xx_hal_adc.c ****     [..]
  78:Drivers/STM32F3xx_HAL_Driver/Src/stm32f3xx_hal_adc.c **** 
  79:Drivers/STM32F3xx_HAL_Driver/Src/stm32f3xx_hal_adc.c ****      *** Configuration of top level parameters related to ADC ***
  80:Drivers/STM32F3xx_HAL_Driver/Src/stm32f3xx_hal_adc.c ****      ============================================================
  81:Drivers/STM32F3xx_HAL_Driver/Src/stm32f3xx_hal_adc.c ****      [..]
  82:Drivers/STM32F3xx_HAL_Driver/Src/stm32f3xx_hal_adc.c **** 
  83:Drivers/STM32F3xx_HAL_Driver/Src/stm32f3xx_hal_adc.c ****     (#) Enable the ADC interface
  84:Drivers/STM32F3xx_HAL_Driver/Src/stm32f3xx_hal_adc.c ****       (++) As prerequisite, ADC clock must be configured at RCC top level.
  85:Drivers/STM32F3xx_HAL_Driver/Src/stm32f3xx_hal_adc.c ****       
  86:Drivers/STM32F3xx_HAL_Driver/Src/stm32f3xx_hal_adc.c ****         (++) For STM32F30x/STM32F33x devices:
ARM GAS  /var/folders/jw/jcj5j9_530958b2rm5vp9wn00000gn/T//cc3bFcpI.s 			page 3


  87:Drivers/STM32F3xx_HAL_Driver/Src/stm32f3xx_hal_adc.c ****              Two possible clock sources: synchronous clock derived from AHB clock 
  88:Drivers/STM32F3xx_HAL_Driver/Src/stm32f3xx_hal_adc.c ****              or asynchronous clock derived from ADC dedicated PLL 72MHz.
  89:Drivers/STM32F3xx_HAL_Driver/Src/stm32f3xx_hal_adc.c ****               - Synchronous clock is mandatory since used as ADC core clock.
  90:Drivers/STM32F3xx_HAL_Driver/Src/stm32f3xx_hal_adc.c ****                 Synchronous clock can be used optionally as ADC conversion clock, depending on ADC 
  91:Drivers/STM32F3xx_HAL_Driver/Src/stm32f3xx_hal_adc.c ****                 Synchronous clock is configured using macro __ADCx_CLK_ENABLE().
  92:Drivers/STM32F3xx_HAL_Driver/Src/stm32f3xx_hal_adc.c ****               - Asynchronous can be used optionally as ADC conversion clock, depending on ADC init 
  93:Drivers/STM32F3xx_HAL_Driver/Src/stm32f3xx_hal_adc.c ****                 Asynchronous clock is configured using function HAL_RCCEx_PeriphCLKConfig().
  94:Drivers/STM32F3xx_HAL_Driver/Src/stm32f3xx_hal_adc.c ****              (+++) For example, in case of device with a single ADC:
  95:Drivers/STM32F3xx_HAL_Driver/Src/stm32f3xx_hal_adc.c ****                    Into HAL_ADC_MspInit() (recommended code location) or with
  96:Drivers/STM32F3xx_HAL_Driver/Src/stm32f3xx_hal_adc.c ****                    other device clock parameters configuration:
  97:Drivers/STM32F3xx_HAL_Driver/Src/stm32f3xx_hal_adc.c ****                (+++) __HAL_RCC_ADC1_CLK_ENABLE()                            (mandatory)
  98:Drivers/STM32F3xx_HAL_Driver/Src/stm32f3xx_hal_adc.c ****                (+++) PeriphClkInit.PeriphClockSelection = RCC_PERIPHCLK_ADC (optional, if ADC conve
  99:Drivers/STM32F3xx_HAL_Driver/Src/stm32f3xx_hal_adc.c ****                (+++) PeriphClkInit.Adc1ClockSelection = RCC_ADC1PLLCLK_DIV1 (optional, if ADC conve
 100:Drivers/STM32F3xx_HAL_Driver/Src/stm32f3xx_hal_adc.c ****                (+++) HAL_RCCEx_PeriphCLKConfig(&RCC_PeriphClkInitStructure) (optional, if ADC conve
 101:Drivers/STM32F3xx_HAL_Driver/Src/stm32f3xx_hal_adc.c **** 
 102:Drivers/STM32F3xx_HAL_Driver/Src/stm32f3xx_hal_adc.c ****              (+++) For example, in case of device with 4 ADCs:
 103:Drivers/STM32F3xx_HAL_Driver/Src/stm32f3xx_hal_adc.c **** 
 104:Drivers/STM32F3xx_HAL_Driver/Src/stm32f3xx_hal_adc.c ****                (+++) if((hadc->Instance == ADC1) || (hadc->Instance == ADC2))   
 105:Drivers/STM32F3xx_HAL_Driver/Src/stm32f3xx_hal_adc.c ****                (+++) {                                                          
 106:Drivers/STM32F3xx_HAL_Driver/Src/stm32f3xx_hal_adc.c ****                (+++)   __HAL_RCC_ADC12_CLK_ENABLE()                             (mandatory)
 107:Drivers/STM32F3xx_HAL_Driver/Src/stm32f3xx_hal_adc.c ****                (+++)   PeriphClkInit.PeriphClockSelection = RCC_PERIPHCLK_ADC   (optional, if ADC c
 108:Drivers/STM32F3xx_HAL_Driver/Src/stm32f3xx_hal_adc.c ****                (+++)   PeriphClkInit.Adc12ClockSelection = RCC_ADC12PLLCLK_DIV1 (optional, if ADC c
 109:Drivers/STM32F3xx_HAL_Driver/Src/stm32f3xx_hal_adc.c ****                (+++)   HAL_RCCEx_PeriphCLKConfig(&RCC_PeriphClkInitStructure)   (optional, if ADC c
 110:Drivers/STM32F3xx_HAL_Driver/Src/stm32f3xx_hal_adc.c ****                (+++) }                                                          
 111:Drivers/STM32F3xx_HAL_Driver/Src/stm32f3xx_hal_adc.c ****                (+++) else                                                       
 112:Drivers/STM32F3xx_HAL_Driver/Src/stm32f3xx_hal_adc.c ****                (+++) {                                                          
 113:Drivers/STM32F3xx_HAL_Driver/Src/stm32f3xx_hal_adc.c ****                (+++)   __HAL_RCC_ADC34_CLK_ENABLE()                              (mandatory)
 114:Drivers/STM32F3xx_HAL_Driver/Src/stm32f3xx_hal_adc.c ****                (+++)   PeriphClkInit.Adc34ClockSelection = RCC_ADC34PLLCLK_DIV1; (optional, if ADC 
 115:Drivers/STM32F3xx_HAL_Driver/Src/stm32f3xx_hal_adc.c ****                (+++)   HAL_RCCEx_PeriphCLKConfig(&RCC_PeriphClkInitStructure);   (optional, if ADC 
 116:Drivers/STM32F3xx_HAL_Driver/Src/stm32f3xx_hal_adc.c ****                (+++) }                                                          
 117:Drivers/STM32F3xx_HAL_Driver/Src/stm32f3xx_hal_adc.c ****       
 118:Drivers/STM32F3xx_HAL_Driver/Src/stm32f3xx_hal_adc.c ****         (++) For STM32F37x devices:
 119:Drivers/STM32F3xx_HAL_Driver/Src/stm32f3xx_hal_adc.c ****              One clock setting is mandatory: 
 120:Drivers/STM32F3xx_HAL_Driver/Src/stm32f3xx_hal_adc.c ****              ADC clock (core and conversion clock) from APB2 clock.
 121:Drivers/STM32F3xx_HAL_Driver/Src/stm32f3xx_hal_adc.c ****              (+++) Example:
 122:Drivers/STM32F3xx_HAL_Driver/Src/stm32f3xx_hal_adc.c ****                    Into HAL_ADC_MspInit() (recommended code location) or with
 123:Drivers/STM32F3xx_HAL_Driver/Src/stm32f3xx_hal_adc.c ****                    other device clock parameters configuration:
 124:Drivers/STM32F3xx_HAL_Driver/Src/stm32f3xx_hal_adc.c ****                (+++) PeriphClkInit.PeriphClockSelection = RCC_PERIPHCLK_ADC
 125:Drivers/STM32F3xx_HAL_Driver/Src/stm32f3xx_hal_adc.c ****                (+++) PeriphClkInit.AdcClockSelection = RCC_ADCPLLCLK_DIV2
 126:Drivers/STM32F3xx_HAL_Driver/Src/stm32f3xx_hal_adc.c ****                (+++) HAL_RCCEx_PeriphCLKConfig(&PeriphClkInit)
 127:Drivers/STM32F3xx_HAL_Driver/Src/stm32f3xx_hal_adc.c **** 
 128:Drivers/STM32F3xx_HAL_Driver/Src/stm32f3xx_hal_adc.c ****     (#) ADC pins configuration
 129:Drivers/STM32F3xx_HAL_Driver/Src/stm32f3xx_hal_adc.c ****          (++) Enable the clock for the ADC GPIOs
 130:Drivers/STM32F3xx_HAL_Driver/Src/stm32f3xx_hal_adc.c ****               using macro __HAL_RCC_GPIOx_CLK_ENABLE()
 131:Drivers/STM32F3xx_HAL_Driver/Src/stm32f3xx_hal_adc.c ****          (++) Configure these ADC pins in analog mode
 132:Drivers/STM32F3xx_HAL_Driver/Src/stm32f3xx_hal_adc.c ****               using function HAL_GPIO_Init()
 133:Drivers/STM32F3xx_HAL_Driver/Src/stm32f3xx_hal_adc.c **** 
 134:Drivers/STM32F3xx_HAL_Driver/Src/stm32f3xx_hal_adc.c ****     (#) Optionally, in case of usage of ADC with interruptions:
 135:Drivers/STM32F3xx_HAL_Driver/Src/stm32f3xx_hal_adc.c ****          (++) Configure the NVIC for ADC
 136:Drivers/STM32F3xx_HAL_Driver/Src/stm32f3xx_hal_adc.c ****               using function HAL_NVIC_EnableIRQ(ADCx_IRQn)
 137:Drivers/STM32F3xx_HAL_Driver/Src/stm32f3xx_hal_adc.c ****          (++) Insert the ADC interruption handler function HAL_ADC_IRQHandler() 
 138:Drivers/STM32F3xx_HAL_Driver/Src/stm32f3xx_hal_adc.c ****               into the function of corresponding ADC interruption vector 
 139:Drivers/STM32F3xx_HAL_Driver/Src/stm32f3xx_hal_adc.c ****               ADCx_IRQHandler().
 140:Drivers/STM32F3xx_HAL_Driver/Src/stm32f3xx_hal_adc.c **** 
 141:Drivers/STM32F3xx_HAL_Driver/Src/stm32f3xx_hal_adc.c ****     (#) Optionally, in case of usage of DMA:
 142:Drivers/STM32F3xx_HAL_Driver/Src/stm32f3xx_hal_adc.c ****          (++) Configure the DMA (DMA channel, mode normal or circular, ...)
 143:Drivers/STM32F3xx_HAL_Driver/Src/stm32f3xx_hal_adc.c ****               using function HAL_DMA_Init().
ARM GAS  /var/folders/jw/jcj5j9_530958b2rm5vp9wn00000gn/T//cc3bFcpI.s 			page 4


 144:Drivers/STM32F3xx_HAL_Driver/Src/stm32f3xx_hal_adc.c ****          (++) Configure the NVIC for DMA
 145:Drivers/STM32F3xx_HAL_Driver/Src/stm32f3xx_hal_adc.c ****               using function HAL_NVIC_EnableIRQ(DMAx_Channelx_IRQn)
 146:Drivers/STM32F3xx_HAL_Driver/Src/stm32f3xx_hal_adc.c ****          (++) Insert the ADC interruption handler function HAL_ADC_IRQHandler() 
 147:Drivers/STM32F3xx_HAL_Driver/Src/stm32f3xx_hal_adc.c ****               into the function of corresponding DMA interruption vector 
 148:Drivers/STM32F3xx_HAL_Driver/Src/stm32f3xx_hal_adc.c ****               DMAx_Channelx_IRQHandler().
 149:Drivers/STM32F3xx_HAL_Driver/Src/stm32f3xx_hal_adc.c **** 
 150:Drivers/STM32F3xx_HAL_Driver/Src/stm32f3xx_hal_adc.c ****      *** Configuration of ADC, groups regular/injected, channels parameters ***
 151:Drivers/STM32F3xx_HAL_Driver/Src/stm32f3xx_hal_adc.c ****      ==========================================================================
 152:Drivers/STM32F3xx_HAL_Driver/Src/stm32f3xx_hal_adc.c ****      [..]
 153:Drivers/STM32F3xx_HAL_Driver/Src/stm32f3xx_hal_adc.c **** 
 154:Drivers/STM32F3xx_HAL_Driver/Src/stm32f3xx_hal_adc.c ****     (#) Configure the ADC parameters (resolution, data alignment, ...)
 155:Drivers/STM32F3xx_HAL_Driver/Src/stm32f3xx_hal_adc.c ****         and regular group parameters (conversion trigger, sequencer, ...)
 156:Drivers/STM32F3xx_HAL_Driver/Src/stm32f3xx_hal_adc.c ****         using function HAL_ADC_Init().
 157:Drivers/STM32F3xx_HAL_Driver/Src/stm32f3xx_hal_adc.c **** 
 158:Drivers/STM32F3xx_HAL_Driver/Src/stm32f3xx_hal_adc.c ****     (#) Configure the channels for regular group parameters (channel number, 
 159:Drivers/STM32F3xx_HAL_Driver/Src/stm32f3xx_hal_adc.c ****         channel rank into sequencer, ..., into regular group)
 160:Drivers/STM32F3xx_HAL_Driver/Src/stm32f3xx_hal_adc.c ****         using function HAL_ADC_ConfigChannel().
 161:Drivers/STM32F3xx_HAL_Driver/Src/stm32f3xx_hal_adc.c **** 
 162:Drivers/STM32F3xx_HAL_Driver/Src/stm32f3xx_hal_adc.c ****     (#) Optionally, configure the injected group parameters (conversion trigger, 
 163:Drivers/STM32F3xx_HAL_Driver/Src/stm32f3xx_hal_adc.c ****         sequencer, ..., of injected group)
 164:Drivers/STM32F3xx_HAL_Driver/Src/stm32f3xx_hal_adc.c ****         and the channels for injected group parameters (channel number, 
 165:Drivers/STM32F3xx_HAL_Driver/Src/stm32f3xx_hal_adc.c ****         channel rank into sequencer, ..., into injected group)
 166:Drivers/STM32F3xx_HAL_Driver/Src/stm32f3xx_hal_adc.c ****         using function HAL_ADCEx_InjectedConfigChannel().
 167:Drivers/STM32F3xx_HAL_Driver/Src/stm32f3xx_hal_adc.c **** 
 168:Drivers/STM32F3xx_HAL_Driver/Src/stm32f3xx_hal_adc.c ****     (#) Optionally, configure the analog watchdog parameters (channels
 169:Drivers/STM32F3xx_HAL_Driver/Src/stm32f3xx_hal_adc.c ****         monitored, thresholds, ...)
 170:Drivers/STM32F3xx_HAL_Driver/Src/stm32f3xx_hal_adc.c ****         using function HAL_ADC_AnalogWDGConfig().
 171:Drivers/STM32F3xx_HAL_Driver/Src/stm32f3xx_hal_adc.c **** 
 172:Drivers/STM32F3xx_HAL_Driver/Src/stm32f3xx_hal_adc.c ****     (#) Optionally, for devices with several ADC instances: configure the 
 173:Drivers/STM32F3xx_HAL_Driver/Src/stm32f3xx_hal_adc.c ****         multimode parameters
 174:Drivers/STM32F3xx_HAL_Driver/Src/stm32f3xx_hal_adc.c ****         using function HAL_ADCEx_MultiModeConfigChannel().
 175:Drivers/STM32F3xx_HAL_Driver/Src/stm32f3xx_hal_adc.c **** 
 176:Drivers/STM32F3xx_HAL_Driver/Src/stm32f3xx_hal_adc.c ****      *** Execution of ADC conversions ***
 177:Drivers/STM32F3xx_HAL_Driver/Src/stm32f3xx_hal_adc.c ****      ====================================
 178:Drivers/STM32F3xx_HAL_Driver/Src/stm32f3xx_hal_adc.c ****      [..]
 179:Drivers/STM32F3xx_HAL_Driver/Src/stm32f3xx_hal_adc.c **** 
 180:Drivers/STM32F3xx_HAL_Driver/Src/stm32f3xx_hal_adc.c ****     (#) Optionally, perform an automatic ADC calibration to improve the
 181:Drivers/STM32F3xx_HAL_Driver/Src/stm32f3xx_hal_adc.c ****         conversion accuracy
 182:Drivers/STM32F3xx_HAL_Driver/Src/stm32f3xx_hal_adc.c ****         using function HAL_ADCEx_Calibration_Start().
 183:Drivers/STM32F3xx_HAL_Driver/Src/stm32f3xx_hal_adc.c **** 
 184:Drivers/STM32F3xx_HAL_Driver/Src/stm32f3xx_hal_adc.c ****     (#) ADC driver can be used among three modes: polling, interruption,
 185:Drivers/STM32F3xx_HAL_Driver/Src/stm32f3xx_hal_adc.c ****         transfer by DMA.
 186:Drivers/STM32F3xx_HAL_Driver/Src/stm32f3xx_hal_adc.c **** 
 187:Drivers/STM32F3xx_HAL_Driver/Src/stm32f3xx_hal_adc.c ****         (++) ADC conversion by polling:
 188:Drivers/STM32F3xx_HAL_Driver/Src/stm32f3xx_hal_adc.c ****           (+++) Activate the ADC peripheral and start conversions
 189:Drivers/STM32F3xx_HAL_Driver/Src/stm32f3xx_hal_adc.c ****                 using function HAL_ADC_Start()
 190:Drivers/STM32F3xx_HAL_Driver/Src/stm32f3xx_hal_adc.c ****           (+++) Wait for ADC conversion completion 
 191:Drivers/STM32F3xx_HAL_Driver/Src/stm32f3xx_hal_adc.c ****                 using function HAL_ADC_PollForConversion()
 192:Drivers/STM32F3xx_HAL_Driver/Src/stm32f3xx_hal_adc.c ****                 (or for injected group: HAL_ADCEx_InjectedPollForConversion() )
 193:Drivers/STM32F3xx_HAL_Driver/Src/stm32f3xx_hal_adc.c ****           (+++) Retrieve conversion results 
 194:Drivers/STM32F3xx_HAL_Driver/Src/stm32f3xx_hal_adc.c ****                 using function HAL_ADC_GetValue()
 195:Drivers/STM32F3xx_HAL_Driver/Src/stm32f3xx_hal_adc.c ****                 (or for injected group: HAL_ADCEx_InjectedGetValue() )
 196:Drivers/STM32F3xx_HAL_Driver/Src/stm32f3xx_hal_adc.c ****           (+++) Stop conversion and disable the ADC peripheral 
 197:Drivers/STM32F3xx_HAL_Driver/Src/stm32f3xx_hal_adc.c ****                 using function HAL_ADC_Stop()
 198:Drivers/STM32F3xx_HAL_Driver/Src/stm32f3xx_hal_adc.c **** 
 199:Drivers/STM32F3xx_HAL_Driver/Src/stm32f3xx_hal_adc.c ****         (++) ADC conversion by interruption: 
 200:Drivers/STM32F3xx_HAL_Driver/Src/stm32f3xx_hal_adc.c ****           (+++) Activate the ADC peripheral and start conversions
ARM GAS  /var/folders/jw/jcj5j9_530958b2rm5vp9wn00000gn/T//cc3bFcpI.s 			page 5


 201:Drivers/STM32F3xx_HAL_Driver/Src/stm32f3xx_hal_adc.c ****                 using function HAL_ADC_Start_IT()
 202:Drivers/STM32F3xx_HAL_Driver/Src/stm32f3xx_hal_adc.c ****           (+++) Wait for ADC conversion completion by call of function
 203:Drivers/STM32F3xx_HAL_Driver/Src/stm32f3xx_hal_adc.c ****                 HAL_ADC_ConvCpltCallback()
 204:Drivers/STM32F3xx_HAL_Driver/Src/stm32f3xx_hal_adc.c ****                 (this function must be implemented in user program)
 205:Drivers/STM32F3xx_HAL_Driver/Src/stm32f3xx_hal_adc.c ****                 (or for injected group: HAL_ADCEx_InjectedConvCpltCallback() )
 206:Drivers/STM32F3xx_HAL_Driver/Src/stm32f3xx_hal_adc.c ****           (+++) Retrieve conversion results 
 207:Drivers/STM32F3xx_HAL_Driver/Src/stm32f3xx_hal_adc.c ****                 using function HAL_ADC_GetValue()
 208:Drivers/STM32F3xx_HAL_Driver/Src/stm32f3xx_hal_adc.c ****                 (or for injected group: HAL_ADCEx_InjectedGetValue() )
 209:Drivers/STM32F3xx_HAL_Driver/Src/stm32f3xx_hal_adc.c ****           (+++) Stop conversion and disable the ADC peripheral 
 210:Drivers/STM32F3xx_HAL_Driver/Src/stm32f3xx_hal_adc.c ****                 using function HAL_ADC_Stop_IT()
 211:Drivers/STM32F3xx_HAL_Driver/Src/stm32f3xx_hal_adc.c **** 
 212:Drivers/STM32F3xx_HAL_Driver/Src/stm32f3xx_hal_adc.c ****         (++) ADC conversion with transfer by DMA:
 213:Drivers/STM32F3xx_HAL_Driver/Src/stm32f3xx_hal_adc.c ****           (+++) Activate the ADC peripheral and start conversions
 214:Drivers/STM32F3xx_HAL_Driver/Src/stm32f3xx_hal_adc.c ****                 using function HAL_ADC_Start_DMA()
 215:Drivers/STM32F3xx_HAL_Driver/Src/stm32f3xx_hal_adc.c ****           (+++) Wait for ADC conversion completion by call of function
 216:Drivers/STM32F3xx_HAL_Driver/Src/stm32f3xx_hal_adc.c ****                 HAL_ADC_ConvCpltCallback() or HAL_ADC_ConvHalfCpltCallback()
 217:Drivers/STM32F3xx_HAL_Driver/Src/stm32f3xx_hal_adc.c ****                 (these functions must be implemented in user program)
 218:Drivers/STM32F3xx_HAL_Driver/Src/stm32f3xx_hal_adc.c ****           (+++) Conversion results are automatically transferred by DMA into
 219:Drivers/STM32F3xx_HAL_Driver/Src/stm32f3xx_hal_adc.c ****                 destination variable address.
 220:Drivers/STM32F3xx_HAL_Driver/Src/stm32f3xx_hal_adc.c ****           (+++) Stop conversion and disable the ADC peripheral 
 221:Drivers/STM32F3xx_HAL_Driver/Src/stm32f3xx_hal_adc.c ****                 using function HAL_ADC_Stop_DMA()
 222:Drivers/STM32F3xx_HAL_Driver/Src/stm32f3xx_hal_adc.c **** 
 223:Drivers/STM32F3xx_HAL_Driver/Src/stm32f3xx_hal_adc.c ****         (++) For devices with several ADCs: ADC multimode conversion 
 224:Drivers/STM32F3xx_HAL_Driver/Src/stm32f3xx_hal_adc.c ****              with transfer by DMA:
 225:Drivers/STM32F3xx_HAL_Driver/Src/stm32f3xx_hal_adc.c ****           (+++) Activate the ADC peripheral (slave)
 226:Drivers/STM32F3xx_HAL_Driver/Src/stm32f3xx_hal_adc.c ****                 using function HAL_ADC_Start()
 227:Drivers/STM32F3xx_HAL_Driver/Src/stm32f3xx_hal_adc.c ****                 (conversion start pending ADC master)
 228:Drivers/STM32F3xx_HAL_Driver/Src/stm32f3xx_hal_adc.c ****           (+++) Activate the ADC peripheral (master) and start conversions
 229:Drivers/STM32F3xx_HAL_Driver/Src/stm32f3xx_hal_adc.c ****                 using function HAL_ADCEx_MultiModeStart_DMA()
 230:Drivers/STM32F3xx_HAL_Driver/Src/stm32f3xx_hal_adc.c ****           (+++) Wait for ADC conversion completion by call of function
 231:Drivers/STM32F3xx_HAL_Driver/Src/stm32f3xx_hal_adc.c ****                 HAL_ADC_ConvCpltCallback() or HAL_ADC_ConvHalfCpltCallback()
 232:Drivers/STM32F3xx_HAL_Driver/Src/stm32f3xx_hal_adc.c ****                 (these functions must be implemented in user program)
 233:Drivers/STM32F3xx_HAL_Driver/Src/stm32f3xx_hal_adc.c ****           (+++) Conversion results are automatically transferred by DMA into
 234:Drivers/STM32F3xx_HAL_Driver/Src/stm32f3xx_hal_adc.c ****                 destination variable address.
 235:Drivers/STM32F3xx_HAL_Driver/Src/stm32f3xx_hal_adc.c ****           (+++) Stop conversion and disable the ADC peripheral (master)
 236:Drivers/STM32F3xx_HAL_Driver/Src/stm32f3xx_hal_adc.c ****                 using function HAL_ADCEx_MultiModeStop_DMA()
 237:Drivers/STM32F3xx_HAL_Driver/Src/stm32f3xx_hal_adc.c ****           (+++) Stop conversion and disable the ADC peripheral (slave)
 238:Drivers/STM32F3xx_HAL_Driver/Src/stm32f3xx_hal_adc.c ****                 using function HAL_ADC_Stop_IT()
 239:Drivers/STM32F3xx_HAL_Driver/Src/stm32f3xx_hal_adc.c **** 
 240:Drivers/STM32F3xx_HAL_Driver/Src/stm32f3xx_hal_adc.c ****      [..]
 241:Drivers/STM32F3xx_HAL_Driver/Src/stm32f3xx_hal_adc.c **** 
 242:Drivers/STM32F3xx_HAL_Driver/Src/stm32f3xx_hal_adc.c ****     (@) Callback functions must be implemented in user program:
 243:Drivers/STM32F3xx_HAL_Driver/Src/stm32f3xx_hal_adc.c ****       (+@) HAL_ADC_ErrorCallback()
 244:Drivers/STM32F3xx_HAL_Driver/Src/stm32f3xx_hal_adc.c ****       (+@) HAL_ADC_LevelOutOfWindowCallback() (callback of analog watchdog)
 245:Drivers/STM32F3xx_HAL_Driver/Src/stm32f3xx_hal_adc.c ****       (+@) HAL_ADC_ConvCpltCallback()
 246:Drivers/STM32F3xx_HAL_Driver/Src/stm32f3xx_hal_adc.c ****       (+@) HAL_ADC_ConvHalfCpltCallback
 247:Drivers/STM32F3xx_HAL_Driver/Src/stm32f3xx_hal_adc.c ****       (+@) HAL_ADCEx_InjectedConvCpltCallback()
 248:Drivers/STM32F3xx_HAL_Driver/Src/stm32f3xx_hal_adc.c ****       (+@) HAL_ADCEx_InjectedQueueOverflowCallback() (for STM32F30x/STM32F33x devices)
 249:Drivers/STM32F3xx_HAL_Driver/Src/stm32f3xx_hal_adc.c **** 
 250:Drivers/STM32F3xx_HAL_Driver/Src/stm32f3xx_hal_adc.c ****      *** Deinitialization of ADC ***
 251:Drivers/STM32F3xx_HAL_Driver/Src/stm32f3xx_hal_adc.c ****      ============================================================
 252:Drivers/STM32F3xx_HAL_Driver/Src/stm32f3xx_hal_adc.c ****      [..]
 253:Drivers/STM32F3xx_HAL_Driver/Src/stm32f3xx_hal_adc.c **** 
 254:Drivers/STM32F3xx_HAL_Driver/Src/stm32f3xx_hal_adc.c ****     (#) Disable the ADC interface
 255:Drivers/STM32F3xx_HAL_Driver/Src/stm32f3xx_hal_adc.c ****       (++) ADC clock can be hard reset and disabled at RCC top level.
 256:Drivers/STM32F3xx_HAL_Driver/Src/stm32f3xx_hal_adc.c ****         (++) Hard reset of ADC peripherals
 257:Drivers/STM32F3xx_HAL_Driver/Src/stm32f3xx_hal_adc.c ****              using macro __ADCx_FORCE_RESET(), __ADCx_RELEASE_RESET().
ARM GAS  /var/folders/jw/jcj5j9_530958b2rm5vp9wn00000gn/T//cc3bFcpI.s 			page 6


 258:Drivers/STM32F3xx_HAL_Driver/Src/stm32f3xx_hal_adc.c ****         (++) ADC clock disable
 259:Drivers/STM32F3xx_HAL_Driver/Src/stm32f3xx_hal_adc.c ****              using the equivalent macro/functions as configuration step.
 260:Drivers/STM32F3xx_HAL_Driver/Src/stm32f3xx_hal_adc.c **** 
 261:Drivers/STM32F3xx_HAL_Driver/Src/stm32f3xx_hal_adc.c ****         (++) For STM32F30x/STM32F33x devices:
 262:Drivers/STM32F3xx_HAL_Driver/Src/stm32f3xx_hal_adc.c ****            Caution: For devices with several ADCs:
 263:Drivers/STM32F3xx_HAL_Driver/Src/stm32f3xx_hal_adc.c ****            These settings impact both ADC of common group: ADC1&ADC2, ADC3&ADC4
 264:Drivers/STM32F3xx_HAL_Driver/Src/stm32f3xx_hal_adc.c ****            if available (ADC2, ADC3, ADC4 availability depends on STM32 product)
 265:Drivers/STM32F3xx_HAL_Driver/Src/stm32f3xx_hal_adc.c **** 
 266:Drivers/STM32F3xx_HAL_Driver/Src/stm32f3xx_hal_adc.c ****              (+++) For example, in case of device with a single ADC:
 267:Drivers/STM32F3xx_HAL_Driver/Src/stm32f3xx_hal_adc.c ****                    Into HAL_ADC_MspDeInit() (recommended code location) or with
 268:Drivers/STM32F3xx_HAL_Driver/Src/stm32f3xx_hal_adc.c ****                    other device clock parameters configuration:
 269:Drivers/STM32F3xx_HAL_Driver/Src/stm32f3xx_hal_adc.c ****                (+++) __HAL_RCC_ADC1_FORCE_RESET()                           (optional)
 270:Drivers/STM32F3xx_HAL_Driver/Src/stm32f3xx_hal_adc.c ****                (+++) __HAL_RCC_ADC1_RELEASE_RESET()                         (optional)
 271:Drivers/STM32F3xx_HAL_Driver/Src/stm32f3xx_hal_adc.c ****                (+++) __HAL_RCC_ADC1_CLK_DISABLE()                           (mandatory)
 272:Drivers/STM32F3xx_HAL_Driver/Src/stm32f3xx_hal_adc.c ****                (+++) PeriphClkInit.PeriphClockSelection = RCC_PERIPHCLK_ADC (optional, if configure
 273:Drivers/STM32F3xx_HAL_Driver/Src/stm32f3xx_hal_adc.c ****                (+++) PeriphClkInit.Adc1ClockSelection = RCC_ADC1PLLCLK_OFF  (optional, if configure
 274:Drivers/STM32F3xx_HAL_Driver/Src/stm32f3xx_hal_adc.c ****                (+++) HAL_RCCEx_PeriphCLKConfig(&RCC_PeriphClkInitStructure) (optional, if configure
 275:Drivers/STM32F3xx_HAL_Driver/Src/stm32f3xx_hal_adc.c **** 
 276:Drivers/STM32F3xx_HAL_Driver/Src/stm32f3xx_hal_adc.c ****              (+++) For example, in case of device with 4 ADCs:
 277:Drivers/STM32F3xx_HAL_Driver/Src/stm32f3xx_hal_adc.c ****                (+++) if((hadc->Instance == ADC1) || (hadc->Instance == ADC2))   
 278:Drivers/STM32F3xx_HAL_Driver/Src/stm32f3xx_hal_adc.c ****                (+++) {                                                          
 279:Drivers/STM32F3xx_HAL_Driver/Src/stm32f3xx_hal_adc.c ****                (+++)   __HAL_RCC_ADC12_FORCE_RESET()                            (optional)
 280:Drivers/STM32F3xx_HAL_Driver/Src/stm32f3xx_hal_adc.c ****                (+++)   __HAL_RCC_ADC12_RELEASE_RESET()                          (optional)
 281:Drivers/STM32F3xx_HAL_Driver/Src/stm32f3xx_hal_adc.c ****                (+++)   __HAL_RCC_ADC12_CLK_DISABLE()                            (mandatory)
 282:Drivers/STM32F3xx_HAL_Driver/Src/stm32f3xx_hal_adc.c ****                (+++)   PeriphClkInit.PeriphClockSelection = RCC_PERIPHCLK_ADC   (optional, if confi
 283:Drivers/STM32F3xx_HAL_Driver/Src/stm32f3xx_hal_adc.c ****                (+++)   PeriphClkInit.Adc12ClockSelection = RCC_ADC12PLLCLK_OFF  (optional, if confi
 284:Drivers/STM32F3xx_HAL_Driver/Src/stm32f3xx_hal_adc.c ****                (+++)   HAL_RCCEx_PeriphCLKConfig(&RCC_PeriphClkInitStructure)   (optional, if confi
 285:Drivers/STM32F3xx_HAL_Driver/Src/stm32f3xx_hal_adc.c ****                (+++) }                                                          
 286:Drivers/STM32F3xx_HAL_Driver/Src/stm32f3xx_hal_adc.c ****                (+++) else                                                       
 287:Drivers/STM32F3xx_HAL_Driver/Src/stm32f3xx_hal_adc.c ****                (+++) {                                                          
 288:Drivers/STM32F3xx_HAL_Driver/Src/stm32f3xx_hal_adc.c ****                (+++)   __HAL_RCC_ADC32_FORCE_RESET()                            (optional)
 289:Drivers/STM32F3xx_HAL_Driver/Src/stm32f3xx_hal_adc.c ****                (+++)   __HAL_RCC_ADC32_RELEASE_RESET()                          (optional)
 290:Drivers/STM32F3xx_HAL_Driver/Src/stm32f3xx_hal_adc.c ****                (+++)   __HAL_RCC_ADC34_CLK_DISABLE()                            (mandatory)
 291:Drivers/STM32F3xx_HAL_Driver/Src/stm32f3xx_hal_adc.c ****                (+++)   PeriphClkInit.Adc34ClockSelection = RCC_ADC34PLLCLK_OFF  (optional, if confi
 292:Drivers/STM32F3xx_HAL_Driver/Src/stm32f3xx_hal_adc.c ****                (+++)   HAL_RCCEx_PeriphCLKConfig(&RCC_PeriphClkInitStructure)   (optional, if confi
 293:Drivers/STM32F3xx_HAL_Driver/Src/stm32f3xx_hal_adc.c ****                (+++) }                                                          
 294:Drivers/STM32F3xx_HAL_Driver/Src/stm32f3xx_hal_adc.c ****       
 295:Drivers/STM32F3xx_HAL_Driver/Src/stm32f3xx_hal_adc.c ****         (++) For STM32F37x devices:
 296:Drivers/STM32F3xx_HAL_Driver/Src/stm32f3xx_hal_adc.c ****              (+++) Example:
 297:Drivers/STM32F3xx_HAL_Driver/Src/stm32f3xx_hal_adc.c ****                    Into HAL_ADC_MspDeInit() (recommended code location) or with
 298:Drivers/STM32F3xx_HAL_Driver/Src/stm32f3xx_hal_adc.c ****                    other device clock parameters configuration:
 299:Drivers/STM32F3xx_HAL_Driver/Src/stm32f3xx_hal_adc.c ****                (+++) PeriphClkInit.PeriphClockSelection = RCC_PERIPHCLK_ADC
 300:Drivers/STM32F3xx_HAL_Driver/Src/stm32f3xx_hal_adc.c ****                (+++) PeriphClkInit.AdcClockSelection = RCC_ADCPLLCLK_OFF
 301:Drivers/STM32F3xx_HAL_Driver/Src/stm32f3xx_hal_adc.c ****                (+++) HAL_RCCEx_PeriphCLKConfig(&PeriphClkInit)
 302:Drivers/STM32F3xx_HAL_Driver/Src/stm32f3xx_hal_adc.c **** 
 303:Drivers/STM32F3xx_HAL_Driver/Src/stm32f3xx_hal_adc.c ****     (#) ADC pins configuration
 304:Drivers/STM32F3xx_HAL_Driver/Src/stm32f3xx_hal_adc.c ****          (++) Disable the clock for the ADC GPIOs
 305:Drivers/STM32F3xx_HAL_Driver/Src/stm32f3xx_hal_adc.c ****               using macro __HAL_RCC_GPIOx_CLK_DISABLE()
 306:Drivers/STM32F3xx_HAL_Driver/Src/stm32f3xx_hal_adc.c **** 
 307:Drivers/STM32F3xx_HAL_Driver/Src/stm32f3xx_hal_adc.c ****     (#) Optionally, in case of usage of ADC with interruptions:
 308:Drivers/STM32F3xx_HAL_Driver/Src/stm32f3xx_hal_adc.c ****          (++) Disable the NVIC for ADC
 309:Drivers/STM32F3xx_HAL_Driver/Src/stm32f3xx_hal_adc.c ****               using function HAL_NVIC_DisableIRQ(ADCx_IRQn)
 310:Drivers/STM32F3xx_HAL_Driver/Src/stm32f3xx_hal_adc.c **** 
 311:Drivers/STM32F3xx_HAL_Driver/Src/stm32f3xx_hal_adc.c ****     (#) Optionally, in case of usage of DMA:
 312:Drivers/STM32F3xx_HAL_Driver/Src/stm32f3xx_hal_adc.c ****          (++) Deinitialize the DMA
 313:Drivers/STM32F3xx_HAL_Driver/Src/stm32f3xx_hal_adc.c ****               using function HAL_DMA_DeInit().
 314:Drivers/STM32F3xx_HAL_Driver/Src/stm32f3xx_hal_adc.c ****          (++) Disable the NVIC for DMA
ARM GAS  /var/folders/jw/jcj5j9_530958b2rm5vp9wn00000gn/T//cc3bFcpI.s 			page 7


 315:Drivers/STM32F3xx_HAL_Driver/Src/stm32f3xx_hal_adc.c ****               using function HAL_NVIC_DisableIRQ(DMAx_Channelx_IRQn)
 316:Drivers/STM32F3xx_HAL_Driver/Src/stm32f3xx_hal_adc.c **** 
 317:Drivers/STM32F3xx_HAL_Driver/Src/stm32f3xx_hal_adc.c ****     [..]
 318:Drivers/STM32F3xx_HAL_Driver/Src/stm32f3xx_hal_adc.c ****     
 319:Drivers/STM32F3xx_HAL_Driver/Src/stm32f3xx_hal_adc.c ****     *** Callback registration ***
 320:Drivers/STM32F3xx_HAL_Driver/Src/stm32f3xx_hal_adc.c ****     =============================================
 321:Drivers/STM32F3xx_HAL_Driver/Src/stm32f3xx_hal_adc.c ****     [..]
 322:Drivers/STM32F3xx_HAL_Driver/Src/stm32f3xx_hal_adc.c **** 
 323:Drivers/STM32F3xx_HAL_Driver/Src/stm32f3xx_hal_adc.c ****      The compilation flag USE_HAL_ADC_REGISTER_CALLBACKS, when set to 1,
 324:Drivers/STM32F3xx_HAL_Driver/Src/stm32f3xx_hal_adc.c ****      allows the user to configure dynamically the driver callbacks.
 325:Drivers/STM32F3xx_HAL_Driver/Src/stm32f3xx_hal_adc.c ****      Use Functions @ref HAL_ADC_RegisterCallback()
 326:Drivers/STM32F3xx_HAL_Driver/Src/stm32f3xx_hal_adc.c ****      to register an interrupt callback.
 327:Drivers/STM32F3xx_HAL_Driver/Src/stm32f3xx_hal_adc.c ****     [..]
 328:Drivers/STM32F3xx_HAL_Driver/Src/stm32f3xx_hal_adc.c **** 
 329:Drivers/STM32F3xx_HAL_Driver/Src/stm32f3xx_hal_adc.c ****      Function @ref HAL_ADC_RegisterCallback() allows to register following callbacks:
 330:Drivers/STM32F3xx_HAL_Driver/Src/stm32f3xx_hal_adc.c ****        (+) ConvCpltCallback               : ADC conversion complete callback
 331:Drivers/STM32F3xx_HAL_Driver/Src/stm32f3xx_hal_adc.c ****        (+) ConvHalfCpltCallback           : ADC conversion DMA half-transfer callback
 332:Drivers/STM32F3xx_HAL_Driver/Src/stm32f3xx_hal_adc.c ****        (+) LevelOutOfWindowCallback       : ADC analog watchdog 1 callback
 333:Drivers/STM32F3xx_HAL_Driver/Src/stm32f3xx_hal_adc.c ****        (+) ErrorCallback                  : ADC error callback
 334:Drivers/STM32F3xx_HAL_Driver/Src/stm32f3xx_hal_adc.c ****        (+) InjectedConvCpltCallback       : ADC group injected conversion complete callback
 335:Drivers/STM32F3xx_HAL_Driver/Src/stm32f3xx_hal_adc.c ****        (+) MspInitCallback                : ADC Msp Init callback
 336:Drivers/STM32F3xx_HAL_Driver/Src/stm32f3xx_hal_adc.c ****        (+) MspDeInitCallback              : ADC Msp DeInit callback
 337:Drivers/STM32F3xx_HAL_Driver/Src/stm32f3xx_hal_adc.c ****      This function takes as parameters the HAL peripheral handle, the Callback ID
 338:Drivers/STM32F3xx_HAL_Driver/Src/stm32f3xx_hal_adc.c ****      and a pointer to the user callback function.
 339:Drivers/STM32F3xx_HAL_Driver/Src/stm32f3xx_hal_adc.c ****     [..]
 340:Drivers/STM32F3xx_HAL_Driver/Src/stm32f3xx_hal_adc.c **** 
 341:Drivers/STM32F3xx_HAL_Driver/Src/stm32f3xx_hal_adc.c ****      Use function @ref HAL_ADC_UnRegisterCallback to reset a callback to the default
 342:Drivers/STM32F3xx_HAL_Driver/Src/stm32f3xx_hal_adc.c ****      weak function.
 343:Drivers/STM32F3xx_HAL_Driver/Src/stm32f3xx_hal_adc.c ****     [..]
 344:Drivers/STM32F3xx_HAL_Driver/Src/stm32f3xx_hal_adc.c **** 
 345:Drivers/STM32F3xx_HAL_Driver/Src/stm32f3xx_hal_adc.c ****      @ref HAL_ADC_UnRegisterCallback takes as parameters the HAL peripheral handle,
 346:Drivers/STM32F3xx_HAL_Driver/Src/stm32f3xx_hal_adc.c ****      and the Callback ID.
 347:Drivers/STM32F3xx_HAL_Driver/Src/stm32f3xx_hal_adc.c ****      This function allows to reset following callbacks:
 348:Drivers/STM32F3xx_HAL_Driver/Src/stm32f3xx_hal_adc.c ****        (+) ConvCpltCallback               : ADC conversion complete callback
 349:Drivers/STM32F3xx_HAL_Driver/Src/stm32f3xx_hal_adc.c ****        (+) ConvHalfCpltCallback           : ADC conversion DMA half-transfer callback
 350:Drivers/STM32F3xx_HAL_Driver/Src/stm32f3xx_hal_adc.c ****        (+) LevelOutOfWindowCallback       : ADC analog watchdog 1 callback
 351:Drivers/STM32F3xx_HAL_Driver/Src/stm32f3xx_hal_adc.c ****        (+) ErrorCallback                  : ADC error callback
 352:Drivers/STM32F3xx_HAL_Driver/Src/stm32f3xx_hal_adc.c ****        (+) InjectedConvCpltCallback       : ADC group injected conversion complete callback
 353:Drivers/STM32F3xx_HAL_Driver/Src/stm32f3xx_hal_adc.c ****        (+) MspInitCallback                : ADC Msp Init callback
 354:Drivers/STM32F3xx_HAL_Driver/Src/stm32f3xx_hal_adc.c ****        (+) MspDeInitCallback              : ADC Msp DeInit callback
 355:Drivers/STM32F3xx_HAL_Driver/Src/stm32f3xx_hal_adc.c ****      [..]
 356:Drivers/STM32F3xx_HAL_Driver/Src/stm32f3xx_hal_adc.c **** 
 357:Drivers/STM32F3xx_HAL_Driver/Src/stm32f3xx_hal_adc.c ****      By default, after the @ref HAL_ADC_Init() and when the state is @ref HAL_ADC_STATE_RESET
 358:Drivers/STM32F3xx_HAL_Driver/Src/stm32f3xx_hal_adc.c ****      all callbacks are set to the corresponding weak functions:
 359:Drivers/STM32F3xx_HAL_Driver/Src/stm32f3xx_hal_adc.c ****      examples @ref HAL_ADC_ConvCpltCallback(), @ref HAL_ADC_ErrorCallback().
 360:Drivers/STM32F3xx_HAL_Driver/Src/stm32f3xx_hal_adc.c ****      Exception done for MspInit and MspDeInit functions that are
 361:Drivers/STM32F3xx_HAL_Driver/Src/stm32f3xx_hal_adc.c ****      reset to the legacy weak functions in the @ref HAL_ADC_Init()/ @ref HAL_ADC_DeInit() only when
 362:Drivers/STM32F3xx_HAL_Driver/Src/stm32f3xx_hal_adc.c ****      these callbacks are null (not registered beforehand).
 363:Drivers/STM32F3xx_HAL_Driver/Src/stm32f3xx_hal_adc.c ****     [..]
 364:Drivers/STM32F3xx_HAL_Driver/Src/stm32f3xx_hal_adc.c **** 
 365:Drivers/STM32F3xx_HAL_Driver/Src/stm32f3xx_hal_adc.c ****      If MspInit or MspDeInit are not null, the @ref HAL_ADC_Init()/ @ref HAL_ADC_DeInit()
 366:Drivers/STM32F3xx_HAL_Driver/Src/stm32f3xx_hal_adc.c ****      keep and use the user MspInit/MspDeInit callbacks (registered beforehand) whatever the state.
 367:Drivers/STM32F3xx_HAL_Driver/Src/stm32f3xx_hal_adc.c ****      [..]
 368:Drivers/STM32F3xx_HAL_Driver/Src/stm32f3xx_hal_adc.c **** 
 369:Drivers/STM32F3xx_HAL_Driver/Src/stm32f3xx_hal_adc.c ****      Callbacks can be registered/unregistered in @ref HAL_ADC_STATE_READY state only.
 370:Drivers/STM32F3xx_HAL_Driver/Src/stm32f3xx_hal_adc.c ****      Exception done MspInit/MspDeInit functions that can be registered/unregistered
 371:Drivers/STM32F3xx_HAL_Driver/Src/stm32f3xx_hal_adc.c ****      in @ref HAL_ADC_STATE_READY or @ref HAL_ADC_STATE_RESET state,
ARM GAS  /var/folders/jw/jcj5j9_530958b2rm5vp9wn00000gn/T//cc3bFcpI.s 			page 8


 372:Drivers/STM32F3xx_HAL_Driver/Src/stm32f3xx_hal_adc.c ****      thus registered (user) MspInit/DeInit callbacks can be used during the Init/DeInit.
 373:Drivers/STM32F3xx_HAL_Driver/Src/stm32f3xx_hal_adc.c ****     [..]
 374:Drivers/STM32F3xx_HAL_Driver/Src/stm32f3xx_hal_adc.c **** 
 375:Drivers/STM32F3xx_HAL_Driver/Src/stm32f3xx_hal_adc.c ****      Then, the user first registers the MspInit/MspDeInit user callbacks
 376:Drivers/STM32F3xx_HAL_Driver/Src/stm32f3xx_hal_adc.c ****      using @ref HAL_ADC_RegisterCallback() before calling @ref HAL_ADC_DeInit()
 377:Drivers/STM32F3xx_HAL_Driver/Src/stm32f3xx_hal_adc.c ****      or @ref HAL_ADC_Init() function.
 378:Drivers/STM32F3xx_HAL_Driver/Src/stm32f3xx_hal_adc.c ****      [..]
 379:Drivers/STM32F3xx_HAL_Driver/Src/stm32f3xx_hal_adc.c **** 
 380:Drivers/STM32F3xx_HAL_Driver/Src/stm32f3xx_hal_adc.c ****      When the compilation flag USE_HAL_ADC_REGISTER_CALLBACKS is set to 0 or
 381:Drivers/STM32F3xx_HAL_Driver/Src/stm32f3xx_hal_adc.c ****      not defined, the callback registration feature is not available and all callbacks
 382:Drivers/STM32F3xx_HAL_Driver/Src/stm32f3xx_hal_adc.c ****      are set to the corresponding weak functions.
 383:Drivers/STM32F3xx_HAL_Driver/Src/stm32f3xx_hal_adc.c ****   
 384:Drivers/STM32F3xx_HAL_Driver/Src/stm32f3xx_hal_adc.c ****     @endverbatim
 385:Drivers/STM32F3xx_HAL_Driver/Src/stm32f3xx_hal_adc.c ****   ******************************************************************************
 386:Drivers/STM32F3xx_HAL_Driver/Src/stm32f3xx_hal_adc.c ****   * @attention
 387:Drivers/STM32F3xx_HAL_Driver/Src/stm32f3xx_hal_adc.c ****   *
 388:Drivers/STM32F3xx_HAL_Driver/Src/stm32f3xx_hal_adc.c ****   * <h2><center>&copy; Copyright (c) 2016 STMicroelectronics.
 389:Drivers/STM32F3xx_HAL_Driver/Src/stm32f3xx_hal_adc.c ****   * All rights reserved.</center></h2>
 390:Drivers/STM32F3xx_HAL_Driver/Src/stm32f3xx_hal_adc.c ****   *
 391:Drivers/STM32F3xx_HAL_Driver/Src/stm32f3xx_hal_adc.c ****   * This software component is licensed by ST under BSD 3-Clause license,
 392:Drivers/STM32F3xx_HAL_Driver/Src/stm32f3xx_hal_adc.c ****   * the "License"; You may not use this file except in compliance with the
 393:Drivers/STM32F3xx_HAL_Driver/Src/stm32f3xx_hal_adc.c ****   * License. You may obtain a copy of the License at:
 394:Drivers/STM32F3xx_HAL_Driver/Src/stm32f3xx_hal_adc.c ****   *                        opensource.org/licenses/BSD-3-Clause
 395:Drivers/STM32F3xx_HAL_Driver/Src/stm32f3xx_hal_adc.c ****   *
 396:Drivers/STM32F3xx_HAL_Driver/Src/stm32f3xx_hal_adc.c ****   ******************************************************************************
 397:Drivers/STM32F3xx_HAL_Driver/Src/stm32f3xx_hal_adc.c ****   */
 398:Drivers/STM32F3xx_HAL_Driver/Src/stm32f3xx_hal_adc.c **** 
 399:Drivers/STM32F3xx_HAL_Driver/Src/stm32f3xx_hal_adc.c **** /* Includes ------------------------------------------------------------------*/
 400:Drivers/STM32F3xx_HAL_Driver/Src/stm32f3xx_hal_adc.c **** #include "stm32f3xx_hal.h"
 401:Drivers/STM32F3xx_HAL_Driver/Src/stm32f3xx_hal_adc.c **** 
 402:Drivers/STM32F3xx_HAL_Driver/Src/stm32f3xx_hal_adc.c **** /** @addtogroup STM32F3xx_HAL_Driver
 403:Drivers/STM32F3xx_HAL_Driver/Src/stm32f3xx_hal_adc.c ****   * @{
 404:Drivers/STM32F3xx_HAL_Driver/Src/stm32f3xx_hal_adc.c ****   */
 405:Drivers/STM32F3xx_HAL_Driver/Src/stm32f3xx_hal_adc.c **** 
 406:Drivers/STM32F3xx_HAL_Driver/Src/stm32f3xx_hal_adc.c **** /** @defgroup ADC ADC
 407:Drivers/STM32F3xx_HAL_Driver/Src/stm32f3xx_hal_adc.c ****   * @brief ADC HAL module driver
 408:Drivers/STM32F3xx_HAL_Driver/Src/stm32f3xx_hal_adc.c ****   * @{
 409:Drivers/STM32F3xx_HAL_Driver/Src/stm32f3xx_hal_adc.c ****   */
 410:Drivers/STM32F3xx_HAL_Driver/Src/stm32f3xx_hal_adc.c **** 
 411:Drivers/STM32F3xx_HAL_Driver/Src/stm32f3xx_hal_adc.c **** #ifdef HAL_ADC_MODULE_ENABLED
 412:Drivers/STM32F3xx_HAL_Driver/Src/stm32f3xx_hal_adc.c ****     
 413:Drivers/STM32F3xx_HAL_Driver/Src/stm32f3xx_hal_adc.c **** /* Private typedef -----------------------------------------------------------*/
 414:Drivers/STM32F3xx_HAL_Driver/Src/stm32f3xx_hal_adc.c **** /* Private define ------------------------------------------------------------*/
 415:Drivers/STM32F3xx_HAL_Driver/Src/stm32f3xx_hal_adc.c **** /* Private macro -------------------------------------------------------------*/
 416:Drivers/STM32F3xx_HAL_Driver/Src/stm32f3xx_hal_adc.c **** /* Private variables ---------------------------------------------------------*/
 417:Drivers/STM32F3xx_HAL_Driver/Src/stm32f3xx_hal_adc.c **** /* Private function prototypes -----------------------------------------------*/
 418:Drivers/STM32F3xx_HAL_Driver/Src/stm32f3xx_hal_adc.c **** /* Exported functions --------------------------------------------------------*/
 419:Drivers/STM32F3xx_HAL_Driver/Src/stm32f3xx_hal_adc.c **** 
 420:Drivers/STM32F3xx_HAL_Driver/Src/stm32f3xx_hal_adc.c **** /** @defgroup ADC_Exported_Functions ADC Exported Functions
 421:Drivers/STM32F3xx_HAL_Driver/Src/stm32f3xx_hal_adc.c ****   * @{
 422:Drivers/STM32F3xx_HAL_Driver/Src/stm32f3xx_hal_adc.c ****   */ 
 423:Drivers/STM32F3xx_HAL_Driver/Src/stm32f3xx_hal_adc.c **** 
 424:Drivers/STM32F3xx_HAL_Driver/Src/stm32f3xx_hal_adc.c **** /** @defgroup ADC_Exported_Functions_Group1 Initialization and de-initialization functions
 425:Drivers/STM32F3xx_HAL_Driver/Src/stm32f3xx_hal_adc.c ****  *  @brief    Initialization and Configuration functions 
 426:Drivers/STM32F3xx_HAL_Driver/Src/stm32f3xx_hal_adc.c ****  *
 427:Drivers/STM32F3xx_HAL_Driver/Src/stm32f3xx_hal_adc.c **** @verbatim    
 428:Drivers/STM32F3xx_HAL_Driver/Src/stm32f3xx_hal_adc.c ****  ===============================================================================
ARM GAS  /var/folders/jw/jcj5j9_530958b2rm5vp9wn00000gn/T//cc3bFcpI.s 			page 9


 429:Drivers/STM32F3xx_HAL_Driver/Src/stm32f3xx_hal_adc.c ****               ##### Initialization and de-initialization functions #####
 430:Drivers/STM32F3xx_HAL_Driver/Src/stm32f3xx_hal_adc.c ****  ===============================================================================
 431:Drivers/STM32F3xx_HAL_Driver/Src/stm32f3xx_hal_adc.c ****     [..]  This section provides functions allowing to:
 432:Drivers/STM32F3xx_HAL_Driver/Src/stm32f3xx_hal_adc.c ****       (+) Initialize and configure the ADC. 
 433:Drivers/STM32F3xx_HAL_Driver/Src/stm32f3xx_hal_adc.c ****       (+) De-initialize the ADC. 
 434:Drivers/STM32F3xx_HAL_Driver/Src/stm32f3xx_hal_adc.c ****          
 435:Drivers/STM32F3xx_HAL_Driver/Src/stm32f3xx_hal_adc.c **** @endverbatim
 436:Drivers/STM32F3xx_HAL_Driver/Src/stm32f3xx_hal_adc.c ****   * @{
 437:Drivers/STM32F3xx_HAL_Driver/Src/stm32f3xx_hal_adc.c ****   */
 438:Drivers/STM32F3xx_HAL_Driver/Src/stm32f3xx_hal_adc.c **** 
 439:Drivers/STM32F3xx_HAL_Driver/Src/stm32f3xx_hal_adc.c **** /**
 440:Drivers/STM32F3xx_HAL_Driver/Src/stm32f3xx_hal_adc.c ****   * @brief  Initializes the ADC peripheral and regular group according to  
 441:Drivers/STM32F3xx_HAL_Driver/Src/stm32f3xx_hal_adc.c ****   *         parameters specified in structure "ADC_InitTypeDef".
 442:Drivers/STM32F3xx_HAL_Driver/Src/stm32f3xx_hal_adc.c ****   * @note   As prerequisite, ADC clock must be configured at RCC top level
 443:Drivers/STM32F3xx_HAL_Driver/Src/stm32f3xx_hal_adc.c ****   *         depending on both possible clock sources: PLL clock or AHB clock.
 444:Drivers/STM32F3xx_HAL_Driver/Src/stm32f3xx_hal_adc.c ****   *         See commented example code below that can be copied and uncommented 
 445:Drivers/STM32F3xx_HAL_Driver/Src/stm32f3xx_hal_adc.c ****   *         into HAL_ADC_MspInit().
 446:Drivers/STM32F3xx_HAL_Driver/Src/stm32f3xx_hal_adc.c ****   * @note   Possibility to update parameters on the fly:
 447:Drivers/STM32F3xx_HAL_Driver/Src/stm32f3xx_hal_adc.c ****   *         This function initializes the ADC MSP (HAL_ADC_MspInit()) only when
 448:Drivers/STM32F3xx_HAL_Driver/Src/stm32f3xx_hal_adc.c ****   *         coming from ADC state reset. Following calls to this function can
 449:Drivers/STM32F3xx_HAL_Driver/Src/stm32f3xx_hal_adc.c ****   *         be used to reconfigure some parameters of ADC_InitTypeDef  
 450:Drivers/STM32F3xx_HAL_Driver/Src/stm32f3xx_hal_adc.c ****   *         structure on the fly, without modifying MSP configuration. If ADC  
 451:Drivers/STM32F3xx_HAL_Driver/Src/stm32f3xx_hal_adc.c ****   *         MSP has to be modified again, HAL_ADC_DeInit() must be called
 452:Drivers/STM32F3xx_HAL_Driver/Src/stm32f3xx_hal_adc.c ****   *         before HAL_ADC_Init().
 453:Drivers/STM32F3xx_HAL_Driver/Src/stm32f3xx_hal_adc.c ****   *         The setting of these parameters is conditioned to ADC state.
 454:Drivers/STM32F3xx_HAL_Driver/Src/stm32f3xx_hal_adc.c ****   *         For parameters constraints, see comments of structure 
 455:Drivers/STM32F3xx_HAL_Driver/Src/stm32f3xx_hal_adc.c ****   *         "ADC_InitTypeDef".
 456:Drivers/STM32F3xx_HAL_Driver/Src/stm32f3xx_hal_adc.c ****   * @note   This function configures the ADC within 2 scopes: scope of entire 
 457:Drivers/STM32F3xx_HAL_Driver/Src/stm32f3xx_hal_adc.c ****   *         ADC and scope of regular group. For parameters details, see comments 
 458:Drivers/STM32F3xx_HAL_Driver/Src/stm32f3xx_hal_adc.c ****   *         of structure "ADC_InitTypeDef".
 459:Drivers/STM32F3xx_HAL_Driver/Src/stm32f3xx_hal_adc.c ****   * @note   For devices with several ADCs: parameters related to common ADC 
 460:Drivers/STM32F3xx_HAL_Driver/Src/stm32f3xx_hal_adc.c ****   *         registers (ADC clock mode) are set only if all ADCs sharing the
 461:Drivers/STM32F3xx_HAL_Driver/Src/stm32f3xx_hal_adc.c ****   *         same common group are disabled.
 462:Drivers/STM32F3xx_HAL_Driver/Src/stm32f3xx_hal_adc.c ****   *         If this is not the case, these common parameters setting are  
 463:Drivers/STM32F3xx_HAL_Driver/Src/stm32f3xx_hal_adc.c ****   *         bypassed without error reporting: it can be the intended behaviour in
 464:Drivers/STM32F3xx_HAL_Driver/Src/stm32f3xx_hal_adc.c ****   *         case of update of a parameter of ADC_InitTypeDef on the fly,
 465:Drivers/STM32F3xx_HAL_Driver/Src/stm32f3xx_hal_adc.c ****   *         without  disabling the other ADCs sharing the same common group.
 466:Drivers/STM32F3xx_HAL_Driver/Src/stm32f3xx_hal_adc.c ****   * @param  hadc ADC handle
 467:Drivers/STM32F3xx_HAL_Driver/Src/stm32f3xx_hal_adc.c ****   * @retval HAL status
 468:Drivers/STM32F3xx_HAL_Driver/Src/stm32f3xx_hal_adc.c ****   */
 469:Drivers/STM32F3xx_HAL_Driver/Src/stm32f3xx_hal_adc.c **** __weak HAL_StatusTypeDef HAL_ADC_Init(ADC_HandleTypeDef* hadc)
 470:Drivers/STM32F3xx_HAL_Driver/Src/stm32f3xx_hal_adc.c **** {
  30              		.loc 1 470 1 view -0
  31              		.cfi_startproc
  32              		@ args = 0, pretend = 0, frame = 0
  33              		@ frame_needed = 0, uses_anonymous_args = 0
  34              		@ link register save eliminated.
 471:Drivers/STM32F3xx_HAL_Driver/Src/stm32f3xx_hal_adc.c ****   /* Prevent unused argument(s) compilation warning */
 472:Drivers/STM32F3xx_HAL_Driver/Src/stm32f3xx_hal_adc.c ****   UNUSED(hadc);
  35              		.loc 1 472 3 view .LVU1
 473:Drivers/STM32F3xx_HAL_Driver/Src/stm32f3xx_hal_adc.c **** 
 474:Drivers/STM32F3xx_HAL_Driver/Src/stm32f3xx_hal_adc.c ****   /* Note : This function is defined into this file for library reference. */
 475:Drivers/STM32F3xx_HAL_Driver/Src/stm32f3xx_hal_adc.c ****   /*        Function content is located into file stm32f3xx_hal_adc_ex.c   */
 476:Drivers/STM32F3xx_HAL_Driver/Src/stm32f3xx_hal_adc.c ****   
 477:Drivers/STM32F3xx_HAL_Driver/Src/stm32f3xx_hal_adc.c ****   /* Return function status */
 478:Drivers/STM32F3xx_HAL_Driver/Src/stm32f3xx_hal_adc.c ****   return HAL_ERROR;
  36              		.loc 1 478 3 view .LVU2
ARM GAS  /var/folders/jw/jcj5j9_530958b2rm5vp9wn00000gn/T//cc3bFcpI.s 			page 10


 479:Drivers/STM32F3xx_HAL_Driver/Src/stm32f3xx_hal_adc.c **** }
  37              		.loc 1 479 1 is_stmt 0 view .LVU3
  38 0000 0120     		movs	r0, #1
  39              	.LVL1:
  40              		.loc 1 479 1 view .LVU4
  41 0002 7047     		bx	lr
  42              		.cfi_endproc
  43              	.LFE130:
  45              		.section	.text.HAL_ADC_DeInit,"ax",%progbits
  46              		.align	1
  47              		.weak	HAL_ADC_DeInit
  48              		.syntax unified
  49              		.thumb
  50              		.thumb_func
  51              		.fpu fpv4-sp-d16
  53              	HAL_ADC_DeInit:
  54              	.LVL2:
  55              	.LFB131:
 480:Drivers/STM32F3xx_HAL_Driver/Src/stm32f3xx_hal_adc.c **** 
 481:Drivers/STM32F3xx_HAL_Driver/Src/stm32f3xx_hal_adc.c **** /**
 482:Drivers/STM32F3xx_HAL_Driver/Src/stm32f3xx_hal_adc.c ****   * @brief  Deinitialize the ADC peripheral registers to their default reset
 483:Drivers/STM32F3xx_HAL_Driver/Src/stm32f3xx_hal_adc.c ****   *         values, with deinitialization of the ADC MSP.
 484:Drivers/STM32F3xx_HAL_Driver/Src/stm32f3xx_hal_adc.c ****   * @note   For devices with several ADCs: reset of ADC common registers is done 
 485:Drivers/STM32F3xx_HAL_Driver/Src/stm32f3xx_hal_adc.c ****   *         only if all ADCs sharing the same common group are disabled.
 486:Drivers/STM32F3xx_HAL_Driver/Src/stm32f3xx_hal_adc.c ****   *         If this is not the case, reset of these common parameters reset is  
 487:Drivers/STM32F3xx_HAL_Driver/Src/stm32f3xx_hal_adc.c ****   *         bypassed without error reporting: it can be the intended behaviour in
 488:Drivers/STM32F3xx_HAL_Driver/Src/stm32f3xx_hal_adc.c ****   *         case of reset of a single ADC while the other ADCs sharing the same 
 489:Drivers/STM32F3xx_HAL_Driver/Src/stm32f3xx_hal_adc.c ****   *         common group is still running.
 490:Drivers/STM32F3xx_HAL_Driver/Src/stm32f3xx_hal_adc.c ****   * @note   For devices with several ADCs: Global reset of all ADCs sharing a
 491:Drivers/STM32F3xx_HAL_Driver/Src/stm32f3xx_hal_adc.c ****   *         common group is possible.
 492:Drivers/STM32F3xx_HAL_Driver/Src/stm32f3xx_hal_adc.c ****   *         As this function is intended to reset a single ADC, to not impact 
 493:Drivers/STM32F3xx_HAL_Driver/Src/stm32f3xx_hal_adc.c ****   *         other ADCs, instructions for global reset of multiple ADCs have been
 494:Drivers/STM32F3xx_HAL_Driver/Src/stm32f3xx_hal_adc.c ****   *         let commented below.
 495:Drivers/STM32F3xx_HAL_Driver/Src/stm32f3xx_hal_adc.c ****   *         If needed, the example code can be copied and uncommented into
 496:Drivers/STM32F3xx_HAL_Driver/Src/stm32f3xx_hal_adc.c ****   *         function HAL_ADC_MspDeInit().
 497:Drivers/STM32F3xx_HAL_Driver/Src/stm32f3xx_hal_adc.c ****   * @param  hadc ADC handle
 498:Drivers/STM32F3xx_HAL_Driver/Src/stm32f3xx_hal_adc.c ****   * @retval HAL status
 499:Drivers/STM32F3xx_HAL_Driver/Src/stm32f3xx_hal_adc.c ****   */
 500:Drivers/STM32F3xx_HAL_Driver/Src/stm32f3xx_hal_adc.c **** __weak HAL_StatusTypeDef HAL_ADC_DeInit(ADC_HandleTypeDef* hadc)
 501:Drivers/STM32F3xx_HAL_Driver/Src/stm32f3xx_hal_adc.c **** {
  56              		.loc 1 501 1 is_stmt 1 view -0
  57              		.cfi_startproc
  58              		@ args = 0, pretend = 0, frame = 0
  59              		@ frame_needed = 0, uses_anonymous_args = 0
  60              		@ link register save eliminated.
 502:Drivers/STM32F3xx_HAL_Driver/Src/stm32f3xx_hal_adc.c ****   /* Prevent unused argument(s) compilation warning */
 503:Drivers/STM32F3xx_HAL_Driver/Src/stm32f3xx_hal_adc.c ****   UNUSED(hadc);
  61              		.loc 1 503 3 view .LVU6
 504:Drivers/STM32F3xx_HAL_Driver/Src/stm32f3xx_hal_adc.c **** 
 505:Drivers/STM32F3xx_HAL_Driver/Src/stm32f3xx_hal_adc.c ****   /* Note : This function is defined into this file for library reference. */
 506:Drivers/STM32F3xx_HAL_Driver/Src/stm32f3xx_hal_adc.c ****   /*        Function content is located into file stm32f3xx_hal_adc_ex.c   */
 507:Drivers/STM32F3xx_HAL_Driver/Src/stm32f3xx_hal_adc.c ****   
 508:Drivers/STM32F3xx_HAL_Driver/Src/stm32f3xx_hal_adc.c ****   /* Return function status */
 509:Drivers/STM32F3xx_HAL_Driver/Src/stm32f3xx_hal_adc.c ****   return HAL_ERROR;
  62              		.loc 1 509 3 view .LVU7
 510:Drivers/STM32F3xx_HAL_Driver/Src/stm32f3xx_hal_adc.c **** }
  63              		.loc 1 510 1 is_stmt 0 view .LVU8
ARM GAS  /var/folders/jw/jcj5j9_530958b2rm5vp9wn00000gn/T//cc3bFcpI.s 			page 11


  64 0000 0120     		movs	r0, #1
  65              	.LVL3:
  66              		.loc 1 510 1 view .LVU9
  67 0002 7047     		bx	lr
  68              		.cfi_endproc
  69              	.LFE131:
  71              		.section	.text.HAL_ADC_MspInit,"ax",%progbits
  72              		.align	1
  73              		.weak	HAL_ADC_MspInit
  74              		.syntax unified
  75              		.thumb
  76              		.thumb_func
  77              		.fpu fpv4-sp-d16
  79              	HAL_ADC_MspInit:
  80              	.LVL4:
  81              	.LFB132:
 511:Drivers/STM32F3xx_HAL_Driver/Src/stm32f3xx_hal_adc.c ****     
 512:Drivers/STM32F3xx_HAL_Driver/Src/stm32f3xx_hal_adc.c **** /**
 513:Drivers/STM32F3xx_HAL_Driver/Src/stm32f3xx_hal_adc.c ****   * @brief  Initializes the ADC MSP.
 514:Drivers/STM32F3xx_HAL_Driver/Src/stm32f3xx_hal_adc.c ****   * @param  hadc ADC handle
 515:Drivers/STM32F3xx_HAL_Driver/Src/stm32f3xx_hal_adc.c ****   * @retval None
 516:Drivers/STM32F3xx_HAL_Driver/Src/stm32f3xx_hal_adc.c ****   */
 517:Drivers/STM32F3xx_HAL_Driver/Src/stm32f3xx_hal_adc.c **** __weak void HAL_ADC_MspInit(ADC_HandleTypeDef* hadc)
 518:Drivers/STM32F3xx_HAL_Driver/Src/stm32f3xx_hal_adc.c **** {
  82              		.loc 1 518 1 is_stmt 1 view -0
  83              		.cfi_startproc
  84              		@ args = 0, pretend = 0, frame = 0
  85              		@ frame_needed = 0, uses_anonymous_args = 0
  86              		@ link register save eliminated.
 519:Drivers/STM32F3xx_HAL_Driver/Src/stm32f3xx_hal_adc.c ****   /* Prevent unused argument(s) compilation warning */
 520:Drivers/STM32F3xx_HAL_Driver/Src/stm32f3xx_hal_adc.c ****   UNUSED(hadc);
  87              		.loc 1 520 3 view .LVU11
 521:Drivers/STM32F3xx_HAL_Driver/Src/stm32f3xx_hal_adc.c **** 
 522:Drivers/STM32F3xx_HAL_Driver/Src/stm32f3xx_hal_adc.c ****   /* NOTE : This function should not be modified. When the callback is needed,
 523:Drivers/STM32F3xx_HAL_Driver/Src/stm32f3xx_hal_adc.c ****             function HAL_ADC_MspInit must be implemented in the user file.
 524:Drivers/STM32F3xx_HAL_Driver/Src/stm32f3xx_hal_adc.c ****    */ 
 525:Drivers/STM32F3xx_HAL_Driver/Src/stm32f3xx_hal_adc.c **** }
  88              		.loc 1 525 1 is_stmt 0 view .LVU12
  89 0000 7047     		bx	lr
  90              		.cfi_endproc
  91              	.LFE132:
  93              		.section	.text.HAL_ADC_MspDeInit,"ax",%progbits
  94              		.align	1
  95              		.weak	HAL_ADC_MspDeInit
  96              		.syntax unified
  97              		.thumb
  98              		.thumb_func
  99              		.fpu fpv4-sp-d16
 101              	HAL_ADC_MspDeInit:
 102              	.LVL5:
 103              	.LFB133:
 526:Drivers/STM32F3xx_HAL_Driver/Src/stm32f3xx_hal_adc.c **** 
 527:Drivers/STM32F3xx_HAL_Driver/Src/stm32f3xx_hal_adc.c **** /**
 528:Drivers/STM32F3xx_HAL_Driver/Src/stm32f3xx_hal_adc.c ****   * @brief  DeInitializes the ADC MSP.
 529:Drivers/STM32F3xx_HAL_Driver/Src/stm32f3xx_hal_adc.c ****   * @param  hadc ADC handle
 530:Drivers/STM32F3xx_HAL_Driver/Src/stm32f3xx_hal_adc.c ****   * @retval None
 531:Drivers/STM32F3xx_HAL_Driver/Src/stm32f3xx_hal_adc.c ****   */
ARM GAS  /var/folders/jw/jcj5j9_530958b2rm5vp9wn00000gn/T//cc3bFcpI.s 			page 12


 532:Drivers/STM32F3xx_HAL_Driver/Src/stm32f3xx_hal_adc.c **** __weak void HAL_ADC_MspDeInit(ADC_HandleTypeDef* hadc)
 533:Drivers/STM32F3xx_HAL_Driver/Src/stm32f3xx_hal_adc.c **** {
 104              		.loc 1 533 1 is_stmt 1 view -0
 105              		.cfi_startproc
 106              		@ args = 0, pretend = 0, frame = 0
 107              		@ frame_needed = 0, uses_anonymous_args = 0
 108              		@ link register save eliminated.
 534:Drivers/STM32F3xx_HAL_Driver/Src/stm32f3xx_hal_adc.c ****   /* Prevent unused argument(s) compilation warning */
 535:Drivers/STM32F3xx_HAL_Driver/Src/stm32f3xx_hal_adc.c ****   UNUSED(hadc);
 109              		.loc 1 535 3 view .LVU14
 536:Drivers/STM32F3xx_HAL_Driver/Src/stm32f3xx_hal_adc.c **** 
 537:Drivers/STM32F3xx_HAL_Driver/Src/stm32f3xx_hal_adc.c ****   /* NOTE : This function should not be modified. When the callback is needed,
 538:Drivers/STM32F3xx_HAL_Driver/Src/stm32f3xx_hal_adc.c ****             function HAL_ADC_MspDeInit must be implemented in the user file.
 539:Drivers/STM32F3xx_HAL_Driver/Src/stm32f3xx_hal_adc.c ****    */ 
 540:Drivers/STM32F3xx_HAL_Driver/Src/stm32f3xx_hal_adc.c **** }
 110              		.loc 1 540 1 is_stmt 0 view .LVU15
 111 0000 7047     		bx	lr
 112              		.cfi_endproc
 113              	.LFE133:
 115              		.section	.text.HAL_ADC_Start,"ax",%progbits
 116              		.align	1
 117              		.weak	HAL_ADC_Start
 118              		.syntax unified
 119              		.thumb
 120              		.thumb_func
 121              		.fpu fpv4-sp-d16
 123              	HAL_ADC_Start:
 124              	.LVL6:
 125              	.LFB134:
 541:Drivers/STM32F3xx_HAL_Driver/Src/stm32f3xx_hal_adc.c **** 
 542:Drivers/STM32F3xx_HAL_Driver/Src/stm32f3xx_hal_adc.c **** #if (USE_HAL_ADC_REGISTER_CALLBACKS == 1)
 543:Drivers/STM32F3xx_HAL_Driver/Src/stm32f3xx_hal_adc.c **** /**
 544:Drivers/STM32F3xx_HAL_Driver/Src/stm32f3xx_hal_adc.c ****   * @brief  Register a User ADC Callback
 545:Drivers/STM32F3xx_HAL_Driver/Src/stm32f3xx_hal_adc.c ****   *         To be used instead of the weak predefined callback
 546:Drivers/STM32F3xx_HAL_Driver/Src/stm32f3xx_hal_adc.c ****   * @param  hadc Pointer to a ADC_HandleTypeDef structure that contains
 547:Drivers/STM32F3xx_HAL_Driver/Src/stm32f3xx_hal_adc.c ****   *                the configuration information for the specified ADC.
 548:Drivers/STM32F3xx_HAL_Driver/Src/stm32f3xx_hal_adc.c ****   * @param  CallbackID ID of the callback to be registered
 549:Drivers/STM32F3xx_HAL_Driver/Src/stm32f3xx_hal_adc.c ****   *         This parameter can be one of the following values:
 550:Drivers/STM32F3xx_HAL_Driver/Src/stm32f3xx_hal_adc.c ****   *          @arg @ref HAL_ADC_CONVERSION_COMPLETE_CB_ID      ADC conversion complete callback ID
 551:Drivers/STM32F3xx_HAL_Driver/Src/stm32f3xx_hal_adc.c ****   *          @arg @ref HAL_ADC_CONVERSION_HALF_CB_ID          ADC conversion complete callback ID
 552:Drivers/STM32F3xx_HAL_Driver/Src/stm32f3xx_hal_adc.c ****   *          @arg @ref HAL_ADC_LEVEL_OUT_OF_WINDOW_1_CB_ID    ADC analog watchdog 1 callback ID
 553:Drivers/STM32F3xx_HAL_Driver/Src/stm32f3xx_hal_adc.c ****   *          @arg @ref HAL_ADC_ERROR_CB_ID                    ADC error callback ID
 554:Drivers/STM32F3xx_HAL_Driver/Src/stm32f3xx_hal_adc.c ****   *          @arg @ref HAL_ADC_INJ_CONVERSION_COMPLETE_CB_ID  ADC group injected conversion complet
 555:Drivers/STM32F3xx_HAL_Driver/Src/stm32f3xx_hal_adc.c ****   *          @arg @ref HAL_ADC_MSPINIT_CB_ID                  ADC Msp Init callback ID
 556:Drivers/STM32F3xx_HAL_Driver/Src/stm32f3xx_hal_adc.c ****   *          @arg @ref HAL_ADC_MSPDEINIT_CB_ID                ADC Msp DeInit callback ID
 557:Drivers/STM32F3xx_HAL_Driver/Src/stm32f3xx_hal_adc.c ****   *          @arg @ref HAL_ADC_MSPINIT_CB_ID MspInit callback ID
 558:Drivers/STM32F3xx_HAL_Driver/Src/stm32f3xx_hal_adc.c ****   *          @arg @ref HAL_ADC_MSPDEINIT_CB_ID MspDeInit callback ID
 559:Drivers/STM32F3xx_HAL_Driver/Src/stm32f3xx_hal_adc.c ****   * @param  pCallback pointer to the Callback function
 560:Drivers/STM32F3xx_HAL_Driver/Src/stm32f3xx_hal_adc.c ****   * @retval HAL status
 561:Drivers/STM32F3xx_HAL_Driver/Src/stm32f3xx_hal_adc.c ****   */
 562:Drivers/STM32F3xx_HAL_Driver/Src/stm32f3xx_hal_adc.c **** HAL_StatusTypeDef HAL_ADC_RegisterCallback(ADC_HandleTypeDef *hadc, HAL_ADC_CallbackIDTypeDef Callb
 563:Drivers/STM32F3xx_HAL_Driver/Src/stm32f3xx_hal_adc.c **** {
 564:Drivers/STM32F3xx_HAL_Driver/Src/stm32f3xx_hal_adc.c ****   HAL_StatusTypeDef status = HAL_OK;
 565:Drivers/STM32F3xx_HAL_Driver/Src/stm32f3xx_hal_adc.c ****   
 566:Drivers/STM32F3xx_HAL_Driver/Src/stm32f3xx_hal_adc.c ****   if (pCallback == NULL)
 567:Drivers/STM32F3xx_HAL_Driver/Src/stm32f3xx_hal_adc.c ****   {
 568:Drivers/STM32F3xx_HAL_Driver/Src/stm32f3xx_hal_adc.c ****     /* Update the error code */
ARM GAS  /var/folders/jw/jcj5j9_530958b2rm5vp9wn00000gn/T//cc3bFcpI.s 			page 13


 569:Drivers/STM32F3xx_HAL_Driver/Src/stm32f3xx_hal_adc.c ****     hadc->ErrorCode |= HAL_ADC_ERROR_INVALID_CALLBACK;
 570:Drivers/STM32F3xx_HAL_Driver/Src/stm32f3xx_hal_adc.c **** 
 571:Drivers/STM32F3xx_HAL_Driver/Src/stm32f3xx_hal_adc.c ****     return HAL_ERROR;
 572:Drivers/STM32F3xx_HAL_Driver/Src/stm32f3xx_hal_adc.c ****   }
 573:Drivers/STM32F3xx_HAL_Driver/Src/stm32f3xx_hal_adc.c ****   
 574:Drivers/STM32F3xx_HAL_Driver/Src/stm32f3xx_hal_adc.c ****   if ((hadc->State & HAL_ADC_STATE_READY) != 0)
 575:Drivers/STM32F3xx_HAL_Driver/Src/stm32f3xx_hal_adc.c ****   {
 576:Drivers/STM32F3xx_HAL_Driver/Src/stm32f3xx_hal_adc.c ****     switch (CallbackID)
 577:Drivers/STM32F3xx_HAL_Driver/Src/stm32f3xx_hal_adc.c ****     {
 578:Drivers/STM32F3xx_HAL_Driver/Src/stm32f3xx_hal_adc.c ****       case HAL_ADC_CONVERSION_COMPLETE_CB_ID :
 579:Drivers/STM32F3xx_HAL_Driver/Src/stm32f3xx_hal_adc.c ****         hadc->ConvCpltCallback = pCallback;
 580:Drivers/STM32F3xx_HAL_Driver/Src/stm32f3xx_hal_adc.c ****         break;
 581:Drivers/STM32F3xx_HAL_Driver/Src/stm32f3xx_hal_adc.c ****       
 582:Drivers/STM32F3xx_HAL_Driver/Src/stm32f3xx_hal_adc.c ****       case HAL_ADC_CONVERSION_HALF_CB_ID :
 583:Drivers/STM32F3xx_HAL_Driver/Src/stm32f3xx_hal_adc.c ****         hadc->ConvHalfCpltCallback = pCallback;
 584:Drivers/STM32F3xx_HAL_Driver/Src/stm32f3xx_hal_adc.c ****         break;
 585:Drivers/STM32F3xx_HAL_Driver/Src/stm32f3xx_hal_adc.c ****       
 586:Drivers/STM32F3xx_HAL_Driver/Src/stm32f3xx_hal_adc.c ****       case HAL_ADC_LEVEL_OUT_OF_WINDOW_1_CB_ID :
 587:Drivers/STM32F3xx_HAL_Driver/Src/stm32f3xx_hal_adc.c ****         hadc->LevelOutOfWindowCallback = pCallback;
 588:Drivers/STM32F3xx_HAL_Driver/Src/stm32f3xx_hal_adc.c ****         break;
 589:Drivers/STM32F3xx_HAL_Driver/Src/stm32f3xx_hal_adc.c ****       
 590:Drivers/STM32F3xx_HAL_Driver/Src/stm32f3xx_hal_adc.c ****       case HAL_ADC_ERROR_CB_ID :
 591:Drivers/STM32F3xx_HAL_Driver/Src/stm32f3xx_hal_adc.c ****         hadc->ErrorCallback = pCallback;
 592:Drivers/STM32F3xx_HAL_Driver/Src/stm32f3xx_hal_adc.c ****         break;
 593:Drivers/STM32F3xx_HAL_Driver/Src/stm32f3xx_hal_adc.c ****       
 594:Drivers/STM32F3xx_HAL_Driver/Src/stm32f3xx_hal_adc.c ****       case HAL_ADC_INJ_CONVERSION_COMPLETE_CB_ID :
 595:Drivers/STM32F3xx_HAL_Driver/Src/stm32f3xx_hal_adc.c ****         hadc->InjectedConvCpltCallback = pCallback;
 596:Drivers/STM32F3xx_HAL_Driver/Src/stm32f3xx_hal_adc.c ****         break;
 597:Drivers/STM32F3xx_HAL_Driver/Src/stm32f3xx_hal_adc.c ****       
 598:Drivers/STM32F3xx_HAL_Driver/Src/stm32f3xx_hal_adc.c ****       case HAL_ADC_MSPINIT_CB_ID :
 599:Drivers/STM32F3xx_HAL_Driver/Src/stm32f3xx_hal_adc.c ****         hadc->MspInitCallback = pCallback;
 600:Drivers/STM32F3xx_HAL_Driver/Src/stm32f3xx_hal_adc.c ****         break;
 601:Drivers/STM32F3xx_HAL_Driver/Src/stm32f3xx_hal_adc.c ****       
 602:Drivers/STM32F3xx_HAL_Driver/Src/stm32f3xx_hal_adc.c ****       case HAL_ADC_MSPDEINIT_CB_ID :
 603:Drivers/STM32F3xx_HAL_Driver/Src/stm32f3xx_hal_adc.c ****         hadc->MspDeInitCallback = pCallback;
 604:Drivers/STM32F3xx_HAL_Driver/Src/stm32f3xx_hal_adc.c ****         break;
 605:Drivers/STM32F3xx_HAL_Driver/Src/stm32f3xx_hal_adc.c ****       
 606:Drivers/STM32F3xx_HAL_Driver/Src/stm32f3xx_hal_adc.c ****       default :
 607:Drivers/STM32F3xx_HAL_Driver/Src/stm32f3xx_hal_adc.c ****         /* Update the error code */
 608:Drivers/STM32F3xx_HAL_Driver/Src/stm32f3xx_hal_adc.c ****         hadc->ErrorCode |= HAL_ADC_ERROR_INVALID_CALLBACK;
 609:Drivers/STM32F3xx_HAL_Driver/Src/stm32f3xx_hal_adc.c **** 
 610:Drivers/STM32F3xx_HAL_Driver/Src/stm32f3xx_hal_adc.c ****         /* Return error status */
 611:Drivers/STM32F3xx_HAL_Driver/Src/stm32f3xx_hal_adc.c ****         status = HAL_ERROR;
 612:Drivers/STM32F3xx_HAL_Driver/Src/stm32f3xx_hal_adc.c ****         break;
 613:Drivers/STM32F3xx_HAL_Driver/Src/stm32f3xx_hal_adc.c ****     }
 614:Drivers/STM32F3xx_HAL_Driver/Src/stm32f3xx_hal_adc.c ****   }
 615:Drivers/STM32F3xx_HAL_Driver/Src/stm32f3xx_hal_adc.c ****   else if (HAL_ADC_STATE_RESET == hadc->State)
 616:Drivers/STM32F3xx_HAL_Driver/Src/stm32f3xx_hal_adc.c ****   {
 617:Drivers/STM32F3xx_HAL_Driver/Src/stm32f3xx_hal_adc.c ****     switch (CallbackID)
 618:Drivers/STM32F3xx_HAL_Driver/Src/stm32f3xx_hal_adc.c ****     {
 619:Drivers/STM32F3xx_HAL_Driver/Src/stm32f3xx_hal_adc.c ****       case HAL_ADC_MSPINIT_CB_ID :
 620:Drivers/STM32F3xx_HAL_Driver/Src/stm32f3xx_hal_adc.c ****         hadc->MspInitCallback = pCallback;
 621:Drivers/STM32F3xx_HAL_Driver/Src/stm32f3xx_hal_adc.c ****         break;
 622:Drivers/STM32F3xx_HAL_Driver/Src/stm32f3xx_hal_adc.c ****       
 623:Drivers/STM32F3xx_HAL_Driver/Src/stm32f3xx_hal_adc.c ****       case HAL_ADC_MSPDEINIT_CB_ID :
 624:Drivers/STM32F3xx_HAL_Driver/Src/stm32f3xx_hal_adc.c ****         hadc->MspDeInitCallback = pCallback;
 625:Drivers/STM32F3xx_HAL_Driver/Src/stm32f3xx_hal_adc.c ****         break;
ARM GAS  /var/folders/jw/jcj5j9_530958b2rm5vp9wn00000gn/T//cc3bFcpI.s 			page 14


 626:Drivers/STM32F3xx_HAL_Driver/Src/stm32f3xx_hal_adc.c ****       
 627:Drivers/STM32F3xx_HAL_Driver/Src/stm32f3xx_hal_adc.c ****       default :
 628:Drivers/STM32F3xx_HAL_Driver/Src/stm32f3xx_hal_adc.c ****         /* Update the error code */
 629:Drivers/STM32F3xx_HAL_Driver/Src/stm32f3xx_hal_adc.c ****         hadc->ErrorCode |= HAL_ADC_ERROR_INVALID_CALLBACK;
 630:Drivers/STM32F3xx_HAL_Driver/Src/stm32f3xx_hal_adc.c ****       
 631:Drivers/STM32F3xx_HAL_Driver/Src/stm32f3xx_hal_adc.c ****         /* Return error status */
 632:Drivers/STM32F3xx_HAL_Driver/Src/stm32f3xx_hal_adc.c ****         status = HAL_ERROR;
 633:Drivers/STM32F3xx_HAL_Driver/Src/stm32f3xx_hal_adc.c ****         break;
 634:Drivers/STM32F3xx_HAL_Driver/Src/stm32f3xx_hal_adc.c ****     }
 635:Drivers/STM32F3xx_HAL_Driver/Src/stm32f3xx_hal_adc.c ****   }
 636:Drivers/STM32F3xx_HAL_Driver/Src/stm32f3xx_hal_adc.c ****   else
 637:Drivers/STM32F3xx_HAL_Driver/Src/stm32f3xx_hal_adc.c ****   {
 638:Drivers/STM32F3xx_HAL_Driver/Src/stm32f3xx_hal_adc.c ****     /* Update the error code */
 639:Drivers/STM32F3xx_HAL_Driver/Src/stm32f3xx_hal_adc.c ****     hadc->ErrorCode |= HAL_ADC_ERROR_INVALID_CALLBACK;
 640:Drivers/STM32F3xx_HAL_Driver/Src/stm32f3xx_hal_adc.c ****     
 641:Drivers/STM32F3xx_HAL_Driver/Src/stm32f3xx_hal_adc.c ****     /* Return error status */
 642:Drivers/STM32F3xx_HAL_Driver/Src/stm32f3xx_hal_adc.c ****     status =  HAL_ERROR;
 643:Drivers/STM32F3xx_HAL_Driver/Src/stm32f3xx_hal_adc.c ****   }
 644:Drivers/STM32F3xx_HAL_Driver/Src/stm32f3xx_hal_adc.c ****   
 645:Drivers/STM32F3xx_HAL_Driver/Src/stm32f3xx_hal_adc.c ****   return status;
 646:Drivers/STM32F3xx_HAL_Driver/Src/stm32f3xx_hal_adc.c **** }
 647:Drivers/STM32F3xx_HAL_Driver/Src/stm32f3xx_hal_adc.c **** 
 648:Drivers/STM32F3xx_HAL_Driver/Src/stm32f3xx_hal_adc.c **** /**
 649:Drivers/STM32F3xx_HAL_Driver/Src/stm32f3xx_hal_adc.c ****   * @brief  Unregister a ADC Callback
 650:Drivers/STM32F3xx_HAL_Driver/Src/stm32f3xx_hal_adc.c ****   *         ADC callback is redirected to the weak predefined callback
 651:Drivers/STM32F3xx_HAL_Driver/Src/stm32f3xx_hal_adc.c ****   * @param  hadc Pointer to a ADC_HandleTypeDef structure that contains
 652:Drivers/STM32F3xx_HAL_Driver/Src/stm32f3xx_hal_adc.c ****   *                the configuration information for the specified ADC.
 653:Drivers/STM32F3xx_HAL_Driver/Src/stm32f3xx_hal_adc.c ****   * @param  CallbackID ID of the callback to be unregistered
 654:Drivers/STM32F3xx_HAL_Driver/Src/stm32f3xx_hal_adc.c ****   *         This parameter can be one of the following values:
 655:Drivers/STM32F3xx_HAL_Driver/Src/stm32f3xx_hal_adc.c ****   *          @arg @ref HAL_ADC_CONVERSION_COMPLETE_CB_ID      ADC conversion complete callback ID
 656:Drivers/STM32F3xx_HAL_Driver/Src/stm32f3xx_hal_adc.c ****   *          @arg @ref HAL_ADC_CONVERSION_HALF_CB_ID          ADC conversion complete callback ID
 657:Drivers/STM32F3xx_HAL_Driver/Src/stm32f3xx_hal_adc.c ****   *          @arg @ref HAL_ADC_LEVEL_OUT_OF_WINDOW_1_CB_ID    ADC analog watchdog 1 callback ID
 658:Drivers/STM32F3xx_HAL_Driver/Src/stm32f3xx_hal_adc.c ****   *          @arg @ref HAL_ADC_ERROR_CB_ID                    ADC error callback ID
 659:Drivers/STM32F3xx_HAL_Driver/Src/stm32f3xx_hal_adc.c ****   *          @arg @ref HAL_ADC_INJ_CONVERSION_COMPLETE_CB_ID  ADC group injected conversion complet
 660:Drivers/STM32F3xx_HAL_Driver/Src/stm32f3xx_hal_adc.c ****   *          @arg @ref HAL_ADC_MSPINIT_CB_ID                  ADC Msp Init callback ID
 661:Drivers/STM32F3xx_HAL_Driver/Src/stm32f3xx_hal_adc.c ****   *          @arg @ref HAL_ADC_MSPDEINIT_CB_ID                ADC Msp DeInit callback ID
 662:Drivers/STM32F3xx_HAL_Driver/Src/stm32f3xx_hal_adc.c ****   *          @arg @ref HAL_ADC_MSPINIT_CB_ID MspInit callback ID
 663:Drivers/STM32F3xx_HAL_Driver/Src/stm32f3xx_hal_adc.c ****   *          @arg @ref HAL_ADC_MSPDEINIT_CB_ID MspDeInit callback ID
 664:Drivers/STM32F3xx_HAL_Driver/Src/stm32f3xx_hal_adc.c ****   * @retval HAL status
 665:Drivers/STM32F3xx_HAL_Driver/Src/stm32f3xx_hal_adc.c ****   */
 666:Drivers/STM32F3xx_HAL_Driver/Src/stm32f3xx_hal_adc.c **** HAL_StatusTypeDef HAL_ADC_UnRegisterCallback(ADC_HandleTypeDef *hadc, HAL_ADC_CallbackIDTypeDef Cal
 667:Drivers/STM32F3xx_HAL_Driver/Src/stm32f3xx_hal_adc.c **** {
 668:Drivers/STM32F3xx_HAL_Driver/Src/stm32f3xx_hal_adc.c ****   HAL_StatusTypeDef status = HAL_OK;
 669:Drivers/STM32F3xx_HAL_Driver/Src/stm32f3xx_hal_adc.c ****   
 670:Drivers/STM32F3xx_HAL_Driver/Src/stm32f3xx_hal_adc.c ****   if ((hadc->State & HAL_ADC_STATE_READY) != 0)
 671:Drivers/STM32F3xx_HAL_Driver/Src/stm32f3xx_hal_adc.c ****   {
 672:Drivers/STM32F3xx_HAL_Driver/Src/stm32f3xx_hal_adc.c ****     switch (CallbackID)
 673:Drivers/STM32F3xx_HAL_Driver/Src/stm32f3xx_hal_adc.c ****     {
 674:Drivers/STM32F3xx_HAL_Driver/Src/stm32f3xx_hal_adc.c ****       case HAL_ADC_CONVERSION_COMPLETE_CB_ID :
 675:Drivers/STM32F3xx_HAL_Driver/Src/stm32f3xx_hal_adc.c ****         hadc->ConvCpltCallback = HAL_ADC_ConvCpltCallback;
 676:Drivers/STM32F3xx_HAL_Driver/Src/stm32f3xx_hal_adc.c ****         break;
 677:Drivers/STM32F3xx_HAL_Driver/Src/stm32f3xx_hal_adc.c ****       
 678:Drivers/STM32F3xx_HAL_Driver/Src/stm32f3xx_hal_adc.c ****       case HAL_ADC_CONVERSION_HALF_CB_ID :
 679:Drivers/STM32F3xx_HAL_Driver/Src/stm32f3xx_hal_adc.c ****         hadc->ConvHalfCpltCallback = HAL_ADC_ConvHalfCpltCallback;
 680:Drivers/STM32F3xx_HAL_Driver/Src/stm32f3xx_hal_adc.c ****         break;
 681:Drivers/STM32F3xx_HAL_Driver/Src/stm32f3xx_hal_adc.c ****       
 682:Drivers/STM32F3xx_HAL_Driver/Src/stm32f3xx_hal_adc.c ****       case HAL_ADC_LEVEL_OUT_OF_WINDOW_1_CB_ID :
ARM GAS  /var/folders/jw/jcj5j9_530958b2rm5vp9wn00000gn/T//cc3bFcpI.s 			page 15


 683:Drivers/STM32F3xx_HAL_Driver/Src/stm32f3xx_hal_adc.c ****         hadc->LevelOutOfWindowCallback = HAL_ADC_LevelOutOfWindowCallback;
 684:Drivers/STM32F3xx_HAL_Driver/Src/stm32f3xx_hal_adc.c ****         break;
 685:Drivers/STM32F3xx_HAL_Driver/Src/stm32f3xx_hal_adc.c ****       
 686:Drivers/STM32F3xx_HAL_Driver/Src/stm32f3xx_hal_adc.c ****       case HAL_ADC_ERROR_CB_ID :
 687:Drivers/STM32F3xx_HAL_Driver/Src/stm32f3xx_hal_adc.c ****         hadc->ErrorCallback = HAL_ADC_ErrorCallback;
 688:Drivers/STM32F3xx_HAL_Driver/Src/stm32f3xx_hal_adc.c ****         break;
 689:Drivers/STM32F3xx_HAL_Driver/Src/stm32f3xx_hal_adc.c ****       
 690:Drivers/STM32F3xx_HAL_Driver/Src/stm32f3xx_hal_adc.c ****       case HAL_ADC_INJ_CONVERSION_COMPLETE_CB_ID :
 691:Drivers/STM32F3xx_HAL_Driver/Src/stm32f3xx_hal_adc.c ****         hadc->InjectedConvCpltCallback = HAL_ADCEx_InjectedConvCpltCallback;
 692:Drivers/STM32F3xx_HAL_Driver/Src/stm32f3xx_hal_adc.c ****         break;
 693:Drivers/STM32F3xx_HAL_Driver/Src/stm32f3xx_hal_adc.c ****       
 694:Drivers/STM32F3xx_HAL_Driver/Src/stm32f3xx_hal_adc.c ****       case HAL_ADC_MSPINIT_CB_ID :
 695:Drivers/STM32F3xx_HAL_Driver/Src/stm32f3xx_hal_adc.c ****         hadc->MspInitCallback = HAL_ADC_MspInit; /* Legacy weak MspInit              */
 696:Drivers/STM32F3xx_HAL_Driver/Src/stm32f3xx_hal_adc.c ****         break;
 697:Drivers/STM32F3xx_HAL_Driver/Src/stm32f3xx_hal_adc.c ****       
 698:Drivers/STM32F3xx_HAL_Driver/Src/stm32f3xx_hal_adc.c ****       case HAL_ADC_MSPDEINIT_CB_ID :
 699:Drivers/STM32F3xx_HAL_Driver/Src/stm32f3xx_hal_adc.c ****         hadc->MspDeInitCallback = HAL_ADC_MspDeInit; /* Legacy weak MspDeInit            */
 700:Drivers/STM32F3xx_HAL_Driver/Src/stm32f3xx_hal_adc.c ****         break;
 701:Drivers/STM32F3xx_HAL_Driver/Src/stm32f3xx_hal_adc.c ****       
 702:Drivers/STM32F3xx_HAL_Driver/Src/stm32f3xx_hal_adc.c ****       default :
 703:Drivers/STM32F3xx_HAL_Driver/Src/stm32f3xx_hal_adc.c ****         /* Update the error code */
 704:Drivers/STM32F3xx_HAL_Driver/Src/stm32f3xx_hal_adc.c ****         hadc->ErrorCode |= HAL_ADC_ERROR_INVALID_CALLBACK;
 705:Drivers/STM32F3xx_HAL_Driver/Src/stm32f3xx_hal_adc.c ****         
 706:Drivers/STM32F3xx_HAL_Driver/Src/stm32f3xx_hal_adc.c ****         /* Return error status */
 707:Drivers/STM32F3xx_HAL_Driver/Src/stm32f3xx_hal_adc.c ****         status =  HAL_ERROR;
 708:Drivers/STM32F3xx_HAL_Driver/Src/stm32f3xx_hal_adc.c ****         break;
 709:Drivers/STM32F3xx_HAL_Driver/Src/stm32f3xx_hal_adc.c ****     }
 710:Drivers/STM32F3xx_HAL_Driver/Src/stm32f3xx_hal_adc.c ****   }
 711:Drivers/STM32F3xx_HAL_Driver/Src/stm32f3xx_hal_adc.c ****   else if (HAL_ADC_STATE_RESET == hadc->State)
 712:Drivers/STM32F3xx_HAL_Driver/Src/stm32f3xx_hal_adc.c ****   {
 713:Drivers/STM32F3xx_HAL_Driver/Src/stm32f3xx_hal_adc.c ****     switch (CallbackID)
 714:Drivers/STM32F3xx_HAL_Driver/Src/stm32f3xx_hal_adc.c ****     {
 715:Drivers/STM32F3xx_HAL_Driver/Src/stm32f3xx_hal_adc.c ****       case HAL_ADC_MSPINIT_CB_ID :
 716:Drivers/STM32F3xx_HAL_Driver/Src/stm32f3xx_hal_adc.c ****         hadc->MspInitCallback = HAL_ADC_MspInit;                   /* Legacy weak MspInit          
 717:Drivers/STM32F3xx_HAL_Driver/Src/stm32f3xx_hal_adc.c ****         break;
 718:Drivers/STM32F3xx_HAL_Driver/Src/stm32f3xx_hal_adc.c ****         
 719:Drivers/STM32F3xx_HAL_Driver/Src/stm32f3xx_hal_adc.c ****       case HAL_ADC_MSPDEINIT_CB_ID :
 720:Drivers/STM32F3xx_HAL_Driver/Src/stm32f3xx_hal_adc.c ****         hadc->MspDeInitCallback = HAL_ADC_MspDeInit;               /* Legacy weak MspDeInit        
 721:Drivers/STM32F3xx_HAL_Driver/Src/stm32f3xx_hal_adc.c ****         break;
 722:Drivers/STM32F3xx_HAL_Driver/Src/stm32f3xx_hal_adc.c ****         
 723:Drivers/STM32F3xx_HAL_Driver/Src/stm32f3xx_hal_adc.c ****       default :
 724:Drivers/STM32F3xx_HAL_Driver/Src/stm32f3xx_hal_adc.c ****         /* Update the error code */
 725:Drivers/STM32F3xx_HAL_Driver/Src/stm32f3xx_hal_adc.c ****         hadc->ErrorCode |= HAL_ADC_ERROR_INVALID_CALLBACK;
 726:Drivers/STM32F3xx_HAL_Driver/Src/stm32f3xx_hal_adc.c ****         
 727:Drivers/STM32F3xx_HAL_Driver/Src/stm32f3xx_hal_adc.c ****         /* Return error status */
 728:Drivers/STM32F3xx_HAL_Driver/Src/stm32f3xx_hal_adc.c ****         status =  HAL_ERROR;
 729:Drivers/STM32F3xx_HAL_Driver/Src/stm32f3xx_hal_adc.c ****         break;
 730:Drivers/STM32F3xx_HAL_Driver/Src/stm32f3xx_hal_adc.c ****     }
 731:Drivers/STM32F3xx_HAL_Driver/Src/stm32f3xx_hal_adc.c ****   }
 732:Drivers/STM32F3xx_HAL_Driver/Src/stm32f3xx_hal_adc.c ****   else
 733:Drivers/STM32F3xx_HAL_Driver/Src/stm32f3xx_hal_adc.c ****   {
 734:Drivers/STM32F3xx_HAL_Driver/Src/stm32f3xx_hal_adc.c ****     /* Update the error code */
 735:Drivers/STM32F3xx_HAL_Driver/Src/stm32f3xx_hal_adc.c ****     hadc->ErrorCode |= HAL_ADC_ERROR_INVALID_CALLBACK;
 736:Drivers/STM32F3xx_HAL_Driver/Src/stm32f3xx_hal_adc.c ****     
 737:Drivers/STM32F3xx_HAL_Driver/Src/stm32f3xx_hal_adc.c ****     /* Return error status */
 738:Drivers/STM32F3xx_HAL_Driver/Src/stm32f3xx_hal_adc.c ****     status =  HAL_ERROR;
 739:Drivers/STM32F3xx_HAL_Driver/Src/stm32f3xx_hal_adc.c ****   }
ARM GAS  /var/folders/jw/jcj5j9_530958b2rm5vp9wn00000gn/T//cc3bFcpI.s 			page 16


 740:Drivers/STM32F3xx_HAL_Driver/Src/stm32f3xx_hal_adc.c ****   
 741:Drivers/STM32F3xx_HAL_Driver/Src/stm32f3xx_hal_adc.c ****   return status;
 742:Drivers/STM32F3xx_HAL_Driver/Src/stm32f3xx_hal_adc.c **** }
 743:Drivers/STM32F3xx_HAL_Driver/Src/stm32f3xx_hal_adc.c **** 
 744:Drivers/STM32F3xx_HAL_Driver/Src/stm32f3xx_hal_adc.c **** #endif /* USE_HAL_ADC_REGISTER_CALLBACKS */
 745:Drivers/STM32F3xx_HAL_Driver/Src/stm32f3xx_hal_adc.c **** 
 746:Drivers/STM32F3xx_HAL_Driver/Src/stm32f3xx_hal_adc.c **** /**
 747:Drivers/STM32F3xx_HAL_Driver/Src/stm32f3xx_hal_adc.c ****   * @}
 748:Drivers/STM32F3xx_HAL_Driver/Src/stm32f3xx_hal_adc.c ****   */
 749:Drivers/STM32F3xx_HAL_Driver/Src/stm32f3xx_hal_adc.c **** 
 750:Drivers/STM32F3xx_HAL_Driver/Src/stm32f3xx_hal_adc.c **** /** @defgroup ADC_Exported_Functions_Group2 Input and Output operation functions
 751:Drivers/STM32F3xx_HAL_Driver/Src/stm32f3xx_hal_adc.c ****  *  @brief    IO operation functions 
 752:Drivers/STM32F3xx_HAL_Driver/Src/stm32f3xx_hal_adc.c ****  *
 753:Drivers/STM32F3xx_HAL_Driver/Src/stm32f3xx_hal_adc.c **** @verbatim   
 754:Drivers/STM32F3xx_HAL_Driver/Src/stm32f3xx_hal_adc.c ****  ===============================================================================
 755:Drivers/STM32F3xx_HAL_Driver/Src/stm32f3xx_hal_adc.c ****              ##### IO operation functions #####
 756:Drivers/STM32F3xx_HAL_Driver/Src/stm32f3xx_hal_adc.c ****  ===============================================================================  
 757:Drivers/STM32F3xx_HAL_Driver/Src/stm32f3xx_hal_adc.c ****     [..]  This section provides functions allowing to:
 758:Drivers/STM32F3xx_HAL_Driver/Src/stm32f3xx_hal_adc.c ****       (+) Start conversion of regular group.
 759:Drivers/STM32F3xx_HAL_Driver/Src/stm32f3xx_hal_adc.c ****       (+) Stop conversion of regular group.
 760:Drivers/STM32F3xx_HAL_Driver/Src/stm32f3xx_hal_adc.c ****       (+) Poll for conversion complete on regular group.
 761:Drivers/STM32F3xx_HAL_Driver/Src/stm32f3xx_hal_adc.c ****       (+) Poll for conversion event.
 762:Drivers/STM32F3xx_HAL_Driver/Src/stm32f3xx_hal_adc.c ****       (+) Get result of regular channel conversion.
 763:Drivers/STM32F3xx_HAL_Driver/Src/stm32f3xx_hal_adc.c ****       (+) Start conversion of regular group and enable interruptions.
 764:Drivers/STM32F3xx_HAL_Driver/Src/stm32f3xx_hal_adc.c ****       (+) Stop conversion of regular group and disable interruptions.
 765:Drivers/STM32F3xx_HAL_Driver/Src/stm32f3xx_hal_adc.c ****       (+) Handle ADC interrupt request
 766:Drivers/STM32F3xx_HAL_Driver/Src/stm32f3xx_hal_adc.c ****       (+) Start conversion of regular group and enable DMA transfer.
 767:Drivers/STM32F3xx_HAL_Driver/Src/stm32f3xx_hal_adc.c ****       (+) Stop conversion of regular group and disable ADC DMA transfer.
 768:Drivers/STM32F3xx_HAL_Driver/Src/stm32f3xx_hal_adc.c ****                
 769:Drivers/STM32F3xx_HAL_Driver/Src/stm32f3xx_hal_adc.c **** @endverbatim
 770:Drivers/STM32F3xx_HAL_Driver/Src/stm32f3xx_hal_adc.c ****   * @{
 771:Drivers/STM32F3xx_HAL_Driver/Src/stm32f3xx_hal_adc.c ****   */
 772:Drivers/STM32F3xx_HAL_Driver/Src/stm32f3xx_hal_adc.c **** /**
 773:Drivers/STM32F3xx_HAL_Driver/Src/stm32f3xx_hal_adc.c ****   * @brief  Enables ADC, starts conversion of regular group.
 774:Drivers/STM32F3xx_HAL_Driver/Src/stm32f3xx_hal_adc.c ****   *         Interruptions enabled in this function: None.
 775:Drivers/STM32F3xx_HAL_Driver/Src/stm32f3xx_hal_adc.c ****   * @note:  Case of multimode enabled (for devices with several ADCs): This 
 776:Drivers/STM32F3xx_HAL_Driver/Src/stm32f3xx_hal_adc.c ****   *         function must be called for ADC slave first, then ADC master. 
 777:Drivers/STM32F3xx_HAL_Driver/Src/stm32f3xx_hal_adc.c ****   *         For ADC slave, ADC is enabled only (conversion is not started).  
 778:Drivers/STM32F3xx_HAL_Driver/Src/stm32f3xx_hal_adc.c ****   *         For ADC master, ADC is enabled and multimode conversion is started.
 779:Drivers/STM32F3xx_HAL_Driver/Src/stm32f3xx_hal_adc.c ****   * @param  hadc ADC handle
 780:Drivers/STM32F3xx_HAL_Driver/Src/stm32f3xx_hal_adc.c ****   * @retval HAL status
 781:Drivers/STM32F3xx_HAL_Driver/Src/stm32f3xx_hal_adc.c ****   */
 782:Drivers/STM32F3xx_HAL_Driver/Src/stm32f3xx_hal_adc.c **** __weak HAL_StatusTypeDef HAL_ADC_Start(ADC_HandleTypeDef* hadc)
 783:Drivers/STM32F3xx_HAL_Driver/Src/stm32f3xx_hal_adc.c **** {
 126              		.loc 1 783 1 is_stmt 1 view -0
 127              		.cfi_startproc
 128              		@ args = 0, pretend = 0, frame = 0
 129              		@ frame_needed = 0, uses_anonymous_args = 0
 130              		@ link register save eliminated.
 784:Drivers/STM32F3xx_HAL_Driver/Src/stm32f3xx_hal_adc.c ****   /* Prevent unused argument(s) compilation warning */
 785:Drivers/STM32F3xx_HAL_Driver/Src/stm32f3xx_hal_adc.c ****   UNUSED(hadc);
 131              		.loc 1 785 3 view .LVU17
 786:Drivers/STM32F3xx_HAL_Driver/Src/stm32f3xx_hal_adc.c **** 
 787:Drivers/STM32F3xx_HAL_Driver/Src/stm32f3xx_hal_adc.c ****   /* Return function status */
 788:Drivers/STM32F3xx_HAL_Driver/Src/stm32f3xx_hal_adc.c ****   return HAL_ERROR;
 132              		.loc 1 788 3 view .LVU18
 789:Drivers/STM32F3xx_HAL_Driver/Src/stm32f3xx_hal_adc.c **** }
ARM GAS  /var/folders/jw/jcj5j9_530958b2rm5vp9wn00000gn/T//cc3bFcpI.s 			page 17


 133              		.loc 1 789 1 is_stmt 0 view .LVU19
 134 0000 0120     		movs	r0, #1
 135              	.LVL7:
 136              		.loc 1 789 1 view .LVU20
 137 0002 7047     		bx	lr
 138              		.cfi_endproc
 139              	.LFE134:
 141              		.section	.text.HAL_ADC_Stop,"ax",%progbits
 142              		.align	1
 143              		.weak	HAL_ADC_Stop
 144              		.syntax unified
 145              		.thumb
 146              		.thumb_func
 147              		.fpu fpv4-sp-d16
 149              	HAL_ADC_Stop:
 150              	.LVL8:
 151              	.LFB135:
 790:Drivers/STM32F3xx_HAL_Driver/Src/stm32f3xx_hal_adc.c **** 
 791:Drivers/STM32F3xx_HAL_Driver/Src/stm32f3xx_hal_adc.c **** /**
 792:Drivers/STM32F3xx_HAL_Driver/Src/stm32f3xx_hal_adc.c ****   * @brief  Stop ADC conversion of regular group (and injected group in 
 793:Drivers/STM32F3xx_HAL_Driver/Src/stm32f3xx_hal_adc.c ****   *         case of auto_injection mode), disable ADC peripheral.
 794:Drivers/STM32F3xx_HAL_Driver/Src/stm32f3xx_hal_adc.c ****   * @note:  ADC peripheral disable is forcing stop of potential 
 795:Drivers/STM32F3xx_HAL_Driver/Src/stm32f3xx_hal_adc.c ****   *         conversion on injected group. If injected group is under use, it
 796:Drivers/STM32F3xx_HAL_Driver/Src/stm32f3xx_hal_adc.c ****   *         should be preliminarily stopped using HAL_ADCEx_InjectedStop function.
 797:Drivers/STM32F3xx_HAL_Driver/Src/stm32f3xx_hal_adc.c ****   * @note:  Case of multimode enabled (for devices with several ADCs): This 
 798:Drivers/STM32F3xx_HAL_Driver/Src/stm32f3xx_hal_adc.c ****   *         function must be called for ADC master first, then ADC slave.
 799:Drivers/STM32F3xx_HAL_Driver/Src/stm32f3xx_hal_adc.c ****   *         For ADC master, converson is stopped and ADC is disabled. 
 800:Drivers/STM32F3xx_HAL_Driver/Src/stm32f3xx_hal_adc.c ****   *         For ADC slave, ADC is disabled only (conversion stop of ADC master
 801:Drivers/STM32F3xx_HAL_Driver/Src/stm32f3xx_hal_adc.c ****   *         has already stopped conversion of ADC slave).
 802:Drivers/STM32F3xx_HAL_Driver/Src/stm32f3xx_hal_adc.c ****   * @param  hadc ADC handle
 803:Drivers/STM32F3xx_HAL_Driver/Src/stm32f3xx_hal_adc.c ****   * @retval HAL status.
 804:Drivers/STM32F3xx_HAL_Driver/Src/stm32f3xx_hal_adc.c ****   */
 805:Drivers/STM32F3xx_HAL_Driver/Src/stm32f3xx_hal_adc.c **** __weak HAL_StatusTypeDef HAL_ADC_Stop(ADC_HandleTypeDef* hadc)
 806:Drivers/STM32F3xx_HAL_Driver/Src/stm32f3xx_hal_adc.c **** {
 152              		.loc 1 806 1 is_stmt 1 view -0
 153              		.cfi_startproc
 154              		@ args = 0, pretend = 0, frame = 0
 155              		@ frame_needed = 0, uses_anonymous_args = 0
 156              		@ link register save eliminated.
 807:Drivers/STM32F3xx_HAL_Driver/Src/stm32f3xx_hal_adc.c ****   /* Prevent unused argument(s) compilation warning */
 808:Drivers/STM32F3xx_HAL_Driver/Src/stm32f3xx_hal_adc.c ****   UNUSED(hadc);
 157              		.loc 1 808 3 view .LVU22
 809:Drivers/STM32F3xx_HAL_Driver/Src/stm32f3xx_hal_adc.c **** 
 810:Drivers/STM32F3xx_HAL_Driver/Src/stm32f3xx_hal_adc.c ****   /* Note : This function is defined into this file for library reference. */
 811:Drivers/STM32F3xx_HAL_Driver/Src/stm32f3xx_hal_adc.c ****   /*        Function content is located into file stm32f3xx_hal_adc_ex.c   */
 812:Drivers/STM32F3xx_HAL_Driver/Src/stm32f3xx_hal_adc.c ****   
 813:Drivers/STM32F3xx_HAL_Driver/Src/stm32f3xx_hal_adc.c ****   /* Return function status */
 814:Drivers/STM32F3xx_HAL_Driver/Src/stm32f3xx_hal_adc.c ****   return HAL_ERROR;
 158              		.loc 1 814 3 view .LVU23
 815:Drivers/STM32F3xx_HAL_Driver/Src/stm32f3xx_hal_adc.c **** }
 159              		.loc 1 815 1 is_stmt 0 view .LVU24
 160 0000 0120     		movs	r0, #1
 161              	.LVL9:
 162              		.loc 1 815 1 view .LVU25
 163 0002 7047     		bx	lr
 164              		.cfi_endproc
 165              	.LFE135:
ARM GAS  /var/folders/jw/jcj5j9_530958b2rm5vp9wn00000gn/T//cc3bFcpI.s 			page 18


 167              		.section	.text.HAL_ADC_PollForConversion,"ax",%progbits
 168              		.align	1
 169              		.weak	HAL_ADC_PollForConversion
 170              		.syntax unified
 171              		.thumb
 172              		.thumb_func
 173              		.fpu fpv4-sp-d16
 175              	HAL_ADC_PollForConversion:
 176              	.LVL10:
 177              	.LFB136:
 816:Drivers/STM32F3xx_HAL_Driver/Src/stm32f3xx_hal_adc.c **** 
 817:Drivers/STM32F3xx_HAL_Driver/Src/stm32f3xx_hal_adc.c **** /**
 818:Drivers/STM32F3xx_HAL_Driver/Src/stm32f3xx_hal_adc.c ****   * @brief  Wait for regular group conversion to be completed.
 819:Drivers/STM32F3xx_HAL_Driver/Src/stm32f3xx_hal_adc.c ****   * @param  hadc ADC handle
 820:Drivers/STM32F3xx_HAL_Driver/Src/stm32f3xx_hal_adc.c ****   * @param  Timeout Timeout value in millisecond.
 821:Drivers/STM32F3xx_HAL_Driver/Src/stm32f3xx_hal_adc.c ****   * @retval HAL status
 822:Drivers/STM32F3xx_HAL_Driver/Src/stm32f3xx_hal_adc.c ****   */
 823:Drivers/STM32F3xx_HAL_Driver/Src/stm32f3xx_hal_adc.c **** __weak HAL_StatusTypeDef HAL_ADC_PollForConversion(ADC_HandleTypeDef* hadc, uint32_t Timeout)
 824:Drivers/STM32F3xx_HAL_Driver/Src/stm32f3xx_hal_adc.c **** {
 178              		.loc 1 824 1 is_stmt 1 view -0
 179              		.cfi_startproc
 180              		@ args = 0, pretend = 0, frame = 0
 181              		@ frame_needed = 0, uses_anonymous_args = 0
 182              		@ link register save eliminated.
 825:Drivers/STM32F3xx_HAL_Driver/Src/stm32f3xx_hal_adc.c ****   /* Prevent unused argument(s) compilation warning */
 826:Drivers/STM32F3xx_HAL_Driver/Src/stm32f3xx_hal_adc.c ****   UNUSED(hadc);
 183              		.loc 1 826 3 view .LVU27
 827:Drivers/STM32F3xx_HAL_Driver/Src/stm32f3xx_hal_adc.c ****   UNUSED(Timeout);
 184              		.loc 1 827 3 view .LVU28
 828:Drivers/STM32F3xx_HAL_Driver/Src/stm32f3xx_hal_adc.c **** 
 829:Drivers/STM32F3xx_HAL_Driver/Src/stm32f3xx_hal_adc.c ****   /* Note : This function is defined into this file for library reference. */
 830:Drivers/STM32F3xx_HAL_Driver/Src/stm32f3xx_hal_adc.c ****   /*        Function content is located into file stm32f3xx_hal_adc_ex.c   */
 831:Drivers/STM32F3xx_HAL_Driver/Src/stm32f3xx_hal_adc.c ****   
 832:Drivers/STM32F3xx_HAL_Driver/Src/stm32f3xx_hal_adc.c ****   /* Return function status */
 833:Drivers/STM32F3xx_HAL_Driver/Src/stm32f3xx_hal_adc.c ****   return HAL_ERROR;
 185              		.loc 1 833 3 view .LVU29
 834:Drivers/STM32F3xx_HAL_Driver/Src/stm32f3xx_hal_adc.c **** }
 186              		.loc 1 834 1 is_stmt 0 view .LVU30
 187 0000 0120     		movs	r0, #1
 188              	.LVL11:
 189              		.loc 1 834 1 view .LVU31
 190 0002 7047     		bx	lr
 191              		.cfi_endproc
 192              	.LFE136:
 194              		.section	.text.HAL_ADC_PollForEvent,"ax",%progbits
 195              		.align	1
 196              		.weak	HAL_ADC_PollForEvent
 197              		.syntax unified
 198              		.thumb
 199              		.thumb_func
 200              		.fpu fpv4-sp-d16
 202              	HAL_ADC_PollForEvent:
 203              	.LVL12:
 204              	.LFB137:
 835:Drivers/STM32F3xx_HAL_Driver/Src/stm32f3xx_hal_adc.c **** 
 836:Drivers/STM32F3xx_HAL_Driver/Src/stm32f3xx_hal_adc.c **** /**
 837:Drivers/STM32F3xx_HAL_Driver/Src/stm32f3xx_hal_adc.c ****   * @brief  Poll for conversion event.
ARM GAS  /var/folders/jw/jcj5j9_530958b2rm5vp9wn00000gn/T//cc3bFcpI.s 			page 19


 838:Drivers/STM32F3xx_HAL_Driver/Src/stm32f3xx_hal_adc.c ****   * @param  hadc ADC handle
 839:Drivers/STM32F3xx_HAL_Driver/Src/stm32f3xx_hal_adc.c ****   * @param  EventType the ADC event type.
 840:Drivers/STM32F3xx_HAL_Driver/Src/stm32f3xx_hal_adc.c ****   *          This parameter can be one of the following values:
 841:Drivers/STM32F3xx_HAL_Driver/Src/stm32f3xx_hal_adc.c ****   *            @arg ADC_AWD_EVENT: ADC Analog watchdog 1 event (main analog watchdog, present on al
 842:Drivers/STM32F3xx_HAL_Driver/Src/stm32f3xx_hal_adc.c ****   *            @arg ADC_AWD2_EVENT: ADC Analog watchdog 2 event (additional analog watchdog, presen
 843:Drivers/STM32F3xx_HAL_Driver/Src/stm32f3xx_hal_adc.c ****   *            @arg ADC_AWD3_EVENT: ADC Analog watchdog 3 event (additional analog watchdog, presen
 844:Drivers/STM32F3xx_HAL_Driver/Src/stm32f3xx_hal_adc.c ****   *            @arg ADC_OVR_EVENT: ADC Overrun event
 845:Drivers/STM32F3xx_HAL_Driver/Src/stm32f3xx_hal_adc.c ****   *            @arg ADC_JQOVF_EVENT: ADC Injected context queue overflow event
 846:Drivers/STM32F3xx_HAL_Driver/Src/stm32f3xx_hal_adc.c ****   * @param  Timeout Timeout value in millisecond.
 847:Drivers/STM32F3xx_HAL_Driver/Src/stm32f3xx_hal_adc.c ****   * @retval HAL status
 848:Drivers/STM32F3xx_HAL_Driver/Src/stm32f3xx_hal_adc.c ****   */
 849:Drivers/STM32F3xx_HAL_Driver/Src/stm32f3xx_hal_adc.c **** __weak HAL_StatusTypeDef HAL_ADC_PollForEvent(ADC_HandleTypeDef* hadc, uint32_t EventType, uint32_t
 850:Drivers/STM32F3xx_HAL_Driver/Src/stm32f3xx_hal_adc.c **** {
 205              		.loc 1 850 1 is_stmt 1 view -0
 206              		.cfi_startproc
 207              		@ args = 0, pretend = 0, frame = 0
 208              		@ frame_needed = 0, uses_anonymous_args = 0
 209              		@ link register save eliminated.
 851:Drivers/STM32F3xx_HAL_Driver/Src/stm32f3xx_hal_adc.c ****   /* Prevent unused argument(s) compilation warning */
 852:Drivers/STM32F3xx_HAL_Driver/Src/stm32f3xx_hal_adc.c ****   UNUSED(hadc);
 210              		.loc 1 852 3 view .LVU33
 853:Drivers/STM32F3xx_HAL_Driver/Src/stm32f3xx_hal_adc.c ****   UNUSED(EventType);
 211              		.loc 1 853 3 view .LVU34
 854:Drivers/STM32F3xx_HAL_Driver/Src/stm32f3xx_hal_adc.c ****   UNUSED(Timeout);
 212              		.loc 1 854 3 view .LVU35
 855:Drivers/STM32F3xx_HAL_Driver/Src/stm32f3xx_hal_adc.c **** 
 856:Drivers/STM32F3xx_HAL_Driver/Src/stm32f3xx_hal_adc.c ****   /* Note : This function is defined into this file for library reference. */
 857:Drivers/STM32F3xx_HAL_Driver/Src/stm32f3xx_hal_adc.c ****   /*        Function content is located into file stm32f3xx_hal_adc_ex.c   */
 858:Drivers/STM32F3xx_HAL_Driver/Src/stm32f3xx_hal_adc.c ****   
 859:Drivers/STM32F3xx_HAL_Driver/Src/stm32f3xx_hal_adc.c ****   /* Return function status */
 860:Drivers/STM32F3xx_HAL_Driver/Src/stm32f3xx_hal_adc.c ****   return HAL_ERROR;
 213              		.loc 1 860 3 view .LVU36
 861:Drivers/STM32F3xx_HAL_Driver/Src/stm32f3xx_hal_adc.c **** }
 214              		.loc 1 861 1 is_stmt 0 view .LVU37
 215 0000 0120     		movs	r0, #1
 216              	.LVL13:
 217              		.loc 1 861 1 view .LVU38
 218 0002 7047     		bx	lr
 219              		.cfi_endproc
 220              	.LFE137:
 222              		.section	.text.HAL_ADC_Start_IT,"ax",%progbits
 223              		.align	1
 224              		.weak	HAL_ADC_Start_IT
 225              		.syntax unified
 226              		.thumb
 227              		.thumb_func
 228              		.fpu fpv4-sp-d16
 230              	HAL_ADC_Start_IT:
 231              	.LVL14:
 232              	.LFB138:
 862:Drivers/STM32F3xx_HAL_Driver/Src/stm32f3xx_hal_adc.c **** 
 863:Drivers/STM32F3xx_HAL_Driver/Src/stm32f3xx_hal_adc.c **** /**
 864:Drivers/STM32F3xx_HAL_Driver/Src/stm32f3xx_hal_adc.c ****   * @brief  Enables ADC, starts conversion of regular group with interruption.
 865:Drivers/STM32F3xx_HAL_Driver/Src/stm32f3xx_hal_adc.c ****   *         Interruptions enabled in this function:
 866:Drivers/STM32F3xx_HAL_Driver/Src/stm32f3xx_hal_adc.c ****   *          - EOC (end of conversion of regular group) or EOS (end of 
 867:Drivers/STM32F3xx_HAL_Driver/Src/stm32f3xx_hal_adc.c ****   *            sequence of regular group) depending on ADC initialization 
 868:Drivers/STM32F3xx_HAL_Driver/Src/stm32f3xx_hal_adc.c ****   *            parameter "EOCSelection" (if available)
ARM GAS  /var/folders/jw/jcj5j9_530958b2rm5vp9wn00000gn/T//cc3bFcpI.s 			page 20


 869:Drivers/STM32F3xx_HAL_Driver/Src/stm32f3xx_hal_adc.c ****   *          - overrun (if available)
 870:Drivers/STM32F3xx_HAL_Driver/Src/stm32f3xx_hal_adc.c ****   *         Each of these interruptions has its dedicated callback function.
 871:Drivers/STM32F3xx_HAL_Driver/Src/stm32f3xx_hal_adc.c ****   * @note:  Case of multimode enabled (for devices with several ADCs): This 
 872:Drivers/STM32F3xx_HAL_Driver/Src/stm32f3xx_hal_adc.c ****   *         function must be called for ADC slave first, then ADC master. 
 873:Drivers/STM32F3xx_HAL_Driver/Src/stm32f3xx_hal_adc.c ****   *         For ADC slave, ADC is enabled only (conversion is not started).  
 874:Drivers/STM32F3xx_HAL_Driver/Src/stm32f3xx_hal_adc.c ****   *         For ADC master, ADC is enabled and multimode conversion is started.
 875:Drivers/STM32F3xx_HAL_Driver/Src/stm32f3xx_hal_adc.c ****   * @param  hadc ADC handle
 876:Drivers/STM32F3xx_HAL_Driver/Src/stm32f3xx_hal_adc.c ****   * @retval HAL status
 877:Drivers/STM32F3xx_HAL_Driver/Src/stm32f3xx_hal_adc.c ****   */
 878:Drivers/STM32F3xx_HAL_Driver/Src/stm32f3xx_hal_adc.c **** __weak HAL_StatusTypeDef HAL_ADC_Start_IT(ADC_HandleTypeDef* hadc)
 879:Drivers/STM32F3xx_HAL_Driver/Src/stm32f3xx_hal_adc.c **** {
 233              		.loc 1 879 1 is_stmt 1 view -0
 234              		.cfi_startproc
 235              		@ args = 0, pretend = 0, frame = 0
 236              		@ frame_needed = 0, uses_anonymous_args = 0
 237              		@ link register save eliminated.
 880:Drivers/STM32F3xx_HAL_Driver/Src/stm32f3xx_hal_adc.c ****   /* Prevent unused argument(s) compilation warning */
 881:Drivers/STM32F3xx_HAL_Driver/Src/stm32f3xx_hal_adc.c ****   UNUSED(hadc);
 238              		.loc 1 881 3 view .LVU40
 882:Drivers/STM32F3xx_HAL_Driver/Src/stm32f3xx_hal_adc.c **** 
 883:Drivers/STM32F3xx_HAL_Driver/Src/stm32f3xx_hal_adc.c ****   /* Note : This function is defined into this file for library reference. */
 884:Drivers/STM32F3xx_HAL_Driver/Src/stm32f3xx_hal_adc.c ****   /*        Function content is located into file stm32f3xx_hal_adc_ex.c   */
 885:Drivers/STM32F3xx_HAL_Driver/Src/stm32f3xx_hal_adc.c ****   
 886:Drivers/STM32F3xx_HAL_Driver/Src/stm32f3xx_hal_adc.c ****   /* Return function status */
 887:Drivers/STM32F3xx_HAL_Driver/Src/stm32f3xx_hal_adc.c ****   return HAL_ERROR;
 239              		.loc 1 887 3 view .LVU41
 888:Drivers/STM32F3xx_HAL_Driver/Src/stm32f3xx_hal_adc.c **** }
 240              		.loc 1 888 1 is_stmt 0 view .LVU42
 241 0000 0120     		movs	r0, #1
 242              	.LVL15:
 243              		.loc 1 888 1 view .LVU43
 244 0002 7047     		bx	lr
 245              		.cfi_endproc
 246              	.LFE138:
 248              		.section	.text.HAL_ADC_Stop_IT,"ax",%progbits
 249              		.align	1
 250              		.weak	HAL_ADC_Stop_IT
 251              		.syntax unified
 252              		.thumb
 253              		.thumb_func
 254              		.fpu fpv4-sp-d16
 256              	HAL_ADC_Stop_IT:
 257              	.LVL16:
 258              	.LFB139:
 889:Drivers/STM32F3xx_HAL_Driver/Src/stm32f3xx_hal_adc.c **** 
 890:Drivers/STM32F3xx_HAL_Driver/Src/stm32f3xx_hal_adc.c **** /**
 891:Drivers/STM32F3xx_HAL_Driver/Src/stm32f3xx_hal_adc.c ****   * @brief  Stop ADC conversion of regular group (and injected group in 
 892:Drivers/STM32F3xx_HAL_Driver/Src/stm32f3xx_hal_adc.c ****   *         case of auto_injection mode), disable interruption of 
 893:Drivers/STM32F3xx_HAL_Driver/Src/stm32f3xx_hal_adc.c ****   *         end-of-conversion, disable ADC peripheral.
 894:Drivers/STM32F3xx_HAL_Driver/Src/stm32f3xx_hal_adc.c ****   * @note:  ADC peripheral disable is forcing stop of potential 
 895:Drivers/STM32F3xx_HAL_Driver/Src/stm32f3xx_hal_adc.c ****   *         conversion on injected group. If injected group is under use, it
 896:Drivers/STM32F3xx_HAL_Driver/Src/stm32f3xx_hal_adc.c ****   *         should be preliminarily stopped using HAL_ADCEx_InjectedStop function.
 897:Drivers/STM32F3xx_HAL_Driver/Src/stm32f3xx_hal_adc.c ****   * @note:  Case of multimode enabled (for devices with several ADCs): This 
 898:Drivers/STM32F3xx_HAL_Driver/Src/stm32f3xx_hal_adc.c ****   *         function must be called for ADC master first, then ADC slave.
 899:Drivers/STM32F3xx_HAL_Driver/Src/stm32f3xx_hal_adc.c ****   *         For ADC master, conversion is stopped and ADC is disabled. 
 900:Drivers/STM32F3xx_HAL_Driver/Src/stm32f3xx_hal_adc.c ****   *         For ADC slave, ADC is disabled only (conversion stop of ADC master
 901:Drivers/STM32F3xx_HAL_Driver/Src/stm32f3xx_hal_adc.c ****   *         has already stopped conversion of ADC slave).
ARM GAS  /var/folders/jw/jcj5j9_530958b2rm5vp9wn00000gn/T//cc3bFcpI.s 			page 21


 902:Drivers/STM32F3xx_HAL_Driver/Src/stm32f3xx_hal_adc.c ****   * @param  hadc ADC handle
 903:Drivers/STM32F3xx_HAL_Driver/Src/stm32f3xx_hal_adc.c ****   * @retval HAL status.
 904:Drivers/STM32F3xx_HAL_Driver/Src/stm32f3xx_hal_adc.c ****   */
 905:Drivers/STM32F3xx_HAL_Driver/Src/stm32f3xx_hal_adc.c **** __weak HAL_StatusTypeDef HAL_ADC_Stop_IT(ADC_HandleTypeDef* hadc)
 906:Drivers/STM32F3xx_HAL_Driver/Src/stm32f3xx_hal_adc.c **** {
 259              		.loc 1 906 1 is_stmt 1 view -0
 260              		.cfi_startproc
 261              		@ args = 0, pretend = 0, frame = 0
 262              		@ frame_needed = 0, uses_anonymous_args = 0
 263              		@ link register save eliminated.
 907:Drivers/STM32F3xx_HAL_Driver/Src/stm32f3xx_hal_adc.c ****   /* Prevent unused argument(s) compilation warning */
 908:Drivers/STM32F3xx_HAL_Driver/Src/stm32f3xx_hal_adc.c ****   UNUSED(hadc);
 264              		.loc 1 908 3 view .LVU45
 909:Drivers/STM32F3xx_HAL_Driver/Src/stm32f3xx_hal_adc.c **** 
 910:Drivers/STM32F3xx_HAL_Driver/Src/stm32f3xx_hal_adc.c ****   /* Note : This function is defined into this file for library reference. */
 911:Drivers/STM32F3xx_HAL_Driver/Src/stm32f3xx_hal_adc.c ****   /*        Function content is located into file stm32f3xx_hal_adc_ex.c   */
 912:Drivers/STM32F3xx_HAL_Driver/Src/stm32f3xx_hal_adc.c ****   
 913:Drivers/STM32F3xx_HAL_Driver/Src/stm32f3xx_hal_adc.c ****   /* Return function status */
 914:Drivers/STM32F3xx_HAL_Driver/Src/stm32f3xx_hal_adc.c ****   return HAL_ERROR;
 265              		.loc 1 914 3 view .LVU46
 915:Drivers/STM32F3xx_HAL_Driver/Src/stm32f3xx_hal_adc.c **** }
 266              		.loc 1 915 1 is_stmt 0 view .LVU47
 267 0000 0120     		movs	r0, #1
 268              	.LVL17:
 269              		.loc 1 915 1 view .LVU48
 270 0002 7047     		bx	lr
 271              		.cfi_endproc
 272              	.LFE139:
 274              		.section	.text.HAL_ADC_Start_DMA,"ax",%progbits
 275              		.align	1
 276              		.weak	HAL_ADC_Start_DMA
 277              		.syntax unified
 278              		.thumb
 279              		.thumb_func
 280              		.fpu fpv4-sp-d16
 282              	HAL_ADC_Start_DMA:
 283              	.LVL18:
 284              	.LFB140:
 916:Drivers/STM32F3xx_HAL_Driver/Src/stm32f3xx_hal_adc.c **** 
 917:Drivers/STM32F3xx_HAL_Driver/Src/stm32f3xx_hal_adc.c **** /**
 918:Drivers/STM32F3xx_HAL_Driver/Src/stm32f3xx_hal_adc.c ****   * @brief  Enables ADC, starts conversion of regular group and transfers result
 919:Drivers/STM32F3xx_HAL_Driver/Src/stm32f3xx_hal_adc.c ****   *         through DMA.
 920:Drivers/STM32F3xx_HAL_Driver/Src/stm32f3xx_hal_adc.c ****   *         Interruptions enabled in this function:
 921:Drivers/STM32F3xx_HAL_Driver/Src/stm32f3xx_hal_adc.c ****   *          - DMA transfer complete
 922:Drivers/STM32F3xx_HAL_Driver/Src/stm32f3xx_hal_adc.c ****   *          - DMA half transfer
 923:Drivers/STM32F3xx_HAL_Driver/Src/stm32f3xx_hal_adc.c ****   *          - overrun (if available)
 924:Drivers/STM32F3xx_HAL_Driver/Src/stm32f3xx_hal_adc.c ****   *         Each of these interruptions has its dedicated callback function.
 925:Drivers/STM32F3xx_HAL_Driver/Src/stm32f3xx_hal_adc.c ****   * @note:  Case of multimode enabled (for devices with several ADCs): This 
 926:Drivers/STM32F3xx_HAL_Driver/Src/stm32f3xx_hal_adc.c ****   *         function is for single-ADC mode only. For multimode, use the 
 927:Drivers/STM32F3xx_HAL_Driver/Src/stm32f3xx_hal_adc.c ****   *         dedicated MultimodeStart function.
 928:Drivers/STM32F3xx_HAL_Driver/Src/stm32f3xx_hal_adc.c ****   * @param  hadc ADC handle
 929:Drivers/STM32F3xx_HAL_Driver/Src/stm32f3xx_hal_adc.c ****   * @param  pData The destination Buffer address.
 930:Drivers/STM32F3xx_HAL_Driver/Src/stm32f3xx_hal_adc.c ****   * @param  Length The length of data to be transferred from ADC peripheral to memory.
 931:Drivers/STM32F3xx_HAL_Driver/Src/stm32f3xx_hal_adc.c ****   * @retval None
 932:Drivers/STM32F3xx_HAL_Driver/Src/stm32f3xx_hal_adc.c ****   */
 933:Drivers/STM32F3xx_HAL_Driver/Src/stm32f3xx_hal_adc.c **** __weak HAL_StatusTypeDef HAL_ADC_Start_DMA(ADC_HandleTypeDef* hadc, uint32_t* pData, uint32_t Lengt
 934:Drivers/STM32F3xx_HAL_Driver/Src/stm32f3xx_hal_adc.c **** {
ARM GAS  /var/folders/jw/jcj5j9_530958b2rm5vp9wn00000gn/T//cc3bFcpI.s 			page 22


 285              		.loc 1 934 1 is_stmt 1 view -0
 286              		.cfi_startproc
 287              		@ args = 0, pretend = 0, frame = 0
 288              		@ frame_needed = 0, uses_anonymous_args = 0
 289              		@ link register save eliminated.
 935:Drivers/STM32F3xx_HAL_Driver/Src/stm32f3xx_hal_adc.c ****   /* Prevent unused argument(s) compilation warning */
 936:Drivers/STM32F3xx_HAL_Driver/Src/stm32f3xx_hal_adc.c ****   UNUSED(hadc);
 290              		.loc 1 936 3 view .LVU50
 937:Drivers/STM32F3xx_HAL_Driver/Src/stm32f3xx_hal_adc.c ****   UNUSED(pData);
 291              		.loc 1 937 3 view .LVU51
 938:Drivers/STM32F3xx_HAL_Driver/Src/stm32f3xx_hal_adc.c ****   UNUSED(Length);
 292              		.loc 1 938 3 view .LVU52
 939:Drivers/STM32F3xx_HAL_Driver/Src/stm32f3xx_hal_adc.c **** 
 940:Drivers/STM32F3xx_HAL_Driver/Src/stm32f3xx_hal_adc.c ****   /* Note : This function is defined into this file for library reference. */
 941:Drivers/STM32F3xx_HAL_Driver/Src/stm32f3xx_hal_adc.c ****   /*        Function content is located into file stm32f3xx_hal_adc_ex.c   */
 942:Drivers/STM32F3xx_HAL_Driver/Src/stm32f3xx_hal_adc.c ****   
 943:Drivers/STM32F3xx_HAL_Driver/Src/stm32f3xx_hal_adc.c ****   /* Return function status */
 944:Drivers/STM32F3xx_HAL_Driver/Src/stm32f3xx_hal_adc.c ****   return HAL_ERROR;
 293              		.loc 1 944 3 view .LVU53
 945:Drivers/STM32F3xx_HAL_Driver/Src/stm32f3xx_hal_adc.c **** }
 294              		.loc 1 945 1 is_stmt 0 view .LVU54
 295 0000 0120     		movs	r0, #1
 296              	.LVL19:
 297              		.loc 1 945 1 view .LVU55
 298 0002 7047     		bx	lr
 299              		.cfi_endproc
 300              	.LFE140:
 302              		.section	.text.HAL_ADC_Stop_DMA,"ax",%progbits
 303              		.align	1
 304              		.weak	HAL_ADC_Stop_DMA
 305              		.syntax unified
 306              		.thumb
 307              		.thumb_func
 308              		.fpu fpv4-sp-d16
 310              	HAL_ADC_Stop_DMA:
 311              	.LVL20:
 312              	.LFB141:
 946:Drivers/STM32F3xx_HAL_Driver/Src/stm32f3xx_hal_adc.c **** 
 947:Drivers/STM32F3xx_HAL_Driver/Src/stm32f3xx_hal_adc.c **** /**
 948:Drivers/STM32F3xx_HAL_Driver/Src/stm32f3xx_hal_adc.c ****   * @brief  Stop ADC conversion of regular group (and injected group in 
 949:Drivers/STM32F3xx_HAL_Driver/Src/stm32f3xx_hal_adc.c ****   *         case of auto_injection mode), disable ADC DMA transfer, disable 
 950:Drivers/STM32F3xx_HAL_Driver/Src/stm32f3xx_hal_adc.c ****   *         ADC peripheral.
 951:Drivers/STM32F3xx_HAL_Driver/Src/stm32f3xx_hal_adc.c ****   * @note:  ADC peripheral disable is forcing stop of potential 
 952:Drivers/STM32F3xx_HAL_Driver/Src/stm32f3xx_hal_adc.c ****   *         conversion on injected group. If injected group is under use, it
 953:Drivers/STM32F3xx_HAL_Driver/Src/stm32f3xx_hal_adc.c ****   *         should be preliminarily stopped using HAL_ADCEx_InjectedStop function.
 954:Drivers/STM32F3xx_HAL_Driver/Src/stm32f3xx_hal_adc.c ****   * @note:  Case of multimode enabled (for devices with several ADCs): This 
 955:Drivers/STM32F3xx_HAL_Driver/Src/stm32f3xx_hal_adc.c ****   *         function is for single-ADC mode only. For multimode, use the 
 956:Drivers/STM32F3xx_HAL_Driver/Src/stm32f3xx_hal_adc.c ****   *         dedicated MultimodeStop function.
 957:Drivers/STM32F3xx_HAL_Driver/Src/stm32f3xx_hal_adc.c ****   * @param  hadc ADC handle
 958:Drivers/STM32F3xx_HAL_Driver/Src/stm32f3xx_hal_adc.c ****   * @retval HAL status.
 959:Drivers/STM32F3xx_HAL_Driver/Src/stm32f3xx_hal_adc.c ****   */
 960:Drivers/STM32F3xx_HAL_Driver/Src/stm32f3xx_hal_adc.c **** __weak HAL_StatusTypeDef HAL_ADC_Stop_DMA(ADC_HandleTypeDef* hadc)
 961:Drivers/STM32F3xx_HAL_Driver/Src/stm32f3xx_hal_adc.c **** {
 313              		.loc 1 961 1 is_stmt 1 view -0
 314              		.cfi_startproc
 315              		@ args = 0, pretend = 0, frame = 0
 316              		@ frame_needed = 0, uses_anonymous_args = 0
ARM GAS  /var/folders/jw/jcj5j9_530958b2rm5vp9wn00000gn/T//cc3bFcpI.s 			page 23


 317              		@ link register save eliminated.
 962:Drivers/STM32F3xx_HAL_Driver/Src/stm32f3xx_hal_adc.c ****   /* Prevent unused argument(s) compilation warning */
 963:Drivers/STM32F3xx_HAL_Driver/Src/stm32f3xx_hal_adc.c ****   UNUSED(hadc);
 318              		.loc 1 963 3 view .LVU57
 964:Drivers/STM32F3xx_HAL_Driver/Src/stm32f3xx_hal_adc.c **** 
 965:Drivers/STM32F3xx_HAL_Driver/Src/stm32f3xx_hal_adc.c ****   /* Note : This function is defined into this file for library reference. */
 966:Drivers/STM32F3xx_HAL_Driver/Src/stm32f3xx_hal_adc.c ****   /*        Function content is located into file stm32f3xx_hal_adc_ex.c   */
 967:Drivers/STM32F3xx_HAL_Driver/Src/stm32f3xx_hal_adc.c ****   
 968:Drivers/STM32F3xx_HAL_Driver/Src/stm32f3xx_hal_adc.c ****   /* Return function status */
 969:Drivers/STM32F3xx_HAL_Driver/Src/stm32f3xx_hal_adc.c ****   return HAL_ERROR;
 319              		.loc 1 969 3 view .LVU58
 970:Drivers/STM32F3xx_HAL_Driver/Src/stm32f3xx_hal_adc.c **** }
 320              		.loc 1 970 1 is_stmt 0 view .LVU59
 321 0000 0120     		movs	r0, #1
 322              	.LVL21:
 323              		.loc 1 970 1 view .LVU60
 324 0002 7047     		bx	lr
 325              		.cfi_endproc
 326              	.LFE141:
 328              		.section	.text.HAL_ADC_GetValue,"ax",%progbits
 329              		.align	1
 330              		.weak	HAL_ADC_GetValue
 331              		.syntax unified
 332              		.thumb
 333              		.thumb_func
 334              		.fpu fpv4-sp-d16
 336              	HAL_ADC_GetValue:
 337              	.LVL22:
 338              	.LFB142:
 971:Drivers/STM32F3xx_HAL_Driver/Src/stm32f3xx_hal_adc.c **** 
 972:Drivers/STM32F3xx_HAL_Driver/Src/stm32f3xx_hal_adc.c **** /**
 973:Drivers/STM32F3xx_HAL_Driver/Src/stm32f3xx_hal_adc.c ****   * @brief  Get ADC regular group conversion result.
 974:Drivers/STM32F3xx_HAL_Driver/Src/stm32f3xx_hal_adc.c ****   * @note   Reading DR register automatically clears EOC (end of conversion of
 975:Drivers/STM32F3xx_HAL_Driver/Src/stm32f3xx_hal_adc.c ****   *         regular group) flag.
 976:Drivers/STM32F3xx_HAL_Driver/Src/stm32f3xx_hal_adc.c ****   *         Additionally, this functions clears EOS (end of sequence of
 977:Drivers/STM32F3xx_HAL_Driver/Src/stm32f3xx_hal_adc.c ****   *         regular group) flag, in case of the end of the sequence is reached.
 978:Drivers/STM32F3xx_HAL_Driver/Src/stm32f3xx_hal_adc.c ****   * @param  hadc ADC handle
 979:Drivers/STM32F3xx_HAL_Driver/Src/stm32f3xx_hal_adc.c ****   * @retval Converted value
 980:Drivers/STM32F3xx_HAL_Driver/Src/stm32f3xx_hal_adc.c ****   */
 981:Drivers/STM32F3xx_HAL_Driver/Src/stm32f3xx_hal_adc.c **** __weak uint32_t HAL_ADC_GetValue(ADC_HandleTypeDef* hadc)
 982:Drivers/STM32F3xx_HAL_Driver/Src/stm32f3xx_hal_adc.c **** {
 339              		.loc 1 982 1 is_stmt 1 view -0
 340              		.cfi_startproc
 341              		@ args = 0, pretend = 0, frame = 0
 342              		@ frame_needed = 0, uses_anonymous_args = 0
 343              		@ link register save eliminated.
 983:Drivers/STM32F3xx_HAL_Driver/Src/stm32f3xx_hal_adc.c ****   /* Note : This function is defined into this file for library reference. */
 984:Drivers/STM32F3xx_HAL_Driver/Src/stm32f3xx_hal_adc.c ****   /*        Function content is located into file stm32f3xx_hal_adc_ex.c   */
 985:Drivers/STM32F3xx_HAL_Driver/Src/stm32f3xx_hal_adc.c ****   
 986:Drivers/STM32F3xx_HAL_Driver/Src/stm32f3xx_hal_adc.c ****   /* Return ADC converted value */ 
 987:Drivers/STM32F3xx_HAL_Driver/Src/stm32f3xx_hal_adc.c ****   return hadc->Instance->DR;
 344              		.loc 1 987 3 view .LVU62
 345              		.loc 1 987 14 is_stmt 0 view .LVU63
 346 0000 0368     		ldr	r3, [r0]
 347              		.loc 1 987 24 view .LVU64
 348 0002 D86C     		ldr	r0, [r3, #76]
 349              	.LVL23:
ARM GAS  /var/folders/jw/jcj5j9_530958b2rm5vp9wn00000gn/T//cc3bFcpI.s 			page 24


 988:Drivers/STM32F3xx_HAL_Driver/Src/stm32f3xx_hal_adc.c **** }
 350              		.loc 1 988 1 view .LVU65
 351 0004 7047     		bx	lr
 352              		.cfi_endproc
 353              	.LFE142:
 355              		.section	.text.HAL_ADC_IRQHandler,"ax",%progbits
 356              		.align	1
 357              		.weak	HAL_ADC_IRQHandler
 358              		.syntax unified
 359              		.thumb
 360              		.thumb_func
 361              		.fpu fpv4-sp-d16
 363              	HAL_ADC_IRQHandler:
 364              	.LVL24:
 365              	.LFB143:
 989:Drivers/STM32F3xx_HAL_Driver/Src/stm32f3xx_hal_adc.c **** 
 990:Drivers/STM32F3xx_HAL_Driver/Src/stm32f3xx_hal_adc.c **** /**
 991:Drivers/STM32F3xx_HAL_Driver/Src/stm32f3xx_hal_adc.c ****   * @brief  Handles ADC interrupt request.  
 992:Drivers/STM32F3xx_HAL_Driver/Src/stm32f3xx_hal_adc.c ****   * @param  hadc ADC handle
 993:Drivers/STM32F3xx_HAL_Driver/Src/stm32f3xx_hal_adc.c ****   * @retval None
 994:Drivers/STM32F3xx_HAL_Driver/Src/stm32f3xx_hal_adc.c ****   */
 995:Drivers/STM32F3xx_HAL_Driver/Src/stm32f3xx_hal_adc.c **** __weak void HAL_ADC_IRQHandler(ADC_HandleTypeDef* hadc)
 996:Drivers/STM32F3xx_HAL_Driver/Src/stm32f3xx_hal_adc.c **** {
 366              		.loc 1 996 1 is_stmt 1 view -0
 367              		.cfi_startproc
 368              		@ args = 0, pretend = 0, frame = 0
 369              		@ frame_needed = 0, uses_anonymous_args = 0
 370              		@ link register save eliminated.
 997:Drivers/STM32F3xx_HAL_Driver/Src/stm32f3xx_hal_adc.c ****   /* Prevent unused argument(s) compilation warning */
 998:Drivers/STM32F3xx_HAL_Driver/Src/stm32f3xx_hal_adc.c ****   UNUSED(hadc);
 371              		.loc 1 998 3 view .LVU67
 999:Drivers/STM32F3xx_HAL_Driver/Src/stm32f3xx_hal_adc.c **** 
1000:Drivers/STM32F3xx_HAL_Driver/Src/stm32f3xx_hal_adc.c ****   /* Note : This function is defined into this file for library reference. */
1001:Drivers/STM32F3xx_HAL_Driver/Src/stm32f3xx_hal_adc.c ****   /*        Function content is located into file stm32f3xx_hal_adc_ex.c   */
1002:Drivers/STM32F3xx_HAL_Driver/Src/stm32f3xx_hal_adc.c **** }
 372              		.loc 1 1002 1 is_stmt 0 view .LVU68
 373 0000 7047     		bx	lr
 374              		.cfi_endproc
 375              	.LFE143:
 377              		.section	.text.HAL_ADC_ConvCpltCallback,"ax",%progbits
 378              		.align	1
 379              		.weak	HAL_ADC_ConvCpltCallback
 380              		.syntax unified
 381              		.thumb
 382              		.thumb_func
 383              		.fpu fpv4-sp-d16
 385              	HAL_ADC_ConvCpltCallback:
 386              	.LVL25:
 387              	.LFB144:
1003:Drivers/STM32F3xx_HAL_Driver/Src/stm32f3xx_hal_adc.c **** 
1004:Drivers/STM32F3xx_HAL_Driver/Src/stm32f3xx_hal_adc.c **** /**
1005:Drivers/STM32F3xx_HAL_Driver/Src/stm32f3xx_hal_adc.c ****   * @brief  Conversion complete callback in non blocking mode 
1006:Drivers/STM32F3xx_HAL_Driver/Src/stm32f3xx_hal_adc.c ****   * @param  hadc ADC handle
1007:Drivers/STM32F3xx_HAL_Driver/Src/stm32f3xx_hal_adc.c ****   * @retval None
1008:Drivers/STM32F3xx_HAL_Driver/Src/stm32f3xx_hal_adc.c ****   */
1009:Drivers/STM32F3xx_HAL_Driver/Src/stm32f3xx_hal_adc.c **** __weak void HAL_ADC_ConvCpltCallback(ADC_HandleTypeDef* hadc)
1010:Drivers/STM32F3xx_HAL_Driver/Src/stm32f3xx_hal_adc.c **** {
ARM GAS  /var/folders/jw/jcj5j9_530958b2rm5vp9wn00000gn/T//cc3bFcpI.s 			page 25


 388              		.loc 1 1010 1 is_stmt 1 view -0
 389              		.cfi_startproc
 390              		@ args = 0, pretend = 0, frame = 0
 391              		@ frame_needed = 0, uses_anonymous_args = 0
 392              		@ link register save eliminated.
1011:Drivers/STM32F3xx_HAL_Driver/Src/stm32f3xx_hal_adc.c ****   /* Prevent unused argument(s) compilation warning */
1012:Drivers/STM32F3xx_HAL_Driver/Src/stm32f3xx_hal_adc.c ****   UNUSED(hadc);
 393              		.loc 1 1012 3 view .LVU70
1013:Drivers/STM32F3xx_HAL_Driver/Src/stm32f3xx_hal_adc.c **** 
1014:Drivers/STM32F3xx_HAL_Driver/Src/stm32f3xx_hal_adc.c ****   /* NOTE : This function should not be modified. When the callback is needed,
1015:Drivers/STM32F3xx_HAL_Driver/Src/stm32f3xx_hal_adc.c ****             function HAL_ADC_ConvCpltCallback must be implemented in the user file.
1016:Drivers/STM32F3xx_HAL_Driver/Src/stm32f3xx_hal_adc.c ****    */
1017:Drivers/STM32F3xx_HAL_Driver/Src/stm32f3xx_hal_adc.c **** }
 394              		.loc 1 1017 1 is_stmt 0 view .LVU71
 395 0000 7047     		bx	lr
 396              		.cfi_endproc
 397              	.LFE144:
 399              		.section	.text.HAL_ADC_ConvHalfCpltCallback,"ax",%progbits
 400              		.align	1
 401              		.weak	HAL_ADC_ConvHalfCpltCallback
 402              		.syntax unified
 403              		.thumb
 404              		.thumb_func
 405              		.fpu fpv4-sp-d16
 407              	HAL_ADC_ConvHalfCpltCallback:
 408              	.LVL26:
 409              	.LFB145:
1018:Drivers/STM32F3xx_HAL_Driver/Src/stm32f3xx_hal_adc.c **** 
1019:Drivers/STM32F3xx_HAL_Driver/Src/stm32f3xx_hal_adc.c **** /**
1020:Drivers/STM32F3xx_HAL_Driver/Src/stm32f3xx_hal_adc.c ****   * @brief  Conversion DMA half-transfer callback in non blocking mode 
1021:Drivers/STM32F3xx_HAL_Driver/Src/stm32f3xx_hal_adc.c ****   * @param  hadc ADC handle
1022:Drivers/STM32F3xx_HAL_Driver/Src/stm32f3xx_hal_adc.c ****   * @retval None
1023:Drivers/STM32F3xx_HAL_Driver/Src/stm32f3xx_hal_adc.c ****   */
1024:Drivers/STM32F3xx_HAL_Driver/Src/stm32f3xx_hal_adc.c **** __weak void HAL_ADC_ConvHalfCpltCallback(ADC_HandleTypeDef* hadc)
1025:Drivers/STM32F3xx_HAL_Driver/Src/stm32f3xx_hal_adc.c **** {
 410              		.loc 1 1025 1 is_stmt 1 view -0
 411              		.cfi_startproc
 412              		@ args = 0, pretend = 0, frame = 0
 413              		@ frame_needed = 0, uses_anonymous_args = 0
 414              		@ link register save eliminated.
1026:Drivers/STM32F3xx_HAL_Driver/Src/stm32f3xx_hal_adc.c ****   /* Prevent unused argument(s) compilation warning */
1027:Drivers/STM32F3xx_HAL_Driver/Src/stm32f3xx_hal_adc.c ****   UNUSED(hadc);
 415              		.loc 1 1027 3 view .LVU73
1028:Drivers/STM32F3xx_HAL_Driver/Src/stm32f3xx_hal_adc.c **** 
1029:Drivers/STM32F3xx_HAL_Driver/Src/stm32f3xx_hal_adc.c ****   /* NOTE : This function should not be modified. When the callback is needed,
1030:Drivers/STM32F3xx_HAL_Driver/Src/stm32f3xx_hal_adc.c ****             function HAL_ADC_ConvHalfCpltCallback must be implemented in the user file.
1031:Drivers/STM32F3xx_HAL_Driver/Src/stm32f3xx_hal_adc.c ****   */
1032:Drivers/STM32F3xx_HAL_Driver/Src/stm32f3xx_hal_adc.c **** }
 416              		.loc 1 1032 1 is_stmt 0 view .LVU74
 417 0000 7047     		bx	lr
 418              		.cfi_endproc
 419              	.LFE145:
 421              		.section	.text.HAL_ADC_LevelOutOfWindowCallback,"ax",%progbits
 422              		.align	1
 423              		.weak	HAL_ADC_LevelOutOfWindowCallback
 424              		.syntax unified
 425              		.thumb
ARM GAS  /var/folders/jw/jcj5j9_530958b2rm5vp9wn00000gn/T//cc3bFcpI.s 			page 26


 426              		.thumb_func
 427              		.fpu fpv4-sp-d16
 429              	HAL_ADC_LevelOutOfWindowCallback:
 430              	.LVL27:
 431              	.LFB146:
1033:Drivers/STM32F3xx_HAL_Driver/Src/stm32f3xx_hal_adc.c **** 
1034:Drivers/STM32F3xx_HAL_Driver/Src/stm32f3xx_hal_adc.c **** /**
1035:Drivers/STM32F3xx_HAL_Driver/Src/stm32f3xx_hal_adc.c ****   * @brief  Analog watchdog callback in non blocking mode. 
1036:Drivers/STM32F3xx_HAL_Driver/Src/stm32f3xx_hal_adc.c ****   * @param  hadc ADC handle
1037:Drivers/STM32F3xx_HAL_Driver/Src/stm32f3xx_hal_adc.c ****   * @retval None
1038:Drivers/STM32F3xx_HAL_Driver/Src/stm32f3xx_hal_adc.c ****   */
1039:Drivers/STM32F3xx_HAL_Driver/Src/stm32f3xx_hal_adc.c **** __weak void HAL_ADC_LevelOutOfWindowCallback(ADC_HandleTypeDef* hadc)
1040:Drivers/STM32F3xx_HAL_Driver/Src/stm32f3xx_hal_adc.c **** {
 432              		.loc 1 1040 1 is_stmt 1 view -0
 433              		.cfi_startproc
 434              		@ args = 0, pretend = 0, frame = 0
 435              		@ frame_needed = 0, uses_anonymous_args = 0
 436              		@ link register save eliminated.
1041:Drivers/STM32F3xx_HAL_Driver/Src/stm32f3xx_hal_adc.c ****   /* Prevent unused argument(s) compilation warning */
1042:Drivers/STM32F3xx_HAL_Driver/Src/stm32f3xx_hal_adc.c ****   UNUSED(hadc);
 437              		.loc 1 1042 3 view .LVU76
1043:Drivers/STM32F3xx_HAL_Driver/Src/stm32f3xx_hal_adc.c **** 
1044:Drivers/STM32F3xx_HAL_Driver/Src/stm32f3xx_hal_adc.c ****   /* NOTE : This function should not be modified. When the callback is needed,
1045:Drivers/STM32F3xx_HAL_Driver/Src/stm32f3xx_hal_adc.c ****             function HAL_ADC_LevelOoutOfWindowCallback must be implemented in the user file.
1046:Drivers/STM32F3xx_HAL_Driver/Src/stm32f3xx_hal_adc.c ****   */
1047:Drivers/STM32F3xx_HAL_Driver/Src/stm32f3xx_hal_adc.c **** }
 438              		.loc 1 1047 1 is_stmt 0 view .LVU77
 439 0000 7047     		bx	lr
 440              		.cfi_endproc
 441              	.LFE146:
 443              		.section	.text.HAL_ADC_ErrorCallback,"ax",%progbits
 444              		.align	1
 445              		.weak	HAL_ADC_ErrorCallback
 446              		.syntax unified
 447              		.thumb
 448              		.thumb_func
 449              		.fpu fpv4-sp-d16
 451              	HAL_ADC_ErrorCallback:
 452              	.LVL28:
 453              	.LFB147:
1048:Drivers/STM32F3xx_HAL_Driver/Src/stm32f3xx_hal_adc.c **** 
1049:Drivers/STM32F3xx_HAL_Driver/Src/stm32f3xx_hal_adc.c **** /**
1050:Drivers/STM32F3xx_HAL_Driver/Src/stm32f3xx_hal_adc.c ****   * @brief  ADC error callback in non blocking mode
1051:Drivers/STM32F3xx_HAL_Driver/Src/stm32f3xx_hal_adc.c ****   *        (ADC conversion with interruption or transfer by DMA)
1052:Drivers/STM32F3xx_HAL_Driver/Src/stm32f3xx_hal_adc.c ****   * @param  hadc ADC handle
1053:Drivers/STM32F3xx_HAL_Driver/Src/stm32f3xx_hal_adc.c ****   * @retval None
1054:Drivers/STM32F3xx_HAL_Driver/Src/stm32f3xx_hal_adc.c ****   */
1055:Drivers/STM32F3xx_HAL_Driver/Src/stm32f3xx_hal_adc.c **** __weak void HAL_ADC_ErrorCallback(ADC_HandleTypeDef *hadc)
1056:Drivers/STM32F3xx_HAL_Driver/Src/stm32f3xx_hal_adc.c **** {
 454              		.loc 1 1056 1 is_stmt 1 view -0
 455              		.cfi_startproc
 456              		@ args = 0, pretend = 0, frame = 0
 457              		@ frame_needed = 0, uses_anonymous_args = 0
 458              		@ link register save eliminated.
1057:Drivers/STM32F3xx_HAL_Driver/Src/stm32f3xx_hal_adc.c ****   /* Prevent unused argument(s) compilation warning */
1058:Drivers/STM32F3xx_HAL_Driver/Src/stm32f3xx_hal_adc.c ****   UNUSED(hadc);
 459              		.loc 1 1058 3 view .LVU79
ARM GAS  /var/folders/jw/jcj5j9_530958b2rm5vp9wn00000gn/T//cc3bFcpI.s 			page 27


1059:Drivers/STM32F3xx_HAL_Driver/Src/stm32f3xx_hal_adc.c **** 
1060:Drivers/STM32F3xx_HAL_Driver/Src/stm32f3xx_hal_adc.c ****   /* NOTE : This function should not be modified. When the callback is needed,
1061:Drivers/STM32F3xx_HAL_Driver/Src/stm32f3xx_hal_adc.c ****             function HAL_ADC_ErrorCallback must be implemented in the user file.
1062:Drivers/STM32F3xx_HAL_Driver/Src/stm32f3xx_hal_adc.c ****   */
1063:Drivers/STM32F3xx_HAL_Driver/Src/stm32f3xx_hal_adc.c **** }
 460              		.loc 1 1063 1 is_stmt 0 view .LVU80
 461 0000 7047     		bx	lr
 462              		.cfi_endproc
 463              	.LFE147:
 465              		.section	.text.HAL_ADC_ConfigChannel,"ax",%progbits
 466              		.align	1
 467              		.weak	HAL_ADC_ConfigChannel
 468              		.syntax unified
 469              		.thumb
 470              		.thumb_func
 471              		.fpu fpv4-sp-d16
 473              	HAL_ADC_ConfigChannel:
 474              	.LVL29:
 475              	.LFB148:
1064:Drivers/STM32F3xx_HAL_Driver/Src/stm32f3xx_hal_adc.c **** 
1065:Drivers/STM32F3xx_HAL_Driver/Src/stm32f3xx_hal_adc.c **** /**
1066:Drivers/STM32F3xx_HAL_Driver/Src/stm32f3xx_hal_adc.c ****   * @}
1067:Drivers/STM32F3xx_HAL_Driver/Src/stm32f3xx_hal_adc.c ****   */
1068:Drivers/STM32F3xx_HAL_Driver/Src/stm32f3xx_hal_adc.c **** 
1069:Drivers/STM32F3xx_HAL_Driver/Src/stm32f3xx_hal_adc.c **** /** @defgroup ADC_Exported_Functions_Group3 Peripheral Control functions
1070:Drivers/STM32F3xx_HAL_Driver/Src/stm32f3xx_hal_adc.c ****  *  @brief    Peripheral Control functions 
1071:Drivers/STM32F3xx_HAL_Driver/Src/stm32f3xx_hal_adc.c ****  *
1072:Drivers/STM32F3xx_HAL_Driver/Src/stm32f3xx_hal_adc.c **** @verbatim   
1073:Drivers/STM32F3xx_HAL_Driver/Src/stm32f3xx_hal_adc.c ****  ===============================================================================
1074:Drivers/STM32F3xx_HAL_Driver/Src/stm32f3xx_hal_adc.c ****              ##### Peripheral Control functions #####
1075:Drivers/STM32F3xx_HAL_Driver/Src/stm32f3xx_hal_adc.c ****  ===============================================================================  
1076:Drivers/STM32F3xx_HAL_Driver/Src/stm32f3xx_hal_adc.c ****     [..]  This section provides functions allowing to:
1077:Drivers/STM32F3xx_HAL_Driver/Src/stm32f3xx_hal_adc.c ****       (+) Configure channels on regular group
1078:Drivers/STM32F3xx_HAL_Driver/Src/stm32f3xx_hal_adc.c ****       (+) Configure the analog watchdog
1079:Drivers/STM32F3xx_HAL_Driver/Src/stm32f3xx_hal_adc.c ****       
1080:Drivers/STM32F3xx_HAL_Driver/Src/stm32f3xx_hal_adc.c **** @endverbatim
1081:Drivers/STM32F3xx_HAL_Driver/Src/stm32f3xx_hal_adc.c ****   * @{
1082:Drivers/STM32F3xx_HAL_Driver/Src/stm32f3xx_hal_adc.c ****   */
1083:Drivers/STM32F3xx_HAL_Driver/Src/stm32f3xx_hal_adc.c **** 
1084:Drivers/STM32F3xx_HAL_Driver/Src/stm32f3xx_hal_adc.c **** /**
1085:Drivers/STM32F3xx_HAL_Driver/Src/stm32f3xx_hal_adc.c ****   * @brief  Configures the the selected channel to be linked to the regular
1086:Drivers/STM32F3xx_HAL_Driver/Src/stm32f3xx_hal_adc.c ****   *         group.
1087:Drivers/STM32F3xx_HAL_Driver/Src/stm32f3xx_hal_adc.c ****   * @note   In case of usage of internal measurement channels:
1088:Drivers/STM32F3xx_HAL_Driver/Src/stm32f3xx_hal_adc.c ****   *         Vbat/VrefInt/TempSensor.
1089:Drivers/STM32F3xx_HAL_Driver/Src/stm32f3xx_hal_adc.c ****   *         The recommended sampling time is at least:
1090:Drivers/STM32F3xx_HAL_Driver/Src/stm32f3xx_hal_adc.c ****   *          - For devices STM32F37x: 17.1us for temperature sensor
1091:Drivers/STM32F3xx_HAL_Driver/Src/stm32f3xx_hal_adc.c ****   *          - For the other STM32F3 devices: 2.2us for each of channels 
1092:Drivers/STM32F3xx_HAL_Driver/Src/stm32f3xx_hal_adc.c ****   *            Vbat/VrefInt/TempSensor.
1093:Drivers/STM32F3xx_HAL_Driver/Src/stm32f3xx_hal_adc.c ****   *         These internal paths can be be disabled using function 
1094:Drivers/STM32F3xx_HAL_Driver/Src/stm32f3xx_hal_adc.c ****   *         HAL_ADC_DeInit().
1095:Drivers/STM32F3xx_HAL_Driver/Src/stm32f3xx_hal_adc.c ****   * @note   Possibility to update parameters on the fly:
1096:Drivers/STM32F3xx_HAL_Driver/Src/stm32f3xx_hal_adc.c ****   *         This function initializes channel into regular group, following  
1097:Drivers/STM32F3xx_HAL_Driver/Src/stm32f3xx_hal_adc.c ****   *         calls to this function can be used to reconfigure some parameters 
1098:Drivers/STM32F3xx_HAL_Driver/Src/stm32f3xx_hal_adc.c ****   *         of structure "ADC_ChannelConfTypeDef" on the fly, without reseting 
1099:Drivers/STM32F3xx_HAL_Driver/Src/stm32f3xx_hal_adc.c ****   *         the ADC.
1100:Drivers/STM32F3xx_HAL_Driver/Src/stm32f3xx_hal_adc.c ****   *         The setting of these parameters is conditioned to ADC state.
1101:Drivers/STM32F3xx_HAL_Driver/Src/stm32f3xx_hal_adc.c ****   *         For parameters constraints, see comments of structure 
ARM GAS  /var/folders/jw/jcj5j9_530958b2rm5vp9wn00000gn/T//cc3bFcpI.s 			page 28


1102:Drivers/STM32F3xx_HAL_Driver/Src/stm32f3xx_hal_adc.c ****   *         "ADC_ChannelConfTypeDef".
1103:Drivers/STM32F3xx_HAL_Driver/Src/stm32f3xx_hal_adc.c ****   * @param  hadc ADC handle
1104:Drivers/STM32F3xx_HAL_Driver/Src/stm32f3xx_hal_adc.c ****   * @param  sConfig Structure of ADC channel for regular group.
1105:Drivers/STM32F3xx_HAL_Driver/Src/stm32f3xx_hal_adc.c ****   * @retval HAL status
1106:Drivers/STM32F3xx_HAL_Driver/Src/stm32f3xx_hal_adc.c ****   */
1107:Drivers/STM32F3xx_HAL_Driver/Src/stm32f3xx_hal_adc.c **** __weak HAL_StatusTypeDef HAL_ADC_ConfigChannel(ADC_HandleTypeDef* hadc, ADC_ChannelConfTypeDef* sCo
1108:Drivers/STM32F3xx_HAL_Driver/Src/stm32f3xx_hal_adc.c **** {
 476              		.loc 1 1108 1 is_stmt 1 view -0
 477              		.cfi_startproc
 478              		@ args = 0, pretend = 0, frame = 0
 479              		@ frame_needed = 0, uses_anonymous_args = 0
 480              		@ link register save eliminated.
1109:Drivers/STM32F3xx_HAL_Driver/Src/stm32f3xx_hal_adc.c ****   /* Prevent unused argument(s) compilation warning */
1110:Drivers/STM32F3xx_HAL_Driver/Src/stm32f3xx_hal_adc.c ****   UNUSED(hadc);
 481              		.loc 1 1110 3 view .LVU82
1111:Drivers/STM32F3xx_HAL_Driver/Src/stm32f3xx_hal_adc.c ****   UNUSED(sConfig);
 482              		.loc 1 1111 3 view .LVU83
1112:Drivers/STM32F3xx_HAL_Driver/Src/stm32f3xx_hal_adc.c **** 
1113:Drivers/STM32F3xx_HAL_Driver/Src/stm32f3xx_hal_adc.c ****   /* Note : This function is defined into this file for library reference. */
1114:Drivers/STM32F3xx_HAL_Driver/Src/stm32f3xx_hal_adc.c ****   /*        Function content is located into file stm32f3xx_hal_adc_ex.c   */
1115:Drivers/STM32F3xx_HAL_Driver/Src/stm32f3xx_hal_adc.c ****   
1116:Drivers/STM32F3xx_HAL_Driver/Src/stm32f3xx_hal_adc.c ****   /* Return function status */
1117:Drivers/STM32F3xx_HAL_Driver/Src/stm32f3xx_hal_adc.c ****   return HAL_ERROR;
 483              		.loc 1 1117 3 view .LVU84
1118:Drivers/STM32F3xx_HAL_Driver/Src/stm32f3xx_hal_adc.c **** }
 484              		.loc 1 1118 1 is_stmt 0 view .LVU85
 485 0000 0120     		movs	r0, #1
 486              	.LVL30:
 487              		.loc 1 1118 1 view .LVU86
 488 0002 7047     		bx	lr
 489              		.cfi_endproc
 490              	.LFE148:
 492              		.section	.text.HAL_ADC_AnalogWDGConfig,"ax",%progbits
 493              		.align	1
 494              		.weak	HAL_ADC_AnalogWDGConfig
 495              		.syntax unified
 496              		.thumb
 497              		.thumb_func
 498              		.fpu fpv4-sp-d16
 500              	HAL_ADC_AnalogWDGConfig:
 501              	.LVL31:
 502              	.LFB149:
1119:Drivers/STM32F3xx_HAL_Driver/Src/stm32f3xx_hal_adc.c **** 
1120:Drivers/STM32F3xx_HAL_Driver/Src/stm32f3xx_hal_adc.c **** /**
1121:Drivers/STM32F3xx_HAL_Driver/Src/stm32f3xx_hal_adc.c ****   * @brief  Configures the analog watchdog.
1122:Drivers/STM32F3xx_HAL_Driver/Src/stm32f3xx_hal_adc.c ****   * @note   Possibility to update parameters on the fly:
1123:Drivers/STM32F3xx_HAL_Driver/Src/stm32f3xx_hal_adc.c ****   *         This function initializes the selected analog watchdog, following  
1124:Drivers/STM32F3xx_HAL_Driver/Src/stm32f3xx_hal_adc.c ****   *         calls to this function can be used to reconfigure some parameters 
1125:Drivers/STM32F3xx_HAL_Driver/Src/stm32f3xx_hal_adc.c ****   *         of structure "ADC_AnalogWDGConfTypeDef" on the fly, without reseting 
1126:Drivers/STM32F3xx_HAL_Driver/Src/stm32f3xx_hal_adc.c ****   *         the ADC.
1127:Drivers/STM32F3xx_HAL_Driver/Src/stm32f3xx_hal_adc.c ****   *         The setting of these parameters is conditioned to ADC state.
1128:Drivers/STM32F3xx_HAL_Driver/Src/stm32f3xx_hal_adc.c ****   *         For parameters constraints, see comments of structure 
1129:Drivers/STM32F3xx_HAL_Driver/Src/stm32f3xx_hal_adc.c ****   *         "ADC_AnalogWDGConfTypeDef".
1130:Drivers/STM32F3xx_HAL_Driver/Src/stm32f3xx_hal_adc.c ****   * @param  hadc ADC handle
1131:Drivers/STM32F3xx_HAL_Driver/Src/stm32f3xx_hal_adc.c ****   * @param  AnalogWDGConfig Structure of ADC analog watchdog configuration
1132:Drivers/STM32F3xx_HAL_Driver/Src/stm32f3xx_hal_adc.c ****   * @retval HAL status
1133:Drivers/STM32F3xx_HAL_Driver/Src/stm32f3xx_hal_adc.c ****   */
ARM GAS  /var/folders/jw/jcj5j9_530958b2rm5vp9wn00000gn/T//cc3bFcpI.s 			page 29


1134:Drivers/STM32F3xx_HAL_Driver/Src/stm32f3xx_hal_adc.c **** __weak HAL_StatusTypeDef HAL_ADC_AnalogWDGConfig(ADC_HandleTypeDef* hadc, ADC_AnalogWDGConfTypeDef*
1135:Drivers/STM32F3xx_HAL_Driver/Src/stm32f3xx_hal_adc.c **** {
 503              		.loc 1 1135 1 is_stmt 1 view -0
 504              		.cfi_startproc
 505              		@ args = 0, pretend = 0, frame = 0
 506              		@ frame_needed = 0, uses_anonymous_args = 0
 507              		@ link register save eliminated.
1136:Drivers/STM32F3xx_HAL_Driver/Src/stm32f3xx_hal_adc.c ****   /* Prevent unused argument(s) compilation warning */
1137:Drivers/STM32F3xx_HAL_Driver/Src/stm32f3xx_hal_adc.c ****   UNUSED(hadc);
 508              		.loc 1 1137 3 view .LVU88
1138:Drivers/STM32F3xx_HAL_Driver/Src/stm32f3xx_hal_adc.c ****   UNUSED(AnalogWDGConfig);
 509              		.loc 1 1138 3 view .LVU89
1139:Drivers/STM32F3xx_HAL_Driver/Src/stm32f3xx_hal_adc.c **** 
1140:Drivers/STM32F3xx_HAL_Driver/Src/stm32f3xx_hal_adc.c ****   /* Note : This function is defined into this file for library reference. */
1141:Drivers/STM32F3xx_HAL_Driver/Src/stm32f3xx_hal_adc.c ****   /*        Function content is located into file stm32f3xx_hal_adc_ex.c   */
1142:Drivers/STM32F3xx_HAL_Driver/Src/stm32f3xx_hal_adc.c ****   
1143:Drivers/STM32F3xx_HAL_Driver/Src/stm32f3xx_hal_adc.c ****   /* Return function status */
1144:Drivers/STM32F3xx_HAL_Driver/Src/stm32f3xx_hal_adc.c ****   return HAL_ERROR;
 510              		.loc 1 1144 3 view .LVU90
1145:Drivers/STM32F3xx_HAL_Driver/Src/stm32f3xx_hal_adc.c **** }
 511              		.loc 1 1145 1 is_stmt 0 view .LVU91
 512 0000 0120     		movs	r0, #1
 513              	.LVL32:
 514              		.loc 1 1145 1 view .LVU92
 515 0002 7047     		bx	lr
 516              		.cfi_endproc
 517              	.LFE149:
 519              		.section	.text.HAL_ADC_GetState,"ax",%progbits
 520              		.align	1
 521              		.global	HAL_ADC_GetState
 522              		.syntax unified
 523              		.thumb
 524              		.thumb_func
 525              		.fpu fpv4-sp-d16
 527              	HAL_ADC_GetState:
 528              	.LVL33:
 529              	.LFB150:
1146:Drivers/STM32F3xx_HAL_Driver/Src/stm32f3xx_hal_adc.c **** 
1147:Drivers/STM32F3xx_HAL_Driver/Src/stm32f3xx_hal_adc.c **** /**
1148:Drivers/STM32F3xx_HAL_Driver/Src/stm32f3xx_hal_adc.c ****   * @}
1149:Drivers/STM32F3xx_HAL_Driver/Src/stm32f3xx_hal_adc.c ****   */
1150:Drivers/STM32F3xx_HAL_Driver/Src/stm32f3xx_hal_adc.c **** 
1151:Drivers/STM32F3xx_HAL_Driver/Src/stm32f3xx_hal_adc.c **** /** @defgroup ADC_Exported_Functions_Group4 Peripheral State functions
1152:Drivers/STM32F3xx_HAL_Driver/Src/stm32f3xx_hal_adc.c ****  *  @brief   ADC Peripheral State functions 
1153:Drivers/STM32F3xx_HAL_Driver/Src/stm32f3xx_hal_adc.c ****  *
1154:Drivers/STM32F3xx_HAL_Driver/Src/stm32f3xx_hal_adc.c **** @verbatim   
1155:Drivers/STM32F3xx_HAL_Driver/Src/stm32f3xx_hal_adc.c ****  ===============================================================================
1156:Drivers/STM32F3xx_HAL_Driver/Src/stm32f3xx_hal_adc.c ****             ##### Peripheral state and errors functions #####
1157:Drivers/STM32F3xx_HAL_Driver/Src/stm32f3xx_hal_adc.c ****  ===============================================================================
1158:Drivers/STM32F3xx_HAL_Driver/Src/stm32f3xx_hal_adc.c ****     [..]
1159:Drivers/STM32F3xx_HAL_Driver/Src/stm32f3xx_hal_adc.c ****     This subsection provides functions to get in run-time the status of the  
1160:Drivers/STM32F3xx_HAL_Driver/Src/stm32f3xx_hal_adc.c ****     peripheral.
1161:Drivers/STM32F3xx_HAL_Driver/Src/stm32f3xx_hal_adc.c ****       (+) Check the ADC state
1162:Drivers/STM32F3xx_HAL_Driver/Src/stm32f3xx_hal_adc.c ****       (+) Check the ADC error code
1163:Drivers/STM32F3xx_HAL_Driver/Src/stm32f3xx_hal_adc.c ****          
1164:Drivers/STM32F3xx_HAL_Driver/Src/stm32f3xx_hal_adc.c **** @endverbatim
1165:Drivers/STM32F3xx_HAL_Driver/Src/stm32f3xx_hal_adc.c ****   * @{
ARM GAS  /var/folders/jw/jcj5j9_530958b2rm5vp9wn00000gn/T//cc3bFcpI.s 			page 30


1166:Drivers/STM32F3xx_HAL_Driver/Src/stm32f3xx_hal_adc.c ****   */
1167:Drivers/STM32F3xx_HAL_Driver/Src/stm32f3xx_hal_adc.c ****   
1168:Drivers/STM32F3xx_HAL_Driver/Src/stm32f3xx_hal_adc.c **** /**
1169:Drivers/STM32F3xx_HAL_Driver/Src/stm32f3xx_hal_adc.c ****   * @brief  return the ADC state
1170:Drivers/STM32F3xx_HAL_Driver/Src/stm32f3xx_hal_adc.c ****   * @note   ADC state machine is managed by bitfield, state must be compared
1171:Drivers/STM32F3xx_HAL_Driver/Src/stm32f3xx_hal_adc.c ****   *         with bit by bit.
1172:Drivers/STM32F3xx_HAL_Driver/Src/stm32f3xx_hal_adc.c ****   *         For example:                                                         
1173:Drivers/STM32F3xx_HAL_Driver/Src/stm32f3xx_hal_adc.c ****   *           " if (HAL_IS_BIT_SET(HAL_ADC_GetState(hadc1), HAL_ADC_STATE_REG_BUSY)) "
1174:Drivers/STM32F3xx_HAL_Driver/Src/stm32f3xx_hal_adc.c ****   *           " if (HAL_IS_BIT_SET(HAL_ADC_GetState(hadc1), HAL_ADC_STATE_AWD1)    ) "
1175:Drivers/STM32F3xx_HAL_Driver/Src/stm32f3xx_hal_adc.c ****   * @param  hadc ADC handle
1176:Drivers/STM32F3xx_HAL_Driver/Src/stm32f3xx_hal_adc.c ****   * @retval HAL state
1177:Drivers/STM32F3xx_HAL_Driver/Src/stm32f3xx_hal_adc.c ****   */
1178:Drivers/STM32F3xx_HAL_Driver/Src/stm32f3xx_hal_adc.c **** uint32_t HAL_ADC_GetState(ADC_HandleTypeDef* hadc)
1179:Drivers/STM32F3xx_HAL_Driver/Src/stm32f3xx_hal_adc.c **** {
 530              		.loc 1 1179 1 is_stmt 1 view -0
 531              		.cfi_startproc
 532              		@ args = 0, pretend = 0, frame = 0
 533              		@ frame_needed = 0, uses_anonymous_args = 0
 534              		@ link register save eliminated.
1180:Drivers/STM32F3xx_HAL_Driver/Src/stm32f3xx_hal_adc.c ****   /* Check the parameters */
1181:Drivers/STM32F3xx_HAL_Driver/Src/stm32f3xx_hal_adc.c ****   assert_param(IS_ADC_ALL_INSTANCE(hadc->Instance));
 535              		.loc 1 1181 3 view .LVU94
1182:Drivers/STM32F3xx_HAL_Driver/Src/stm32f3xx_hal_adc.c ****   
1183:Drivers/STM32F3xx_HAL_Driver/Src/stm32f3xx_hal_adc.c ****   /* Return ADC state */
1184:Drivers/STM32F3xx_HAL_Driver/Src/stm32f3xx_hal_adc.c ****   return hadc->State;
 536              		.loc 1 1184 3 view .LVU95
 537              		.loc 1 1184 14 is_stmt 0 view .LVU96
 538 0000 806A     		ldr	r0, [r0, #40]
 539              	.LVL34:
1185:Drivers/STM32F3xx_HAL_Driver/Src/stm32f3xx_hal_adc.c **** }
 540              		.loc 1 1185 1 view .LVU97
 541 0002 7047     		bx	lr
 542              		.cfi_endproc
 543              	.LFE150:
 545              		.section	.text.HAL_ADC_GetError,"ax",%progbits
 546              		.align	1
 547              		.global	HAL_ADC_GetError
 548              		.syntax unified
 549              		.thumb
 550              		.thumb_func
 551              		.fpu fpv4-sp-d16
 553              	HAL_ADC_GetError:
 554              	.LVL35:
 555              	.LFB151:
1186:Drivers/STM32F3xx_HAL_Driver/Src/stm32f3xx_hal_adc.c **** 
1187:Drivers/STM32F3xx_HAL_Driver/Src/stm32f3xx_hal_adc.c **** /**
1188:Drivers/STM32F3xx_HAL_Driver/Src/stm32f3xx_hal_adc.c ****   * @brief  Return the ADC error code
1189:Drivers/STM32F3xx_HAL_Driver/Src/stm32f3xx_hal_adc.c ****   * @param  hadc ADC handle
1190:Drivers/STM32F3xx_HAL_Driver/Src/stm32f3xx_hal_adc.c ****   * @retval ADC Error Code
1191:Drivers/STM32F3xx_HAL_Driver/Src/stm32f3xx_hal_adc.c ****   */
1192:Drivers/STM32F3xx_HAL_Driver/Src/stm32f3xx_hal_adc.c **** uint32_t HAL_ADC_GetError(ADC_HandleTypeDef *hadc)
1193:Drivers/STM32F3xx_HAL_Driver/Src/stm32f3xx_hal_adc.c **** {
 556              		.loc 1 1193 1 is_stmt 1 view -0
 557              		.cfi_startproc
 558              		@ args = 0, pretend = 0, frame = 0
 559              		@ frame_needed = 0, uses_anonymous_args = 0
 560              		@ link register save eliminated.
ARM GAS  /var/folders/jw/jcj5j9_530958b2rm5vp9wn00000gn/T//cc3bFcpI.s 			page 31


1194:Drivers/STM32F3xx_HAL_Driver/Src/stm32f3xx_hal_adc.c ****   return hadc->ErrorCode;
 561              		.loc 1 1194 3 view .LVU99
 562              		.loc 1 1194 14 is_stmt 0 view .LVU100
 563 0000 C06A     		ldr	r0, [r0, #44]
 564              	.LVL36:
1195:Drivers/STM32F3xx_HAL_Driver/Src/stm32f3xx_hal_adc.c **** }
 565              		.loc 1 1195 1 view .LVU101
 566 0002 7047     		bx	lr
 567              		.cfi_endproc
 568              	.LFE151:
 570              		.text
 571              	.Letext0:
 572              		.file 2 "/Users/javier/Library/xPacks/@xpack-dev-tools/arm-none-eabi-gcc/9.3.1-1.4.1/.content/arm-
 573              		.file 3 "/Users/javier/Library/xPacks/@xpack-dev-tools/arm-none-eabi-gcc/9.3.1-1.4.1/.content/arm-
 574              		.file 4 "Drivers/CMSIS/Include/core_cm4.h"
 575              		.file 5 "Drivers/CMSIS/Device/ST/STM32F3xx/Include/system_stm32f3xx.h"
 576              		.file 6 "Drivers/CMSIS/Device/ST/STM32F3xx/Include/stm32f373xc.h"
 577              		.file 7 "Drivers/CMSIS/Device/ST/STM32F3xx/Include/stm32f3xx.h"
 578              		.file 8 "Drivers/STM32F3xx_HAL_Driver/Inc/stm32f3xx_hal_def.h"
 579              		.file 9 "Drivers/STM32F3xx_HAL_Driver/Inc/stm32f3xx_hal_dma.h"
 580              		.file 10 "Drivers/STM32F3xx_HAL_Driver/Inc/stm32f3xx_hal_adc_ex.h"
 581              		.file 11 "Drivers/STM32F3xx_HAL_Driver/Inc/stm32f3xx_hal_adc.h"
 582              		.file 12 "Drivers/STM32F3xx_HAL_Driver/Inc/stm32f3xx_hal.h"
ARM GAS  /var/folders/jw/jcj5j9_530958b2rm5vp9wn00000gn/T//cc3bFcpI.s 			page 32

