ARM GAS  /var/folders/jw/jcj5j9_530958b2rm5vp9wn00000gn/T//ccckkuva.s 			page 1


   1              		.cpu cortex-m4
   2              		.eabi_attribute 27, 1
   3              		.eabi_attribute 28, 1
   4              		.eabi_attribute 20, 1
   5              		.eabi_attribute 21, 1
   6              		.eabi_attribute 23, 3
   7              		.eabi_attribute 24, 1
   8              		.eabi_attribute 25, 1
   9              		.eabi_attribute 26, 1
  10              		.eabi_attribute 30, 1
  11              		.eabi_attribute 34, 1
  12              		.eabi_attribute 18, 4
  13              		.file	"stm32f3xx_hal_rtc_ex.c"
  14              		.text
  15              	.Ltext0:
  16              		.cfi_sections	.debug_frame
  17              		.section	.text.HAL_RTCEx_SetTimeStamp,"ax",%progbits
  18              		.align	1
  19              		.global	HAL_RTCEx_SetTimeStamp
  20              		.arch armv7e-m
  21              		.syntax unified
  22              		.thumb
  23              		.thumb_func
  24              		.fpu fpv4-sp-d16
  26              	HAL_RTCEx_SetTimeStamp:
  27              	.LVL0:
  28              	.LFB130:
  29              		.file 1 "Drivers/STM32F3xx_HAL_Driver/Src/stm32f3xx_hal_rtc_ex.c"
   1:Drivers/STM32F3xx_HAL_Driver/Src/stm32f3xx_hal_rtc_ex.c **** /**
   2:Drivers/STM32F3xx_HAL_Driver/Src/stm32f3xx_hal_rtc_ex.c ****   ******************************************************************************
   3:Drivers/STM32F3xx_HAL_Driver/Src/stm32f3xx_hal_rtc_ex.c ****   * @file    stm32f3xx_hal_rtc_ex.c
   4:Drivers/STM32F3xx_HAL_Driver/Src/stm32f3xx_hal_rtc_ex.c ****   * @author  MCD Application Team
   5:Drivers/STM32F3xx_HAL_Driver/Src/stm32f3xx_hal_rtc_ex.c ****   * @brief   Extended RTC HAL module driver.
   6:Drivers/STM32F3xx_HAL_Driver/Src/stm32f3xx_hal_rtc_ex.c ****   *          This file provides firmware functions to manage the following
   7:Drivers/STM32F3xx_HAL_Driver/Src/stm32f3xx_hal_rtc_ex.c ****   *          functionalities of the Real Time Clock (RTC) Extended peripheral:
   8:Drivers/STM32F3xx_HAL_Driver/Src/stm32f3xx_hal_rtc_ex.c ****   *           + RTC Time Stamp functions
   9:Drivers/STM32F3xx_HAL_Driver/Src/stm32f3xx_hal_rtc_ex.c ****   *           + RTC Tamper functions
  10:Drivers/STM32F3xx_HAL_Driver/Src/stm32f3xx_hal_rtc_ex.c ****   *           + RTC Wake-up functions
  11:Drivers/STM32F3xx_HAL_Driver/Src/stm32f3xx_hal_rtc_ex.c ****   *           + Extended Control functions
  12:Drivers/STM32F3xx_HAL_Driver/Src/stm32f3xx_hal_rtc_ex.c ****   *           + Extended RTC features functions
  13:Drivers/STM32F3xx_HAL_Driver/Src/stm32f3xx_hal_rtc_ex.c ****   *
  14:Drivers/STM32F3xx_HAL_Driver/Src/stm32f3xx_hal_rtc_ex.c ****   @verbatim
  15:Drivers/STM32F3xx_HAL_Driver/Src/stm32f3xx_hal_rtc_ex.c ****   ==============================================================================
  16:Drivers/STM32F3xx_HAL_Driver/Src/stm32f3xx_hal_rtc_ex.c ****                   ##### How to use this driver #####
  17:Drivers/STM32F3xx_HAL_Driver/Src/stm32f3xx_hal_rtc_ex.c ****   ==============================================================================
  18:Drivers/STM32F3xx_HAL_Driver/Src/stm32f3xx_hal_rtc_ex.c ****   [..]
  19:Drivers/STM32F3xx_HAL_Driver/Src/stm32f3xx_hal_rtc_ex.c ****     (+) Enable the RTC domain access.
  20:Drivers/STM32F3xx_HAL_Driver/Src/stm32f3xx_hal_rtc_ex.c ****     (+) Configure the RTC Prescaler (Asynchronous and Synchronous) and RTC hour
  21:Drivers/STM32F3xx_HAL_Driver/Src/stm32f3xx_hal_rtc_ex.c ****         format using the HAL_RTC_Init() function.
  22:Drivers/STM32F3xx_HAL_Driver/Src/stm32f3xx_hal_rtc_ex.c **** 
  23:Drivers/STM32F3xx_HAL_Driver/Src/stm32f3xx_hal_rtc_ex.c ****   *** RTC Wakeup configuration ***
  24:Drivers/STM32F3xx_HAL_Driver/Src/stm32f3xx_hal_rtc_ex.c ****   ================================
  25:Drivers/STM32F3xx_HAL_Driver/Src/stm32f3xx_hal_rtc_ex.c ****   [..]
  26:Drivers/STM32F3xx_HAL_Driver/Src/stm32f3xx_hal_rtc_ex.c ****     (+) To configure the RTC Wakeup Clock source and Counter use the HAL_RTCEx_SetWakeUpTimer()
  27:Drivers/STM32F3xx_HAL_Driver/Src/stm32f3xx_hal_rtc_ex.c ****         function. You can also configure the RTC Wakeup timer with interrupt mode
  28:Drivers/STM32F3xx_HAL_Driver/Src/stm32f3xx_hal_rtc_ex.c ****         using the HAL_RTCEx_SetWakeUpTimer_IT() function.
  29:Drivers/STM32F3xx_HAL_Driver/Src/stm32f3xx_hal_rtc_ex.c ****     (+) To read the RTC WakeUp Counter register, use the HAL_RTCEx_GetWakeUpTimer()
ARM GAS  /var/folders/jw/jcj5j9_530958b2rm5vp9wn00000gn/T//ccckkuva.s 			page 2


  30:Drivers/STM32F3xx_HAL_Driver/Src/stm32f3xx_hal_rtc_ex.c ****         function.
  31:Drivers/STM32F3xx_HAL_Driver/Src/stm32f3xx_hal_rtc_ex.c **** 
  32:Drivers/STM32F3xx_HAL_Driver/Src/stm32f3xx_hal_rtc_ex.c ****   *** TimeStamp configuration ***
  33:Drivers/STM32F3xx_HAL_Driver/Src/stm32f3xx_hal_rtc_ex.c ****   ===============================
  34:Drivers/STM32F3xx_HAL_Driver/Src/stm32f3xx_hal_rtc_ex.c ****   [..]
  35:Drivers/STM32F3xx_HAL_Driver/Src/stm32f3xx_hal_rtc_ex.c ****         (+) Configure the RTC_AF trigger and enable the RTC TimeStamp using the
  36:Drivers/STM32F3xx_HAL_Driver/Src/stm32f3xx_hal_rtc_ex.c ****         HAL_RTCEx_SetTimeStamp() function. You can also configure the RTC TimeStamp with
  37:Drivers/STM32F3xx_HAL_Driver/Src/stm32f3xx_hal_rtc_ex.c ****         interrupt mode using the HAL_RTCEx_SetTimeStamp_IT() function.
  38:Drivers/STM32F3xx_HAL_Driver/Src/stm32f3xx_hal_rtc_ex.c ****     (+) To read the RTC TimeStamp Time and Date register, use the HAL_RTCEx_GetTimeStamp()
  39:Drivers/STM32F3xx_HAL_Driver/Src/stm32f3xx_hal_rtc_ex.c ****         function.
  40:Drivers/STM32F3xx_HAL_Driver/Src/stm32f3xx_hal_rtc_ex.c ****     (+) The TIMESTAMP alternate function is mapped to RTC_AF1 (PC13U).
  41:Drivers/STM32F3xx_HAL_Driver/Src/stm32f3xx_hal_rtc_ex.c **** 
  42:Drivers/STM32F3xx_HAL_Driver/Src/stm32f3xx_hal_rtc_ex.c ****   *** Tamper configuration ***
  43:Drivers/STM32F3xx_HAL_Driver/Src/stm32f3xx_hal_rtc_ex.c ****   ============================
  44:Drivers/STM32F3xx_HAL_Driver/Src/stm32f3xx_hal_rtc_ex.c ****   [..]
  45:Drivers/STM32F3xx_HAL_Driver/Src/stm32f3xx_hal_rtc_ex.c ****         (+) Enable the RTC Tamper and configure the Tamper filter count, trigger Edge
  46:Drivers/STM32F3xx_HAL_Driver/Src/stm32f3xx_hal_rtc_ex.c ****         or Level according to the Tamper filter (if equal to 0 Edge else Level)
  47:Drivers/STM32F3xx_HAL_Driver/Src/stm32f3xx_hal_rtc_ex.c ****         value, sampling frequency, precharge or discharge and Pull-UP using the
  48:Drivers/STM32F3xx_HAL_Driver/Src/stm32f3xx_hal_rtc_ex.c ****         HAL_RTCEx_SetTamper() function. You can configure RTC Tamper with interrupt
  49:Drivers/STM32F3xx_HAL_Driver/Src/stm32f3xx_hal_rtc_ex.c ****         mode using HAL_RTCEx_SetTamper_IT() function.
  50:Drivers/STM32F3xx_HAL_Driver/Src/stm32f3xx_hal_rtc_ex.c ****     (+) The TAMPER1 alternate function is mapped to RTC_AF1 (PC13U).
  51:Drivers/STM32F3xx_HAL_Driver/Src/stm32f3xx_hal_rtc_ex.c **** 
  52:Drivers/STM32F3xx_HAL_Driver/Src/stm32f3xx_hal_rtc_ex.c ****   *** Backup Data Registers configuration ***
  53:Drivers/STM32F3xx_HAL_Driver/Src/stm32f3xx_hal_rtc_ex.c ****   ===========================================
  54:Drivers/STM32F3xx_HAL_Driver/Src/stm32f3xx_hal_rtc_ex.c ****   [..]
  55:Drivers/STM32F3xx_HAL_Driver/Src/stm32f3xx_hal_rtc_ex.c ****     (+) To write to the RTC Backup Data registers, use the HAL_RTCEx_BKUPWrite()
  56:Drivers/STM32F3xx_HAL_Driver/Src/stm32f3xx_hal_rtc_ex.c ****         function.
  57:Drivers/STM32F3xx_HAL_Driver/Src/stm32f3xx_hal_rtc_ex.c ****     (+) To read the RTC Backup Data registers, use the HAL_RTCEx_BKUPRead()
  58:Drivers/STM32F3xx_HAL_Driver/Src/stm32f3xx_hal_rtc_ex.c ****         function.
  59:Drivers/STM32F3xx_HAL_Driver/Src/stm32f3xx_hal_rtc_ex.c **** 
  60:Drivers/STM32F3xx_HAL_Driver/Src/stm32f3xx_hal_rtc_ex.c ****    @endverbatim
  61:Drivers/STM32F3xx_HAL_Driver/Src/stm32f3xx_hal_rtc_ex.c ****   ******************************************************************************
  62:Drivers/STM32F3xx_HAL_Driver/Src/stm32f3xx_hal_rtc_ex.c ****   * @attention
  63:Drivers/STM32F3xx_HAL_Driver/Src/stm32f3xx_hal_rtc_ex.c ****   *
  64:Drivers/STM32F3xx_HAL_Driver/Src/stm32f3xx_hal_rtc_ex.c ****   * <h2><center>&copy; Copyright (c) 2016 STMicroelectronics.
  65:Drivers/STM32F3xx_HAL_Driver/Src/stm32f3xx_hal_rtc_ex.c ****   * All rights reserved.</center></h2>
  66:Drivers/STM32F3xx_HAL_Driver/Src/stm32f3xx_hal_rtc_ex.c ****   *
  67:Drivers/STM32F3xx_HAL_Driver/Src/stm32f3xx_hal_rtc_ex.c ****   * This software component is licensed by ST under BSD 3-Clause license,
  68:Drivers/STM32F3xx_HAL_Driver/Src/stm32f3xx_hal_rtc_ex.c ****   * the "License"; You may not use this file except in compliance with the
  69:Drivers/STM32F3xx_HAL_Driver/Src/stm32f3xx_hal_rtc_ex.c ****   * License. You may obtain a copy of the License at:
  70:Drivers/STM32F3xx_HAL_Driver/Src/stm32f3xx_hal_rtc_ex.c ****   *                        opensource.org/licenses/BSD-3-Clause
  71:Drivers/STM32F3xx_HAL_Driver/Src/stm32f3xx_hal_rtc_ex.c ****   *
  72:Drivers/STM32F3xx_HAL_Driver/Src/stm32f3xx_hal_rtc_ex.c ****   ******************************************************************************
  73:Drivers/STM32F3xx_HAL_Driver/Src/stm32f3xx_hal_rtc_ex.c ****   */
  74:Drivers/STM32F3xx_HAL_Driver/Src/stm32f3xx_hal_rtc_ex.c **** 
  75:Drivers/STM32F3xx_HAL_Driver/Src/stm32f3xx_hal_rtc_ex.c **** /* Includes ------------------------------------------------------------------*/
  76:Drivers/STM32F3xx_HAL_Driver/Src/stm32f3xx_hal_rtc_ex.c **** #include "stm32f3xx_hal.h"
  77:Drivers/STM32F3xx_HAL_Driver/Src/stm32f3xx_hal_rtc_ex.c **** 
  78:Drivers/STM32F3xx_HAL_Driver/Src/stm32f3xx_hal_rtc_ex.c **** /** @addtogroup STM32F3xx_HAL_Driver
  79:Drivers/STM32F3xx_HAL_Driver/Src/stm32f3xx_hal_rtc_ex.c ****   * @{
  80:Drivers/STM32F3xx_HAL_Driver/Src/stm32f3xx_hal_rtc_ex.c ****   */
  81:Drivers/STM32F3xx_HAL_Driver/Src/stm32f3xx_hal_rtc_ex.c **** 
  82:Drivers/STM32F3xx_HAL_Driver/Src/stm32f3xx_hal_rtc_ex.c **** 
  83:Drivers/STM32F3xx_HAL_Driver/Src/stm32f3xx_hal_rtc_ex.c **** 
  84:Drivers/STM32F3xx_HAL_Driver/Src/stm32f3xx_hal_rtc_ex.c **** /** @addtogroup RTCEx
  85:Drivers/STM32F3xx_HAL_Driver/Src/stm32f3xx_hal_rtc_ex.c ****   * @brief RTC Extended HAL module driver
  86:Drivers/STM32F3xx_HAL_Driver/Src/stm32f3xx_hal_rtc_ex.c ****   * @{
ARM GAS  /var/folders/jw/jcj5j9_530958b2rm5vp9wn00000gn/T//ccckkuva.s 			page 3


  87:Drivers/STM32F3xx_HAL_Driver/Src/stm32f3xx_hal_rtc_ex.c ****   */
  88:Drivers/STM32F3xx_HAL_Driver/Src/stm32f3xx_hal_rtc_ex.c **** 
  89:Drivers/STM32F3xx_HAL_Driver/Src/stm32f3xx_hal_rtc_ex.c **** #ifdef HAL_RTC_MODULE_ENABLED
  90:Drivers/STM32F3xx_HAL_Driver/Src/stm32f3xx_hal_rtc_ex.c **** 
  91:Drivers/STM32F3xx_HAL_Driver/Src/stm32f3xx_hal_rtc_ex.c **** /* Private typedef -----------------------------------------------------------*/
  92:Drivers/STM32F3xx_HAL_Driver/Src/stm32f3xx_hal_rtc_ex.c **** /* Private define ------------------------------------------------------------*/
  93:Drivers/STM32F3xx_HAL_Driver/Src/stm32f3xx_hal_rtc_ex.c **** /* Private macro -------------------------------------------------------------*/
  94:Drivers/STM32F3xx_HAL_Driver/Src/stm32f3xx_hal_rtc_ex.c **** /* Private variables ---------------------------------------------------------*/
  95:Drivers/STM32F3xx_HAL_Driver/Src/stm32f3xx_hal_rtc_ex.c **** /* Private function prototypes -----------------------------------------------*/
  96:Drivers/STM32F3xx_HAL_Driver/Src/stm32f3xx_hal_rtc_ex.c **** /* Exported functions ---------------------------------------------------------*/
  97:Drivers/STM32F3xx_HAL_Driver/Src/stm32f3xx_hal_rtc_ex.c **** 
  98:Drivers/STM32F3xx_HAL_Driver/Src/stm32f3xx_hal_rtc_ex.c **** /** @addtogroup RTCEx_Exported_Functions
  99:Drivers/STM32F3xx_HAL_Driver/Src/stm32f3xx_hal_rtc_ex.c ****   * @{
 100:Drivers/STM32F3xx_HAL_Driver/Src/stm32f3xx_hal_rtc_ex.c ****   */
 101:Drivers/STM32F3xx_HAL_Driver/Src/stm32f3xx_hal_rtc_ex.c **** 
 102:Drivers/STM32F3xx_HAL_Driver/Src/stm32f3xx_hal_rtc_ex.c **** 
 103:Drivers/STM32F3xx_HAL_Driver/Src/stm32f3xx_hal_rtc_ex.c **** /** @addtogroup RTCEx_Exported_Functions_Group1
 104:Drivers/STM32F3xx_HAL_Driver/Src/stm32f3xx_hal_rtc_ex.c ****  *  @brief   RTC TimeStamp and Tamper functions
 105:Drivers/STM32F3xx_HAL_Driver/Src/stm32f3xx_hal_rtc_ex.c ****  *
 106:Drivers/STM32F3xx_HAL_Driver/Src/stm32f3xx_hal_rtc_ex.c **** @verbatim
 107:Drivers/STM32F3xx_HAL_Driver/Src/stm32f3xx_hal_rtc_ex.c ****  ===============================================================================
 108:Drivers/STM32F3xx_HAL_Driver/Src/stm32f3xx_hal_rtc_ex.c ****                  ##### RTC TimeStamp and Tamper functions #####
 109:Drivers/STM32F3xx_HAL_Driver/Src/stm32f3xx_hal_rtc_ex.c ****  ===============================================================================
 110:Drivers/STM32F3xx_HAL_Driver/Src/stm32f3xx_hal_rtc_ex.c **** 
 111:Drivers/STM32F3xx_HAL_Driver/Src/stm32f3xx_hal_rtc_ex.c ****  [..] This section provides functions allowing to configure TimeStamp feature
 112:Drivers/STM32F3xx_HAL_Driver/Src/stm32f3xx_hal_rtc_ex.c **** 
 113:Drivers/STM32F3xx_HAL_Driver/Src/stm32f3xx_hal_rtc_ex.c **** @endverbatim
 114:Drivers/STM32F3xx_HAL_Driver/Src/stm32f3xx_hal_rtc_ex.c ****   * @{
 115:Drivers/STM32F3xx_HAL_Driver/Src/stm32f3xx_hal_rtc_ex.c ****   */
 116:Drivers/STM32F3xx_HAL_Driver/Src/stm32f3xx_hal_rtc_ex.c **** 
 117:Drivers/STM32F3xx_HAL_Driver/Src/stm32f3xx_hal_rtc_ex.c **** /**
 118:Drivers/STM32F3xx_HAL_Driver/Src/stm32f3xx_hal_rtc_ex.c ****   * @brief  Set TimeStamp.
 119:Drivers/STM32F3xx_HAL_Driver/Src/stm32f3xx_hal_rtc_ex.c ****   * @note   This API must be called before enabling the TimeStamp feature.
 120:Drivers/STM32F3xx_HAL_Driver/Src/stm32f3xx_hal_rtc_ex.c ****   * @param  hrtc RTC handle
 121:Drivers/STM32F3xx_HAL_Driver/Src/stm32f3xx_hal_rtc_ex.c ****   * @param  TimeStampEdge Specifies the pin edge on which the TimeStamp is
 122:Drivers/STM32F3xx_HAL_Driver/Src/stm32f3xx_hal_rtc_ex.c ****   *         activated.
 123:Drivers/STM32F3xx_HAL_Driver/Src/stm32f3xx_hal_rtc_ex.c ****   *          This parameter can be one of the following values:
 124:Drivers/STM32F3xx_HAL_Driver/Src/stm32f3xx_hal_rtc_ex.c ****   *             @arg RTC_TIMESTAMPEDGE_RISING: the Time stamp event occurs on the
 125:Drivers/STM32F3xx_HAL_Driver/Src/stm32f3xx_hal_rtc_ex.c ****   *                                        rising edge of the related pin.
 126:Drivers/STM32F3xx_HAL_Driver/Src/stm32f3xx_hal_rtc_ex.c ****   *             @arg RTC_TIMESTAMPEDGE_FALLING: the Time stamp event occurs on the
 127:Drivers/STM32F3xx_HAL_Driver/Src/stm32f3xx_hal_rtc_ex.c ****   *                                         falling edge of the related pin.
 128:Drivers/STM32F3xx_HAL_Driver/Src/stm32f3xx_hal_rtc_ex.c ****   * @param  RTC_TimeStampPin specifies the RTC TimeStamp Pin.
 129:Drivers/STM32F3xx_HAL_Driver/Src/stm32f3xx_hal_rtc_ex.c ****   *          This parameter can be one of the following values:
 130:Drivers/STM32F3xx_HAL_Driver/Src/stm32f3xx_hal_rtc_ex.c ****   *             @arg RTC_TIMESTAMPPIN_DEFAULT: PC13 is selected as RTC TimeStamp Pin.
 131:Drivers/STM32F3xx_HAL_Driver/Src/stm32f3xx_hal_rtc_ex.c ****   * @retval HAL status
 132:Drivers/STM32F3xx_HAL_Driver/Src/stm32f3xx_hal_rtc_ex.c ****   */
 133:Drivers/STM32F3xx_HAL_Driver/Src/stm32f3xx_hal_rtc_ex.c **** HAL_StatusTypeDef HAL_RTCEx_SetTimeStamp(RTC_HandleTypeDef *hrtc, uint32_t TimeStampEdge, uint32_t 
 134:Drivers/STM32F3xx_HAL_Driver/Src/stm32f3xx_hal_rtc_ex.c **** {
  30              		.loc 1 134 1 view -0
  31              		.cfi_startproc
  32              		@ args = 0, pretend = 0, frame = 0
  33              		@ frame_needed = 0, uses_anonymous_args = 0
  34              		@ link register save eliminated.
 135:Drivers/STM32F3xx_HAL_Driver/Src/stm32f3xx_hal_rtc_ex.c ****   uint32_t tmpreg = 0U;
  35              		.loc 1 135 3 view .LVU1
 136:Drivers/STM32F3xx_HAL_Driver/Src/stm32f3xx_hal_rtc_ex.c **** 
 137:Drivers/STM32F3xx_HAL_Driver/Src/stm32f3xx_hal_rtc_ex.c ****   /* Check the parameters */
ARM GAS  /var/folders/jw/jcj5j9_530958b2rm5vp9wn00000gn/T//ccckkuva.s 			page 4


 138:Drivers/STM32F3xx_HAL_Driver/Src/stm32f3xx_hal_rtc_ex.c ****   assert_param(IS_TIMESTAMP_EDGE(TimeStampEdge));
  36              		.loc 1 138 3 view .LVU2
 139:Drivers/STM32F3xx_HAL_Driver/Src/stm32f3xx_hal_rtc_ex.c ****   assert_param(IS_RTC_TIMESTAMP_PIN(RTC_TimeStampPin));
  37              		.loc 1 139 3 view .LVU3
 140:Drivers/STM32F3xx_HAL_Driver/Src/stm32f3xx_hal_rtc_ex.c **** 
 141:Drivers/STM32F3xx_HAL_Driver/Src/stm32f3xx_hal_rtc_ex.c ****   /* Process Locked */
 142:Drivers/STM32F3xx_HAL_Driver/Src/stm32f3xx_hal_rtc_ex.c ****   __HAL_LOCK(hrtc);
  38              		.loc 1 142 3 view .LVU4
  39              		.loc 1 142 3 view .LVU5
  40 0000 037F     		ldrb	r3, [r0, #28]	@ zero_extendqisi2
  41 0002 012B     		cmp	r3, #1
  42 0004 20D0     		beq	.L3
 134:Drivers/STM32F3xx_HAL_Driver/Src/stm32f3xx_hal_rtc_ex.c ****   uint32_t tmpreg = 0U;
  43              		.loc 1 134 1 is_stmt 0 discriminator 2 view .LVU6
  44 0006 30B4     		push	{r4, r5}
  45              	.LCFI0:
  46              		.cfi_def_cfa_offset 8
  47              		.cfi_offset 4, -8
  48              		.cfi_offset 5, -4
  49              		.loc 1 142 3 is_stmt 1 discriminator 2 view .LVU7
  50 0008 0124     		movs	r4, #1
  51 000a 0477     		strb	r4, [r0, #28]
  52              		.loc 1 142 3 discriminator 2 view .LVU8
 143:Drivers/STM32F3xx_HAL_Driver/Src/stm32f3xx_hal_rtc_ex.c **** 
 144:Drivers/STM32F3xx_HAL_Driver/Src/stm32f3xx_hal_rtc_ex.c ****   hrtc->State = HAL_RTC_STATE_BUSY;
  53              		.loc 1 144 3 discriminator 2 view .LVU9
  54              		.loc 1 144 15 is_stmt 0 discriminator 2 view .LVU10
  55 000c 0223     		movs	r3, #2
  56 000e 4377     		strb	r3, [r0, #29]
 145:Drivers/STM32F3xx_HAL_Driver/Src/stm32f3xx_hal_rtc_ex.c **** 
 146:Drivers/STM32F3xx_HAL_Driver/Src/stm32f3xx_hal_rtc_ex.c ****   /* Get the RTC_CR register and clear the bits to be configured */
 147:Drivers/STM32F3xx_HAL_Driver/Src/stm32f3xx_hal_rtc_ex.c ****   tmpreg = (uint32_t)(hrtc->Instance->CR & (uint32_t)~(RTC_CR_TSEDGE | RTC_CR_TSE));
  57              		.loc 1 147 3 is_stmt 1 discriminator 2 view .LVU11
  58              		.loc 1 147 27 is_stmt 0 discriminator 2 view .LVU12
  59 0010 0568     		ldr	r5, [r0]
  60              		.loc 1 147 37 discriminator 2 view .LVU13
  61 0012 AB68     		ldr	r3, [r5, #8]
  62              		.loc 1 147 10 discriminator 2 view .LVU14
  63 0014 23F40063 		bic	r3, r3, #2048
  64 0018 23F00803 		bic	r3, r3, #8
  65              	.LVL1:
 148:Drivers/STM32F3xx_HAL_Driver/Src/stm32f3xx_hal_rtc_ex.c **** 
 149:Drivers/STM32F3xx_HAL_Driver/Src/stm32f3xx_hal_rtc_ex.c ****   tmpreg |= TimeStampEdge;
  66              		.loc 1 149 3 is_stmt 1 discriminator 2 view .LVU15
  67              		.loc 1 149 10 is_stmt 0 discriminator 2 view .LVU16
  68 001c 0B43     		orrs	r3, r3, r1
  69              	.LVL2:
 150:Drivers/STM32F3xx_HAL_Driver/Src/stm32f3xx_hal_rtc_ex.c **** 
 151:Drivers/STM32F3xx_HAL_Driver/Src/stm32f3xx_hal_rtc_ex.c ****   /* Disable the write protection for RTC registers */
 152:Drivers/STM32F3xx_HAL_Driver/Src/stm32f3xx_hal_rtc_ex.c ****   __HAL_RTC_WRITEPROTECTION_DISABLE(hrtc);
  70              		.loc 1 152 3 is_stmt 1 discriminator 2 view .LVU17
  71              		.loc 1 152 3 discriminator 2 view .LVU18
  72 001e CA22     		movs	r2, #202
  73              	.LVL3:
  74              		.loc 1 152 3 is_stmt 0 discriminator 2 view .LVU19
  75 0020 6A62     		str	r2, [r5, #36]
  76              		.loc 1 152 3 is_stmt 1 discriminator 2 view .LVU20
ARM GAS  /var/folders/jw/jcj5j9_530958b2rm5vp9wn00000gn/T//ccckkuva.s 			page 5


  77 0022 0268     		ldr	r2, [r0]
  78 0024 5321     		movs	r1, #83
  79              	.LVL4:
  80              		.loc 1 152 3 is_stmt 0 discriminator 2 view .LVU21
  81 0026 5162     		str	r1, [r2, #36]
  82              		.loc 1 152 3 is_stmt 1 discriminator 2 view .LVU22
 153:Drivers/STM32F3xx_HAL_Driver/Src/stm32f3xx_hal_rtc_ex.c **** 
 154:Drivers/STM32F3xx_HAL_Driver/Src/stm32f3xx_hal_rtc_ex.c ****   /* Configure the Time Stamp TSEDGE and Enable bits */
 155:Drivers/STM32F3xx_HAL_Driver/Src/stm32f3xx_hal_rtc_ex.c ****   hrtc->Instance->CR = (uint32_t)tmpreg;
  83              		.loc 1 155 3 discriminator 2 view .LVU23
  84              		.loc 1 155 7 is_stmt 0 discriminator 2 view .LVU24
  85 0028 0268     		ldr	r2, [r0]
  86              		.loc 1 155 22 discriminator 2 view .LVU25
  87 002a 9360     		str	r3, [r2, #8]
 156:Drivers/STM32F3xx_HAL_Driver/Src/stm32f3xx_hal_rtc_ex.c **** 
 157:Drivers/STM32F3xx_HAL_Driver/Src/stm32f3xx_hal_rtc_ex.c ****   __HAL_RTC_TIMESTAMP_ENABLE(hrtc);
  88              		.loc 1 157 3 is_stmt 1 discriminator 2 view .LVU26
  89 002c 0268     		ldr	r2, [r0]
  90 002e 9368     		ldr	r3, [r2, #8]
  91              	.LVL5:
  92              		.loc 1 157 3 is_stmt 0 discriminator 2 view .LVU27
  93 0030 43F40063 		orr	r3, r3, #2048
  94 0034 9360     		str	r3, [r2, #8]
 158:Drivers/STM32F3xx_HAL_Driver/Src/stm32f3xx_hal_rtc_ex.c **** 
 159:Drivers/STM32F3xx_HAL_Driver/Src/stm32f3xx_hal_rtc_ex.c ****   /* Enable the write protection for RTC registers */
 160:Drivers/STM32F3xx_HAL_Driver/Src/stm32f3xx_hal_rtc_ex.c ****   __HAL_RTC_WRITEPROTECTION_ENABLE(hrtc);
  95              		.loc 1 160 3 is_stmt 1 discriminator 2 view .LVU28
  96              		.loc 1 160 3 discriminator 2 view .LVU29
  97 0036 0368     		ldr	r3, [r0]
  98 0038 FF22     		movs	r2, #255
  99 003a 5A62     		str	r2, [r3, #36]
 100              		.loc 1 160 3 discriminator 2 view .LVU30
 161:Drivers/STM32F3xx_HAL_Driver/Src/stm32f3xx_hal_rtc_ex.c **** 
 162:Drivers/STM32F3xx_HAL_Driver/Src/stm32f3xx_hal_rtc_ex.c ****   /* Change RTC state */
 163:Drivers/STM32F3xx_HAL_Driver/Src/stm32f3xx_hal_rtc_ex.c ****   hrtc->State = HAL_RTC_STATE_READY;
 101              		.loc 1 163 3 discriminator 2 view .LVU31
 102              		.loc 1 163 15 is_stmt 0 discriminator 2 view .LVU32
 103 003c 4477     		strb	r4, [r0, #29]
 164:Drivers/STM32F3xx_HAL_Driver/Src/stm32f3xx_hal_rtc_ex.c **** 
 165:Drivers/STM32F3xx_HAL_Driver/Src/stm32f3xx_hal_rtc_ex.c ****   /* Process Unlocked */
 166:Drivers/STM32F3xx_HAL_Driver/Src/stm32f3xx_hal_rtc_ex.c ****   __HAL_UNLOCK(hrtc);
 104              		.loc 1 166 3 is_stmt 1 discriminator 2 view .LVU33
 105              		.loc 1 166 3 discriminator 2 view .LVU34
 106 003e 0023     		movs	r3, #0
 107 0040 0377     		strb	r3, [r0, #28]
 108              		.loc 1 166 3 discriminator 2 view .LVU35
 167:Drivers/STM32F3xx_HAL_Driver/Src/stm32f3xx_hal_rtc_ex.c **** 
 168:Drivers/STM32F3xx_HAL_Driver/Src/stm32f3xx_hal_rtc_ex.c ****   return HAL_OK;
 109              		.loc 1 168 3 discriminator 2 view .LVU36
 110              		.loc 1 168 10 is_stmt 0 discriminator 2 view .LVU37
 111 0042 1846     		mov	r0, r3
 112              	.LVL6:
 169:Drivers/STM32F3xx_HAL_Driver/Src/stm32f3xx_hal_rtc_ex.c **** }
 113              		.loc 1 169 1 discriminator 2 view .LVU38
 114 0044 30BC     		pop	{r4, r5}
 115              	.LCFI1:
 116              		.cfi_restore 5
ARM GAS  /var/folders/jw/jcj5j9_530958b2rm5vp9wn00000gn/T//ccckkuva.s 			page 6


 117              		.cfi_restore 4
 118              		.cfi_def_cfa_offset 0
 119 0046 7047     		bx	lr
 120              	.LVL7:
 121              	.L3:
 142:Drivers/STM32F3xx_HAL_Driver/Src/stm32f3xx_hal_rtc_ex.c **** 
 122              		.loc 1 142 3 view .LVU39
 123 0048 0220     		movs	r0, #2
 124              	.LVL8:
 125              		.loc 1 169 1 view .LVU40
 126 004a 7047     		bx	lr
 127              		.cfi_endproc
 128              	.LFE130:
 130              		.section	.text.HAL_RTCEx_SetTimeStamp_IT,"ax",%progbits
 131              		.align	1
 132              		.global	HAL_RTCEx_SetTimeStamp_IT
 133              		.syntax unified
 134              		.thumb
 135              		.thumb_func
 136              		.fpu fpv4-sp-d16
 138              	HAL_RTCEx_SetTimeStamp_IT:
 139              	.LVL9:
 140              	.LFB131:
 170:Drivers/STM32F3xx_HAL_Driver/Src/stm32f3xx_hal_rtc_ex.c **** 
 171:Drivers/STM32F3xx_HAL_Driver/Src/stm32f3xx_hal_rtc_ex.c **** /**
 172:Drivers/STM32F3xx_HAL_Driver/Src/stm32f3xx_hal_rtc_ex.c ****   * @brief  Set TimeStamp with Interrupt.
 173:Drivers/STM32F3xx_HAL_Driver/Src/stm32f3xx_hal_rtc_ex.c ****   * @param  hrtc RTC handle
 174:Drivers/STM32F3xx_HAL_Driver/Src/stm32f3xx_hal_rtc_ex.c ****   * @note   This API must be called before enabling the TimeStamp feature.
 175:Drivers/STM32F3xx_HAL_Driver/Src/stm32f3xx_hal_rtc_ex.c ****   * @param  TimeStampEdge Specifies the pin edge on which the TimeStamp is
 176:Drivers/STM32F3xx_HAL_Driver/Src/stm32f3xx_hal_rtc_ex.c ****   *         activated.
 177:Drivers/STM32F3xx_HAL_Driver/Src/stm32f3xx_hal_rtc_ex.c ****   *          This parameter can be one of the following values:
 178:Drivers/STM32F3xx_HAL_Driver/Src/stm32f3xx_hal_rtc_ex.c ****   *             @arg RTC_TIMESTAMPEDGE_RISING: the Time stamp event occurs on the
 179:Drivers/STM32F3xx_HAL_Driver/Src/stm32f3xx_hal_rtc_ex.c ****   *                                        rising edge of the related pin.
 180:Drivers/STM32F3xx_HAL_Driver/Src/stm32f3xx_hal_rtc_ex.c ****   *             @arg RTC_TIMESTAMPEDGE_FALLING: the Time stamp event occurs on the
 181:Drivers/STM32F3xx_HAL_Driver/Src/stm32f3xx_hal_rtc_ex.c ****   *                                         falling edge of the related pin.
 182:Drivers/STM32F3xx_HAL_Driver/Src/stm32f3xx_hal_rtc_ex.c ****   * @param  RTC_TimeStampPin Specifies the RTC TimeStamp Pin.
 183:Drivers/STM32F3xx_HAL_Driver/Src/stm32f3xx_hal_rtc_ex.c ****   *          This parameter can be one of the following values:
 184:Drivers/STM32F3xx_HAL_Driver/Src/stm32f3xx_hal_rtc_ex.c ****   *             @arg RTC_TIMESTAMPPIN_DEFAULT: PC13 is selected as RTC TimeStamp Pin.
 185:Drivers/STM32F3xx_HAL_Driver/Src/stm32f3xx_hal_rtc_ex.c ****   * @retval HAL status
 186:Drivers/STM32F3xx_HAL_Driver/Src/stm32f3xx_hal_rtc_ex.c ****   */
 187:Drivers/STM32F3xx_HAL_Driver/Src/stm32f3xx_hal_rtc_ex.c **** HAL_StatusTypeDef HAL_RTCEx_SetTimeStamp_IT(RTC_HandleTypeDef *hrtc, uint32_t TimeStampEdge, uint32
 188:Drivers/STM32F3xx_HAL_Driver/Src/stm32f3xx_hal_rtc_ex.c **** {
 141              		.loc 1 188 1 is_stmt 1 view -0
 142              		.cfi_startproc
 143              		@ args = 0, pretend = 0, frame = 0
 144              		@ frame_needed = 0, uses_anonymous_args = 0
 145              		@ link register save eliminated.
 189:Drivers/STM32F3xx_HAL_Driver/Src/stm32f3xx_hal_rtc_ex.c ****   uint32_t tmpreg = 0U;
 146              		.loc 1 189 3 view .LVU42
 190:Drivers/STM32F3xx_HAL_Driver/Src/stm32f3xx_hal_rtc_ex.c **** 
 191:Drivers/STM32F3xx_HAL_Driver/Src/stm32f3xx_hal_rtc_ex.c ****   /* Check the parameters */
 192:Drivers/STM32F3xx_HAL_Driver/Src/stm32f3xx_hal_rtc_ex.c ****   assert_param(IS_TIMESTAMP_EDGE(TimeStampEdge));
 147              		.loc 1 192 3 view .LVU43
 193:Drivers/STM32F3xx_HAL_Driver/Src/stm32f3xx_hal_rtc_ex.c ****   assert_param(IS_RTC_TIMESTAMP_PIN(RTC_TimeStampPin));
 148              		.loc 1 193 3 view .LVU44
 194:Drivers/STM32F3xx_HAL_Driver/Src/stm32f3xx_hal_rtc_ex.c **** 
 195:Drivers/STM32F3xx_HAL_Driver/Src/stm32f3xx_hal_rtc_ex.c ****   /* Process Locked */
ARM GAS  /var/folders/jw/jcj5j9_530958b2rm5vp9wn00000gn/T//ccckkuva.s 			page 7


 196:Drivers/STM32F3xx_HAL_Driver/Src/stm32f3xx_hal_rtc_ex.c ****   __HAL_LOCK(hrtc);
 149              		.loc 1 196 3 view .LVU45
 150              		.loc 1 196 3 view .LVU46
 151 0000 037F     		ldrb	r3, [r0, #28]	@ zero_extendqisi2
 152 0002 012B     		cmp	r3, #1
 153 0004 2ED0     		beq	.L10
 188:Drivers/STM32F3xx_HAL_Driver/Src/stm32f3xx_hal_rtc_ex.c ****   uint32_t tmpreg = 0U;
 154              		.loc 1 188 1 is_stmt 0 discriminator 2 view .LVU47
 155 0006 30B4     		push	{r4, r5}
 156              	.LCFI2:
 157              		.cfi_def_cfa_offset 8
 158              		.cfi_offset 4, -8
 159              		.cfi_offset 5, -4
 160              		.loc 1 196 3 is_stmt 1 discriminator 2 view .LVU48
 161 0008 0124     		movs	r4, #1
 162 000a 0477     		strb	r4, [r0, #28]
 163              		.loc 1 196 3 discriminator 2 view .LVU49
 197:Drivers/STM32F3xx_HAL_Driver/Src/stm32f3xx_hal_rtc_ex.c **** 
 198:Drivers/STM32F3xx_HAL_Driver/Src/stm32f3xx_hal_rtc_ex.c ****   hrtc->State = HAL_RTC_STATE_BUSY;
 164              		.loc 1 198 3 discriminator 2 view .LVU50
 165              		.loc 1 198 15 is_stmt 0 discriminator 2 view .LVU51
 166 000c 0223     		movs	r3, #2
 167 000e 4377     		strb	r3, [r0, #29]
 199:Drivers/STM32F3xx_HAL_Driver/Src/stm32f3xx_hal_rtc_ex.c **** 
 200:Drivers/STM32F3xx_HAL_Driver/Src/stm32f3xx_hal_rtc_ex.c ****   /* Get the RTC_CR register and clear the bits to be configured */
 201:Drivers/STM32F3xx_HAL_Driver/Src/stm32f3xx_hal_rtc_ex.c ****   tmpreg = (uint32_t)(hrtc->Instance->CR & (uint32_t)~(RTC_CR_TSEDGE | RTC_CR_TSE));
 168              		.loc 1 201 3 is_stmt 1 discriminator 2 view .LVU52
 169              		.loc 1 201 27 is_stmt 0 discriminator 2 view .LVU53
 170 0010 0568     		ldr	r5, [r0]
 171              		.loc 1 201 37 discriminator 2 view .LVU54
 172 0012 AB68     		ldr	r3, [r5, #8]
 173              		.loc 1 201 10 discriminator 2 view .LVU55
 174 0014 23F40063 		bic	r3, r3, #2048
 175 0018 23F00803 		bic	r3, r3, #8
 176              	.LVL10:
 202:Drivers/STM32F3xx_HAL_Driver/Src/stm32f3xx_hal_rtc_ex.c **** 
 203:Drivers/STM32F3xx_HAL_Driver/Src/stm32f3xx_hal_rtc_ex.c ****   tmpreg |= TimeStampEdge;
 177              		.loc 1 203 3 is_stmt 1 discriminator 2 view .LVU56
 178              		.loc 1 203 10 is_stmt 0 discriminator 2 view .LVU57
 179 001c 0B43     		orrs	r3, r3, r1
 180              	.LVL11:
 204:Drivers/STM32F3xx_HAL_Driver/Src/stm32f3xx_hal_rtc_ex.c **** 
 205:Drivers/STM32F3xx_HAL_Driver/Src/stm32f3xx_hal_rtc_ex.c ****   /* Disable the write protection for RTC registers */
 206:Drivers/STM32F3xx_HAL_Driver/Src/stm32f3xx_hal_rtc_ex.c ****   __HAL_RTC_WRITEPROTECTION_DISABLE(hrtc);
 181              		.loc 1 206 3 is_stmt 1 discriminator 2 view .LVU58
 182              		.loc 1 206 3 discriminator 2 view .LVU59
 183 001e CA22     		movs	r2, #202
 184              	.LVL12:
 185              		.loc 1 206 3 is_stmt 0 discriminator 2 view .LVU60
 186 0020 6A62     		str	r2, [r5, #36]
 187              		.loc 1 206 3 is_stmt 1 discriminator 2 view .LVU61
 188 0022 0268     		ldr	r2, [r0]
 189 0024 5321     		movs	r1, #83
 190              	.LVL13:
 191              		.loc 1 206 3 is_stmt 0 discriminator 2 view .LVU62
 192 0026 5162     		str	r1, [r2, #36]
 193              		.loc 1 206 3 is_stmt 1 discriminator 2 view .LVU63
ARM GAS  /var/folders/jw/jcj5j9_530958b2rm5vp9wn00000gn/T//ccckkuva.s 			page 8


 207:Drivers/STM32F3xx_HAL_Driver/Src/stm32f3xx_hal_rtc_ex.c **** 
 208:Drivers/STM32F3xx_HAL_Driver/Src/stm32f3xx_hal_rtc_ex.c ****   /* Configure the Time Stamp TSEDGE and Enable bits */
 209:Drivers/STM32F3xx_HAL_Driver/Src/stm32f3xx_hal_rtc_ex.c ****   hrtc->Instance->CR = (uint32_t)tmpreg;
 194              		.loc 1 209 3 discriminator 2 view .LVU64
 195              		.loc 1 209 7 is_stmt 0 discriminator 2 view .LVU65
 196 0028 0268     		ldr	r2, [r0]
 197              		.loc 1 209 22 discriminator 2 view .LVU66
 198 002a 9360     		str	r3, [r2, #8]
 210:Drivers/STM32F3xx_HAL_Driver/Src/stm32f3xx_hal_rtc_ex.c **** 
 211:Drivers/STM32F3xx_HAL_Driver/Src/stm32f3xx_hal_rtc_ex.c ****   __HAL_RTC_TIMESTAMP_ENABLE(hrtc);
 199              		.loc 1 211 3 is_stmt 1 discriminator 2 view .LVU67
 200 002c 0268     		ldr	r2, [r0]
 201 002e 9368     		ldr	r3, [r2, #8]
 202              	.LVL14:
 203              		.loc 1 211 3 is_stmt 0 discriminator 2 view .LVU68
 204 0030 43F40063 		orr	r3, r3, #2048
 205 0034 9360     		str	r3, [r2, #8]
 212:Drivers/STM32F3xx_HAL_Driver/Src/stm32f3xx_hal_rtc_ex.c **** 
 213:Drivers/STM32F3xx_HAL_Driver/Src/stm32f3xx_hal_rtc_ex.c ****   /* Enable IT timestamp */
 214:Drivers/STM32F3xx_HAL_Driver/Src/stm32f3xx_hal_rtc_ex.c ****   __HAL_RTC_TIMESTAMP_ENABLE_IT(hrtc, RTC_IT_TS);
 206              		.loc 1 214 3 is_stmt 1 discriminator 2 view .LVU69
 207 0036 0268     		ldr	r2, [r0]
 208 0038 9368     		ldr	r3, [r2, #8]
 209 003a 43F40043 		orr	r3, r3, #32768
 210 003e 9360     		str	r3, [r2, #8]
 215:Drivers/STM32F3xx_HAL_Driver/Src/stm32f3xx_hal_rtc_ex.c **** 
 216:Drivers/STM32F3xx_HAL_Driver/Src/stm32f3xx_hal_rtc_ex.c ****   /* RTC timestamp Interrupt Configuration: EXTI configuration */
 217:Drivers/STM32F3xx_HAL_Driver/Src/stm32f3xx_hal_rtc_ex.c ****   __HAL_RTC_TAMPER_TIMESTAMP_EXTI_ENABLE_IT();
 211              		.loc 1 217 3 discriminator 2 view .LVU70
 212 0040 094B     		ldr	r3, .L15
 213 0042 1A68     		ldr	r2, [r3]
 214 0044 42F40022 		orr	r2, r2, #524288
 215 0048 1A60     		str	r2, [r3]
 218:Drivers/STM32F3xx_HAL_Driver/Src/stm32f3xx_hal_rtc_ex.c **** 
 219:Drivers/STM32F3xx_HAL_Driver/Src/stm32f3xx_hal_rtc_ex.c ****   __HAL_RTC_TAMPER_TIMESTAMP_EXTI_ENABLE_RISING_EDGE();
 216              		.loc 1 219 3 discriminator 2 view .LVU71
 217 004a 9A68     		ldr	r2, [r3, #8]
 218 004c 42F40022 		orr	r2, r2, #524288
 219 0050 9A60     		str	r2, [r3, #8]
 220:Drivers/STM32F3xx_HAL_Driver/Src/stm32f3xx_hal_rtc_ex.c **** 
 221:Drivers/STM32F3xx_HAL_Driver/Src/stm32f3xx_hal_rtc_ex.c ****   /* Enable the write protection for RTC registers */
 222:Drivers/STM32F3xx_HAL_Driver/Src/stm32f3xx_hal_rtc_ex.c ****   __HAL_RTC_WRITEPROTECTION_ENABLE(hrtc);
 220              		.loc 1 222 3 discriminator 2 view .LVU72
 221              		.loc 1 222 3 discriminator 2 view .LVU73
 222 0052 0368     		ldr	r3, [r0]
 223 0054 FF22     		movs	r2, #255
 224 0056 5A62     		str	r2, [r3, #36]
 225              		.loc 1 222 3 discriminator 2 view .LVU74
 223:Drivers/STM32F3xx_HAL_Driver/Src/stm32f3xx_hal_rtc_ex.c **** 
 224:Drivers/STM32F3xx_HAL_Driver/Src/stm32f3xx_hal_rtc_ex.c ****   hrtc->State = HAL_RTC_STATE_READY;
 226              		.loc 1 224 3 discriminator 2 view .LVU75
 227              		.loc 1 224 15 is_stmt 0 discriminator 2 view .LVU76
 228 0058 4477     		strb	r4, [r0, #29]
 225:Drivers/STM32F3xx_HAL_Driver/Src/stm32f3xx_hal_rtc_ex.c **** 
 226:Drivers/STM32F3xx_HAL_Driver/Src/stm32f3xx_hal_rtc_ex.c ****   /* Process Unlocked */
 227:Drivers/STM32F3xx_HAL_Driver/Src/stm32f3xx_hal_rtc_ex.c ****   __HAL_UNLOCK(hrtc);
 229              		.loc 1 227 3 is_stmt 1 discriminator 2 view .LVU77
ARM GAS  /var/folders/jw/jcj5j9_530958b2rm5vp9wn00000gn/T//ccckkuva.s 			page 9


 230              		.loc 1 227 3 discriminator 2 view .LVU78
 231 005a 0023     		movs	r3, #0
 232 005c 0377     		strb	r3, [r0, #28]
 233              		.loc 1 227 3 discriminator 2 view .LVU79
 228:Drivers/STM32F3xx_HAL_Driver/Src/stm32f3xx_hal_rtc_ex.c **** 
 229:Drivers/STM32F3xx_HAL_Driver/Src/stm32f3xx_hal_rtc_ex.c ****   return HAL_OK;
 234              		.loc 1 229 3 discriminator 2 view .LVU80
 235              		.loc 1 229 10 is_stmt 0 discriminator 2 view .LVU81
 236 005e 1846     		mov	r0, r3
 237              	.LVL15:
 230:Drivers/STM32F3xx_HAL_Driver/Src/stm32f3xx_hal_rtc_ex.c **** }
 238              		.loc 1 230 1 discriminator 2 view .LVU82
 239 0060 30BC     		pop	{r4, r5}
 240              	.LCFI3:
 241              		.cfi_restore 5
 242              		.cfi_restore 4
 243              		.cfi_def_cfa_offset 0
 244 0062 7047     		bx	lr
 245              	.LVL16:
 246              	.L10:
 196:Drivers/STM32F3xx_HAL_Driver/Src/stm32f3xx_hal_rtc_ex.c **** 
 247              		.loc 1 196 3 view .LVU83
 248 0064 0220     		movs	r0, #2
 249              	.LVL17:
 250              		.loc 1 230 1 view .LVU84
 251 0066 7047     		bx	lr
 252              	.L16:
 253              		.align	2
 254              	.L15:
 255 0068 00040140 		.word	1073808384
 256              		.cfi_endproc
 257              	.LFE131:
 259              		.section	.text.HAL_RTCEx_DeactivateTimeStamp,"ax",%progbits
 260              		.align	1
 261              		.global	HAL_RTCEx_DeactivateTimeStamp
 262              		.syntax unified
 263              		.thumb
 264              		.thumb_func
 265              		.fpu fpv4-sp-d16
 267              	HAL_RTCEx_DeactivateTimeStamp:
 268              	.LVL18:
 269              	.LFB132:
 231:Drivers/STM32F3xx_HAL_Driver/Src/stm32f3xx_hal_rtc_ex.c **** 
 232:Drivers/STM32F3xx_HAL_Driver/Src/stm32f3xx_hal_rtc_ex.c **** /**
 233:Drivers/STM32F3xx_HAL_Driver/Src/stm32f3xx_hal_rtc_ex.c ****   * @brief  Deactivate TimeStamp.
 234:Drivers/STM32F3xx_HAL_Driver/Src/stm32f3xx_hal_rtc_ex.c ****   * @param  hrtc RTC handle
 235:Drivers/STM32F3xx_HAL_Driver/Src/stm32f3xx_hal_rtc_ex.c ****   * @retval HAL status
 236:Drivers/STM32F3xx_HAL_Driver/Src/stm32f3xx_hal_rtc_ex.c ****   */
 237:Drivers/STM32F3xx_HAL_Driver/Src/stm32f3xx_hal_rtc_ex.c **** HAL_StatusTypeDef HAL_RTCEx_DeactivateTimeStamp(RTC_HandleTypeDef *hrtc)
 238:Drivers/STM32F3xx_HAL_Driver/Src/stm32f3xx_hal_rtc_ex.c **** {
 270              		.loc 1 238 1 is_stmt 1 view -0
 271              		.cfi_startproc
 272              		@ args = 0, pretend = 0, frame = 0
 273              		@ frame_needed = 0, uses_anonymous_args = 0
 274              		@ link register save eliminated.
 239:Drivers/STM32F3xx_HAL_Driver/Src/stm32f3xx_hal_rtc_ex.c ****   uint32_t tmpreg = 0U;
 275              		.loc 1 239 3 view .LVU86
ARM GAS  /var/folders/jw/jcj5j9_530958b2rm5vp9wn00000gn/T//ccckkuva.s 			page 10


 240:Drivers/STM32F3xx_HAL_Driver/Src/stm32f3xx_hal_rtc_ex.c **** 
 241:Drivers/STM32F3xx_HAL_Driver/Src/stm32f3xx_hal_rtc_ex.c ****   /* Process Locked */
 242:Drivers/STM32F3xx_HAL_Driver/Src/stm32f3xx_hal_rtc_ex.c ****   __HAL_LOCK(hrtc);
 276              		.loc 1 242 3 view .LVU87
 277              		.loc 1 242 3 view .LVU88
 278 0000 037F     		ldrb	r3, [r0, #28]	@ zero_extendqisi2
 279 0002 012B     		cmp	r3, #1
 280 0004 1DD0     		beq	.L19
 281              		.loc 1 242 3 discriminator 2 view .LVU89
 282 0006 0122     		movs	r2, #1
 283 0008 0277     		strb	r2, [r0, #28]
 284              		.loc 1 242 3 discriminator 2 view .LVU90
 243:Drivers/STM32F3xx_HAL_Driver/Src/stm32f3xx_hal_rtc_ex.c **** 
 244:Drivers/STM32F3xx_HAL_Driver/Src/stm32f3xx_hal_rtc_ex.c ****   hrtc->State = HAL_RTC_STATE_BUSY;
 285              		.loc 1 244 3 discriminator 2 view .LVU91
 286              		.loc 1 244 15 is_stmt 0 discriminator 2 view .LVU92
 287 000a 0223     		movs	r3, #2
 288 000c 4377     		strb	r3, [r0, #29]
 245:Drivers/STM32F3xx_HAL_Driver/Src/stm32f3xx_hal_rtc_ex.c **** 
 246:Drivers/STM32F3xx_HAL_Driver/Src/stm32f3xx_hal_rtc_ex.c ****   /* Disable the write protection for RTC registers */
 247:Drivers/STM32F3xx_HAL_Driver/Src/stm32f3xx_hal_rtc_ex.c ****   __HAL_RTC_WRITEPROTECTION_DISABLE(hrtc);
 289              		.loc 1 247 3 is_stmt 1 discriminator 2 view .LVU93
 290              		.loc 1 247 3 discriminator 2 view .LVU94
 291 000e 0368     		ldr	r3, [r0]
 292 0010 CA21     		movs	r1, #202
 293 0012 5962     		str	r1, [r3, #36]
 294              		.loc 1 247 3 discriminator 2 view .LVU95
 295 0014 0368     		ldr	r3, [r0]
 296 0016 5321     		movs	r1, #83
 297 0018 5962     		str	r1, [r3, #36]
 298              		.loc 1 247 3 discriminator 2 view .LVU96
 248:Drivers/STM32F3xx_HAL_Driver/Src/stm32f3xx_hal_rtc_ex.c **** 
 249:Drivers/STM32F3xx_HAL_Driver/Src/stm32f3xx_hal_rtc_ex.c ****   /* In case of interrupt mode is used, the interrupt source must disabled */
 250:Drivers/STM32F3xx_HAL_Driver/Src/stm32f3xx_hal_rtc_ex.c ****   __HAL_RTC_TIMESTAMP_DISABLE_IT(hrtc, RTC_IT_TS);
 299              		.loc 1 250 3 discriminator 2 view .LVU97
 300 001a 0168     		ldr	r1, [r0]
 301 001c 8B68     		ldr	r3, [r1, #8]
 302 001e 23F40043 		bic	r3, r3, #32768
 303 0022 8B60     		str	r3, [r1, #8]
 251:Drivers/STM32F3xx_HAL_Driver/Src/stm32f3xx_hal_rtc_ex.c **** 
 252:Drivers/STM32F3xx_HAL_Driver/Src/stm32f3xx_hal_rtc_ex.c ****   /* Get the RTC_CR register and clear the bits to be configured */
 253:Drivers/STM32F3xx_HAL_Driver/Src/stm32f3xx_hal_rtc_ex.c ****   tmpreg = (uint32_t)(hrtc->Instance->CR & (uint32_t)~(RTC_CR_TSEDGE | RTC_CR_TSE));
 304              		.loc 1 253 3 discriminator 2 view .LVU98
 305              		.loc 1 253 27 is_stmt 0 discriminator 2 view .LVU99
 306 0024 0168     		ldr	r1, [r0]
 307              		.loc 1 253 37 discriminator 2 view .LVU100
 308 0026 8B68     		ldr	r3, [r1, #8]
 309              		.loc 1 253 10 discriminator 2 view .LVU101
 310 0028 23F40063 		bic	r3, r3, #2048
 311 002c 23F00803 		bic	r3, r3, #8
 312              	.LVL19:
 254:Drivers/STM32F3xx_HAL_Driver/Src/stm32f3xx_hal_rtc_ex.c **** 
 255:Drivers/STM32F3xx_HAL_Driver/Src/stm32f3xx_hal_rtc_ex.c ****   /* Configure the Time Stamp TSEDGE and Enable bits */
 256:Drivers/STM32F3xx_HAL_Driver/Src/stm32f3xx_hal_rtc_ex.c ****   hrtc->Instance->CR = (uint32_t)tmpreg;
 313              		.loc 1 256 3 is_stmt 1 discriminator 2 view .LVU102
 314              		.loc 1 256 22 is_stmt 0 discriminator 2 view .LVU103
 315 0030 8B60     		str	r3, [r1, #8]
ARM GAS  /var/folders/jw/jcj5j9_530958b2rm5vp9wn00000gn/T//ccckkuva.s 			page 11


 257:Drivers/STM32F3xx_HAL_Driver/Src/stm32f3xx_hal_rtc_ex.c **** 
 258:Drivers/STM32F3xx_HAL_Driver/Src/stm32f3xx_hal_rtc_ex.c ****   /* Enable the write protection for RTC registers */
 259:Drivers/STM32F3xx_HAL_Driver/Src/stm32f3xx_hal_rtc_ex.c ****   __HAL_RTC_WRITEPROTECTION_ENABLE(hrtc);
 316              		.loc 1 259 3 is_stmt 1 discriminator 2 view .LVU104
 317              		.loc 1 259 3 discriminator 2 view .LVU105
 318 0032 0368     		ldr	r3, [r0]
 319              	.LVL20:
 320              		.loc 1 259 3 is_stmt 0 discriminator 2 view .LVU106
 321 0034 FF21     		movs	r1, #255
 322              	.LVL21:
 323              		.loc 1 259 3 discriminator 2 view .LVU107
 324 0036 5962     		str	r1, [r3, #36]
 325              		.loc 1 259 3 is_stmt 1 discriminator 2 view .LVU108
 260:Drivers/STM32F3xx_HAL_Driver/Src/stm32f3xx_hal_rtc_ex.c **** 
 261:Drivers/STM32F3xx_HAL_Driver/Src/stm32f3xx_hal_rtc_ex.c ****   hrtc->State = HAL_RTC_STATE_READY;
 326              		.loc 1 261 3 discriminator 2 view .LVU109
 327              		.loc 1 261 15 is_stmt 0 discriminator 2 view .LVU110
 328 0038 4277     		strb	r2, [r0, #29]
 262:Drivers/STM32F3xx_HAL_Driver/Src/stm32f3xx_hal_rtc_ex.c **** 
 263:Drivers/STM32F3xx_HAL_Driver/Src/stm32f3xx_hal_rtc_ex.c ****   /* Process Unlocked */
 264:Drivers/STM32F3xx_HAL_Driver/Src/stm32f3xx_hal_rtc_ex.c ****   __HAL_UNLOCK(hrtc);
 329              		.loc 1 264 3 is_stmt 1 discriminator 2 view .LVU111
 330              		.loc 1 264 3 discriminator 2 view .LVU112
 331 003a 0023     		movs	r3, #0
 332 003c 0377     		strb	r3, [r0, #28]
 333              		.loc 1 264 3 discriminator 2 view .LVU113
 265:Drivers/STM32F3xx_HAL_Driver/Src/stm32f3xx_hal_rtc_ex.c **** 
 266:Drivers/STM32F3xx_HAL_Driver/Src/stm32f3xx_hal_rtc_ex.c ****   return HAL_OK;
 334              		.loc 1 266 3 discriminator 2 view .LVU114
 335              		.loc 1 266 10 is_stmt 0 discriminator 2 view .LVU115
 336 003e 1846     		mov	r0, r3
 337              	.LVL22:
 338              		.loc 1 266 10 discriminator 2 view .LVU116
 339 0040 7047     		bx	lr
 340              	.LVL23:
 341              	.L19:
 242:Drivers/STM32F3xx_HAL_Driver/Src/stm32f3xx_hal_rtc_ex.c **** 
 342              		.loc 1 242 3 view .LVU117
 343 0042 0220     		movs	r0, #2
 344              	.LVL24:
 267:Drivers/STM32F3xx_HAL_Driver/Src/stm32f3xx_hal_rtc_ex.c **** }
 345              		.loc 1 267 1 view .LVU118
 346 0044 7047     		bx	lr
 347              		.cfi_endproc
 348              	.LFE132:
 350              		.section	.text.HAL_RTCEx_GetTimeStamp,"ax",%progbits
 351              		.align	1
 352              		.global	HAL_RTCEx_GetTimeStamp
 353              		.syntax unified
 354              		.thumb
 355              		.thumb_func
 356              		.fpu fpv4-sp-d16
 358              	HAL_RTCEx_GetTimeStamp:
 359              	.LVL25:
 360              	.LFB133:
 268:Drivers/STM32F3xx_HAL_Driver/Src/stm32f3xx_hal_rtc_ex.c **** 
 269:Drivers/STM32F3xx_HAL_Driver/Src/stm32f3xx_hal_rtc_ex.c **** /**
ARM GAS  /var/folders/jw/jcj5j9_530958b2rm5vp9wn00000gn/T//ccckkuva.s 			page 12


 270:Drivers/STM32F3xx_HAL_Driver/Src/stm32f3xx_hal_rtc_ex.c ****   * @brief  Get the RTC TimeStamp value.
 271:Drivers/STM32F3xx_HAL_Driver/Src/stm32f3xx_hal_rtc_ex.c ****   * @param  hrtc RTC handle
 272:Drivers/STM32F3xx_HAL_Driver/Src/stm32f3xx_hal_rtc_ex.c ****   * @param  sTimeStamp Pointer to Time structure
 273:Drivers/STM32F3xx_HAL_Driver/Src/stm32f3xx_hal_rtc_ex.c ****   * @param  sTimeStampDate Pointer to Date structure
 274:Drivers/STM32F3xx_HAL_Driver/Src/stm32f3xx_hal_rtc_ex.c ****   * @param  Format specifies the format of the entered parameters.
 275:Drivers/STM32F3xx_HAL_Driver/Src/stm32f3xx_hal_rtc_ex.c ****   *          This parameter can be one of the following values:
 276:Drivers/STM32F3xx_HAL_Driver/Src/stm32f3xx_hal_rtc_ex.c ****   *             @arg RTC_FORMAT_BIN: Binary data format
 277:Drivers/STM32F3xx_HAL_Driver/Src/stm32f3xx_hal_rtc_ex.c ****   *             @arg RTC_FORMAT_BCD: BCD data format
 278:Drivers/STM32F3xx_HAL_Driver/Src/stm32f3xx_hal_rtc_ex.c ****   * @retval HAL status
 279:Drivers/STM32F3xx_HAL_Driver/Src/stm32f3xx_hal_rtc_ex.c ****   */
 280:Drivers/STM32F3xx_HAL_Driver/Src/stm32f3xx_hal_rtc_ex.c **** HAL_StatusTypeDef HAL_RTCEx_GetTimeStamp(RTC_HandleTypeDef *hrtc, RTC_TimeTypeDef *sTimeStamp, RTC_
 281:Drivers/STM32F3xx_HAL_Driver/Src/stm32f3xx_hal_rtc_ex.c **** {
 361              		.loc 1 281 1 is_stmt 1 view -0
 362              		.cfi_startproc
 363              		@ args = 0, pretend = 0, frame = 0
 364              		@ frame_needed = 0, uses_anonymous_args = 0
 365              		.loc 1 281 1 is_stmt 0 view .LVU120
 366 0000 F8B5     		push	{r3, r4, r5, r6, r7, lr}
 367              	.LCFI4:
 368              		.cfi_def_cfa_offset 24
 369              		.cfi_offset 3, -24
 370              		.cfi_offset 4, -20
 371              		.cfi_offset 5, -16
 372              		.cfi_offset 6, -12
 373              		.cfi_offset 7, -8
 374              		.cfi_offset 14, -4
 375 0002 0646     		mov	r6, r0
 376 0004 0C46     		mov	r4, r1
 377 0006 1546     		mov	r5, r2
 282:Drivers/STM32F3xx_HAL_Driver/Src/stm32f3xx_hal_rtc_ex.c ****   uint32_t tmptime = 0U, tmpdate = 0U;
 378              		.loc 1 282 3 is_stmt 1 view .LVU121
 379              	.LVL26:
 283:Drivers/STM32F3xx_HAL_Driver/Src/stm32f3xx_hal_rtc_ex.c **** 
 284:Drivers/STM32F3xx_HAL_Driver/Src/stm32f3xx_hal_rtc_ex.c ****   /* Check the parameters */
 285:Drivers/STM32F3xx_HAL_Driver/Src/stm32f3xx_hal_rtc_ex.c ****   assert_param(IS_RTC_FORMAT(Format));
 380              		.loc 1 285 3 view .LVU122
 286:Drivers/STM32F3xx_HAL_Driver/Src/stm32f3xx_hal_rtc_ex.c **** 
 287:Drivers/STM32F3xx_HAL_Driver/Src/stm32f3xx_hal_rtc_ex.c ****   /* Get the TimeStamp time and date registers values */
 288:Drivers/STM32F3xx_HAL_Driver/Src/stm32f3xx_hal_rtc_ex.c ****   tmptime = (uint32_t)(hrtc->Instance->TSTR & RTC_TR_RESERVED_MASK);
 381              		.loc 1 288 3 view .LVU123
 382              		.loc 1 288 28 is_stmt 0 view .LVU124
 383 0008 0168     		ldr	r1, [r0]
 384              	.LVL27:
 385              		.loc 1 288 38 view .LVU125
 386 000a 0A6B     		ldr	r2, [r1, #48]
 387              	.LVL28:
 289:Drivers/STM32F3xx_HAL_Driver/Src/stm32f3xx_hal_rtc_ex.c ****   tmpdate = (uint32_t)(hrtc->Instance->TSDR & RTC_DR_RESERVED_MASK);
 388              		.loc 1 289 3 is_stmt 1 view .LVU126
 389              		.loc 1 289 38 is_stmt 0 view .LVU127
 390 000c 496B     		ldr	r1, [r1, #52]
 391              	.LVL29:
 290:Drivers/STM32F3xx_HAL_Driver/Src/stm32f3xx_hal_rtc_ex.c **** 
 291:Drivers/STM32F3xx_HAL_Driver/Src/stm32f3xx_hal_rtc_ex.c ****   /* Fill the Time structure fields with the read parameters */
 292:Drivers/STM32F3xx_HAL_Driver/Src/stm32f3xx_hal_rtc_ex.c ****   sTimeStamp->Hours = (uint8_t)((tmptime & (RTC_TR_HT | RTC_TR_HU)) >> 16U);
 392              		.loc 1 292 3 is_stmt 1 view .LVU128
 393              		.loc 1 292 23 is_stmt 0 view .LVU129
 394 000e C2F30640 		ubfx	r0, r2, #16, #7
ARM GAS  /var/folders/jw/jcj5j9_530958b2rm5vp9wn00000gn/T//ccckkuva.s 			page 13


 395              	.LVL30:
 396              		.loc 1 292 23 view .LVU130
 397 0012 C2F30547 		ubfx	r7, r2, #16, #6
 398              		.loc 1 292 21 view .LVU131
 399 0016 2770     		strb	r7, [r4]
 293:Drivers/STM32F3xx_HAL_Driver/Src/stm32f3xx_hal_rtc_ex.c ****   sTimeStamp->Minutes = (uint8_t)((tmptime & (RTC_TR_MNT | RTC_TR_MNU)) >> 8U);
 400              		.loc 1 293 3 is_stmt 1 view .LVU132
 401              		.loc 1 293 25 is_stmt 0 view .LVU133
 402 0018 C2F30627 		ubfx	r7, r2, #8, #7
 403              		.loc 1 293 23 view .LVU134
 404 001c 6770     		strb	r7, [r4, #1]
 294:Drivers/STM32F3xx_HAL_Driver/Src/stm32f3xx_hal_rtc_ex.c ****   sTimeStamp->Seconds = (uint8_t)(tmptime & (RTC_TR_ST | RTC_TR_SU));
 405              		.loc 1 294 3 is_stmt 1 view .LVU135
 406              		.loc 1 294 25 is_stmt 0 view .LVU136
 407 001e 02F07F02 		and	r2, r2, #127
 408              	.LVL31:
 409              		.loc 1 294 23 view .LVU137
 410 0022 A270     		strb	r2, [r4, #2]
 295:Drivers/STM32F3xx_HAL_Driver/Src/stm32f3xx_hal_rtc_ex.c ****   sTimeStamp->TimeFormat = (uint8_t)((tmptime & (RTC_TR_PM)) >> 16U);
 411              		.loc 1 295 3 is_stmt 1 view .LVU138
 412              		.loc 1 295 28 is_stmt 0 view .LVU139
 413 0024 00F04002 		and	r2, r0, #64
 414              		.loc 1 295 26 view .LVU140
 415 0028 E270     		strb	r2, [r4, #3]
 296:Drivers/STM32F3xx_HAL_Driver/Src/stm32f3xx_hal_rtc_ex.c ****   sTimeStamp->SubSeconds = (uint32_t) hrtc->Instance->TSSSR;
 416              		.loc 1 296 3 is_stmt 1 view .LVU141
 417              		.loc 1 296 43 is_stmt 0 view .LVU142
 418 002a 3268     		ldr	r2, [r6]
 419              		.loc 1 296 53 view .LVU143
 420 002c 926B     		ldr	r2, [r2, #56]
 421              		.loc 1 296 26 view .LVU144
 422 002e 6260     		str	r2, [r4, #4]
 297:Drivers/STM32F3xx_HAL_Driver/Src/stm32f3xx_hal_rtc_ex.c **** 
 298:Drivers/STM32F3xx_HAL_Driver/Src/stm32f3xx_hal_rtc_ex.c ****   /* Fill the Date structure fields with the read parameters */
 299:Drivers/STM32F3xx_HAL_Driver/Src/stm32f3xx_hal_rtc_ex.c ****   sTimeStampDate->Year = 0U;
 423              		.loc 1 299 3 is_stmt 1 view .LVU145
 424              		.loc 1 299 24 is_stmt 0 view .LVU146
 425 0030 0022     		movs	r2, #0
 426 0032 EA70     		strb	r2, [r5, #3]
 300:Drivers/STM32F3xx_HAL_Driver/Src/stm32f3xx_hal_rtc_ex.c ****   sTimeStampDate->Month = (uint8_t)((tmpdate & (RTC_DR_MT | RTC_DR_MU)) >> 8U);
 427              		.loc 1 300 3 is_stmt 1 view .LVU147
 428              		.loc 1 300 27 is_stmt 0 view .LVU148
 429 0034 C1F30422 		ubfx	r2, r1, #8, #5
 430              		.loc 1 300 25 view .LVU149
 431 0038 6A70     		strb	r2, [r5, #1]
 301:Drivers/STM32F3xx_HAL_Driver/Src/stm32f3xx_hal_rtc_ex.c ****   sTimeStampDate->Date = (uint8_t)(tmpdate & (RTC_DR_DT | RTC_DR_DU));
 432              		.loc 1 301 3 is_stmt 1 view .LVU150
 433              		.loc 1 301 26 is_stmt 0 view .LVU151
 434 003a 01F03F02 		and	r2, r1, #63
 435              		.loc 1 301 24 view .LVU152
 436 003e AA70     		strb	r2, [r5, #2]
 302:Drivers/STM32F3xx_HAL_Driver/Src/stm32f3xx_hal_rtc_ex.c ****   sTimeStampDate->WeekDay = (uint8_t)((tmpdate & (RTC_DR_WDU)) >> 13U);
 437              		.loc 1 302 3 is_stmt 1 view .LVU153
 438              		.loc 1 302 29 is_stmt 0 view .LVU154
 439 0040 C1F34231 		ubfx	r1, r1, #13, #3
 440              	.LVL32:
 441              		.loc 1 302 27 view .LVU155
ARM GAS  /var/folders/jw/jcj5j9_530958b2rm5vp9wn00000gn/T//ccckkuva.s 			page 14


 442 0044 2970     		strb	r1, [r5]
 303:Drivers/STM32F3xx_HAL_Driver/Src/stm32f3xx_hal_rtc_ex.c **** 
 304:Drivers/STM32F3xx_HAL_Driver/Src/stm32f3xx_hal_rtc_ex.c ****   /* Check the input parameters format */
 305:Drivers/STM32F3xx_HAL_Driver/Src/stm32f3xx_hal_rtc_ex.c ****   if (Format == RTC_FORMAT_BIN)
 443              		.loc 1 305 3 is_stmt 1 view .LVU156
 444              		.loc 1 305 6 is_stmt 0 view .LVU157
 445 0046 3BB1     		cbz	r3, .L23
 446              	.LVL33:
 447              	.L21:
 306:Drivers/STM32F3xx_HAL_Driver/Src/stm32f3xx_hal_rtc_ex.c ****   {
 307:Drivers/STM32F3xx_HAL_Driver/Src/stm32f3xx_hal_rtc_ex.c ****     /* Convert the TimeStamp structure parameters to Binary format */
 308:Drivers/STM32F3xx_HAL_Driver/Src/stm32f3xx_hal_rtc_ex.c ****     sTimeStamp->Hours = (uint8_t)RTC_Bcd2ToByte(sTimeStamp->Hours);
 309:Drivers/STM32F3xx_HAL_Driver/Src/stm32f3xx_hal_rtc_ex.c ****     sTimeStamp->Minutes = (uint8_t)RTC_Bcd2ToByte(sTimeStamp->Minutes);
 310:Drivers/STM32F3xx_HAL_Driver/Src/stm32f3xx_hal_rtc_ex.c ****     sTimeStamp->Seconds = (uint8_t)RTC_Bcd2ToByte(sTimeStamp->Seconds);
 311:Drivers/STM32F3xx_HAL_Driver/Src/stm32f3xx_hal_rtc_ex.c **** 
 312:Drivers/STM32F3xx_HAL_Driver/Src/stm32f3xx_hal_rtc_ex.c ****     /* Convert the DateTimeStamp structure parameters to Binary format */
 313:Drivers/STM32F3xx_HAL_Driver/Src/stm32f3xx_hal_rtc_ex.c ****     sTimeStampDate->Month = (uint8_t)RTC_Bcd2ToByte(sTimeStampDate->Month);
 314:Drivers/STM32F3xx_HAL_Driver/Src/stm32f3xx_hal_rtc_ex.c ****     sTimeStampDate->Date = (uint8_t)RTC_Bcd2ToByte(sTimeStampDate->Date);
 315:Drivers/STM32F3xx_HAL_Driver/Src/stm32f3xx_hal_rtc_ex.c ****     sTimeStampDate->WeekDay = (uint8_t)RTC_Bcd2ToByte(sTimeStampDate->WeekDay);
 316:Drivers/STM32F3xx_HAL_Driver/Src/stm32f3xx_hal_rtc_ex.c ****   }
 317:Drivers/STM32F3xx_HAL_Driver/Src/stm32f3xx_hal_rtc_ex.c **** 
 318:Drivers/STM32F3xx_HAL_Driver/Src/stm32f3xx_hal_rtc_ex.c ****   /* Clear the TIMESTAMP Flag */
 319:Drivers/STM32F3xx_HAL_Driver/Src/stm32f3xx_hal_rtc_ex.c ****   __HAL_RTC_TIMESTAMP_CLEAR_FLAG(hrtc, RTC_FLAG_TSF);
 448              		.loc 1 319 3 is_stmt 1 view .LVU158
 449 0048 3268     		ldr	r2, [r6]
 450 004a D368     		ldr	r3, [r2, #12]
 451 004c DBB2     		uxtb	r3, r3
 452 004e 63F40863 		orn	r3, r3, #2176
 453 0052 D360     		str	r3, [r2, #12]
 320:Drivers/STM32F3xx_HAL_Driver/Src/stm32f3xx_hal_rtc_ex.c **** 
 321:Drivers/STM32F3xx_HAL_Driver/Src/stm32f3xx_hal_rtc_ex.c ****   return HAL_OK;
 454              		.loc 1 321 3 view .LVU159
 322:Drivers/STM32F3xx_HAL_Driver/Src/stm32f3xx_hal_rtc_ex.c **** }
 455              		.loc 1 322 1 is_stmt 0 view .LVU160
 456 0054 0020     		movs	r0, #0
 457 0056 F8BD     		pop	{r3, r4, r5, r6, r7, pc}
 458              	.LVL34:
 459              	.L23:
 308:Drivers/STM32F3xx_HAL_Driver/Src/stm32f3xx_hal_rtc_ex.c ****     sTimeStamp->Minutes = (uint8_t)RTC_Bcd2ToByte(sTimeStamp->Minutes);
 460              		.loc 1 308 5 is_stmt 1 view .LVU161
 308:Drivers/STM32F3xx_HAL_Driver/Src/stm32f3xx_hal_rtc_ex.c ****     sTimeStamp->Minutes = (uint8_t)RTC_Bcd2ToByte(sTimeStamp->Minutes);
 461              		.loc 1 308 34 is_stmt 0 view .LVU162
 462 0058 2078     		ldrb	r0, [r4]	@ zero_extendqisi2
 463 005a FFF7FEFF 		bl	RTC_Bcd2ToByte
 464              	.LVL35:
 308:Drivers/STM32F3xx_HAL_Driver/Src/stm32f3xx_hal_rtc_ex.c ****     sTimeStamp->Minutes = (uint8_t)RTC_Bcd2ToByte(sTimeStamp->Minutes);
 465              		.loc 1 308 23 view .LVU163
 466 005e 2070     		strb	r0, [r4]
 309:Drivers/STM32F3xx_HAL_Driver/Src/stm32f3xx_hal_rtc_ex.c ****     sTimeStamp->Seconds = (uint8_t)RTC_Bcd2ToByte(sTimeStamp->Seconds);
 467              		.loc 1 309 5 is_stmt 1 view .LVU164
 309:Drivers/STM32F3xx_HAL_Driver/Src/stm32f3xx_hal_rtc_ex.c ****     sTimeStamp->Seconds = (uint8_t)RTC_Bcd2ToByte(sTimeStamp->Seconds);
 468              		.loc 1 309 36 is_stmt 0 view .LVU165
 469 0060 6078     		ldrb	r0, [r4, #1]	@ zero_extendqisi2
 470 0062 FFF7FEFF 		bl	RTC_Bcd2ToByte
 471              	.LVL36:
 309:Drivers/STM32F3xx_HAL_Driver/Src/stm32f3xx_hal_rtc_ex.c ****     sTimeStamp->Seconds = (uint8_t)RTC_Bcd2ToByte(sTimeStamp->Seconds);
 472              		.loc 1 309 25 view .LVU166
ARM GAS  /var/folders/jw/jcj5j9_530958b2rm5vp9wn00000gn/T//ccckkuva.s 			page 15


 473 0066 6070     		strb	r0, [r4, #1]
 310:Drivers/STM32F3xx_HAL_Driver/Src/stm32f3xx_hal_rtc_ex.c **** 
 474              		.loc 1 310 5 is_stmt 1 view .LVU167
 310:Drivers/STM32F3xx_HAL_Driver/Src/stm32f3xx_hal_rtc_ex.c **** 
 475              		.loc 1 310 36 is_stmt 0 view .LVU168
 476 0068 A078     		ldrb	r0, [r4, #2]	@ zero_extendqisi2
 477 006a FFF7FEFF 		bl	RTC_Bcd2ToByte
 478              	.LVL37:
 310:Drivers/STM32F3xx_HAL_Driver/Src/stm32f3xx_hal_rtc_ex.c **** 
 479              		.loc 1 310 25 view .LVU169
 480 006e A070     		strb	r0, [r4, #2]
 313:Drivers/STM32F3xx_HAL_Driver/Src/stm32f3xx_hal_rtc_ex.c ****     sTimeStampDate->Date = (uint8_t)RTC_Bcd2ToByte(sTimeStampDate->Date);
 481              		.loc 1 313 5 is_stmt 1 view .LVU170
 313:Drivers/STM32F3xx_HAL_Driver/Src/stm32f3xx_hal_rtc_ex.c ****     sTimeStampDate->Date = (uint8_t)RTC_Bcd2ToByte(sTimeStampDate->Date);
 482              		.loc 1 313 38 is_stmt 0 view .LVU171
 483 0070 6878     		ldrb	r0, [r5, #1]	@ zero_extendqisi2
 484 0072 FFF7FEFF 		bl	RTC_Bcd2ToByte
 485              	.LVL38:
 313:Drivers/STM32F3xx_HAL_Driver/Src/stm32f3xx_hal_rtc_ex.c ****     sTimeStampDate->Date = (uint8_t)RTC_Bcd2ToByte(sTimeStampDate->Date);
 486              		.loc 1 313 27 view .LVU172
 487 0076 6870     		strb	r0, [r5, #1]
 314:Drivers/STM32F3xx_HAL_Driver/Src/stm32f3xx_hal_rtc_ex.c ****     sTimeStampDate->WeekDay = (uint8_t)RTC_Bcd2ToByte(sTimeStampDate->WeekDay);
 488              		.loc 1 314 5 is_stmt 1 view .LVU173
 314:Drivers/STM32F3xx_HAL_Driver/Src/stm32f3xx_hal_rtc_ex.c ****     sTimeStampDate->WeekDay = (uint8_t)RTC_Bcd2ToByte(sTimeStampDate->WeekDay);
 489              		.loc 1 314 37 is_stmt 0 view .LVU174
 490 0078 A878     		ldrb	r0, [r5, #2]	@ zero_extendqisi2
 491 007a FFF7FEFF 		bl	RTC_Bcd2ToByte
 492              	.LVL39:
 314:Drivers/STM32F3xx_HAL_Driver/Src/stm32f3xx_hal_rtc_ex.c ****     sTimeStampDate->WeekDay = (uint8_t)RTC_Bcd2ToByte(sTimeStampDate->WeekDay);
 493              		.loc 1 314 26 view .LVU175
 494 007e A870     		strb	r0, [r5, #2]
 315:Drivers/STM32F3xx_HAL_Driver/Src/stm32f3xx_hal_rtc_ex.c ****   }
 495              		.loc 1 315 5 is_stmt 1 view .LVU176
 315:Drivers/STM32F3xx_HAL_Driver/Src/stm32f3xx_hal_rtc_ex.c ****   }
 496              		.loc 1 315 40 is_stmt 0 view .LVU177
 497 0080 2878     		ldrb	r0, [r5]	@ zero_extendqisi2
 498 0082 FFF7FEFF 		bl	RTC_Bcd2ToByte
 499              	.LVL40:
 315:Drivers/STM32F3xx_HAL_Driver/Src/stm32f3xx_hal_rtc_ex.c ****   }
 500              		.loc 1 315 29 view .LVU178
 501 0086 2870     		strb	r0, [r5]
 502 0088 DEE7     		b	.L21
 503              		.cfi_endproc
 504              	.LFE133:
 506              		.section	.text.HAL_RTCEx_SetTamper,"ax",%progbits
 507              		.align	1
 508              		.global	HAL_RTCEx_SetTamper
 509              		.syntax unified
 510              		.thumb
 511              		.thumb_func
 512              		.fpu fpv4-sp-d16
 514              	HAL_RTCEx_SetTamper:
 515              	.LVL41:
 516              	.LFB134:
 323:Drivers/STM32F3xx_HAL_Driver/Src/stm32f3xx_hal_rtc_ex.c **** 
 324:Drivers/STM32F3xx_HAL_Driver/Src/stm32f3xx_hal_rtc_ex.c **** /**
 325:Drivers/STM32F3xx_HAL_Driver/Src/stm32f3xx_hal_rtc_ex.c ****   * @brief  Set Tamper
ARM GAS  /var/folders/jw/jcj5j9_530958b2rm5vp9wn00000gn/T//ccckkuva.s 			page 16


 326:Drivers/STM32F3xx_HAL_Driver/Src/stm32f3xx_hal_rtc_ex.c ****   * @note   By calling this API we disable the tamper interrupt for all tampers.
 327:Drivers/STM32F3xx_HAL_Driver/Src/stm32f3xx_hal_rtc_ex.c ****   * @param  hrtc RTC handle
 328:Drivers/STM32F3xx_HAL_Driver/Src/stm32f3xx_hal_rtc_ex.c ****   * @param  sTamper Pointer to Tamper Structure.
 329:Drivers/STM32F3xx_HAL_Driver/Src/stm32f3xx_hal_rtc_ex.c ****   * @retval HAL status
 330:Drivers/STM32F3xx_HAL_Driver/Src/stm32f3xx_hal_rtc_ex.c ****   */
 331:Drivers/STM32F3xx_HAL_Driver/Src/stm32f3xx_hal_rtc_ex.c **** HAL_StatusTypeDef HAL_RTCEx_SetTamper(RTC_HandleTypeDef *hrtc, RTC_TamperTypeDef *sTamper)
 332:Drivers/STM32F3xx_HAL_Driver/Src/stm32f3xx_hal_rtc_ex.c **** {
 517              		.loc 1 332 1 is_stmt 1 view -0
 518              		.cfi_startproc
 519              		@ args = 0, pretend = 0, frame = 0
 520              		@ frame_needed = 0, uses_anonymous_args = 0
 521              		@ link register save eliminated.
 333:Drivers/STM32F3xx_HAL_Driver/Src/stm32f3xx_hal_rtc_ex.c ****   uint32_t tmpreg = 0U;
 522              		.loc 1 333 3 view .LVU180
 334:Drivers/STM32F3xx_HAL_Driver/Src/stm32f3xx_hal_rtc_ex.c **** 
 335:Drivers/STM32F3xx_HAL_Driver/Src/stm32f3xx_hal_rtc_ex.c ****   /* Check the parameters */
 336:Drivers/STM32F3xx_HAL_Driver/Src/stm32f3xx_hal_rtc_ex.c ****   assert_param(IS_RTC_TAMPER(sTamper->Tamper));
 523              		.loc 1 336 3 view .LVU181
 337:Drivers/STM32F3xx_HAL_Driver/Src/stm32f3xx_hal_rtc_ex.c ****   assert_param(IS_RTC_TAMPER_TRIGGER(sTamper->Trigger));
 524              		.loc 1 337 3 view .LVU182
 338:Drivers/STM32F3xx_HAL_Driver/Src/stm32f3xx_hal_rtc_ex.c ****   assert_param(IS_RTC_TAMPER_FILTER(sTamper->Filter));
 525              		.loc 1 338 3 view .LVU183
 339:Drivers/STM32F3xx_HAL_Driver/Src/stm32f3xx_hal_rtc_ex.c ****   assert_param(IS_RTC_TAMPER_SAMPLING_FREQ(sTamper->SamplingFrequency));
 526              		.loc 1 339 3 view .LVU184
 340:Drivers/STM32F3xx_HAL_Driver/Src/stm32f3xx_hal_rtc_ex.c ****   assert_param(IS_RTC_TAMPER_PRECHARGE_DURATION(sTamper->PrechargeDuration));
 527              		.loc 1 340 3 view .LVU185
 341:Drivers/STM32F3xx_HAL_Driver/Src/stm32f3xx_hal_rtc_ex.c ****   assert_param(IS_RTC_TAMPER_PULLUP_STATE(sTamper->TamperPullUp));
 528              		.loc 1 341 3 view .LVU186
 342:Drivers/STM32F3xx_HAL_Driver/Src/stm32f3xx_hal_rtc_ex.c ****   assert_param(IS_RTC_TAMPER_TIMESTAMPONTAMPER_DETECTION(sTamper->TimeStampOnTamperDetection));
 529              		.loc 1 342 3 view .LVU187
 343:Drivers/STM32F3xx_HAL_Driver/Src/stm32f3xx_hal_rtc_ex.c **** 
 344:Drivers/STM32F3xx_HAL_Driver/Src/stm32f3xx_hal_rtc_ex.c ****   /* Process Locked */
 345:Drivers/STM32F3xx_HAL_Driver/Src/stm32f3xx_hal_rtc_ex.c ****   __HAL_LOCK(hrtc);
 530              		.loc 1 345 3 view .LVU188
 531              		.loc 1 345 3 view .LVU189
 532 0000 037F     		ldrb	r3, [r0, #28]	@ zero_extendqisi2
 533 0002 012B     		cmp	r3, #1
 534 0004 2DD0     		beq	.L27
 332:Drivers/STM32F3xx_HAL_Driver/Src/stm32f3xx_hal_rtc_ex.c ****   uint32_t tmpreg = 0U;
 535              		.loc 1 332 1 is_stmt 0 discriminator 2 view .LVU190
 536 0006 10B4     		push	{r4}
 537              	.LCFI5:
 538              		.cfi_def_cfa_offset 4
 539              		.cfi_offset 4, -4
 540              		.loc 1 345 3 is_stmt 1 discriminator 2 view .LVU191
 541 0008 0123     		movs	r3, #1
 542 000a 0377     		strb	r3, [r0, #28]
 543              		.loc 1 345 3 discriminator 2 view .LVU192
 346:Drivers/STM32F3xx_HAL_Driver/Src/stm32f3xx_hal_rtc_ex.c **** 
 347:Drivers/STM32F3xx_HAL_Driver/Src/stm32f3xx_hal_rtc_ex.c ****   hrtc->State = HAL_RTC_STATE_BUSY;
 544              		.loc 1 347 3 discriminator 2 view .LVU193
 545              		.loc 1 347 15 is_stmt 0 discriminator 2 view .LVU194
 546 000c 0223     		movs	r3, #2
 547 000e 4377     		strb	r3, [r0, #29]
 348:Drivers/STM32F3xx_HAL_Driver/Src/stm32f3xx_hal_rtc_ex.c **** 
 349:Drivers/STM32F3xx_HAL_Driver/Src/stm32f3xx_hal_rtc_ex.c ****   if (sTamper->Trigger != RTC_TAMPERTRIGGER_RISINGEDGE)
 548              		.loc 1 349 3 is_stmt 1 discriminator 2 view .LVU195
ARM GAS  /var/folders/jw/jcj5j9_530958b2rm5vp9wn00000gn/T//ccckkuva.s 			page 17


 549              		.loc 1 349 14 is_stmt 0 discriminator 2 view .LVU196
 550 0010 4B68     		ldr	r3, [r1, #4]
 551              		.loc 1 349 6 discriminator 2 view .LVU197
 552 0012 13B1     		cbz	r3, .L26
 350:Drivers/STM32F3xx_HAL_Driver/Src/stm32f3xx_hal_rtc_ex.c ****   {
 351:Drivers/STM32F3xx_HAL_Driver/Src/stm32f3xx_hal_rtc_ex.c ****     sTamper->Trigger = (uint32_t)(sTamper->Tamper << 1U);
 553              		.loc 1 351 5 is_stmt 1 view .LVU198
 554              		.loc 1 351 42 is_stmt 0 view .LVU199
 555 0014 0B68     		ldr	r3, [r1]
 556              		.loc 1 351 51 view .LVU200
 557 0016 5B00     		lsls	r3, r3, #1
 558              		.loc 1 351 22 view .LVU201
 559 0018 4B60     		str	r3, [r1, #4]
 560              	.L26:
 352:Drivers/STM32F3xx_HAL_Driver/Src/stm32f3xx_hal_rtc_ex.c ****   }
 353:Drivers/STM32F3xx_HAL_Driver/Src/stm32f3xx_hal_rtc_ex.c **** 
 354:Drivers/STM32F3xx_HAL_Driver/Src/stm32f3xx_hal_rtc_ex.c ****   tmpreg = ((uint32_t)sTamper->Tamper | (uint32_t)sTamper->Trigger | (uint32_t)sTamper->Filter | \
 561              		.loc 1 354 3 is_stmt 1 view .LVU202
 562              		.loc 1 354 30 is_stmt 0 view .LVU203
 563 001a 0A68     		ldr	r2, [r1]
 564              		.loc 1 354 58 view .LVU204
 565 001c 4B68     		ldr	r3, [r1, #4]
 566              		.loc 1 354 39 view .LVU205
 567 001e 1343     		orrs	r3, r3, r2
 568              		.loc 1 354 87 view .LVU206
 569 0020 8C68     		ldr	r4, [r1, #8]
 570              		.loc 1 354 68 view .LVU207
 571 0022 2343     		orrs	r3, r3, r4
 355:Drivers/STM32F3xx_HAL_Driver/Src/stm32f3xx_hal_rtc_ex.c ****             (uint32_t)sTamper->SamplingFrequency | (uint32_t)sTamper->PrechargeDuration | \
 572              		.loc 1 355 30 view .LVU208
 573 0024 CC68     		ldr	r4, [r1, #12]
 354:Drivers/STM32F3xx_HAL_Driver/Src/stm32f3xx_hal_rtc_ex.c ****             (uint32_t)sTamper->SamplingFrequency | (uint32_t)sTamper->PrechargeDuration | \
 574              		.loc 1 354 96 view .LVU209
 575 0026 2343     		orrs	r3, r3, r4
 576              		.loc 1 355 69 view .LVU210
 577 0028 0C69     		ldr	r4, [r1, #16]
 578              		.loc 1 355 50 view .LVU211
 579 002a 2343     		orrs	r3, r3, r4
 356:Drivers/STM32F3xx_HAL_Driver/Src/stm32f3xx_hal_rtc_ex.c ****             (uint32_t)sTamper->TamperPullUp | sTamper->TimeStampOnTamperDetection);
 580              		.loc 1 356 30 view .LVU212
 581 002c 4C69     		ldr	r4, [r1, #20]
 355:Drivers/STM32F3xx_HAL_Driver/Src/stm32f3xx_hal_rtc_ex.c ****             (uint32_t)sTamper->SamplingFrequency | (uint32_t)sTamper->PrechargeDuration | \
 582              		.loc 1 355 89 view .LVU213
 583 002e 2343     		orrs	r3, r3, r4
 584              		.loc 1 356 54 view .LVU214
 585 0030 8969     		ldr	r1, [r1, #24]
 586              	.LVL42:
 354:Drivers/STM32F3xx_HAL_Driver/Src/stm32f3xx_hal_rtc_ex.c ****             (uint32_t)sTamper->SamplingFrequency | (uint32_t)sTamper->PrechargeDuration | \
 587              		.loc 1 354 10 view .LVU215
 588 0032 0B43     		orrs	r3, r3, r1
 589              	.LVL43:
 357:Drivers/STM32F3xx_HAL_Driver/Src/stm32f3xx_hal_rtc_ex.c **** 
 358:Drivers/STM32F3xx_HAL_Driver/Src/stm32f3xx_hal_rtc_ex.c ****   hrtc->Instance->TAFCR &= (uint32_t)~((uint32_t)sTamper->Tamper | (uint32_t)(sTamper->Tamper << 1U
 590              		.loc 1 358 3 is_stmt 1 view .LVU216
 591              		.loc 1 358 7 is_stmt 0 view .LVU217
 592 0034 0468     		ldr	r4, [r0]
 593              		.loc 1 358 25 view .LVU218
ARM GAS  /var/folders/jw/jcj5j9_530958b2rm5vp9wn00000gn/T//ccckkuva.s 			page 18


 594 0036 216C     		ldr	r1, [r4, #64]
 595              		.loc 1 358 66 view .LVU219
 596 0038 42EA4202 		orr	r2, r2, r2, lsl #1
 359:Drivers/STM32F3xx_HAL_Driver/Src/stm32f3xx_hal_rtc_ex.c ****                                        (uint32_t)RTC_TAFCR_TAMPFREQ | (uint32_t)RTC_TAFCR_TAMPFLT |
 360:Drivers/STM32F3xx_HAL_Driver/Src/stm32f3xx_hal_rtc_ex.c ****                                        (uint32_t)RTC_TAFCR_TAMPPUDIS | (uint32_t)RTC_TAFCR_TAMPIE);
 597              		.loc 1 360 70 view .LVU220
 598 003c 42F47F42 		orr	r2, r2, #65280
 599 0040 42F08402 		orr	r2, r2, #132
 358:Drivers/STM32F3xx_HAL_Driver/Src/stm32f3xx_hal_rtc_ex.c ****                                        (uint32_t)RTC_TAFCR_TAMPFREQ | (uint32_t)RTC_TAFCR_TAMPFLT |
 600              		.loc 1 358 25 view .LVU221
 601 0044 21EA0202 		bic	r2, r1, r2
 602 0048 2264     		str	r2, [r4, #64]
 361:Drivers/STM32F3xx_HAL_Driver/Src/stm32f3xx_hal_rtc_ex.c **** 
 362:Drivers/STM32F3xx_HAL_Driver/Src/stm32f3xx_hal_rtc_ex.c ****   hrtc->Instance->TAFCR |= tmpreg;
 603              		.loc 1 362 3 is_stmt 1 view .LVU222
 604              		.loc 1 362 7 is_stmt 0 view .LVU223
 605 004a 0168     		ldr	r1, [r0]
 606              		.loc 1 362 25 view .LVU224
 607 004c 0A6C     		ldr	r2, [r1, #64]
 608 004e 1343     		orrs	r3, r3, r2
 609              	.LVL44:
 610              		.loc 1 362 25 view .LVU225
 611 0050 0B64     		str	r3, [r1, #64]
 363:Drivers/STM32F3xx_HAL_Driver/Src/stm32f3xx_hal_rtc_ex.c **** 
 364:Drivers/STM32F3xx_HAL_Driver/Src/stm32f3xx_hal_rtc_ex.c ****   hrtc->State = HAL_RTC_STATE_READY;
 612              		.loc 1 364 3 is_stmt 1 view .LVU226
 613              		.loc 1 364 15 is_stmt 0 view .LVU227
 614 0052 0123     		movs	r3, #1
 615 0054 4377     		strb	r3, [r0, #29]
 365:Drivers/STM32F3xx_HAL_Driver/Src/stm32f3xx_hal_rtc_ex.c **** 
 366:Drivers/STM32F3xx_HAL_Driver/Src/stm32f3xx_hal_rtc_ex.c ****   /* Process Unlocked */
 367:Drivers/STM32F3xx_HAL_Driver/Src/stm32f3xx_hal_rtc_ex.c ****   __HAL_UNLOCK(hrtc);
 616              		.loc 1 367 3 is_stmt 1 view .LVU228
 617              		.loc 1 367 3 view .LVU229
 618 0056 0023     		movs	r3, #0
 619 0058 0377     		strb	r3, [r0, #28]
 620              		.loc 1 367 3 view .LVU230
 368:Drivers/STM32F3xx_HAL_Driver/Src/stm32f3xx_hal_rtc_ex.c **** 
 369:Drivers/STM32F3xx_HAL_Driver/Src/stm32f3xx_hal_rtc_ex.c ****   return HAL_OK;
 621              		.loc 1 369 3 view .LVU231
 622              		.loc 1 369 10 is_stmt 0 view .LVU232
 623 005a 1846     		mov	r0, r3
 624              	.LVL45:
 370:Drivers/STM32F3xx_HAL_Driver/Src/stm32f3xx_hal_rtc_ex.c **** }
 625              		.loc 1 370 1 view .LVU233
 626 005c 5DF8044B 		ldr	r4, [sp], #4
 627              	.LCFI6:
 628              		.cfi_restore 4
 629              		.cfi_def_cfa_offset 0
 630 0060 7047     		bx	lr
 631              	.LVL46:
 632              	.L27:
 345:Drivers/STM32F3xx_HAL_Driver/Src/stm32f3xx_hal_rtc_ex.c **** 
 633              		.loc 1 345 3 view .LVU234
 634 0062 0220     		movs	r0, #2
 635              	.LVL47:
 636              		.loc 1 370 1 view .LVU235
ARM GAS  /var/folders/jw/jcj5j9_530958b2rm5vp9wn00000gn/T//ccckkuva.s 			page 19


 637 0064 7047     		bx	lr
 638              		.cfi_endproc
 639              	.LFE134:
 641              		.section	.text.HAL_RTCEx_SetTamper_IT,"ax",%progbits
 642              		.align	1
 643              		.global	HAL_RTCEx_SetTamper_IT
 644              		.syntax unified
 645              		.thumb
 646              		.thumb_func
 647              		.fpu fpv4-sp-d16
 649              	HAL_RTCEx_SetTamper_IT:
 650              	.LVL48:
 651              	.LFB135:
 371:Drivers/STM32F3xx_HAL_Driver/Src/stm32f3xx_hal_rtc_ex.c **** 
 372:Drivers/STM32F3xx_HAL_Driver/Src/stm32f3xx_hal_rtc_ex.c **** /**
 373:Drivers/STM32F3xx_HAL_Driver/Src/stm32f3xx_hal_rtc_ex.c ****   * @brief  Set Tamper with interrupt.
 374:Drivers/STM32F3xx_HAL_Driver/Src/stm32f3xx_hal_rtc_ex.c ****   * @note   By calling this API we force the tamper interrupt for all tampers.
 375:Drivers/STM32F3xx_HAL_Driver/Src/stm32f3xx_hal_rtc_ex.c ****   * @param  hrtc RTC handle
 376:Drivers/STM32F3xx_HAL_Driver/Src/stm32f3xx_hal_rtc_ex.c ****   * @param  sTamper Pointer to RTC Tamper.
 377:Drivers/STM32F3xx_HAL_Driver/Src/stm32f3xx_hal_rtc_ex.c ****   * @retval HAL status
 378:Drivers/STM32F3xx_HAL_Driver/Src/stm32f3xx_hal_rtc_ex.c ****   */
 379:Drivers/STM32F3xx_HAL_Driver/Src/stm32f3xx_hal_rtc_ex.c **** HAL_StatusTypeDef HAL_RTCEx_SetTamper_IT(RTC_HandleTypeDef *hrtc, RTC_TamperTypeDef *sTamper)
 380:Drivers/STM32F3xx_HAL_Driver/Src/stm32f3xx_hal_rtc_ex.c **** {
 652              		.loc 1 380 1 is_stmt 1 view -0
 653              		.cfi_startproc
 654              		@ args = 0, pretend = 0, frame = 0
 655              		@ frame_needed = 0, uses_anonymous_args = 0
 656              		@ link register save eliminated.
 381:Drivers/STM32F3xx_HAL_Driver/Src/stm32f3xx_hal_rtc_ex.c ****   uint32_t tmpreg = 0U;
 657              		.loc 1 381 3 view .LVU237
 382:Drivers/STM32F3xx_HAL_Driver/Src/stm32f3xx_hal_rtc_ex.c **** 
 383:Drivers/STM32F3xx_HAL_Driver/Src/stm32f3xx_hal_rtc_ex.c ****   /* Check the parameters */
 384:Drivers/STM32F3xx_HAL_Driver/Src/stm32f3xx_hal_rtc_ex.c ****   assert_param(IS_RTC_TAMPER(sTamper->Tamper));
 658              		.loc 1 384 3 view .LVU238
 385:Drivers/STM32F3xx_HAL_Driver/Src/stm32f3xx_hal_rtc_ex.c ****   assert_param(IS_RTC_TAMPER_TRIGGER(sTamper->Trigger));
 659              		.loc 1 385 3 view .LVU239
 386:Drivers/STM32F3xx_HAL_Driver/Src/stm32f3xx_hal_rtc_ex.c ****   assert_param(IS_RTC_TAMPER_FILTER(sTamper->Filter));
 660              		.loc 1 386 3 view .LVU240
 387:Drivers/STM32F3xx_HAL_Driver/Src/stm32f3xx_hal_rtc_ex.c ****   assert_param(IS_RTC_TAMPER_SAMPLING_FREQ(sTamper->SamplingFrequency));
 661              		.loc 1 387 3 view .LVU241
 388:Drivers/STM32F3xx_HAL_Driver/Src/stm32f3xx_hal_rtc_ex.c ****   assert_param(IS_RTC_TAMPER_PRECHARGE_DURATION(sTamper->PrechargeDuration));
 662              		.loc 1 388 3 view .LVU242
 389:Drivers/STM32F3xx_HAL_Driver/Src/stm32f3xx_hal_rtc_ex.c ****   assert_param(IS_RTC_TAMPER_PULLUP_STATE(sTamper->TamperPullUp));
 663              		.loc 1 389 3 view .LVU243
 390:Drivers/STM32F3xx_HAL_Driver/Src/stm32f3xx_hal_rtc_ex.c ****   assert_param(IS_RTC_TAMPER_TIMESTAMPONTAMPER_DETECTION(sTamper->TimeStampOnTamperDetection));
 664              		.loc 1 390 3 view .LVU244
 391:Drivers/STM32F3xx_HAL_Driver/Src/stm32f3xx_hal_rtc_ex.c **** 
 392:Drivers/STM32F3xx_HAL_Driver/Src/stm32f3xx_hal_rtc_ex.c ****   /* Process Locked */
 393:Drivers/STM32F3xx_HAL_Driver/Src/stm32f3xx_hal_rtc_ex.c ****   __HAL_LOCK(hrtc);
 665              		.loc 1 393 3 view .LVU245
 666              		.loc 1 393 3 view .LVU246
 667 0000 037F     		ldrb	r3, [r0, #28]	@ zero_extendqisi2
 668 0002 012B     		cmp	r3, #1
 669 0004 3BD0     		beq	.L35
 380:Drivers/STM32F3xx_HAL_Driver/Src/stm32f3xx_hal_rtc_ex.c ****   uint32_t tmpreg = 0U;
 670              		.loc 1 380 1 is_stmt 0 discriminator 2 view .LVU247
 671 0006 10B4     		push	{r4}
ARM GAS  /var/folders/jw/jcj5j9_530958b2rm5vp9wn00000gn/T//ccckkuva.s 			page 20


 672              	.LCFI7:
 673              		.cfi_def_cfa_offset 4
 674              		.cfi_offset 4, -4
 675              		.loc 1 393 3 is_stmt 1 discriminator 2 view .LVU248
 676 0008 0123     		movs	r3, #1
 677 000a 0377     		strb	r3, [r0, #28]
 678              		.loc 1 393 3 discriminator 2 view .LVU249
 394:Drivers/STM32F3xx_HAL_Driver/Src/stm32f3xx_hal_rtc_ex.c **** 
 395:Drivers/STM32F3xx_HAL_Driver/Src/stm32f3xx_hal_rtc_ex.c ****   hrtc->State = HAL_RTC_STATE_BUSY;
 679              		.loc 1 395 3 discriminator 2 view .LVU250
 680              		.loc 1 395 15 is_stmt 0 discriminator 2 view .LVU251
 681 000c 0223     		movs	r3, #2
 682 000e 4377     		strb	r3, [r0, #29]
 396:Drivers/STM32F3xx_HAL_Driver/Src/stm32f3xx_hal_rtc_ex.c **** 
 397:Drivers/STM32F3xx_HAL_Driver/Src/stm32f3xx_hal_rtc_ex.c ****   /* Configure the tamper trigger */
 398:Drivers/STM32F3xx_HAL_Driver/Src/stm32f3xx_hal_rtc_ex.c ****   if (sTamper->Trigger != RTC_TAMPERTRIGGER_RISINGEDGE)
 683              		.loc 1 398 3 is_stmt 1 discriminator 2 view .LVU252
 684              		.loc 1 398 14 is_stmt 0 discriminator 2 view .LVU253
 685 0010 4B68     		ldr	r3, [r1, #4]
 686              		.loc 1 398 6 discriminator 2 view .LVU254
 687 0012 13B1     		cbz	r3, .L34
 399:Drivers/STM32F3xx_HAL_Driver/Src/stm32f3xx_hal_rtc_ex.c ****   {
 400:Drivers/STM32F3xx_HAL_Driver/Src/stm32f3xx_hal_rtc_ex.c ****     sTamper->Trigger = (uint32_t)(sTamper->Tamper << 1U);
 688              		.loc 1 400 5 is_stmt 1 view .LVU255
 689              		.loc 1 400 42 is_stmt 0 view .LVU256
 690 0014 0B68     		ldr	r3, [r1]
 691              		.loc 1 400 51 view .LVU257
 692 0016 5B00     		lsls	r3, r3, #1
 693              		.loc 1 400 22 view .LVU258
 694 0018 4B60     		str	r3, [r1, #4]
 695              	.L34:
 401:Drivers/STM32F3xx_HAL_Driver/Src/stm32f3xx_hal_rtc_ex.c ****   }
 402:Drivers/STM32F3xx_HAL_Driver/Src/stm32f3xx_hal_rtc_ex.c **** 
 403:Drivers/STM32F3xx_HAL_Driver/Src/stm32f3xx_hal_rtc_ex.c ****   tmpreg = ((uint32_t)sTamper->Tamper | (uint32_t)sTamper->Trigger | (uint32_t)sTamper->Filter | \
 696              		.loc 1 403 3 is_stmt 1 view .LVU259
 697              		.loc 1 403 30 is_stmt 0 view .LVU260
 698 001a 0A68     		ldr	r2, [r1]
 699              		.loc 1 403 58 view .LVU261
 700 001c 4B68     		ldr	r3, [r1, #4]
 701              		.loc 1 403 39 view .LVU262
 702 001e 1343     		orrs	r3, r3, r2
 703              		.loc 1 403 87 view .LVU263
 704 0020 8C68     		ldr	r4, [r1, #8]
 705              		.loc 1 403 68 view .LVU264
 706 0022 2343     		orrs	r3, r3, r4
 404:Drivers/STM32F3xx_HAL_Driver/Src/stm32f3xx_hal_rtc_ex.c ****             (uint32_t)sTamper->SamplingFrequency | (uint32_t)sTamper->PrechargeDuration | \
 707              		.loc 1 404 30 view .LVU265
 708 0024 CC68     		ldr	r4, [r1, #12]
 403:Drivers/STM32F3xx_HAL_Driver/Src/stm32f3xx_hal_rtc_ex.c ****             (uint32_t)sTamper->SamplingFrequency | (uint32_t)sTamper->PrechargeDuration | \
 709              		.loc 1 403 96 view .LVU266
 710 0026 2343     		orrs	r3, r3, r4
 711              		.loc 1 404 69 view .LVU267
 712 0028 0C69     		ldr	r4, [r1, #16]
 713              		.loc 1 404 50 view .LVU268
 714 002a 2343     		orrs	r3, r3, r4
 405:Drivers/STM32F3xx_HAL_Driver/Src/stm32f3xx_hal_rtc_ex.c ****             (uint32_t)sTamper->TamperPullUp | sTamper->TimeStampOnTamperDetection);
 715              		.loc 1 405 30 view .LVU269
ARM GAS  /var/folders/jw/jcj5j9_530958b2rm5vp9wn00000gn/T//ccckkuva.s 			page 21


 716 002c 4C69     		ldr	r4, [r1, #20]
 404:Drivers/STM32F3xx_HAL_Driver/Src/stm32f3xx_hal_rtc_ex.c ****             (uint32_t)sTamper->SamplingFrequency | (uint32_t)sTamper->PrechargeDuration | \
 717              		.loc 1 404 89 view .LVU270
 718 002e 2343     		orrs	r3, r3, r4
 719              		.loc 1 405 54 view .LVU271
 720 0030 8969     		ldr	r1, [r1, #24]
 721              	.LVL49:
 403:Drivers/STM32F3xx_HAL_Driver/Src/stm32f3xx_hal_rtc_ex.c ****             (uint32_t)sTamper->SamplingFrequency | (uint32_t)sTamper->PrechargeDuration | \
 722              		.loc 1 403 10 view .LVU272
 723 0032 0B43     		orrs	r3, r3, r1
 724              	.LVL50:
 406:Drivers/STM32F3xx_HAL_Driver/Src/stm32f3xx_hal_rtc_ex.c **** 
 407:Drivers/STM32F3xx_HAL_Driver/Src/stm32f3xx_hal_rtc_ex.c ****   hrtc->Instance->TAFCR &= (uint32_t)~((uint32_t)sTamper->Tamper | (uint32_t)(sTamper->Tamper << 1U
 725              		.loc 1 407 3 is_stmt 1 view .LVU273
 726              		.loc 1 407 7 is_stmt 0 view .LVU274
 727 0034 0468     		ldr	r4, [r0]
 728              		.loc 1 407 25 view .LVU275
 729 0036 216C     		ldr	r1, [r4, #64]
 730              		.loc 1 407 66 view .LVU276
 731 0038 42EA4202 		orr	r2, r2, r2, lsl #1
 408:Drivers/STM32F3xx_HAL_Driver/Src/stm32f3xx_hal_rtc_ex.c ****                                        (uint32_t)RTC_TAFCR_TAMPFREQ | (uint32_t)RTC_TAFCR_TAMPFLT |
 732              		.loc 1 408 130 view .LVU277
 733 003c 42F47F42 		orr	r2, r2, #65280
 734 0040 42F08002 		orr	r2, r2, #128
 407:Drivers/STM32F3xx_HAL_Driver/Src/stm32f3xx_hal_rtc_ex.c ****                                        (uint32_t)RTC_TAFCR_TAMPFREQ | (uint32_t)RTC_TAFCR_TAMPFLT |
 735              		.loc 1 407 25 view .LVU278
 736 0044 21EA0202 		bic	r2, r1, r2
 737 0048 2264     		str	r2, [r4, #64]
 409:Drivers/STM32F3xx_HAL_Driver/Src/stm32f3xx_hal_rtc_ex.c ****                                        (uint32_t)RTC_TAFCR_TAMPPUDIS);
 410:Drivers/STM32F3xx_HAL_Driver/Src/stm32f3xx_hal_rtc_ex.c **** 
 411:Drivers/STM32F3xx_HAL_Driver/Src/stm32f3xx_hal_rtc_ex.c ****   hrtc->Instance->TAFCR |= tmpreg;
 738              		.loc 1 411 3 is_stmt 1 view .LVU279
 739              		.loc 1 411 7 is_stmt 0 view .LVU280
 740 004a 0168     		ldr	r1, [r0]
 741              		.loc 1 411 25 view .LVU281
 742 004c 0A6C     		ldr	r2, [r1, #64]
 743 004e 1343     		orrs	r3, r3, r2
 744              	.LVL51:
 745              		.loc 1 411 25 view .LVU282
 746 0050 0B64     		str	r3, [r1, #64]
 412:Drivers/STM32F3xx_HAL_Driver/Src/stm32f3xx_hal_rtc_ex.c **** 
 413:Drivers/STM32F3xx_HAL_Driver/Src/stm32f3xx_hal_rtc_ex.c ****   /* Configure the Tamper Interrupt in the RTC_TAFCR */
 414:Drivers/STM32F3xx_HAL_Driver/Src/stm32f3xx_hal_rtc_ex.c ****   hrtc->Instance->TAFCR |= (uint32_t)RTC_TAFCR_TAMPIE;
 747              		.loc 1 414 3 is_stmt 1 view .LVU283
 748              		.loc 1 414 7 is_stmt 0 view .LVU284
 749 0052 0268     		ldr	r2, [r0]
 750              		.loc 1 414 25 view .LVU285
 751 0054 136C     		ldr	r3, [r2, #64]
 752 0056 43F00403 		orr	r3, r3, #4
 753 005a 1364     		str	r3, [r2, #64]
 415:Drivers/STM32F3xx_HAL_Driver/Src/stm32f3xx_hal_rtc_ex.c **** 
 416:Drivers/STM32F3xx_HAL_Driver/Src/stm32f3xx_hal_rtc_ex.c ****   /* RTC Tamper Interrupt Configuration: EXTI configuration */
 417:Drivers/STM32F3xx_HAL_Driver/Src/stm32f3xx_hal_rtc_ex.c ****   __HAL_RTC_TAMPER_TIMESTAMP_EXTI_ENABLE_IT();
 754              		.loc 1 417 3 is_stmt 1 view .LVU286
 755 005c 094B     		ldr	r3, .L40
 756 005e 1A68     		ldr	r2, [r3]
 757 0060 42F40022 		orr	r2, r2, #524288
ARM GAS  /var/folders/jw/jcj5j9_530958b2rm5vp9wn00000gn/T//ccckkuva.s 			page 22


 758 0064 1A60     		str	r2, [r3]
 418:Drivers/STM32F3xx_HAL_Driver/Src/stm32f3xx_hal_rtc_ex.c **** 
 419:Drivers/STM32F3xx_HAL_Driver/Src/stm32f3xx_hal_rtc_ex.c ****   __HAL_RTC_TAMPER_TIMESTAMP_EXTI_ENABLE_RISING_EDGE();
 759              		.loc 1 419 3 view .LVU287
 760 0066 9A68     		ldr	r2, [r3, #8]
 761 0068 42F40022 		orr	r2, r2, #524288
 762 006c 9A60     		str	r2, [r3, #8]
 420:Drivers/STM32F3xx_HAL_Driver/Src/stm32f3xx_hal_rtc_ex.c **** 
 421:Drivers/STM32F3xx_HAL_Driver/Src/stm32f3xx_hal_rtc_ex.c ****   hrtc->State = HAL_RTC_STATE_READY;
 763              		.loc 1 421 3 view .LVU288
 764              		.loc 1 421 15 is_stmt 0 view .LVU289
 765 006e 0123     		movs	r3, #1
 766 0070 4377     		strb	r3, [r0, #29]
 422:Drivers/STM32F3xx_HAL_Driver/Src/stm32f3xx_hal_rtc_ex.c **** 
 423:Drivers/STM32F3xx_HAL_Driver/Src/stm32f3xx_hal_rtc_ex.c ****   /* Process Unlocked */
 424:Drivers/STM32F3xx_HAL_Driver/Src/stm32f3xx_hal_rtc_ex.c ****   __HAL_UNLOCK(hrtc);
 767              		.loc 1 424 3 is_stmt 1 view .LVU290
 768              		.loc 1 424 3 view .LVU291
 769 0072 0023     		movs	r3, #0
 770 0074 0377     		strb	r3, [r0, #28]
 771              		.loc 1 424 3 view .LVU292
 425:Drivers/STM32F3xx_HAL_Driver/Src/stm32f3xx_hal_rtc_ex.c **** 
 426:Drivers/STM32F3xx_HAL_Driver/Src/stm32f3xx_hal_rtc_ex.c ****   return HAL_OK;
 772              		.loc 1 426 3 view .LVU293
 773              		.loc 1 426 10 is_stmt 0 view .LVU294
 774 0076 1846     		mov	r0, r3
 775              	.LVL52:
 427:Drivers/STM32F3xx_HAL_Driver/Src/stm32f3xx_hal_rtc_ex.c **** }
 776              		.loc 1 427 1 view .LVU295
 777 0078 5DF8044B 		ldr	r4, [sp], #4
 778              	.LCFI8:
 779              		.cfi_restore 4
 780              		.cfi_def_cfa_offset 0
 781 007c 7047     		bx	lr
 782              	.LVL53:
 783              	.L35:
 393:Drivers/STM32F3xx_HAL_Driver/Src/stm32f3xx_hal_rtc_ex.c **** 
 784              		.loc 1 393 3 view .LVU296
 785 007e 0220     		movs	r0, #2
 786              	.LVL54:
 787              		.loc 1 427 1 view .LVU297
 788 0080 7047     		bx	lr
 789              	.L41:
 790 0082 00BF     		.align	2
 791              	.L40:
 792 0084 00040140 		.word	1073808384
 793              		.cfi_endproc
 794              	.LFE135:
 796              		.section	.text.HAL_RTCEx_DeactivateTamper,"ax",%progbits
 797              		.align	1
 798              		.global	HAL_RTCEx_DeactivateTamper
 799              		.syntax unified
 800              		.thumb
 801              		.thumb_func
 802              		.fpu fpv4-sp-d16
 804              	HAL_RTCEx_DeactivateTamper:
 805              	.LVL55:
ARM GAS  /var/folders/jw/jcj5j9_530958b2rm5vp9wn00000gn/T//ccckkuva.s 			page 23


 806              	.LFB136:
 428:Drivers/STM32F3xx_HAL_Driver/Src/stm32f3xx_hal_rtc_ex.c **** 
 429:Drivers/STM32F3xx_HAL_Driver/Src/stm32f3xx_hal_rtc_ex.c **** /**
 430:Drivers/STM32F3xx_HAL_Driver/Src/stm32f3xx_hal_rtc_ex.c ****   * @brief  Deactivate Tamper.
 431:Drivers/STM32F3xx_HAL_Driver/Src/stm32f3xx_hal_rtc_ex.c ****   * @param  hrtc RTC handle
 432:Drivers/STM32F3xx_HAL_Driver/Src/stm32f3xx_hal_rtc_ex.c ****   * @param  Tamper Selected tamper pin.
 433:Drivers/STM32F3xx_HAL_Driver/Src/stm32f3xx_hal_rtc_ex.c ****   *          This parameter can be any combination of RTC_TAMPER_1, RTC_TAMPER_2 and RTC_TAMPER_3 (
 434:Drivers/STM32F3xx_HAL_Driver/Src/stm32f3xx_hal_rtc_ex.c ****   * @note   (*) RTC_TAMPER_3 not present on all the devices
 435:Drivers/STM32F3xx_HAL_Driver/Src/stm32f3xx_hal_rtc_ex.c ****   * @retval HAL status
 436:Drivers/STM32F3xx_HAL_Driver/Src/stm32f3xx_hal_rtc_ex.c ****   */
 437:Drivers/STM32F3xx_HAL_Driver/Src/stm32f3xx_hal_rtc_ex.c **** HAL_StatusTypeDef HAL_RTCEx_DeactivateTamper(RTC_HandleTypeDef *hrtc, uint32_t Tamper)
 438:Drivers/STM32F3xx_HAL_Driver/Src/stm32f3xx_hal_rtc_ex.c **** {
 807              		.loc 1 438 1 is_stmt 1 view -0
 808              		.cfi_startproc
 809              		@ args = 0, pretend = 0, frame = 0
 810              		@ frame_needed = 0, uses_anonymous_args = 0
 811              		@ link register save eliminated.
 439:Drivers/STM32F3xx_HAL_Driver/Src/stm32f3xx_hal_rtc_ex.c ****   assert_param(IS_RTC_TAMPER(Tamper));
 812              		.loc 1 439 3 view .LVU299
 440:Drivers/STM32F3xx_HAL_Driver/Src/stm32f3xx_hal_rtc_ex.c **** 
 441:Drivers/STM32F3xx_HAL_Driver/Src/stm32f3xx_hal_rtc_ex.c ****   /* Process Locked */
 442:Drivers/STM32F3xx_HAL_Driver/Src/stm32f3xx_hal_rtc_ex.c ****   __HAL_LOCK(hrtc);
 813              		.loc 1 442 3 view .LVU300
 814              		.loc 1 442 3 view .LVU301
 815 0000 037F     		ldrb	r3, [r0, #28]	@ zero_extendqisi2
 816 0002 012B     		cmp	r3, #1
 817 0004 10D0     		beq	.L44
 438:Drivers/STM32F3xx_HAL_Driver/Src/stm32f3xx_hal_rtc_ex.c ****   assert_param(IS_RTC_TAMPER(Tamper));
 818              		.loc 1 438 1 is_stmt 0 discriminator 2 view .LVU302
 819 0006 10B4     		push	{r4}
 820              	.LCFI9:
 821              		.cfi_def_cfa_offset 4
 822              		.cfi_offset 4, -4
 823              		.loc 1 442 3 is_stmt 1 discriminator 2 view .LVU303
 824 0008 0122     		movs	r2, #1
 825 000a 0277     		strb	r2, [r0, #28]
 826              		.loc 1 442 3 discriminator 2 view .LVU304
 443:Drivers/STM32F3xx_HAL_Driver/Src/stm32f3xx_hal_rtc_ex.c **** 
 444:Drivers/STM32F3xx_HAL_Driver/Src/stm32f3xx_hal_rtc_ex.c ****   hrtc->State = HAL_RTC_STATE_BUSY;
 827              		.loc 1 444 3 discriminator 2 view .LVU305
 828              		.loc 1 444 15 is_stmt 0 discriminator 2 view .LVU306
 829 000c 0223     		movs	r3, #2
 830 000e 4377     		strb	r3, [r0, #29]
 445:Drivers/STM32F3xx_HAL_Driver/Src/stm32f3xx_hal_rtc_ex.c **** 
 446:Drivers/STM32F3xx_HAL_Driver/Src/stm32f3xx_hal_rtc_ex.c ****   /* Disable the selected Tamper pin */
 447:Drivers/STM32F3xx_HAL_Driver/Src/stm32f3xx_hal_rtc_ex.c ****   hrtc->Instance->TAFCR &= (uint32_t)~Tamper;
 831              		.loc 1 447 3 is_stmt 1 discriminator 2 view .LVU307
 832              		.loc 1 447 7 is_stmt 0 discriminator 2 view .LVU308
 833 0010 0468     		ldr	r4, [r0]
 834              		.loc 1 447 25 discriminator 2 view .LVU309
 835 0012 236C     		ldr	r3, [r4, #64]
 836 0014 23EA0101 		bic	r1, r3, r1
 837              	.LVL56:
 838              		.loc 1 447 25 discriminator 2 view .LVU310
 839 0018 2164     		str	r1, [r4, #64]
 448:Drivers/STM32F3xx_HAL_Driver/Src/stm32f3xx_hal_rtc_ex.c **** 
 449:Drivers/STM32F3xx_HAL_Driver/Src/stm32f3xx_hal_rtc_ex.c ****   hrtc->State = HAL_RTC_STATE_READY;
ARM GAS  /var/folders/jw/jcj5j9_530958b2rm5vp9wn00000gn/T//ccckkuva.s 			page 24


 840              		.loc 1 449 3 is_stmt 1 discriminator 2 view .LVU311
 841              		.loc 1 449 15 is_stmt 0 discriminator 2 view .LVU312
 842 001a 4277     		strb	r2, [r0, #29]
 450:Drivers/STM32F3xx_HAL_Driver/Src/stm32f3xx_hal_rtc_ex.c **** 
 451:Drivers/STM32F3xx_HAL_Driver/Src/stm32f3xx_hal_rtc_ex.c ****   /* Process Unlocked */
 452:Drivers/STM32F3xx_HAL_Driver/Src/stm32f3xx_hal_rtc_ex.c ****   __HAL_UNLOCK(hrtc);
 843              		.loc 1 452 3 is_stmt 1 discriminator 2 view .LVU313
 844              		.loc 1 452 3 discriminator 2 view .LVU314
 845 001c 0023     		movs	r3, #0
 846 001e 0377     		strb	r3, [r0, #28]
 847              		.loc 1 452 3 discriminator 2 view .LVU315
 453:Drivers/STM32F3xx_HAL_Driver/Src/stm32f3xx_hal_rtc_ex.c **** 
 454:Drivers/STM32F3xx_HAL_Driver/Src/stm32f3xx_hal_rtc_ex.c ****   return HAL_OK;
 848              		.loc 1 454 3 discriminator 2 view .LVU316
 849              		.loc 1 454 10 is_stmt 0 discriminator 2 view .LVU317
 850 0020 1846     		mov	r0, r3
 851              	.LVL57:
 455:Drivers/STM32F3xx_HAL_Driver/Src/stm32f3xx_hal_rtc_ex.c **** }
 852              		.loc 1 455 1 discriminator 2 view .LVU318
 853 0022 5DF8044B 		ldr	r4, [sp], #4
 854              	.LCFI10:
 855              		.cfi_restore 4
 856              		.cfi_def_cfa_offset 0
 857 0026 7047     		bx	lr
 858              	.LVL58:
 859              	.L44:
 442:Drivers/STM32F3xx_HAL_Driver/Src/stm32f3xx_hal_rtc_ex.c **** 
 860              		.loc 1 442 3 view .LVU319
 861 0028 0220     		movs	r0, #2
 862              	.LVL59:
 863              		.loc 1 455 1 view .LVU320
 864 002a 7047     		bx	lr
 865              		.cfi_endproc
 866              	.LFE136:
 868              		.section	.text.HAL_RTCEx_TimeStampEventCallback,"ax",%progbits
 869              		.align	1
 870              		.weak	HAL_RTCEx_TimeStampEventCallback
 871              		.syntax unified
 872              		.thumb
 873              		.thumb_func
 874              		.fpu fpv4-sp-d16
 876              	HAL_RTCEx_TimeStampEventCallback:
 877              	.LVL60:
 878              	.LFB138:
 456:Drivers/STM32F3xx_HAL_Driver/Src/stm32f3xx_hal_rtc_ex.c **** 
 457:Drivers/STM32F3xx_HAL_Driver/Src/stm32f3xx_hal_rtc_ex.c **** /**
 458:Drivers/STM32F3xx_HAL_Driver/Src/stm32f3xx_hal_rtc_ex.c ****   * @brief  Handle TimeStamp interrupt request.
 459:Drivers/STM32F3xx_HAL_Driver/Src/stm32f3xx_hal_rtc_ex.c ****   * @param  hrtc RTC handle
 460:Drivers/STM32F3xx_HAL_Driver/Src/stm32f3xx_hal_rtc_ex.c ****   * @retval None
 461:Drivers/STM32F3xx_HAL_Driver/Src/stm32f3xx_hal_rtc_ex.c ****   */
 462:Drivers/STM32F3xx_HAL_Driver/Src/stm32f3xx_hal_rtc_ex.c **** void HAL_RTCEx_TamperTimeStampIRQHandler(RTC_HandleTypeDef *hrtc)
 463:Drivers/STM32F3xx_HAL_Driver/Src/stm32f3xx_hal_rtc_ex.c **** {
 464:Drivers/STM32F3xx_HAL_Driver/Src/stm32f3xx_hal_rtc_ex.c ****   /* Get the TimeStamp interrupt source enable status */
 465:Drivers/STM32F3xx_HAL_Driver/Src/stm32f3xx_hal_rtc_ex.c ****   if (__HAL_RTC_TIMESTAMP_GET_IT_SOURCE(hrtc, RTC_IT_TS) != RESET)
 466:Drivers/STM32F3xx_HAL_Driver/Src/stm32f3xx_hal_rtc_ex.c ****   {
 467:Drivers/STM32F3xx_HAL_Driver/Src/stm32f3xx_hal_rtc_ex.c ****     /* Get the pending status of the TIMESTAMP Interrupt */
 468:Drivers/STM32F3xx_HAL_Driver/Src/stm32f3xx_hal_rtc_ex.c ****     if (__HAL_RTC_TIMESTAMP_GET_FLAG(hrtc, RTC_FLAG_TSF) != RESET)
ARM GAS  /var/folders/jw/jcj5j9_530958b2rm5vp9wn00000gn/T//ccckkuva.s 			page 25


 469:Drivers/STM32F3xx_HAL_Driver/Src/stm32f3xx_hal_rtc_ex.c ****     {
 470:Drivers/STM32F3xx_HAL_Driver/Src/stm32f3xx_hal_rtc_ex.c ****       /* TIMESTAMP callback */
 471:Drivers/STM32F3xx_HAL_Driver/Src/stm32f3xx_hal_rtc_ex.c **** #if (USE_HAL_RTC_REGISTER_CALLBACKS == 1)
 472:Drivers/STM32F3xx_HAL_Driver/Src/stm32f3xx_hal_rtc_ex.c ****       hrtc->TimeStampEventCallback(hrtc);
 473:Drivers/STM32F3xx_HAL_Driver/Src/stm32f3xx_hal_rtc_ex.c **** #else
 474:Drivers/STM32F3xx_HAL_Driver/Src/stm32f3xx_hal_rtc_ex.c ****       HAL_RTCEx_TimeStampEventCallback(hrtc);
 475:Drivers/STM32F3xx_HAL_Driver/Src/stm32f3xx_hal_rtc_ex.c **** #endif /* USE_HAL_RTC_REGISTER_CALLBACKS */
 476:Drivers/STM32F3xx_HAL_Driver/Src/stm32f3xx_hal_rtc_ex.c **** 
 477:Drivers/STM32F3xx_HAL_Driver/Src/stm32f3xx_hal_rtc_ex.c ****       /* Clear the TIMESTAMP interrupt pending bit */
 478:Drivers/STM32F3xx_HAL_Driver/Src/stm32f3xx_hal_rtc_ex.c ****       __HAL_RTC_TIMESTAMP_CLEAR_FLAG(hrtc, RTC_FLAG_TSF);
 479:Drivers/STM32F3xx_HAL_Driver/Src/stm32f3xx_hal_rtc_ex.c ****     }
 480:Drivers/STM32F3xx_HAL_Driver/Src/stm32f3xx_hal_rtc_ex.c ****   }
 481:Drivers/STM32F3xx_HAL_Driver/Src/stm32f3xx_hal_rtc_ex.c **** 
 482:Drivers/STM32F3xx_HAL_Driver/Src/stm32f3xx_hal_rtc_ex.c ****   /* Get the Tamper interrupts source enable status */
 483:Drivers/STM32F3xx_HAL_Driver/Src/stm32f3xx_hal_rtc_ex.c ****   if (__HAL_RTC_TAMPER_GET_IT_SOURCE(hrtc, RTC_IT_TAMP))
 484:Drivers/STM32F3xx_HAL_Driver/Src/stm32f3xx_hal_rtc_ex.c ****   {
 485:Drivers/STM32F3xx_HAL_Driver/Src/stm32f3xx_hal_rtc_ex.c ****     /* Get the pending status of the Tamper1 Interrupt */
 486:Drivers/STM32F3xx_HAL_Driver/Src/stm32f3xx_hal_rtc_ex.c ****     if (__HAL_RTC_TAMPER_GET_FLAG(hrtc, RTC_FLAG_TAMP1F) != RESET)
 487:Drivers/STM32F3xx_HAL_Driver/Src/stm32f3xx_hal_rtc_ex.c ****     {
 488:Drivers/STM32F3xx_HAL_Driver/Src/stm32f3xx_hal_rtc_ex.c ****       /* Tamper1 callback */
 489:Drivers/STM32F3xx_HAL_Driver/Src/stm32f3xx_hal_rtc_ex.c **** #if (USE_HAL_RTC_REGISTER_CALLBACKS == 1)
 490:Drivers/STM32F3xx_HAL_Driver/Src/stm32f3xx_hal_rtc_ex.c ****       hrtc->Tamper1EventCallback(hrtc);
 491:Drivers/STM32F3xx_HAL_Driver/Src/stm32f3xx_hal_rtc_ex.c **** #else
 492:Drivers/STM32F3xx_HAL_Driver/Src/stm32f3xx_hal_rtc_ex.c ****       HAL_RTCEx_Tamper1EventCallback(hrtc);
 493:Drivers/STM32F3xx_HAL_Driver/Src/stm32f3xx_hal_rtc_ex.c **** #endif /* USE_HAL_RTC_REGISTER_CALLBACKS */
 494:Drivers/STM32F3xx_HAL_Driver/Src/stm32f3xx_hal_rtc_ex.c **** 
 495:Drivers/STM32F3xx_HAL_Driver/Src/stm32f3xx_hal_rtc_ex.c ****       /* Clear the Tamper1 interrupt pending bit */
 496:Drivers/STM32F3xx_HAL_Driver/Src/stm32f3xx_hal_rtc_ex.c ****       __HAL_RTC_TAMPER_CLEAR_FLAG(hrtc, RTC_FLAG_TAMP1F);
 497:Drivers/STM32F3xx_HAL_Driver/Src/stm32f3xx_hal_rtc_ex.c ****     }
 498:Drivers/STM32F3xx_HAL_Driver/Src/stm32f3xx_hal_rtc_ex.c ****   }
 499:Drivers/STM32F3xx_HAL_Driver/Src/stm32f3xx_hal_rtc_ex.c **** 
 500:Drivers/STM32F3xx_HAL_Driver/Src/stm32f3xx_hal_rtc_ex.c ****   /* Get the Tamper interrupts source enable status */
 501:Drivers/STM32F3xx_HAL_Driver/Src/stm32f3xx_hal_rtc_ex.c ****   if (__HAL_RTC_TAMPER_GET_IT_SOURCE(hrtc, RTC_IT_TAMP))
 502:Drivers/STM32F3xx_HAL_Driver/Src/stm32f3xx_hal_rtc_ex.c ****   {
 503:Drivers/STM32F3xx_HAL_Driver/Src/stm32f3xx_hal_rtc_ex.c ****     /* Get the pending status of the Tamper2 Interrupt */
 504:Drivers/STM32F3xx_HAL_Driver/Src/stm32f3xx_hal_rtc_ex.c ****     if (__HAL_RTC_TAMPER_GET_FLAG(hrtc, RTC_FLAG_TAMP2F) != RESET)
 505:Drivers/STM32F3xx_HAL_Driver/Src/stm32f3xx_hal_rtc_ex.c ****     {
 506:Drivers/STM32F3xx_HAL_Driver/Src/stm32f3xx_hal_rtc_ex.c ****       /* Tamper2 callback */
 507:Drivers/STM32F3xx_HAL_Driver/Src/stm32f3xx_hal_rtc_ex.c **** #if (USE_HAL_RTC_REGISTER_CALLBACKS == 1)
 508:Drivers/STM32F3xx_HAL_Driver/Src/stm32f3xx_hal_rtc_ex.c ****       hrtc->Tamper2EventCallback(hrtc);
 509:Drivers/STM32F3xx_HAL_Driver/Src/stm32f3xx_hal_rtc_ex.c **** #else
 510:Drivers/STM32F3xx_HAL_Driver/Src/stm32f3xx_hal_rtc_ex.c ****       HAL_RTCEx_Tamper2EventCallback(hrtc);
 511:Drivers/STM32F3xx_HAL_Driver/Src/stm32f3xx_hal_rtc_ex.c **** #endif /* USE_HAL_RTC_REGISTER_CALLBACKS */
 512:Drivers/STM32F3xx_HAL_Driver/Src/stm32f3xx_hal_rtc_ex.c **** 
 513:Drivers/STM32F3xx_HAL_Driver/Src/stm32f3xx_hal_rtc_ex.c ****       /* Clear the Tamper2 interrupt pending bit */
 514:Drivers/STM32F3xx_HAL_Driver/Src/stm32f3xx_hal_rtc_ex.c ****       __HAL_RTC_TAMPER_CLEAR_FLAG(hrtc, RTC_FLAG_TAMP2F);
 515:Drivers/STM32F3xx_HAL_Driver/Src/stm32f3xx_hal_rtc_ex.c ****     }
 516:Drivers/STM32F3xx_HAL_Driver/Src/stm32f3xx_hal_rtc_ex.c ****   }
 517:Drivers/STM32F3xx_HAL_Driver/Src/stm32f3xx_hal_rtc_ex.c **** 
 518:Drivers/STM32F3xx_HAL_Driver/Src/stm32f3xx_hal_rtc_ex.c **** #if defined(RTC_TAMPER3_SUPPORT)
 519:Drivers/STM32F3xx_HAL_Driver/Src/stm32f3xx_hal_rtc_ex.c ****   /* Get the Tamper interrupts source enable status */
 520:Drivers/STM32F3xx_HAL_Driver/Src/stm32f3xx_hal_rtc_ex.c ****   if (__HAL_RTC_TAMPER_GET_IT_SOURCE(hrtc, RTC_IT_TAMP))
 521:Drivers/STM32F3xx_HAL_Driver/Src/stm32f3xx_hal_rtc_ex.c ****   {
 522:Drivers/STM32F3xx_HAL_Driver/Src/stm32f3xx_hal_rtc_ex.c ****     /* Get the pending status of the Tamper3 Interrupt */
 523:Drivers/STM32F3xx_HAL_Driver/Src/stm32f3xx_hal_rtc_ex.c ****     if (__HAL_RTC_TAMPER_GET_FLAG(hrtc, RTC_FLAG_TAMP3F) != RESET)
 524:Drivers/STM32F3xx_HAL_Driver/Src/stm32f3xx_hal_rtc_ex.c ****     {
 525:Drivers/STM32F3xx_HAL_Driver/Src/stm32f3xx_hal_rtc_ex.c ****       /* Tamper3 callback */
ARM GAS  /var/folders/jw/jcj5j9_530958b2rm5vp9wn00000gn/T//ccckkuva.s 			page 26


 526:Drivers/STM32F3xx_HAL_Driver/Src/stm32f3xx_hal_rtc_ex.c **** #if (USE_HAL_RTC_REGISTER_CALLBACKS == 1)
 527:Drivers/STM32F3xx_HAL_Driver/Src/stm32f3xx_hal_rtc_ex.c ****       hrtc->Tamper3EventCallback(hrtc);
 528:Drivers/STM32F3xx_HAL_Driver/Src/stm32f3xx_hal_rtc_ex.c **** #else
 529:Drivers/STM32F3xx_HAL_Driver/Src/stm32f3xx_hal_rtc_ex.c ****       HAL_RTCEx_Tamper3EventCallback(hrtc);
 530:Drivers/STM32F3xx_HAL_Driver/Src/stm32f3xx_hal_rtc_ex.c **** #endif /* USE_HAL_RTC_REGISTER_CALLBACKS */
 531:Drivers/STM32F3xx_HAL_Driver/Src/stm32f3xx_hal_rtc_ex.c **** 
 532:Drivers/STM32F3xx_HAL_Driver/Src/stm32f3xx_hal_rtc_ex.c ****       /* Clear the Tamper3 interrupt pending bit */
 533:Drivers/STM32F3xx_HAL_Driver/Src/stm32f3xx_hal_rtc_ex.c ****       __HAL_RTC_TAMPER_CLEAR_FLAG(hrtc, RTC_FLAG_TAMP3F);
 534:Drivers/STM32F3xx_HAL_Driver/Src/stm32f3xx_hal_rtc_ex.c ****     }
 535:Drivers/STM32F3xx_HAL_Driver/Src/stm32f3xx_hal_rtc_ex.c ****   }
 536:Drivers/STM32F3xx_HAL_Driver/Src/stm32f3xx_hal_rtc_ex.c **** #endif /* RTC_TAMPER3_SUPPORT */
 537:Drivers/STM32F3xx_HAL_Driver/Src/stm32f3xx_hal_rtc_ex.c **** 
 538:Drivers/STM32F3xx_HAL_Driver/Src/stm32f3xx_hal_rtc_ex.c ****   /* Clear the EXTI's Flag for RTC TimeStamp and Tamper */
 539:Drivers/STM32F3xx_HAL_Driver/Src/stm32f3xx_hal_rtc_ex.c ****   __HAL_RTC_TAMPER_TIMESTAMP_EXTI_CLEAR_FLAG();
 540:Drivers/STM32F3xx_HAL_Driver/Src/stm32f3xx_hal_rtc_ex.c **** 
 541:Drivers/STM32F3xx_HAL_Driver/Src/stm32f3xx_hal_rtc_ex.c ****   /* Change RTC state */
 542:Drivers/STM32F3xx_HAL_Driver/Src/stm32f3xx_hal_rtc_ex.c ****   hrtc->State = HAL_RTC_STATE_READY;
 543:Drivers/STM32F3xx_HAL_Driver/Src/stm32f3xx_hal_rtc_ex.c **** }
 544:Drivers/STM32F3xx_HAL_Driver/Src/stm32f3xx_hal_rtc_ex.c **** 
 545:Drivers/STM32F3xx_HAL_Driver/Src/stm32f3xx_hal_rtc_ex.c **** /**
 546:Drivers/STM32F3xx_HAL_Driver/Src/stm32f3xx_hal_rtc_ex.c ****   * @brief  TimeStamp callback.
 547:Drivers/STM32F3xx_HAL_Driver/Src/stm32f3xx_hal_rtc_ex.c ****   * @param  hrtc RTC handle
 548:Drivers/STM32F3xx_HAL_Driver/Src/stm32f3xx_hal_rtc_ex.c ****   * @retval None
 549:Drivers/STM32F3xx_HAL_Driver/Src/stm32f3xx_hal_rtc_ex.c ****   */
 550:Drivers/STM32F3xx_HAL_Driver/Src/stm32f3xx_hal_rtc_ex.c **** __weak void HAL_RTCEx_TimeStampEventCallback(RTC_HandleTypeDef *hrtc)
 551:Drivers/STM32F3xx_HAL_Driver/Src/stm32f3xx_hal_rtc_ex.c **** {
 879              		.loc 1 551 1 is_stmt 1 view -0
 880              		.cfi_startproc
 881              		@ args = 0, pretend = 0, frame = 0
 882              		@ frame_needed = 0, uses_anonymous_args = 0
 883              		@ link register save eliminated.
 552:Drivers/STM32F3xx_HAL_Driver/Src/stm32f3xx_hal_rtc_ex.c ****   /* Prevent unused argument(s) compilation warning */
 553:Drivers/STM32F3xx_HAL_Driver/Src/stm32f3xx_hal_rtc_ex.c ****   UNUSED(hrtc);
 884              		.loc 1 553 3 view .LVU322
 554:Drivers/STM32F3xx_HAL_Driver/Src/stm32f3xx_hal_rtc_ex.c **** 
 555:Drivers/STM32F3xx_HAL_Driver/Src/stm32f3xx_hal_rtc_ex.c ****   /* NOTE : This function should not be modified, when the callback is needed,
 556:Drivers/STM32F3xx_HAL_Driver/Src/stm32f3xx_hal_rtc_ex.c ****             the HAL_RTCEx_TimeStampEventCallback could be implemented in the user file
 557:Drivers/STM32F3xx_HAL_Driver/Src/stm32f3xx_hal_rtc_ex.c ****   */
 558:Drivers/STM32F3xx_HAL_Driver/Src/stm32f3xx_hal_rtc_ex.c **** }
 885              		.loc 1 558 1 is_stmt 0 view .LVU323
 886 0000 7047     		bx	lr
 887              		.cfi_endproc
 888              	.LFE138:
 890              		.section	.text.HAL_RTCEx_Tamper1EventCallback,"ax",%progbits
 891              		.align	1
 892              		.weak	HAL_RTCEx_Tamper1EventCallback
 893              		.syntax unified
 894              		.thumb
 895              		.thumb_func
 896              		.fpu fpv4-sp-d16
 898              	HAL_RTCEx_Tamper1EventCallback:
 899              	.LVL61:
 900              	.LFB139:
 559:Drivers/STM32F3xx_HAL_Driver/Src/stm32f3xx_hal_rtc_ex.c **** 
 560:Drivers/STM32F3xx_HAL_Driver/Src/stm32f3xx_hal_rtc_ex.c **** /**
 561:Drivers/STM32F3xx_HAL_Driver/Src/stm32f3xx_hal_rtc_ex.c ****   * @brief  Tamper 1 callback.
 562:Drivers/STM32F3xx_HAL_Driver/Src/stm32f3xx_hal_rtc_ex.c ****   * @param  hrtc RTC handle
ARM GAS  /var/folders/jw/jcj5j9_530958b2rm5vp9wn00000gn/T//ccckkuva.s 			page 27


 563:Drivers/STM32F3xx_HAL_Driver/Src/stm32f3xx_hal_rtc_ex.c ****   * @retval None
 564:Drivers/STM32F3xx_HAL_Driver/Src/stm32f3xx_hal_rtc_ex.c ****   */
 565:Drivers/STM32F3xx_HAL_Driver/Src/stm32f3xx_hal_rtc_ex.c **** __weak void HAL_RTCEx_Tamper1EventCallback(RTC_HandleTypeDef *hrtc)
 566:Drivers/STM32F3xx_HAL_Driver/Src/stm32f3xx_hal_rtc_ex.c **** {
 901              		.loc 1 566 1 is_stmt 1 view -0
 902              		.cfi_startproc
 903              		@ args = 0, pretend = 0, frame = 0
 904              		@ frame_needed = 0, uses_anonymous_args = 0
 905              		@ link register save eliminated.
 567:Drivers/STM32F3xx_HAL_Driver/Src/stm32f3xx_hal_rtc_ex.c ****   /* Prevent unused argument(s) compilation warning */
 568:Drivers/STM32F3xx_HAL_Driver/Src/stm32f3xx_hal_rtc_ex.c ****   UNUSED(hrtc);
 906              		.loc 1 568 3 view .LVU325
 569:Drivers/STM32F3xx_HAL_Driver/Src/stm32f3xx_hal_rtc_ex.c **** 
 570:Drivers/STM32F3xx_HAL_Driver/Src/stm32f3xx_hal_rtc_ex.c ****   /* NOTE : This function should not be modified, when the callback is needed,
 571:Drivers/STM32F3xx_HAL_Driver/Src/stm32f3xx_hal_rtc_ex.c ****             the HAL_RTCEx_Tamper1EventCallback could be implemented in the user file
 572:Drivers/STM32F3xx_HAL_Driver/Src/stm32f3xx_hal_rtc_ex.c ****    */
 573:Drivers/STM32F3xx_HAL_Driver/Src/stm32f3xx_hal_rtc_ex.c **** }
 907              		.loc 1 573 1 is_stmt 0 view .LVU326
 908 0000 7047     		bx	lr
 909              		.cfi_endproc
 910              	.LFE139:
 912              		.section	.text.HAL_RTCEx_Tamper2EventCallback,"ax",%progbits
 913              		.align	1
 914              		.weak	HAL_RTCEx_Tamper2EventCallback
 915              		.syntax unified
 916              		.thumb
 917              		.thumb_func
 918              		.fpu fpv4-sp-d16
 920              	HAL_RTCEx_Tamper2EventCallback:
 921              	.LVL62:
 922              	.LFB140:
 574:Drivers/STM32F3xx_HAL_Driver/Src/stm32f3xx_hal_rtc_ex.c **** 
 575:Drivers/STM32F3xx_HAL_Driver/Src/stm32f3xx_hal_rtc_ex.c **** /**
 576:Drivers/STM32F3xx_HAL_Driver/Src/stm32f3xx_hal_rtc_ex.c ****   * @brief  Tamper 2 callback.
 577:Drivers/STM32F3xx_HAL_Driver/Src/stm32f3xx_hal_rtc_ex.c ****   * @param  hrtc RTC handle
 578:Drivers/STM32F3xx_HAL_Driver/Src/stm32f3xx_hal_rtc_ex.c ****   * @retval None
 579:Drivers/STM32F3xx_HAL_Driver/Src/stm32f3xx_hal_rtc_ex.c ****   */
 580:Drivers/STM32F3xx_HAL_Driver/Src/stm32f3xx_hal_rtc_ex.c **** __weak void HAL_RTCEx_Tamper2EventCallback(RTC_HandleTypeDef *hrtc)
 581:Drivers/STM32F3xx_HAL_Driver/Src/stm32f3xx_hal_rtc_ex.c **** {
 923              		.loc 1 581 1 is_stmt 1 view -0
 924              		.cfi_startproc
 925              		@ args = 0, pretend = 0, frame = 0
 926              		@ frame_needed = 0, uses_anonymous_args = 0
 927              		@ link register save eliminated.
 582:Drivers/STM32F3xx_HAL_Driver/Src/stm32f3xx_hal_rtc_ex.c ****   /* Prevent unused argument(s) compilation warning */
 583:Drivers/STM32F3xx_HAL_Driver/Src/stm32f3xx_hal_rtc_ex.c ****   UNUSED(hrtc);
 928              		.loc 1 583 3 view .LVU328
 584:Drivers/STM32F3xx_HAL_Driver/Src/stm32f3xx_hal_rtc_ex.c **** 
 585:Drivers/STM32F3xx_HAL_Driver/Src/stm32f3xx_hal_rtc_ex.c ****   /* NOTE : This function should not be modified, when the callback is needed,
 586:Drivers/STM32F3xx_HAL_Driver/Src/stm32f3xx_hal_rtc_ex.c ****             the HAL_RTCEx_Tamper2EventCallback could be implemented in the user file
 587:Drivers/STM32F3xx_HAL_Driver/Src/stm32f3xx_hal_rtc_ex.c ****    */
 588:Drivers/STM32F3xx_HAL_Driver/Src/stm32f3xx_hal_rtc_ex.c **** }
 929              		.loc 1 588 1 is_stmt 0 view .LVU329
 930 0000 7047     		bx	lr
 931              		.cfi_endproc
 932              	.LFE140:
 934              		.section	.text.HAL_RTCEx_Tamper3EventCallback,"ax",%progbits
ARM GAS  /var/folders/jw/jcj5j9_530958b2rm5vp9wn00000gn/T//ccckkuva.s 			page 28


 935              		.align	1
 936              		.weak	HAL_RTCEx_Tamper3EventCallback
 937              		.syntax unified
 938              		.thumb
 939              		.thumb_func
 940              		.fpu fpv4-sp-d16
 942              	HAL_RTCEx_Tamper3EventCallback:
 943              	.LVL63:
 944              	.LFB141:
 589:Drivers/STM32F3xx_HAL_Driver/Src/stm32f3xx_hal_rtc_ex.c **** 
 590:Drivers/STM32F3xx_HAL_Driver/Src/stm32f3xx_hal_rtc_ex.c **** #if defined(RTC_TAMPER3_SUPPORT)
 591:Drivers/STM32F3xx_HAL_Driver/Src/stm32f3xx_hal_rtc_ex.c **** /**
 592:Drivers/STM32F3xx_HAL_Driver/Src/stm32f3xx_hal_rtc_ex.c ****   * @brief  Tamper 3 callback.
 593:Drivers/STM32F3xx_HAL_Driver/Src/stm32f3xx_hal_rtc_ex.c ****   * @param  hrtc RTC handle
 594:Drivers/STM32F3xx_HAL_Driver/Src/stm32f3xx_hal_rtc_ex.c ****   * @retval None
 595:Drivers/STM32F3xx_HAL_Driver/Src/stm32f3xx_hal_rtc_ex.c ****   */
 596:Drivers/STM32F3xx_HAL_Driver/Src/stm32f3xx_hal_rtc_ex.c **** __weak void HAL_RTCEx_Tamper3EventCallback(RTC_HandleTypeDef *hrtc)
 597:Drivers/STM32F3xx_HAL_Driver/Src/stm32f3xx_hal_rtc_ex.c **** {
 945              		.loc 1 597 1 is_stmt 1 view -0
 946              		.cfi_startproc
 947              		@ args = 0, pretend = 0, frame = 0
 948              		@ frame_needed = 0, uses_anonymous_args = 0
 949              		@ link register save eliminated.
 598:Drivers/STM32F3xx_HAL_Driver/Src/stm32f3xx_hal_rtc_ex.c ****   /* Prevent unused argument(s) compilation warning */
 599:Drivers/STM32F3xx_HAL_Driver/Src/stm32f3xx_hal_rtc_ex.c ****   UNUSED(hrtc);
 950              		.loc 1 599 3 view .LVU331
 600:Drivers/STM32F3xx_HAL_Driver/Src/stm32f3xx_hal_rtc_ex.c **** 
 601:Drivers/STM32F3xx_HAL_Driver/Src/stm32f3xx_hal_rtc_ex.c ****   /* NOTE : This function should not be modified, when the callback is needed,
 602:Drivers/STM32F3xx_HAL_Driver/Src/stm32f3xx_hal_rtc_ex.c ****             the HAL_RTCEx_Tamper3EventCallback could be implemented in the user file
 603:Drivers/STM32F3xx_HAL_Driver/Src/stm32f3xx_hal_rtc_ex.c ****    */
 604:Drivers/STM32F3xx_HAL_Driver/Src/stm32f3xx_hal_rtc_ex.c **** }
 951              		.loc 1 604 1 is_stmt 0 view .LVU332
 952 0000 7047     		bx	lr
 953              		.cfi_endproc
 954              	.LFE141:
 956              		.section	.text.HAL_RTCEx_TamperTimeStampIRQHandler,"ax",%progbits
 957              		.align	1
 958              		.global	HAL_RTCEx_TamperTimeStampIRQHandler
 959              		.syntax unified
 960              		.thumb
 961              		.thumb_func
 962              		.fpu fpv4-sp-d16
 964              	HAL_RTCEx_TamperTimeStampIRQHandler:
 965              	.LVL64:
 966              	.LFB137:
 463:Drivers/STM32F3xx_HAL_Driver/Src/stm32f3xx_hal_rtc_ex.c ****   /* Get the TimeStamp interrupt source enable status */
 967              		.loc 1 463 1 is_stmt 1 view -0
 968              		.cfi_startproc
 969              		@ args = 0, pretend = 0, frame = 0
 970              		@ frame_needed = 0, uses_anonymous_args = 0
 463:Drivers/STM32F3xx_HAL_Driver/Src/stm32f3xx_hal_rtc_ex.c ****   /* Get the TimeStamp interrupt source enable status */
 971              		.loc 1 463 1 is_stmt 0 view .LVU334
 972 0000 10B5     		push	{r4, lr}
 973              	.LCFI11:
 974              		.cfi_def_cfa_offset 8
 975              		.cfi_offset 4, -8
 976              		.cfi_offset 14, -4
ARM GAS  /var/folders/jw/jcj5j9_530958b2rm5vp9wn00000gn/T//ccckkuva.s 			page 29


 977 0002 0446     		mov	r4, r0
 465:Drivers/STM32F3xx_HAL_Driver/Src/stm32f3xx_hal_rtc_ex.c ****   {
 978              		.loc 1 465 3 is_stmt 1 view .LVU335
 465:Drivers/STM32F3xx_HAL_Driver/Src/stm32f3xx_hal_rtc_ex.c ****   {
 979              		.loc 1 465 7 is_stmt 0 view .LVU336
 980 0004 0368     		ldr	r3, [r0]
 981 0006 9A68     		ldr	r2, [r3, #8]
 465:Drivers/STM32F3xx_HAL_Driver/Src/stm32f3xx_hal_rtc_ex.c ****   {
 982              		.loc 1 465 6 view .LVU337
 983 0008 12F4004F 		tst	r2, #32768
 984 000c 03D0     		beq	.L54
 468:Drivers/STM32F3xx_HAL_Driver/Src/stm32f3xx_hal_rtc_ex.c ****     {
 985              		.loc 1 468 5 is_stmt 1 view .LVU338
 468:Drivers/STM32F3xx_HAL_Driver/Src/stm32f3xx_hal_rtc_ex.c ****     {
 986              		.loc 1 468 9 is_stmt 0 view .LVU339
 987 000e DB68     		ldr	r3, [r3, #12]
 468:Drivers/STM32F3xx_HAL_Driver/Src/stm32f3xx_hal_rtc_ex.c ****     {
 988              		.loc 1 468 8 view .LVU340
 989 0010 13F4006F 		tst	r3, #2048
 990 0014 21D1     		bne	.L59
 991              	.LVL65:
 992              	.L54:
 483:Drivers/STM32F3xx_HAL_Driver/Src/stm32f3xx_hal_rtc_ex.c ****   {
 993              		.loc 1 483 3 is_stmt 1 view .LVU341
 483:Drivers/STM32F3xx_HAL_Driver/Src/stm32f3xx_hal_rtc_ex.c ****   {
 994              		.loc 1 483 7 is_stmt 0 view .LVU342
 995 0016 2368     		ldr	r3, [r4]
 996 0018 1A6C     		ldr	r2, [r3, #64]
 483:Drivers/STM32F3xx_HAL_Driver/Src/stm32f3xx_hal_rtc_ex.c ****   {
 997              		.loc 1 483 6 view .LVU343
 998 001a 12F0040F 		tst	r2, #4
 999 001e 03D0     		beq	.L55
 486:Drivers/STM32F3xx_HAL_Driver/Src/stm32f3xx_hal_rtc_ex.c ****     {
 1000              		.loc 1 486 5 is_stmt 1 view .LVU344
 486:Drivers/STM32F3xx_HAL_Driver/Src/stm32f3xx_hal_rtc_ex.c ****     {
 1001              		.loc 1 486 9 is_stmt 0 view .LVU345
 1002 0020 DB68     		ldr	r3, [r3, #12]
 486:Drivers/STM32F3xx_HAL_Driver/Src/stm32f3xx_hal_rtc_ex.c ****     {
 1003              		.loc 1 486 8 view .LVU346
 1004 0022 13F4005F 		tst	r3, #8192
 1005 0026 21D1     		bne	.L60
 1006              	.L55:
 501:Drivers/STM32F3xx_HAL_Driver/Src/stm32f3xx_hal_rtc_ex.c ****   {
 1007              		.loc 1 501 3 is_stmt 1 view .LVU347
 501:Drivers/STM32F3xx_HAL_Driver/Src/stm32f3xx_hal_rtc_ex.c ****   {
 1008              		.loc 1 501 7 is_stmt 0 view .LVU348
 1009 0028 2368     		ldr	r3, [r4]
 1010 002a 1A6C     		ldr	r2, [r3, #64]
 501:Drivers/STM32F3xx_HAL_Driver/Src/stm32f3xx_hal_rtc_ex.c ****   {
 1011              		.loc 1 501 6 view .LVU349
 1012 002c 12F0040F 		tst	r2, #4
 1013 0030 03D0     		beq	.L56
 504:Drivers/STM32F3xx_HAL_Driver/Src/stm32f3xx_hal_rtc_ex.c ****     {
 1014              		.loc 1 504 5 is_stmt 1 view .LVU350
 504:Drivers/STM32F3xx_HAL_Driver/Src/stm32f3xx_hal_rtc_ex.c ****     {
 1015              		.loc 1 504 9 is_stmt 0 view .LVU351
 1016 0032 DB68     		ldr	r3, [r3, #12]
ARM GAS  /var/folders/jw/jcj5j9_530958b2rm5vp9wn00000gn/T//ccckkuva.s 			page 30


 504:Drivers/STM32F3xx_HAL_Driver/Src/stm32f3xx_hal_rtc_ex.c ****     {
 1017              		.loc 1 504 8 view .LVU352
 1018 0034 13F4804F 		tst	r3, #16384
 1019 0038 22D1     		bne	.L61
 1020              	.L56:
 520:Drivers/STM32F3xx_HAL_Driver/Src/stm32f3xx_hal_rtc_ex.c ****   {
 1021              		.loc 1 520 3 is_stmt 1 view .LVU353
 520:Drivers/STM32F3xx_HAL_Driver/Src/stm32f3xx_hal_rtc_ex.c ****   {
 1022              		.loc 1 520 7 is_stmt 0 view .LVU354
 1023 003a 2368     		ldr	r3, [r4]
 1024 003c 1A6C     		ldr	r2, [r3, #64]
 520:Drivers/STM32F3xx_HAL_Driver/Src/stm32f3xx_hal_rtc_ex.c ****   {
 1025              		.loc 1 520 6 view .LVU355
 1026 003e 12F0040F 		tst	r2, #4
 1027 0042 03D0     		beq	.L57
 523:Drivers/STM32F3xx_HAL_Driver/Src/stm32f3xx_hal_rtc_ex.c ****     {
 1028              		.loc 1 523 5 is_stmt 1 view .LVU356
 523:Drivers/STM32F3xx_HAL_Driver/Src/stm32f3xx_hal_rtc_ex.c ****     {
 1029              		.loc 1 523 9 is_stmt 0 view .LVU357
 1030 0044 DB68     		ldr	r3, [r3, #12]
 523:Drivers/STM32F3xx_HAL_Driver/Src/stm32f3xx_hal_rtc_ex.c ****     {
 1031              		.loc 1 523 8 view .LVU358
 1032 0046 13F4004F 		tst	r3, #32768
 1033 004a 23D1     		bne	.L62
 1034              	.L57:
 539:Drivers/STM32F3xx_HAL_Driver/Src/stm32f3xx_hal_rtc_ex.c **** 
 1035              		.loc 1 539 3 is_stmt 1 view .LVU359
 1036 004c 194B     		ldr	r3, .L63
 1037 004e 4FF40022 		mov	r2, #524288
 1038 0052 5A61     		str	r2, [r3, #20]
 542:Drivers/STM32F3xx_HAL_Driver/Src/stm32f3xx_hal_rtc_ex.c **** }
 1039              		.loc 1 542 3 view .LVU360
 542:Drivers/STM32F3xx_HAL_Driver/Src/stm32f3xx_hal_rtc_ex.c **** }
 1040              		.loc 1 542 15 is_stmt 0 view .LVU361
 1041 0054 0123     		movs	r3, #1
 1042 0056 6377     		strb	r3, [r4, #29]
 543:Drivers/STM32F3xx_HAL_Driver/Src/stm32f3xx_hal_rtc_ex.c **** 
 1043              		.loc 1 543 1 view .LVU362
 1044 0058 10BD     		pop	{r4, pc}
 1045              	.LVL66:
 1046              	.L59:
 474:Drivers/STM32F3xx_HAL_Driver/Src/stm32f3xx_hal_rtc_ex.c **** #endif /* USE_HAL_RTC_REGISTER_CALLBACKS */
 1047              		.loc 1 474 7 is_stmt 1 view .LVU363
 1048 005a FFF7FEFF 		bl	HAL_RTCEx_TimeStampEventCallback
 1049              	.LVL67:
 478:Drivers/STM32F3xx_HAL_Driver/Src/stm32f3xx_hal_rtc_ex.c ****     }
 1050              		.loc 1 478 7 view .LVU364
 1051 005e 2268     		ldr	r2, [r4]
 1052 0060 D368     		ldr	r3, [r2, #12]
 1053 0062 DBB2     		uxtb	r3, r3
 1054 0064 63F40863 		orn	r3, r3, #2176
 1055 0068 D360     		str	r3, [r2, #12]
 1056 006a D4E7     		b	.L54
 1057              	.L60:
 492:Drivers/STM32F3xx_HAL_Driver/Src/stm32f3xx_hal_rtc_ex.c **** #endif /* USE_HAL_RTC_REGISTER_CALLBACKS */
 1058              		.loc 1 492 7 view .LVU365
 1059 006c 2046     		mov	r0, r4
ARM GAS  /var/folders/jw/jcj5j9_530958b2rm5vp9wn00000gn/T//ccckkuva.s 			page 31


 1060 006e FFF7FEFF 		bl	HAL_RTCEx_Tamper1EventCallback
 1061              	.LVL68:
 496:Drivers/STM32F3xx_HAL_Driver/Src/stm32f3xx_hal_rtc_ex.c ****     }
 1062              		.loc 1 496 7 view .LVU366
 1063 0072 2268     		ldr	r2, [r4]
 1064 0074 D368     		ldr	r3, [r2, #12]
 1065 0076 DBB2     		uxtb	r3, r3
 1066 0078 63F40253 		orn	r3, r3, #8320
 1067 007c D360     		str	r3, [r2, #12]
 1068 007e D3E7     		b	.L55
 1069              	.L61:
 510:Drivers/STM32F3xx_HAL_Driver/Src/stm32f3xx_hal_rtc_ex.c **** #endif /* USE_HAL_RTC_REGISTER_CALLBACKS */
 1070              		.loc 1 510 7 view .LVU367
 1071 0080 2046     		mov	r0, r4
 1072 0082 FFF7FEFF 		bl	HAL_RTCEx_Tamper2EventCallback
 1073              	.LVL69:
 514:Drivers/STM32F3xx_HAL_Driver/Src/stm32f3xx_hal_rtc_ex.c ****     }
 1074              		.loc 1 514 7 view .LVU368
 1075 0086 2268     		ldr	r2, [r4]
 1076 0088 D368     		ldr	r3, [r2, #12]
 1077 008a DBB2     		uxtb	r3, r3
 1078 008c 63F48143 		orn	r3, r3, #16512
 1079 0090 D360     		str	r3, [r2, #12]
 1080 0092 D2E7     		b	.L56
 1081              	.L62:
 529:Drivers/STM32F3xx_HAL_Driver/Src/stm32f3xx_hal_rtc_ex.c **** #endif /* USE_HAL_RTC_REGISTER_CALLBACKS */
 1082              		.loc 1 529 7 view .LVU369
 1083 0094 2046     		mov	r0, r4
 1084 0096 FFF7FEFF 		bl	HAL_RTCEx_Tamper3EventCallback
 1085              	.LVL70:
 533:Drivers/STM32F3xx_HAL_Driver/Src/stm32f3xx_hal_rtc_ex.c ****     }
 1086              		.loc 1 533 7 view .LVU370
 1087 009a 2268     		ldr	r2, [r4]
 1088 009c D368     		ldr	r3, [r2, #12]
 1089 009e DBB2     		uxtb	r3, r3
 1090 00a0 43F07F43 		orr	r3, r3, #-16777216
 1091 00a4 43F47F03 		orr	r3, r3, #16711680
 1092 00a8 43F4FE43 		orr	r3, r3, #32512
 1093 00ac 43F07F03 		orr	r3, r3, #127
 1094 00b0 D360     		str	r3, [r2, #12]
 1095 00b2 CBE7     		b	.L57
 1096              	.L64:
 1097              		.align	2
 1098              	.L63:
 1099 00b4 00040140 		.word	1073808384
 1100              		.cfi_endproc
 1101              	.LFE137:
 1103              		.section	.text.HAL_RTCEx_PollForTimeStampEvent,"ax",%progbits
 1104              		.align	1
 1105              		.global	HAL_RTCEx_PollForTimeStampEvent
 1106              		.syntax unified
 1107              		.thumb
 1108              		.thumb_func
 1109              		.fpu fpv4-sp-d16
 1111              	HAL_RTCEx_PollForTimeStampEvent:
 1112              	.LVL71:
 1113              	.LFB142:
ARM GAS  /var/folders/jw/jcj5j9_530958b2rm5vp9wn00000gn/T//ccckkuva.s 			page 32


 605:Drivers/STM32F3xx_HAL_Driver/Src/stm32f3xx_hal_rtc_ex.c **** #endif /* RTC_TAMPER3_SUPPORT */
 606:Drivers/STM32F3xx_HAL_Driver/Src/stm32f3xx_hal_rtc_ex.c **** 
 607:Drivers/STM32F3xx_HAL_Driver/Src/stm32f3xx_hal_rtc_ex.c **** /**
 608:Drivers/STM32F3xx_HAL_Driver/Src/stm32f3xx_hal_rtc_ex.c ****   * @brief  Handle TimeStamp polling request.
 609:Drivers/STM32F3xx_HAL_Driver/Src/stm32f3xx_hal_rtc_ex.c ****   * @param  hrtc RTC handle
 610:Drivers/STM32F3xx_HAL_Driver/Src/stm32f3xx_hal_rtc_ex.c ****   * @param  Timeout Timeout duration
 611:Drivers/STM32F3xx_HAL_Driver/Src/stm32f3xx_hal_rtc_ex.c ****   * @retval HAL status
 612:Drivers/STM32F3xx_HAL_Driver/Src/stm32f3xx_hal_rtc_ex.c ****   */
 613:Drivers/STM32F3xx_HAL_Driver/Src/stm32f3xx_hal_rtc_ex.c **** HAL_StatusTypeDef HAL_RTCEx_PollForTimeStampEvent(RTC_HandleTypeDef *hrtc, uint32_t Timeout)
 614:Drivers/STM32F3xx_HAL_Driver/Src/stm32f3xx_hal_rtc_ex.c **** {
 1114              		.loc 1 614 1 view -0
 1115              		.cfi_startproc
 1116              		@ args = 0, pretend = 0, frame = 0
 1117              		@ frame_needed = 0, uses_anonymous_args = 0
 1118              		.loc 1 614 1 is_stmt 0 view .LVU372
 1119 0000 70B5     		push	{r4, r5, r6, lr}
 1120              	.LCFI12:
 1121              		.cfi_def_cfa_offset 16
 1122              		.cfi_offset 4, -16
 1123              		.cfi_offset 5, -12
 1124              		.cfi_offset 6, -8
 1125              		.cfi_offset 14, -4
 1126 0002 0446     		mov	r4, r0
 1127 0004 0D46     		mov	r5, r1
 615:Drivers/STM32F3xx_HAL_Driver/Src/stm32f3xx_hal_rtc_ex.c ****   uint32_t tickstart = HAL_GetTick();
 1128              		.loc 1 615 3 is_stmt 1 view .LVU373
 1129              		.loc 1 615 24 is_stmt 0 view .LVU374
 1130 0006 FFF7FEFF 		bl	HAL_GetTick
 1131              	.LVL72:
 1132              		.loc 1 615 24 view .LVU375
 1133 000a 0646     		mov	r6, r0
 1134              	.LVL73:
 616:Drivers/STM32F3xx_HAL_Driver/Src/stm32f3xx_hal_rtc_ex.c **** 
 617:Drivers/STM32F3xx_HAL_Driver/Src/stm32f3xx_hal_rtc_ex.c ****   while (__HAL_RTC_TIMESTAMP_GET_FLAG(hrtc, RTC_FLAG_TSF) == RESET)
 1135              		.loc 1 617 3 is_stmt 1 view .LVU376
 1136              	.L69:
 1137              		.loc 1 617 9 view .LVU377
 1138              		.loc 1 617 10 is_stmt 0 view .LVU378
 1139 000c 2368     		ldr	r3, [r4]
 1140 000e DA68     		ldr	r2, [r3, #12]
 1141              		.loc 1 617 9 view .LVU379
 1142 0010 12F4006F 		tst	r2, #2048
 1143 0014 18D1     		bne	.L73
 618:Drivers/STM32F3xx_HAL_Driver/Src/stm32f3xx_hal_rtc_ex.c ****   {
 619:Drivers/STM32F3xx_HAL_Driver/Src/stm32f3xx_hal_rtc_ex.c ****     if (__HAL_RTC_TIMESTAMP_GET_FLAG(hrtc, RTC_FLAG_TSOVF) != RESET)
 1144              		.loc 1 619 5 is_stmt 1 view .LVU380
 1145              		.loc 1 619 9 is_stmt 0 view .LVU381
 1146 0016 DA68     		ldr	r2, [r3, #12]
 1147              		.loc 1 619 8 view .LVU382
 1148 0018 12F4805F 		tst	r2, #4096
 1149 001c 0BD1     		bne	.L74
 620:Drivers/STM32F3xx_HAL_Driver/Src/stm32f3xx_hal_rtc_ex.c ****     {
 621:Drivers/STM32F3xx_HAL_Driver/Src/stm32f3xx_hal_rtc_ex.c ****       /* Clear the TIMESTAMP OverRun Flag */
 622:Drivers/STM32F3xx_HAL_Driver/Src/stm32f3xx_hal_rtc_ex.c ****       __HAL_RTC_TIMESTAMP_CLEAR_FLAG(hrtc, RTC_FLAG_TSOVF);
 623:Drivers/STM32F3xx_HAL_Driver/Src/stm32f3xx_hal_rtc_ex.c **** 
 624:Drivers/STM32F3xx_HAL_Driver/Src/stm32f3xx_hal_rtc_ex.c ****       /* Change TIMESTAMP state */
 625:Drivers/STM32F3xx_HAL_Driver/Src/stm32f3xx_hal_rtc_ex.c ****       hrtc->State = HAL_RTC_STATE_ERROR;
ARM GAS  /var/folders/jw/jcj5j9_530958b2rm5vp9wn00000gn/T//ccckkuva.s 			page 33


 626:Drivers/STM32F3xx_HAL_Driver/Src/stm32f3xx_hal_rtc_ex.c **** 
 627:Drivers/STM32F3xx_HAL_Driver/Src/stm32f3xx_hal_rtc_ex.c ****       return HAL_ERROR;
 628:Drivers/STM32F3xx_HAL_Driver/Src/stm32f3xx_hal_rtc_ex.c ****     }
 629:Drivers/STM32F3xx_HAL_Driver/Src/stm32f3xx_hal_rtc_ex.c **** 
 630:Drivers/STM32F3xx_HAL_Driver/Src/stm32f3xx_hal_rtc_ex.c ****     if (Timeout != HAL_MAX_DELAY)
 1150              		.loc 1 630 5 is_stmt 1 view .LVU383
 1151              		.loc 1 630 8 is_stmt 0 view .LVU384
 1152 001e B5F1FF3F 		cmp	r5, #-1
 1153 0022 F3D0     		beq	.L69
 631:Drivers/STM32F3xx_HAL_Driver/Src/stm32f3xx_hal_rtc_ex.c ****     {
 632:Drivers/STM32F3xx_HAL_Driver/Src/stm32f3xx_hal_rtc_ex.c ****       if ((Timeout == 0U) || ((HAL_GetTick() - tickstart) > Timeout))
 1154              		.loc 1 632 7 is_stmt 1 view .LVU385
 1155              		.loc 1 632 10 is_stmt 0 view .LVU386
 1156 0024 25B1     		cbz	r5, .L70
 1157              		.loc 1 632 32 discriminator 1 view .LVU387
 1158 0026 FFF7FEFF 		bl	HAL_GetTick
 1159              	.LVL74:
 1160              		.loc 1 632 46 discriminator 1 view .LVU388
 1161 002a 801B     		subs	r0, r0, r6
 1162              		.loc 1 632 27 discriminator 1 view .LVU389
 1163 002c A842     		cmp	r0, r5
 1164 002e EDD9     		bls	.L69
 1165              	.L70:
 633:Drivers/STM32F3xx_HAL_Driver/Src/stm32f3xx_hal_rtc_ex.c ****       {
 634:Drivers/STM32F3xx_HAL_Driver/Src/stm32f3xx_hal_rtc_ex.c ****         hrtc->State = HAL_RTC_STATE_TIMEOUT;
 1166              		.loc 1 634 9 is_stmt 1 view .LVU390
 1167              		.loc 1 634 21 is_stmt 0 view .LVU391
 1168 0030 0320     		movs	r0, #3
 1169 0032 6077     		strb	r0, [r4, #29]
 635:Drivers/STM32F3xx_HAL_Driver/Src/stm32f3xx_hal_rtc_ex.c ****         return HAL_TIMEOUT;
 1170              		.loc 1 635 9 is_stmt 1 view .LVU392
 1171              		.loc 1 635 16 is_stmt 0 view .LVU393
 1172 0034 0BE0     		b	.L68
 1173              	.L74:
 622:Drivers/STM32F3xx_HAL_Driver/Src/stm32f3xx_hal_rtc_ex.c **** 
 1174              		.loc 1 622 7 is_stmt 1 view .LVU394
 1175 0036 DA68     		ldr	r2, [r3, #12]
 1176 0038 D2B2     		uxtb	r2, r2
 1177 003a 62F48452 		orn	r2, r2, #4224
 1178 003e DA60     		str	r2, [r3, #12]
 625:Drivers/STM32F3xx_HAL_Driver/Src/stm32f3xx_hal_rtc_ex.c **** 
 1179              		.loc 1 625 7 view .LVU395
 625:Drivers/STM32F3xx_HAL_Driver/Src/stm32f3xx_hal_rtc_ex.c **** 
 1180              		.loc 1 625 19 is_stmt 0 view .LVU396
 1181 0040 0423     		movs	r3, #4
 1182 0042 6377     		strb	r3, [r4, #29]
 627:Drivers/STM32F3xx_HAL_Driver/Src/stm32f3xx_hal_rtc_ex.c ****     }
 1183              		.loc 1 627 7 is_stmt 1 view .LVU397
 627:Drivers/STM32F3xx_HAL_Driver/Src/stm32f3xx_hal_rtc_ex.c ****     }
 1184              		.loc 1 627 14 is_stmt 0 view .LVU398
 1185 0044 0120     		movs	r0, #1
 1186 0046 02E0     		b	.L68
 1187              	.L73:
 636:Drivers/STM32F3xx_HAL_Driver/Src/stm32f3xx_hal_rtc_ex.c ****       }
 637:Drivers/STM32F3xx_HAL_Driver/Src/stm32f3xx_hal_rtc_ex.c ****     }
 638:Drivers/STM32F3xx_HAL_Driver/Src/stm32f3xx_hal_rtc_ex.c ****   }
 639:Drivers/STM32F3xx_HAL_Driver/Src/stm32f3xx_hal_rtc_ex.c **** 
ARM GAS  /var/folders/jw/jcj5j9_530958b2rm5vp9wn00000gn/T//ccckkuva.s 			page 34


 640:Drivers/STM32F3xx_HAL_Driver/Src/stm32f3xx_hal_rtc_ex.c ****   /* Change RTC state */
 641:Drivers/STM32F3xx_HAL_Driver/Src/stm32f3xx_hal_rtc_ex.c ****   hrtc->State = HAL_RTC_STATE_READY;
 1188              		.loc 1 641 3 is_stmt 1 view .LVU399
 1189              		.loc 1 641 15 is_stmt 0 view .LVU400
 1190 0048 0123     		movs	r3, #1
 1191 004a 6377     		strb	r3, [r4, #29]
 642:Drivers/STM32F3xx_HAL_Driver/Src/stm32f3xx_hal_rtc_ex.c **** 
 643:Drivers/STM32F3xx_HAL_Driver/Src/stm32f3xx_hal_rtc_ex.c ****   return HAL_OK;
 1192              		.loc 1 643 3 is_stmt 1 view .LVU401
 1193              		.loc 1 643 10 is_stmt 0 view .LVU402
 1194 004c 0020     		movs	r0, #0
 1195              	.L68:
 644:Drivers/STM32F3xx_HAL_Driver/Src/stm32f3xx_hal_rtc_ex.c **** }
 1196              		.loc 1 644 1 view .LVU403
 1197 004e 70BD     		pop	{r4, r5, r6, pc}
 1198              		.loc 1 644 1 view .LVU404
 1199              		.cfi_endproc
 1200              	.LFE142:
 1202              		.section	.text.HAL_RTCEx_PollForTamper1Event,"ax",%progbits
 1203              		.align	1
 1204              		.global	HAL_RTCEx_PollForTamper1Event
 1205              		.syntax unified
 1206              		.thumb
 1207              		.thumb_func
 1208              		.fpu fpv4-sp-d16
 1210              	HAL_RTCEx_PollForTamper1Event:
 1211              	.LVL75:
 1212              	.LFB143:
 645:Drivers/STM32F3xx_HAL_Driver/Src/stm32f3xx_hal_rtc_ex.c **** 
 646:Drivers/STM32F3xx_HAL_Driver/Src/stm32f3xx_hal_rtc_ex.c **** /**
 647:Drivers/STM32F3xx_HAL_Driver/Src/stm32f3xx_hal_rtc_ex.c ****   * @brief  Handle Tamper 1 Polling.
 648:Drivers/STM32F3xx_HAL_Driver/Src/stm32f3xx_hal_rtc_ex.c ****   * @param  hrtc RTC handle
 649:Drivers/STM32F3xx_HAL_Driver/Src/stm32f3xx_hal_rtc_ex.c ****   * @param  Timeout Timeout duration
 650:Drivers/STM32F3xx_HAL_Driver/Src/stm32f3xx_hal_rtc_ex.c ****   * @retval HAL status
 651:Drivers/STM32F3xx_HAL_Driver/Src/stm32f3xx_hal_rtc_ex.c ****   */
 652:Drivers/STM32F3xx_HAL_Driver/Src/stm32f3xx_hal_rtc_ex.c **** HAL_StatusTypeDef HAL_RTCEx_PollForTamper1Event(RTC_HandleTypeDef *hrtc, uint32_t Timeout)
 653:Drivers/STM32F3xx_HAL_Driver/Src/stm32f3xx_hal_rtc_ex.c **** {
 1213              		.loc 1 653 1 is_stmt 1 view -0
 1214              		.cfi_startproc
 1215              		@ args = 0, pretend = 0, frame = 0
 1216              		@ frame_needed = 0, uses_anonymous_args = 0
 1217              		.loc 1 653 1 is_stmt 0 view .LVU406
 1218 0000 70B5     		push	{r4, r5, r6, lr}
 1219              	.LCFI13:
 1220              		.cfi_def_cfa_offset 16
 1221              		.cfi_offset 4, -16
 1222              		.cfi_offset 5, -12
 1223              		.cfi_offset 6, -8
 1224              		.cfi_offset 14, -4
 1225 0002 0446     		mov	r4, r0
 1226 0004 0D46     		mov	r5, r1
 654:Drivers/STM32F3xx_HAL_Driver/Src/stm32f3xx_hal_rtc_ex.c ****   uint32_t tickstart = HAL_GetTick();
 1227              		.loc 1 654 3 is_stmt 1 view .LVU407
 1228              		.loc 1 654 24 is_stmt 0 view .LVU408
 1229 0006 FFF7FEFF 		bl	HAL_GetTick
 1230              	.LVL76:
 1231              		.loc 1 654 24 view .LVU409
ARM GAS  /var/folders/jw/jcj5j9_530958b2rm5vp9wn00000gn/T//ccckkuva.s 			page 35


 1232 000a 0646     		mov	r6, r0
 1233              	.LVL77:
 655:Drivers/STM32F3xx_HAL_Driver/Src/stm32f3xx_hal_rtc_ex.c **** 
 656:Drivers/STM32F3xx_HAL_Driver/Src/stm32f3xx_hal_rtc_ex.c ****   /* Get the status of the Interrupt */
 657:Drivers/STM32F3xx_HAL_Driver/Src/stm32f3xx_hal_rtc_ex.c ****   while (__HAL_RTC_TAMPER_GET_FLAG(hrtc, RTC_FLAG_TAMP1F) == RESET)
 1234              		.loc 1 657 3 is_stmt 1 view .LVU410
 1235              	.L77:
 1236              		.loc 1 657 9 view .LVU411
 1237              		.loc 1 657 10 is_stmt 0 view .LVU412
 1238 000c 2368     		ldr	r3, [r4]
 1239 000e DA68     		ldr	r2, [r3, #12]
 1240              		.loc 1 657 9 view .LVU413
 1241 0010 12F4005F 		tst	r2, #8192
 1242 0014 0BD1     		bne	.L82
 658:Drivers/STM32F3xx_HAL_Driver/Src/stm32f3xx_hal_rtc_ex.c ****   {
 659:Drivers/STM32F3xx_HAL_Driver/Src/stm32f3xx_hal_rtc_ex.c ****     if (Timeout != HAL_MAX_DELAY)
 1243              		.loc 1 659 5 is_stmt 1 view .LVU414
 1244              		.loc 1 659 8 is_stmt 0 view .LVU415
 1245 0016 B5F1FF3F 		cmp	r5, #-1
 1246 001a F7D0     		beq	.L77
 660:Drivers/STM32F3xx_HAL_Driver/Src/stm32f3xx_hal_rtc_ex.c ****     {
 661:Drivers/STM32F3xx_HAL_Driver/Src/stm32f3xx_hal_rtc_ex.c ****       if ((Timeout == 0U) || ((HAL_GetTick() - tickstart) > Timeout))
 1247              		.loc 1 661 7 is_stmt 1 view .LVU416
 1248              		.loc 1 661 10 is_stmt 0 view .LVU417
 1249 001c 25B1     		cbz	r5, .L78
 1250              		.loc 1 661 32 discriminator 1 view .LVU418
 1251 001e FFF7FEFF 		bl	HAL_GetTick
 1252              	.LVL78:
 1253              		.loc 1 661 46 discriminator 1 view .LVU419
 1254 0022 801B     		subs	r0, r0, r6
 1255              		.loc 1 661 27 discriminator 1 view .LVU420
 1256 0024 A842     		cmp	r0, r5
 1257 0026 F1D9     		bls	.L77
 1258              	.L78:
 662:Drivers/STM32F3xx_HAL_Driver/Src/stm32f3xx_hal_rtc_ex.c ****       {
 663:Drivers/STM32F3xx_HAL_Driver/Src/stm32f3xx_hal_rtc_ex.c ****         hrtc->State = HAL_RTC_STATE_TIMEOUT;
 1259              		.loc 1 663 9 is_stmt 1 view .LVU421
 1260              		.loc 1 663 21 is_stmt 0 view .LVU422
 1261 0028 0320     		movs	r0, #3
 1262 002a 6077     		strb	r0, [r4, #29]
 664:Drivers/STM32F3xx_HAL_Driver/Src/stm32f3xx_hal_rtc_ex.c ****         return HAL_TIMEOUT;
 1263              		.loc 1 664 9 is_stmt 1 view .LVU423
 1264              		.loc 1 664 16 is_stmt 0 view .LVU424
 1265 002c 07E0     		b	.L79
 1266              	.L82:
 665:Drivers/STM32F3xx_HAL_Driver/Src/stm32f3xx_hal_rtc_ex.c ****       }
 666:Drivers/STM32F3xx_HAL_Driver/Src/stm32f3xx_hal_rtc_ex.c ****     }
 667:Drivers/STM32F3xx_HAL_Driver/Src/stm32f3xx_hal_rtc_ex.c ****   }
 668:Drivers/STM32F3xx_HAL_Driver/Src/stm32f3xx_hal_rtc_ex.c **** 
 669:Drivers/STM32F3xx_HAL_Driver/Src/stm32f3xx_hal_rtc_ex.c ****   /* Clear the Tamper Flag */
 670:Drivers/STM32F3xx_HAL_Driver/Src/stm32f3xx_hal_rtc_ex.c ****   __HAL_RTC_TAMPER_CLEAR_FLAG(hrtc, RTC_FLAG_TAMP1F);
 1267              		.loc 1 670 3 is_stmt 1 view .LVU425
 1268 002e DA68     		ldr	r2, [r3, #12]
 1269 0030 D2B2     		uxtb	r2, r2
 1270 0032 62F40252 		orn	r2, r2, #8320
 1271 0036 DA60     		str	r2, [r3, #12]
 671:Drivers/STM32F3xx_HAL_Driver/Src/stm32f3xx_hal_rtc_ex.c **** 
ARM GAS  /var/folders/jw/jcj5j9_530958b2rm5vp9wn00000gn/T//ccckkuva.s 			page 36


 672:Drivers/STM32F3xx_HAL_Driver/Src/stm32f3xx_hal_rtc_ex.c ****   /* Change RTC state */
 673:Drivers/STM32F3xx_HAL_Driver/Src/stm32f3xx_hal_rtc_ex.c ****   hrtc->State = HAL_RTC_STATE_READY;
 1272              		.loc 1 673 3 view .LVU426
 1273              		.loc 1 673 15 is_stmt 0 view .LVU427
 1274 0038 0123     		movs	r3, #1
 1275 003a 6377     		strb	r3, [r4, #29]
 674:Drivers/STM32F3xx_HAL_Driver/Src/stm32f3xx_hal_rtc_ex.c **** 
 675:Drivers/STM32F3xx_HAL_Driver/Src/stm32f3xx_hal_rtc_ex.c ****   return HAL_OK;
 1276              		.loc 1 675 3 is_stmt 1 view .LVU428
 1277              		.loc 1 675 10 is_stmt 0 view .LVU429
 1278 003c 0020     		movs	r0, #0
 1279              	.L79:
 676:Drivers/STM32F3xx_HAL_Driver/Src/stm32f3xx_hal_rtc_ex.c **** }
 1280              		.loc 1 676 1 view .LVU430
 1281 003e 70BD     		pop	{r4, r5, r6, pc}
 1282              		.loc 1 676 1 view .LVU431
 1283              		.cfi_endproc
 1284              	.LFE143:
 1286              		.section	.text.HAL_RTCEx_PollForTamper2Event,"ax",%progbits
 1287              		.align	1
 1288              		.global	HAL_RTCEx_PollForTamper2Event
 1289              		.syntax unified
 1290              		.thumb
 1291              		.thumb_func
 1292              		.fpu fpv4-sp-d16
 1294              	HAL_RTCEx_PollForTamper2Event:
 1295              	.LVL79:
 1296              	.LFB144:
 677:Drivers/STM32F3xx_HAL_Driver/Src/stm32f3xx_hal_rtc_ex.c **** 
 678:Drivers/STM32F3xx_HAL_Driver/Src/stm32f3xx_hal_rtc_ex.c **** /**
 679:Drivers/STM32F3xx_HAL_Driver/Src/stm32f3xx_hal_rtc_ex.c ****   * @brief  Handle Tamper 2 Polling.
 680:Drivers/STM32F3xx_HAL_Driver/Src/stm32f3xx_hal_rtc_ex.c ****   * @param  hrtc RTC handle
 681:Drivers/STM32F3xx_HAL_Driver/Src/stm32f3xx_hal_rtc_ex.c ****   * @param  Timeout Timeout duration
 682:Drivers/STM32F3xx_HAL_Driver/Src/stm32f3xx_hal_rtc_ex.c ****   * @retval HAL status
 683:Drivers/STM32F3xx_HAL_Driver/Src/stm32f3xx_hal_rtc_ex.c ****   */
 684:Drivers/STM32F3xx_HAL_Driver/Src/stm32f3xx_hal_rtc_ex.c **** HAL_StatusTypeDef HAL_RTCEx_PollForTamper2Event(RTC_HandleTypeDef *hrtc, uint32_t Timeout)
 685:Drivers/STM32F3xx_HAL_Driver/Src/stm32f3xx_hal_rtc_ex.c **** {
 1297              		.loc 1 685 1 is_stmt 1 view -0
 1298              		.cfi_startproc
 1299              		@ args = 0, pretend = 0, frame = 0
 1300              		@ frame_needed = 0, uses_anonymous_args = 0
 1301              		.loc 1 685 1 is_stmt 0 view .LVU433
 1302 0000 70B5     		push	{r4, r5, r6, lr}
 1303              	.LCFI14:
 1304              		.cfi_def_cfa_offset 16
 1305              		.cfi_offset 4, -16
 1306              		.cfi_offset 5, -12
 1307              		.cfi_offset 6, -8
 1308              		.cfi_offset 14, -4
 1309 0002 0446     		mov	r4, r0
 1310 0004 0D46     		mov	r5, r1
 686:Drivers/STM32F3xx_HAL_Driver/Src/stm32f3xx_hal_rtc_ex.c ****   uint32_t tickstart = HAL_GetTick();
 1311              		.loc 1 686 3 is_stmt 1 view .LVU434
 1312              		.loc 1 686 24 is_stmt 0 view .LVU435
 1313 0006 FFF7FEFF 		bl	HAL_GetTick
 1314              	.LVL80:
 1315              		.loc 1 686 24 view .LVU436
ARM GAS  /var/folders/jw/jcj5j9_530958b2rm5vp9wn00000gn/T//ccckkuva.s 			page 37


 1316 000a 0646     		mov	r6, r0
 1317              	.LVL81:
 687:Drivers/STM32F3xx_HAL_Driver/Src/stm32f3xx_hal_rtc_ex.c **** 
 688:Drivers/STM32F3xx_HAL_Driver/Src/stm32f3xx_hal_rtc_ex.c ****   /* Get the status of the Interrupt */
 689:Drivers/STM32F3xx_HAL_Driver/Src/stm32f3xx_hal_rtc_ex.c ****   while (__HAL_RTC_TAMPER_GET_FLAG(hrtc, RTC_FLAG_TAMP2F) == RESET)
 1318              		.loc 1 689 3 is_stmt 1 view .LVU437
 1319              	.L85:
 1320              		.loc 1 689 9 view .LVU438
 1321              		.loc 1 689 10 is_stmt 0 view .LVU439
 1322 000c 2368     		ldr	r3, [r4]
 1323 000e DA68     		ldr	r2, [r3, #12]
 1324              		.loc 1 689 9 view .LVU440
 1325 0010 12F4804F 		tst	r2, #16384
 1326 0014 0BD1     		bne	.L90
 690:Drivers/STM32F3xx_HAL_Driver/Src/stm32f3xx_hal_rtc_ex.c ****   {
 691:Drivers/STM32F3xx_HAL_Driver/Src/stm32f3xx_hal_rtc_ex.c ****     if (Timeout != HAL_MAX_DELAY)
 1327              		.loc 1 691 5 is_stmt 1 view .LVU441
 1328              		.loc 1 691 8 is_stmt 0 view .LVU442
 1329 0016 B5F1FF3F 		cmp	r5, #-1
 1330 001a F7D0     		beq	.L85
 692:Drivers/STM32F3xx_HAL_Driver/Src/stm32f3xx_hal_rtc_ex.c ****     {
 693:Drivers/STM32F3xx_HAL_Driver/Src/stm32f3xx_hal_rtc_ex.c ****       if ((Timeout == 0U) || ((HAL_GetTick() - tickstart) > Timeout))
 1331              		.loc 1 693 7 is_stmt 1 view .LVU443
 1332              		.loc 1 693 10 is_stmt 0 view .LVU444
 1333 001c 25B1     		cbz	r5, .L86
 1334              		.loc 1 693 32 discriminator 1 view .LVU445
 1335 001e FFF7FEFF 		bl	HAL_GetTick
 1336              	.LVL82:
 1337              		.loc 1 693 46 discriminator 1 view .LVU446
 1338 0022 801B     		subs	r0, r0, r6
 1339              		.loc 1 693 27 discriminator 1 view .LVU447
 1340 0024 A842     		cmp	r0, r5
 1341 0026 F1D9     		bls	.L85
 1342              	.L86:
 694:Drivers/STM32F3xx_HAL_Driver/Src/stm32f3xx_hal_rtc_ex.c ****       {
 695:Drivers/STM32F3xx_HAL_Driver/Src/stm32f3xx_hal_rtc_ex.c ****         hrtc->State = HAL_RTC_STATE_TIMEOUT;
 1343              		.loc 1 695 9 is_stmt 1 view .LVU448
 1344              		.loc 1 695 21 is_stmt 0 view .LVU449
 1345 0028 0320     		movs	r0, #3
 1346 002a 6077     		strb	r0, [r4, #29]
 696:Drivers/STM32F3xx_HAL_Driver/Src/stm32f3xx_hal_rtc_ex.c ****         return HAL_TIMEOUT;
 1347              		.loc 1 696 9 is_stmt 1 view .LVU450
 1348              		.loc 1 696 16 is_stmt 0 view .LVU451
 1349 002c 07E0     		b	.L87
 1350              	.L90:
 697:Drivers/STM32F3xx_HAL_Driver/Src/stm32f3xx_hal_rtc_ex.c ****       }
 698:Drivers/STM32F3xx_HAL_Driver/Src/stm32f3xx_hal_rtc_ex.c ****     }
 699:Drivers/STM32F3xx_HAL_Driver/Src/stm32f3xx_hal_rtc_ex.c ****   }
 700:Drivers/STM32F3xx_HAL_Driver/Src/stm32f3xx_hal_rtc_ex.c **** 
 701:Drivers/STM32F3xx_HAL_Driver/Src/stm32f3xx_hal_rtc_ex.c ****   /* Clear the Tamper Flag */
 702:Drivers/STM32F3xx_HAL_Driver/Src/stm32f3xx_hal_rtc_ex.c ****   __HAL_RTC_TAMPER_CLEAR_FLAG(hrtc, RTC_FLAG_TAMP2F);
 1351              		.loc 1 702 3 is_stmt 1 view .LVU452
 1352 002e DA68     		ldr	r2, [r3, #12]
 1353 0030 D2B2     		uxtb	r2, r2
 1354 0032 62F48142 		orn	r2, r2, #16512
 1355 0036 DA60     		str	r2, [r3, #12]
 703:Drivers/STM32F3xx_HAL_Driver/Src/stm32f3xx_hal_rtc_ex.c **** 
ARM GAS  /var/folders/jw/jcj5j9_530958b2rm5vp9wn00000gn/T//ccckkuva.s 			page 38


 704:Drivers/STM32F3xx_HAL_Driver/Src/stm32f3xx_hal_rtc_ex.c ****   /* Change RTC state */
 705:Drivers/STM32F3xx_HAL_Driver/Src/stm32f3xx_hal_rtc_ex.c ****   hrtc->State = HAL_RTC_STATE_READY;
 1356              		.loc 1 705 3 view .LVU453
 1357              		.loc 1 705 15 is_stmt 0 view .LVU454
 1358 0038 0123     		movs	r3, #1
 1359 003a 6377     		strb	r3, [r4, #29]
 706:Drivers/STM32F3xx_HAL_Driver/Src/stm32f3xx_hal_rtc_ex.c **** 
 707:Drivers/STM32F3xx_HAL_Driver/Src/stm32f3xx_hal_rtc_ex.c ****   return HAL_OK;
 1360              		.loc 1 707 3 is_stmt 1 view .LVU455
 1361              		.loc 1 707 10 is_stmt 0 view .LVU456
 1362 003c 0020     		movs	r0, #0
 1363              	.L87:
 708:Drivers/STM32F3xx_HAL_Driver/Src/stm32f3xx_hal_rtc_ex.c **** }
 1364              		.loc 1 708 1 view .LVU457
 1365 003e 70BD     		pop	{r4, r5, r6, pc}
 1366              		.loc 1 708 1 view .LVU458
 1367              		.cfi_endproc
 1368              	.LFE144:
 1370              		.section	.text.HAL_RTCEx_PollForTamper3Event,"ax",%progbits
 1371              		.align	1
 1372              		.global	HAL_RTCEx_PollForTamper3Event
 1373              		.syntax unified
 1374              		.thumb
 1375              		.thumb_func
 1376              		.fpu fpv4-sp-d16
 1378              	HAL_RTCEx_PollForTamper3Event:
 1379              	.LVL83:
 1380              	.LFB145:
 709:Drivers/STM32F3xx_HAL_Driver/Src/stm32f3xx_hal_rtc_ex.c **** 
 710:Drivers/STM32F3xx_HAL_Driver/Src/stm32f3xx_hal_rtc_ex.c **** #if defined(RTC_TAMPER3_SUPPORT)
 711:Drivers/STM32F3xx_HAL_Driver/Src/stm32f3xx_hal_rtc_ex.c **** /**
 712:Drivers/STM32F3xx_HAL_Driver/Src/stm32f3xx_hal_rtc_ex.c ****   * @brief  Handle Tamper 3 Polling.
 713:Drivers/STM32F3xx_HAL_Driver/Src/stm32f3xx_hal_rtc_ex.c ****   * @param  hrtc RTC handle
 714:Drivers/STM32F3xx_HAL_Driver/Src/stm32f3xx_hal_rtc_ex.c ****   * @param  Timeout Timeout duration
 715:Drivers/STM32F3xx_HAL_Driver/Src/stm32f3xx_hal_rtc_ex.c ****   * @retval HAL status
 716:Drivers/STM32F3xx_HAL_Driver/Src/stm32f3xx_hal_rtc_ex.c ****   */
 717:Drivers/STM32F3xx_HAL_Driver/Src/stm32f3xx_hal_rtc_ex.c **** HAL_StatusTypeDef HAL_RTCEx_PollForTamper3Event(RTC_HandleTypeDef *hrtc, uint32_t Timeout)
 718:Drivers/STM32F3xx_HAL_Driver/Src/stm32f3xx_hal_rtc_ex.c **** {
 1381              		.loc 1 718 1 is_stmt 1 view -0
 1382              		.cfi_startproc
 1383              		@ args = 0, pretend = 0, frame = 0
 1384              		@ frame_needed = 0, uses_anonymous_args = 0
 1385              		.loc 1 718 1 is_stmt 0 view .LVU460
 1386 0000 70B5     		push	{r4, r5, r6, lr}
 1387              	.LCFI15:
 1388              		.cfi_def_cfa_offset 16
 1389              		.cfi_offset 4, -16
 1390              		.cfi_offset 5, -12
 1391              		.cfi_offset 6, -8
 1392              		.cfi_offset 14, -4
 1393 0002 0446     		mov	r4, r0
 1394 0004 0D46     		mov	r5, r1
 719:Drivers/STM32F3xx_HAL_Driver/Src/stm32f3xx_hal_rtc_ex.c ****   uint32_t tickstart = HAL_GetTick();
 1395              		.loc 1 719 3 is_stmt 1 view .LVU461
 1396              		.loc 1 719 24 is_stmt 0 view .LVU462
 1397 0006 FFF7FEFF 		bl	HAL_GetTick
 1398              	.LVL84:
ARM GAS  /var/folders/jw/jcj5j9_530958b2rm5vp9wn00000gn/T//ccckkuva.s 			page 39


 1399              		.loc 1 719 24 view .LVU463
 1400 000a 0646     		mov	r6, r0
 1401              	.LVL85:
 720:Drivers/STM32F3xx_HAL_Driver/Src/stm32f3xx_hal_rtc_ex.c **** 
 721:Drivers/STM32F3xx_HAL_Driver/Src/stm32f3xx_hal_rtc_ex.c ****   /* Get the status of the Interrupt */
 722:Drivers/STM32F3xx_HAL_Driver/Src/stm32f3xx_hal_rtc_ex.c ****   while (__HAL_RTC_TAMPER_GET_FLAG(hrtc, RTC_FLAG_TAMP3F) == RESET)
 1402              		.loc 1 722 3 is_stmt 1 view .LVU464
 1403              	.L93:
 1404              		.loc 1 722 9 view .LVU465
 1405              		.loc 1 722 10 is_stmt 0 view .LVU466
 1406 000c 2368     		ldr	r3, [r4]
 1407 000e DA68     		ldr	r2, [r3, #12]
 1408              		.loc 1 722 9 view .LVU467
 1409 0010 12F4004F 		tst	r2, #32768
 1410 0014 0BD1     		bne	.L98
 723:Drivers/STM32F3xx_HAL_Driver/Src/stm32f3xx_hal_rtc_ex.c ****   {
 724:Drivers/STM32F3xx_HAL_Driver/Src/stm32f3xx_hal_rtc_ex.c ****     if (Timeout != HAL_MAX_DELAY)
 1411              		.loc 1 724 5 is_stmt 1 view .LVU468
 1412              		.loc 1 724 8 is_stmt 0 view .LVU469
 1413 0016 B5F1FF3F 		cmp	r5, #-1
 1414 001a F7D0     		beq	.L93
 725:Drivers/STM32F3xx_HAL_Driver/Src/stm32f3xx_hal_rtc_ex.c ****     {
 726:Drivers/STM32F3xx_HAL_Driver/Src/stm32f3xx_hal_rtc_ex.c ****       if ((Timeout == 0U) || ((HAL_GetTick() - tickstart) > Timeout))
 1415              		.loc 1 726 7 is_stmt 1 view .LVU470
 1416              		.loc 1 726 10 is_stmt 0 view .LVU471
 1417 001c 25B1     		cbz	r5, .L94
 1418              		.loc 1 726 32 discriminator 1 view .LVU472
 1419 001e FFF7FEFF 		bl	HAL_GetTick
 1420              	.LVL86:
 1421              		.loc 1 726 46 discriminator 1 view .LVU473
 1422 0022 801B     		subs	r0, r0, r6
 1423              		.loc 1 726 27 discriminator 1 view .LVU474
 1424 0024 A842     		cmp	r0, r5
 1425 0026 F1D9     		bls	.L93
 1426              	.L94:
 727:Drivers/STM32F3xx_HAL_Driver/Src/stm32f3xx_hal_rtc_ex.c ****       {
 728:Drivers/STM32F3xx_HAL_Driver/Src/stm32f3xx_hal_rtc_ex.c ****         hrtc->State = HAL_RTC_STATE_TIMEOUT;
 1427              		.loc 1 728 9 is_stmt 1 view .LVU475
 1428              		.loc 1 728 21 is_stmt 0 view .LVU476
 1429 0028 0320     		movs	r0, #3
 1430 002a 6077     		strb	r0, [r4, #29]
 729:Drivers/STM32F3xx_HAL_Driver/Src/stm32f3xx_hal_rtc_ex.c ****         return HAL_TIMEOUT;
 1431              		.loc 1 729 9 is_stmt 1 view .LVU477
 1432              		.loc 1 729 16 is_stmt 0 view .LVU478
 1433 002c 0DE0     		b	.L95
 1434              	.L98:
 730:Drivers/STM32F3xx_HAL_Driver/Src/stm32f3xx_hal_rtc_ex.c ****       }
 731:Drivers/STM32F3xx_HAL_Driver/Src/stm32f3xx_hal_rtc_ex.c ****     }
 732:Drivers/STM32F3xx_HAL_Driver/Src/stm32f3xx_hal_rtc_ex.c ****   }
 733:Drivers/STM32F3xx_HAL_Driver/Src/stm32f3xx_hal_rtc_ex.c **** 
 734:Drivers/STM32F3xx_HAL_Driver/Src/stm32f3xx_hal_rtc_ex.c ****   /* Clear the Tamper Flag */
 735:Drivers/STM32F3xx_HAL_Driver/Src/stm32f3xx_hal_rtc_ex.c ****   __HAL_RTC_TAMPER_CLEAR_FLAG(hrtc, RTC_FLAG_TAMP3F);
 1435              		.loc 1 735 3 is_stmt 1 view .LVU479
 1436 002e DA68     		ldr	r2, [r3, #12]
 1437 0030 D2B2     		uxtb	r2, r2
 1438 0032 42F07F42 		orr	r2, r2, #-16777216
 1439 0036 42F47F02 		orr	r2, r2, #16711680
ARM GAS  /var/folders/jw/jcj5j9_530958b2rm5vp9wn00000gn/T//ccckkuva.s 			page 40


 1440 003a 42F4FE42 		orr	r2, r2, #32512
 1441 003e 42F07F02 		orr	r2, r2, #127
 1442 0042 DA60     		str	r2, [r3, #12]
 736:Drivers/STM32F3xx_HAL_Driver/Src/stm32f3xx_hal_rtc_ex.c **** 
 737:Drivers/STM32F3xx_HAL_Driver/Src/stm32f3xx_hal_rtc_ex.c ****   /* Change RTC state */
 738:Drivers/STM32F3xx_HAL_Driver/Src/stm32f3xx_hal_rtc_ex.c ****   hrtc->State = HAL_RTC_STATE_READY;
 1443              		.loc 1 738 3 view .LVU480
 1444              		.loc 1 738 15 is_stmt 0 view .LVU481
 1445 0044 0123     		movs	r3, #1
 1446 0046 6377     		strb	r3, [r4, #29]
 739:Drivers/STM32F3xx_HAL_Driver/Src/stm32f3xx_hal_rtc_ex.c **** 
 740:Drivers/STM32F3xx_HAL_Driver/Src/stm32f3xx_hal_rtc_ex.c ****   return HAL_OK;
 1447              		.loc 1 740 3 is_stmt 1 view .LVU482
 1448              		.loc 1 740 10 is_stmt 0 view .LVU483
 1449 0048 0020     		movs	r0, #0
 1450              	.L95:
 741:Drivers/STM32F3xx_HAL_Driver/Src/stm32f3xx_hal_rtc_ex.c **** }
 1451              		.loc 1 741 1 view .LVU484
 1452 004a 70BD     		pop	{r4, r5, r6, pc}
 1453              		.loc 1 741 1 view .LVU485
 1454              		.cfi_endproc
 1455              	.LFE145:
 1457              		.section	.text.HAL_RTCEx_SetWakeUpTimer,"ax",%progbits
 1458              		.align	1
 1459              		.global	HAL_RTCEx_SetWakeUpTimer
 1460              		.syntax unified
 1461              		.thumb
 1462              		.thumb_func
 1463              		.fpu fpv4-sp-d16
 1465              	HAL_RTCEx_SetWakeUpTimer:
 1466              	.LVL87:
 1467              	.LFB146:
 742:Drivers/STM32F3xx_HAL_Driver/Src/stm32f3xx_hal_rtc_ex.c **** #endif /* RTC_TAMPER3_SUPPORT */
 743:Drivers/STM32F3xx_HAL_Driver/Src/stm32f3xx_hal_rtc_ex.c **** 
 744:Drivers/STM32F3xx_HAL_Driver/Src/stm32f3xx_hal_rtc_ex.c **** /**
 745:Drivers/STM32F3xx_HAL_Driver/Src/stm32f3xx_hal_rtc_ex.c ****   * @}
 746:Drivers/STM32F3xx_HAL_Driver/Src/stm32f3xx_hal_rtc_ex.c ****   */
 747:Drivers/STM32F3xx_HAL_Driver/Src/stm32f3xx_hal_rtc_ex.c **** 
 748:Drivers/STM32F3xx_HAL_Driver/Src/stm32f3xx_hal_rtc_ex.c **** /** @addtogroup RTCEx_Exported_Functions_Group2
 749:Drivers/STM32F3xx_HAL_Driver/Src/stm32f3xx_hal_rtc_ex.c ****   * @brief    RTC Wake-up functions
 750:Drivers/STM32F3xx_HAL_Driver/Src/stm32f3xx_hal_rtc_ex.c ****   *
 751:Drivers/STM32F3xx_HAL_Driver/Src/stm32f3xx_hal_rtc_ex.c **** @verbatim
 752:Drivers/STM32F3xx_HAL_Driver/Src/stm32f3xx_hal_rtc_ex.c ****  ===============================================================================
 753:Drivers/STM32F3xx_HAL_Driver/Src/stm32f3xx_hal_rtc_ex.c ****                         ##### RTC Wake-up functions #####
 754:Drivers/STM32F3xx_HAL_Driver/Src/stm32f3xx_hal_rtc_ex.c ****  ===============================================================================
 755:Drivers/STM32F3xx_HAL_Driver/Src/stm32f3xx_hal_rtc_ex.c **** 
 756:Drivers/STM32F3xx_HAL_Driver/Src/stm32f3xx_hal_rtc_ex.c ****  [..] This section provides functions allowing to configure Wake-up feature
 757:Drivers/STM32F3xx_HAL_Driver/Src/stm32f3xx_hal_rtc_ex.c **** 
 758:Drivers/STM32F3xx_HAL_Driver/Src/stm32f3xx_hal_rtc_ex.c **** @endverbatim
 759:Drivers/STM32F3xx_HAL_Driver/Src/stm32f3xx_hal_rtc_ex.c ****   * @{
 760:Drivers/STM32F3xx_HAL_Driver/Src/stm32f3xx_hal_rtc_ex.c ****   */
 761:Drivers/STM32F3xx_HAL_Driver/Src/stm32f3xx_hal_rtc_ex.c **** 
 762:Drivers/STM32F3xx_HAL_Driver/Src/stm32f3xx_hal_rtc_ex.c **** /**
 763:Drivers/STM32F3xx_HAL_Driver/Src/stm32f3xx_hal_rtc_ex.c ****   * @brief  Set wake up timer.
 764:Drivers/STM32F3xx_HAL_Driver/Src/stm32f3xx_hal_rtc_ex.c ****   * @param  hrtc RTC handle
 765:Drivers/STM32F3xx_HAL_Driver/Src/stm32f3xx_hal_rtc_ex.c ****   * @param  WakeUpCounter Wake up counter
 766:Drivers/STM32F3xx_HAL_Driver/Src/stm32f3xx_hal_rtc_ex.c ****   * @param  WakeUpClock Wake up clock
ARM GAS  /var/folders/jw/jcj5j9_530958b2rm5vp9wn00000gn/T//ccckkuva.s 			page 41


 767:Drivers/STM32F3xx_HAL_Driver/Src/stm32f3xx_hal_rtc_ex.c ****   * @retval HAL status
 768:Drivers/STM32F3xx_HAL_Driver/Src/stm32f3xx_hal_rtc_ex.c ****   */
 769:Drivers/STM32F3xx_HAL_Driver/Src/stm32f3xx_hal_rtc_ex.c **** HAL_StatusTypeDef HAL_RTCEx_SetWakeUpTimer(RTC_HandleTypeDef *hrtc, uint32_t WakeUpCounter, uint32_
 770:Drivers/STM32F3xx_HAL_Driver/Src/stm32f3xx_hal_rtc_ex.c **** {
 1468              		.loc 1 770 1 is_stmt 1 view -0
 1469              		.cfi_startproc
 1470              		@ args = 0, pretend = 0, frame = 0
 1471              		@ frame_needed = 0, uses_anonymous_args = 0
 1472              		.loc 1 770 1 is_stmt 0 view .LVU487
 1473 0000 F8B5     		push	{r3, r4, r5, r6, r7, lr}
 1474              	.LCFI16:
 1475              		.cfi_def_cfa_offset 24
 1476              		.cfi_offset 3, -24
 1477              		.cfi_offset 4, -20
 1478              		.cfi_offset 5, -16
 1479              		.cfi_offset 6, -12
 1480              		.cfi_offset 7, -8
 1481              		.cfi_offset 14, -4
 771:Drivers/STM32F3xx_HAL_Driver/Src/stm32f3xx_hal_rtc_ex.c ****   uint32_t tickstart = 0U;
 1482              		.loc 1 771 3 is_stmt 1 view .LVU488
 1483              	.LVL88:
 772:Drivers/STM32F3xx_HAL_Driver/Src/stm32f3xx_hal_rtc_ex.c **** 
 773:Drivers/STM32F3xx_HAL_Driver/Src/stm32f3xx_hal_rtc_ex.c ****   /* Check the parameters */
 774:Drivers/STM32F3xx_HAL_Driver/Src/stm32f3xx_hal_rtc_ex.c ****   assert_param(IS_RTC_WAKEUP_CLOCK(WakeUpClock));
 1484              		.loc 1 774 3 view .LVU489
 775:Drivers/STM32F3xx_HAL_Driver/Src/stm32f3xx_hal_rtc_ex.c ****   assert_param(IS_RTC_WAKEUP_COUNTER(WakeUpCounter));
 1485              		.loc 1 775 3 view .LVU490
 776:Drivers/STM32F3xx_HAL_Driver/Src/stm32f3xx_hal_rtc_ex.c **** 
 777:Drivers/STM32F3xx_HAL_Driver/Src/stm32f3xx_hal_rtc_ex.c ****   /* Process Locked */
 778:Drivers/STM32F3xx_HAL_Driver/Src/stm32f3xx_hal_rtc_ex.c ****   __HAL_LOCK(hrtc);
 1486              		.loc 1 778 3 view .LVU491
 1487              		.loc 1 778 3 view .LVU492
 1488 0002 037F     		ldrb	r3, [r0, #28]	@ zero_extendqisi2
 1489 0004 012B     		cmp	r3, #1
 1490 0006 59D0     		beq	.L106
 1491 0008 0446     		mov	r4, r0
 1492 000a 0D46     		mov	r5, r1
 1493 000c 1646     		mov	r6, r2
 1494              		.loc 1 778 3 discriminator 2 view .LVU493
 1495 000e 0123     		movs	r3, #1
 1496 0010 0377     		strb	r3, [r0, #28]
 1497              		.loc 1 778 3 discriminator 2 view .LVU494
 779:Drivers/STM32F3xx_HAL_Driver/Src/stm32f3xx_hal_rtc_ex.c **** 
 780:Drivers/STM32F3xx_HAL_Driver/Src/stm32f3xx_hal_rtc_ex.c ****   hrtc->State = HAL_RTC_STATE_BUSY;
 1498              		.loc 1 780 3 discriminator 2 view .LVU495
 1499              		.loc 1 780 15 is_stmt 0 discriminator 2 view .LVU496
 1500 0012 0223     		movs	r3, #2
 1501 0014 4377     		strb	r3, [r0, #29]
 781:Drivers/STM32F3xx_HAL_Driver/Src/stm32f3xx_hal_rtc_ex.c **** 
 782:Drivers/STM32F3xx_HAL_Driver/Src/stm32f3xx_hal_rtc_ex.c ****   /* Disable the write protection for RTC registers */
 783:Drivers/STM32F3xx_HAL_Driver/Src/stm32f3xx_hal_rtc_ex.c ****   __HAL_RTC_WRITEPROTECTION_DISABLE(hrtc);
 1502              		.loc 1 783 3 is_stmt 1 discriminator 2 view .LVU497
 1503              		.loc 1 783 3 discriminator 2 view .LVU498
 1504 0016 0368     		ldr	r3, [r0]
 1505 0018 CA22     		movs	r2, #202
 1506              	.LVL89:
 1507              		.loc 1 783 3 is_stmt 0 discriminator 2 view .LVU499
ARM GAS  /var/folders/jw/jcj5j9_530958b2rm5vp9wn00000gn/T//ccckkuva.s 			page 42


 1508 001a 5A62     		str	r2, [r3, #36]
 1509              		.loc 1 783 3 is_stmt 1 discriminator 2 view .LVU500
 1510 001c 0368     		ldr	r3, [r0]
 1511 001e 5322     		movs	r2, #83
 1512 0020 5A62     		str	r2, [r3, #36]
 1513              		.loc 1 783 3 discriminator 2 view .LVU501
 784:Drivers/STM32F3xx_HAL_Driver/Src/stm32f3xx_hal_rtc_ex.c **** 
 785:Drivers/STM32F3xx_HAL_Driver/Src/stm32f3xx_hal_rtc_ex.c ****   /*Check RTC WUTWF flag is reset only when wake up timer enabled*/
 786:Drivers/STM32F3xx_HAL_Driver/Src/stm32f3xx_hal_rtc_ex.c ****   if ((hrtc->Instance->CR & RTC_CR_WUTE) != RESET)
 1514              		.loc 1 786 3 discriminator 2 view .LVU502
 1515              		.loc 1 786 12 is_stmt 0 discriminator 2 view .LVU503
 1516 0022 0368     		ldr	r3, [r0]
 1517              		.loc 1 786 22 discriminator 2 view .LVU504
 1518 0024 9B68     		ldr	r3, [r3, #8]
 1519              		.loc 1 786 6 discriminator 2 view .LVU505
 1520 0026 13F4806F 		tst	r3, #1024
 1521 002a 15D0     		beq	.L101
 787:Drivers/STM32F3xx_HAL_Driver/Src/stm32f3xx_hal_rtc_ex.c ****   {
 788:Drivers/STM32F3xx_HAL_Driver/Src/stm32f3xx_hal_rtc_ex.c ****     tickstart = HAL_GetTick();
 1522              		.loc 1 788 5 is_stmt 1 view .LVU506
 1523              		.loc 1 788 17 is_stmt 0 view .LVU507
 1524 002c FFF7FEFF 		bl	HAL_GetTick
 1525              	.LVL90:
 1526              		.loc 1 788 17 view .LVU508
 1527 0030 0746     		mov	r7, r0
 1528              	.LVL91:
 789:Drivers/STM32F3xx_HAL_Driver/Src/stm32f3xx_hal_rtc_ex.c **** 
 790:Drivers/STM32F3xx_HAL_Driver/Src/stm32f3xx_hal_rtc_ex.c ****     /* Wait till RTC WUTWF flag is reset and if Time out is reached exit */
 791:Drivers/STM32F3xx_HAL_Driver/Src/stm32f3xx_hal_rtc_ex.c ****     while (__HAL_RTC_WAKEUPTIMER_GET_FLAG(hrtc, RTC_FLAG_WUTWF) == SET)
 1529              		.loc 1 791 5 is_stmt 1 view .LVU509
 1530              	.L102:
 1531              		.loc 1 791 11 view .LVU510
 1532              		.loc 1 791 12 is_stmt 0 view .LVU511
 1533 0032 2368     		ldr	r3, [r4]
 1534 0034 DB68     		ldr	r3, [r3, #12]
 1535              		.loc 1 791 11 view .LVU512
 1536 0036 13F0040F 		tst	r3, #4
 1537 003a 0DD0     		beq	.L101
 792:Drivers/STM32F3xx_HAL_Driver/Src/stm32f3xx_hal_rtc_ex.c ****     {
 793:Drivers/STM32F3xx_HAL_Driver/Src/stm32f3xx_hal_rtc_ex.c ****       if ((HAL_GetTick() - tickstart) > RTC_TIMEOUT_VALUE)
 1538              		.loc 1 793 7 is_stmt 1 view .LVU513
 1539              		.loc 1 793 12 is_stmt 0 view .LVU514
 1540 003c FFF7FEFF 		bl	HAL_GetTick
 1541              	.LVL92:
 1542              		.loc 1 793 26 view .LVU515
 1543 0040 C01B     		subs	r0, r0, r7
 1544              		.loc 1 793 10 view .LVU516
 1545 0042 B0F57A7F 		cmp	r0, #1000
 1546 0046 F4D9     		bls	.L102
 794:Drivers/STM32F3xx_HAL_Driver/Src/stm32f3xx_hal_rtc_ex.c ****       {
 795:Drivers/STM32F3xx_HAL_Driver/Src/stm32f3xx_hal_rtc_ex.c ****         /* Enable the write protection for RTC registers */
 796:Drivers/STM32F3xx_HAL_Driver/Src/stm32f3xx_hal_rtc_ex.c ****         __HAL_RTC_WRITEPROTECTION_ENABLE(hrtc);
 1547              		.loc 1 796 9 is_stmt 1 view .LVU517
 1548              		.loc 1 796 9 view .LVU518
 1549 0048 2368     		ldr	r3, [r4]
 1550 004a FF22     		movs	r2, #255
 1551 004c 5A62     		str	r2, [r3, #36]
ARM GAS  /var/folders/jw/jcj5j9_530958b2rm5vp9wn00000gn/T//ccckkuva.s 			page 43


 1552              		.loc 1 796 9 view .LVU519
 797:Drivers/STM32F3xx_HAL_Driver/Src/stm32f3xx_hal_rtc_ex.c **** 
 798:Drivers/STM32F3xx_HAL_Driver/Src/stm32f3xx_hal_rtc_ex.c ****         hrtc->State = HAL_RTC_STATE_TIMEOUT;
 1553              		.loc 1 798 9 view .LVU520
 1554              		.loc 1 798 21 is_stmt 0 view .LVU521
 1555 004e 0320     		movs	r0, #3
 1556 0050 6077     		strb	r0, [r4, #29]
 799:Drivers/STM32F3xx_HAL_Driver/Src/stm32f3xx_hal_rtc_ex.c **** 
 800:Drivers/STM32F3xx_HAL_Driver/Src/stm32f3xx_hal_rtc_ex.c ****         /* Process Unlocked */
 801:Drivers/STM32F3xx_HAL_Driver/Src/stm32f3xx_hal_rtc_ex.c ****         __HAL_UNLOCK(hrtc);
 1557              		.loc 1 801 9 is_stmt 1 view .LVU522
 1558              		.loc 1 801 9 view .LVU523
 1559 0052 0023     		movs	r3, #0
 1560 0054 2377     		strb	r3, [r4, #28]
 1561              		.loc 1 801 9 view .LVU524
 802:Drivers/STM32F3xx_HAL_Driver/Src/stm32f3xx_hal_rtc_ex.c **** 
 803:Drivers/STM32F3xx_HAL_Driver/Src/stm32f3xx_hal_rtc_ex.c ****         return HAL_TIMEOUT;
 1562              		.loc 1 803 9 view .LVU525
 1563              		.loc 1 803 16 is_stmt 0 view .LVU526
 1564 0056 30E0     		b	.L100
 1565              	.LVL93:
 1566              	.L101:
 804:Drivers/STM32F3xx_HAL_Driver/Src/stm32f3xx_hal_rtc_ex.c ****       }
 805:Drivers/STM32F3xx_HAL_Driver/Src/stm32f3xx_hal_rtc_ex.c ****     }
 806:Drivers/STM32F3xx_HAL_Driver/Src/stm32f3xx_hal_rtc_ex.c ****   }
 807:Drivers/STM32F3xx_HAL_Driver/Src/stm32f3xx_hal_rtc_ex.c **** 
 808:Drivers/STM32F3xx_HAL_Driver/Src/stm32f3xx_hal_rtc_ex.c ****   __HAL_RTC_WAKEUPTIMER_DISABLE(hrtc);
 1567              		.loc 1 808 3 is_stmt 1 view .LVU527
 1568 0058 2268     		ldr	r2, [r4]
 1569 005a 9368     		ldr	r3, [r2, #8]
 1570 005c 23F48063 		bic	r3, r3, #1024
 1571 0060 9360     		str	r3, [r2, #8]
 809:Drivers/STM32F3xx_HAL_Driver/Src/stm32f3xx_hal_rtc_ex.c **** 
 810:Drivers/STM32F3xx_HAL_Driver/Src/stm32f3xx_hal_rtc_ex.c ****   tickstart = HAL_GetTick();
 1572              		.loc 1 810 3 view .LVU528
 1573              		.loc 1 810 15 is_stmt 0 view .LVU529
 1574 0062 FFF7FEFF 		bl	HAL_GetTick
 1575              	.LVL94:
 1576 0066 0746     		mov	r7, r0
 1577              	.LVL95:
 811:Drivers/STM32F3xx_HAL_Driver/Src/stm32f3xx_hal_rtc_ex.c **** 
 812:Drivers/STM32F3xx_HAL_Driver/Src/stm32f3xx_hal_rtc_ex.c ****   /* Wait till RTC WUTWF flag is set and if Time out is reached exit */
 813:Drivers/STM32F3xx_HAL_Driver/Src/stm32f3xx_hal_rtc_ex.c ****   while (__HAL_RTC_WAKEUPTIMER_GET_FLAG(hrtc, RTC_FLAG_WUTWF) == RESET)
 1578              		.loc 1 813 3 is_stmt 1 view .LVU530
 1579              	.L104:
 1580              		.loc 1 813 9 view .LVU531
 1581              		.loc 1 813 10 is_stmt 0 view .LVU532
 1582 0068 2368     		ldr	r3, [r4]
 1583 006a DA68     		ldr	r2, [r3, #12]
 1584              		.loc 1 813 9 view .LVU533
 1585 006c 12F0040F 		tst	r2, #4
 1586 0070 0DD1     		bne	.L108
 814:Drivers/STM32F3xx_HAL_Driver/Src/stm32f3xx_hal_rtc_ex.c ****   {
 815:Drivers/STM32F3xx_HAL_Driver/Src/stm32f3xx_hal_rtc_ex.c ****     if ((HAL_GetTick() - tickstart) > RTC_TIMEOUT_VALUE)
 1587              		.loc 1 815 5 is_stmt 1 view .LVU534
 1588              		.loc 1 815 10 is_stmt 0 view .LVU535
 1589 0072 FFF7FEFF 		bl	HAL_GetTick
ARM GAS  /var/folders/jw/jcj5j9_530958b2rm5vp9wn00000gn/T//ccckkuva.s 			page 44


 1590              	.LVL96:
 1591              		.loc 1 815 24 view .LVU536
 1592 0076 C31B     		subs	r3, r0, r7
 1593              		.loc 1 815 8 view .LVU537
 1594 0078 B3F57A7F 		cmp	r3, #1000
 1595 007c F4D9     		bls	.L104
 816:Drivers/STM32F3xx_HAL_Driver/Src/stm32f3xx_hal_rtc_ex.c ****     {
 817:Drivers/STM32F3xx_HAL_Driver/Src/stm32f3xx_hal_rtc_ex.c ****       /* Enable the write protection for RTC registers */
 818:Drivers/STM32F3xx_HAL_Driver/Src/stm32f3xx_hal_rtc_ex.c ****       __HAL_RTC_WRITEPROTECTION_ENABLE(hrtc);
 1596              		.loc 1 818 7 is_stmt 1 view .LVU538
 1597              		.loc 1 818 7 view .LVU539
 1598 007e 2368     		ldr	r3, [r4]
 1599 0080 FF22     		movs	r2, #255
 1600 0082 5A62     		str	r2, [r3, #36]
 1601              		.loc 1 818 7 view .LVU540
 819:Drivers/STM32F3xx_HAL_Driver/Src/stm32f3xx_hal_rtc_ex.c **** 
 820:Drivers/STM32F3xx_HAL_Driver/Src/stm32f3xx_hal_rtc_ex.c ****       hrtc->State = HAL_RTC_STATE_TIMEOUT;
 1602              		.loc 1 820 7 view .LVU541
 1603              		.loc 1 820 19 is_stmt 0 view .LVU542
 1604 0084 0320     		movs	r0, #3
 1605 0086 6077     		strb	r0, [r4, #29]
 821:Drivers/STM32F3xx_HAL_Driver/Src/stm32f3xx_hal_rtc_ex.c **** 
 822:Drivers/STM32F3xx_HAL_Driver/Src/stm32f3xx_hal_rtc_ex.c ****       /* Process Unlocked */
 823:Drivers/STM32F3xx_HAL_Driver/Src/stm32f3xx_hal_rtc_ex.c ****       __HAL_UNLOCK(hrtc);
 1606              		.loc 1 823 7 is_stmt 1 view .LVU543
 1607              		.loc 1 823 7 view .LVU544
 1608 0088 0023     		movs	r3, #0
 1609 008a 2377     		strb	r3, [r4, #28]
 1610              		.loc 1 823 7 view .LVU545
 824:Drivers/STM32F3xx_HAL_Driver/Src/stm32f3xx_hal_rtc_ex.c **** 
 825:Drivers/STM32F3xx_HAL_Driver/Src/stm32f3xx_hal_rtc_ex.c ****       return HAL_TIMEOUT;
 1611              		.loc 1 825 7 view .LVU546
 1612              		.loc 1 825 14 is_stmt 0 view .LVU547
 1613 008c 15E0     		b	.L100
 1614              	.L108:
 826:Drivers/STM32F3xx_HAL_Driver/Src/stm32f3xx_hal_rtc_ex.c ****     }
 827:Drivers/STM32F3xx_HAL_Driver/Src/stm32f3xx_hal_rtc_ex.c ****   }
 828:Drivers/STM32F3xx_HAL_Driver/Src/stm32f3xx_hal_rtc_ex.c **** 
 829:Drivers/STM32F3xx_HAL_Driver/Src/stm32f3xx_hal_rtc_ex.c ****   /* Clear the Wakeup Timer clock source bits in CR register */
 830:Drivers/STM32F3xx_HAL_Driver/Src/stm32f3xx_hal_rtc_ex.c ****   hrtc->Instance->CR &= (uint32_t)~RTC_CR_WUCKSEL;
 1615              		.loc 1 830 3 is_stmt 1 view .LVU548
 1616              		.loc 1 830 22 is_stmt 0 view .LVU549
 1617 008e 9A68     		ldr	r2, [r3, #8]
 1618 0090 22F00702 		bic	r2, r2, #7
 1619 0094 9A60     		str	r2, [r3, #8]
 831:Drivers/STM32F3xx_HAL_Driver/Src/stm32f3xx_hal_rtc_ex.c **** 
 832:Drivers/STM32F3xx_HAL_Driver/Src/stm32f3xx_hal_rtc_ex.c ****   /* Configure the clock source */
 833:Drivers/STM32F3xx_HAL_Driver/Src/stm32f3xx_hal_rtc_ex.c ****   hrtc->Instance->CR |= (uint32_t)WakeUpClock;
 1620              		.loc 1 833 3 is_stmt 1 view .LVU550
 1621              		.loc 1 833 7 is_stmt 0 view .LVU551
 1622 0096 2268     		ldr	r2, [r4]
 1623              		.loc 1 833 22 view .LVU552
 1624 0098 9368     		ldr	r3, [r2, #8]
 1625 009a 1E43     		orrs	r6, r6, r3
 1626              	.LVL97:
 1627              		.loc 1 833 22 view .LVU553
 1628 009c 9660     		str	r6, [r2, #8]
ARM GAS  /var/folders/jw/jcj5j9_530958b2rm5vp9wn00000gn/T//ccckkuva.s 			page 45


 834:Drivers/STM32F3xx_HAL_Driver/Src/stm32f3xx_hal_rtc_ex.c **** 
 835:Drivers/STM32F3xx_HAL_Driver/Src/stm32f3xx_hal_rtc_ex.c ****   /* Configure the Wakeup Timer counter */
 836:Drivers/STM32F3xx_HAL_Driver/Src/stm32f3xx_hal_rtc_ex.c ****   hrtc->Instance->WUTR = (uint32_t)WakeUpCounter;
 1629              		.loc 1 836 3 is_stmt 1 view .LVU554
 1630              		.loc 1 836 7 is_stmt 0 view .LVU555
 1631 009e 2368     		ldr	r3, [r4]
 1632              		.loc 1 836 24 view .LVU556
 1633 00a0 5D61     		str	r5, [r3, #20]
 837:Drivers/STM32F3xx_HAL_Driver/Src/stm32f3xx_hal_rtc_ex.c **** 
 838:Drivers/STM32F3xx_HAL_Driver/Src/stm32f3xx_hal_rtc_ex.c ****   /* Enable the Wakeup Timer */
 839:Drivers/STM32F3xx_HAL_Driver/Src/stm32f3xx_hal_rtc_ex.c ****   __HAL_RTC_WAKEUPTIMER_ENABLE(hrtc);
 1634              		.loc 1 839 3 is_stmt 1 view .LVU557
 1635 00a2 2268     		ldr	r2, [r4]
 1636 00a4 9368     		ldr	r3, [r2, #8]
 1637 00a6 43F48063 		orr	r3, r3, #1024
 1638 00aa 9360     		str	r3, [r2, #8]
 840:Drivers/STM32F3xx_HAL_Driver/Src/stm32f3xx_hal_rtc_ex.c **** 
 841:Drivers/STM32F3xx_HAL_Driver/Src/stm32f3xx_hal_rtc_ex.c ****   /* Enable the write protection for RTC registers */
 842:Drivers/STM32F3xx_HAL_Driver/Src/stm32f3xx_hal_rtc_ex.c ****   __HAL_RTC_WRITEPROTECTION_ENABLE(hrtc);
 1639              		.loc 1 842 3 view .LVU558
 1640              		.loc 1 842 3 view .LVU559
 1641 00ac 2368     		ldr	r3, [r4]
 1642 00ae FF22     		movs	r2, #255
 1643 00b0 5A62     		str	r2, [r3, #36]
 1644              		.loc 1 842 3 view .LVU560
 843:Drivers/STM32F3xx_HAL_Driver/Src/stm32f3xx_hal_rtc_ex.c **** 
 844:Drivers/STM32F3xx_HAL_Driver/Src/stm32f3xx_hal_rtc_ex.c ****   hrtc->State = HAL_RTC_STATE_READY;
 1645              		.loc 1 844 3 view .LVU561
 1646              		.loc 1 844 15 is_stmt 0 view .LVU562
 1647 00b2 0123     		movs	r3, #1
 1648 00b4 6377     		strb	r3, [r4, #29]
 845:Drivers/STM32F3xx_HAL_Driver/Src/stm32f3xx_hal_rtc_ex.c **** 
 846:Drivers/STM32F3xx_HAL_Driver/Src/stm32f3xx_hal_rtc_ex.c ****   /* Process Unlocked */
 847:Drivers/STM32F3xx_HAL_Driver/Src/stm32f3xx_hal_rtc_ex.c ****   __HAL_UNLOCK(hrtc);
 1649              		.loc 1 847 3 is_stmt 1 view .LVU563
 1650              		.loc 1 847 3 view .LVU564
 1651 00b6 0020     		movs	r0, #0
 1652 00b8 2077     		strb	r0, [r4, #28]
 1653              		.loc 1 847 3 view .LVU565
 848:Drivers/STM32F3xx_HAL_Driver/Src/stm32f3xx_hal_rtc_ex.c **** 
 849:Drivers/STM32F3xx_HAL_Driver/Src/stm32f3xx_hal_rtc_ex.c ****   return HAL_OK;
 1654              		.loc 1 849 3 view .LVU566
 1655              	.LVL98:
 1656              	.L100:
 850:Drivers/STM32F3xx_HAL_Driver/Src/stm32f3xx_hal_rtc_ex.c **** }
 1657              		.loc 1 850 1 is_stmt 0 view .LVU567
 1658 00ba F8BD     		pop	{r3, r4, r5, r6, r7, pc}
 1659              	.LVL99:
 1660              	.L106:
 778:Drivers/STM32F3xx_HAL_Driver/Src/stm32f3xx_hal_rtc_ex.c **** 
 1661              		.loc 1 778 3 view .LVU568
 1662 00bc 0220     		movs	r0, #2
 1663              	.LVL100:
 778:Drivers/STM32F3xx_HAL_Driver/Src/stm32f3xx_hal_rtc_ex.c **** 
 1664              		.loc 1 778 3 view .LVU569
 1665 00be FCE7     		b	.L100
 1666              		.cfi_endproc
ARM GAS  /var/folders/jw/jcj5j9_530958b2rm5vp9wn00000gn/T//ccckkuva.s 			page 46


 1667              	.LFE146:
 1669              		.section	.text.HAL_RTCEx_SetWakeUpTimer_IT,"ax",%progbits
 1670              		.align	1
 1671              		.global	HAL_RTCEx_SetWakeUpTimer_IT
 1672              		.syntax unified
 1673              		.thumb
 1674              		.thumb_func
 1675              		.fpu fpv4-sp-d16
 1677              	HAL_RTCEx_SetWakeUpTimer_IT:
 1678              	.LVL101:
 1679              	.LFB147:
 851:Drivers/STM32F3xx_HAL_Driver/Src/stm32f3xx_hal_rtc_ex.c **** 
 852:Drivers/STM32F3xx_HAL_Driver/Src/stm32f3xx_hal_rtc_ex.c **** /**
 853:Drivers/STM32F3xx_HAL_Driver/Src/stm32f3xx_hal_rtc_ex.c ****   * @brief  Set wake up timer with interrupt.
 854:Drivers/STM32F3xx_HAL_Driver/Src/stm32f3xx_hal_rtc_ex.c ****   * @param  hrtc RTC handle
 855:Drivers/STM32F3xx_HAL_Driver/Src/stm32f3xx_hal_rtc_ex.c ****   * @param  WakeUpCounter Wake up counter
 856:Drivers/STM32F3xx_HAL_Driver/Src/stm32f3xx_hal_rtc_ex.c ****   * @param  WakeUpClock Wake up clock
 857:Drivers/STM32F3xx_HAL_Driver/Src/stm32f3xx_hal_rtc_ex.c ****   * @retval HAL status
 858:Drivers/STM32F3xx_HAL_Driver/Src/stm32f3xx_hal_rtc_ex.c ****   */
 859:Drivers/STM32F3xx_HAL_Driver/Src/stm32f3xx_hal_rtc_ex.c **** HAL_StatusTypeDef HAL_RTCEx_SetWakeUpTimer_IT(RTC_HandleTypeDef *hrtc, uint32_t WakeUpCounter, uint
 860:Drivers/STM32F3xx_HAL_Driver/Src/stm32f3xx_hal_rtc_ex.c **** {
 1680              		.loc 1 860 1 is_stmt 1 view -0
 1681              		.cfi_startproc
 1682              		@ args = 0, pretend = 0, frame = 0
 1683              		@ frame_needed = 0, uses_anonymous_args = 0
 1684              		.loc 1 860 1 is_stmt 0 view .LVU571
 1685 0000 F8B5     		push	{r3, r4, r5, r6, r7, lr}
 1686              	.LCFI17:
 1687              		.cfi_def_cfa_offset 24
 1688              		.cfi_offset 3, -24
 1689              		.cfi_offset 4, -20
 1690              		.cfi_offset 5, -16
 1691              		.cfi_offset 6, -12
 1692              		.cfi_offset 7, -8
 1693              		.cfi_offset 14, -4
 861:Drivers/STM32F3xx_HAL_Driver/Src/stm32f3xx_hal_rtc_ex.c ****   uint32_t tickstart = 0U;
 1694              		.loc 1 861 3 is_stmt 1 view .LVU572
 1695              	.LVL102:
 862:Drivers/STM32F3xx_HAL_Driver/Src/stm32f3xx_hal_rtc_ex.c **** 
 863:Drivers/STM32F3xx_HAL_Driver/Src/stm32f3xx_hal_rtc_ex.c ****   /* Check the parameters */
 864:Drivers/STM32F3xx_HAL_Driver/Src/stm32f3xx_hal_rtc_ex.c ****   assert_param(IS_RTC_WAKEUP_CLOCK(WakeUpClock));
 1696              		.loc 1 864 3 view .LVU573
 865:Drivers/STM32F3xx_HAL_Driver/Src/stm32f3xx_hal_rtc_ex.c ****   assert_param(IS_RTC_WAKEUP_COUNTER(WakeUpCounter));
 1697              		.loc 1 865 3 view .LVU574
 866:Drivers/STM32F3xx_HAL_Driver/Src/stm32f3xx_hal_rtc_ex.c **** 
 867:Drivers/STM32F3xx_HAL_Driver/Src/stm32f3xx_hal_rtc_ex.c ****   /* Process Locked */
 868:Drivers/STM32F3xx_HAL_Driver/Src/stm32f3xx_hal_rtc_ex.c ****   __HAL_LOCK(hrtc);
 1698              		.loc 1 868 3 view .LVU575
 1699              		.loc 1 868 3 view .LVU576
 1700 0002 037F     		ldrb	r3, [r0, #28]	@ zero_extendqisi2
 1701 0004 012B     		cmp	r3, #1
 1702 0006 6DD0     		beq	.L116
 1703 0008 0446     		mov	r4, r0
 1704 000a 0E46     		mov	r6, r1
 1705 000c 1546     		mov	r5, r2
 1706              		.loc 1 868 3 discriminator 2 view .LVU577
 1707 000e 0123     		movs	r3, #1
ARM GAS  /var/folders/jw/jcj5j9_530958b2rm5vp9wn00000gn/T//ccckkuva.s 			page 47


 1708 0010 0377     		strb	r3, [r0, #28]
 1709              		.loc 1 868 3 discriminator 2 view .LVU578
 869:Drivers/STM32F3xx_HAL_Driver/Src/stm32f3xx_hal_rtc_ex.c **** 
 870:Drivers/STM32F3xx_HAL_Driver/Src/stm32f3xx_hal_rtc_ex.c ****   hrtc->State = HAL_RTC_STATE_BUSY;
 1710              		.loc 1 870 3 discriminator 2 view .LVU579
 1711              		.loc 1 870 15 is_stmt 0 discriminator 2 view .LVU580
 1712 0012 0223     		movs	r3, #2
 1713 0014 4377     		strb	r3, [r0, #29]
 871:Drivers/STM32F3xx_HAL_Driver/Src/stm32f3xx_hal_rtc_ex.c **** 
 872:Drivers/STM32F3xx_HAL_Driver/Src/stm32f3xx_hal_rtc_ex.c ****   /* Disable the write protection for RTC registers */
 873:Drivers/STM32F3xx_HAL_Driver/Src/stm32f3xx_hal_rtc_ex.c ****   __HAL_RTC_WRITEPROTECTION_DISABLE(hrtc);
 1714              		.loc 1 873 3 is_stmt 1 discriminator 2 view .LVU581
 1715              		.loc 1 873 3 discriminator 2 view .LVU582
 1716 0016 0368     		ldr	r3, [r0]
 1717 0018 CA22     		movs	r2, #202
 1718              	.LVL103:
 1719              		.loc 1 873 3 is_stmt 0 discriminator 2 view .LVU583
 1720 001a 5A62     		str	r2, [r3, #36]
 1721              		.loc 1 873 3 is_stmt 1 discriminator 2 view .LVU584
 1722 001c 0368     		ldr	r3, [r0]
 1723 001e 5322     		movs	r2, #83
 1724 0020 5A62     		str	r2, [r3, #36]
 1725              		.loc 1 873 3 discriminator 2 view .LVU585
 874:Drivers/STM32F3xx_HAL_Driver/Src/stm32f3xx_hal_rtc_ex.c **** 
 875:Drivers/STM32F3xx_HAL_Driver/Src/stm32f3xx_hal_rtc_ex.c ****   /*Check RTC WUTWF flag is reset only when wake up timer enabled*/
 876:Drivers/STM32F3xx_HAL_Driver/Src/stm32f3xx_hal_rtc_ex.c ****   if ((hrtc->Instance->CR & RTC_CR_WUTE) != RESET)
 1726              		.loc 1 876 3 discriminator 2 view .LVU586
 1727              		.loc 1 876 12 is_stmt 0 discriminator 2 view .LVU587
 1728 0022 0368     		ldr	r3, [r0]
 1729              		.loc 1 876 22 discriminator 2 view .LVU588
 1730 0024 9B68     		ldr	r3, [r3, #8]
 1731              		.loc 1 876 6 discriminator 2 view .LVU589
 1732 0026 13F4806F 		tst	r3, #1024
 1733 002a 15D0     		beq	.L111
 877:Drivers/STM32F3xx_HAL_Driver/Src/stm32f3xx_hal_rtc_ex.c ****   {
 878:Drivers/STM32F3xx_HAL_Driver/Src/stm32f3xx_hal_rtc_ex.c ****     tickstart = HAL_GetTick();
 1734              		.loc 1 878 5 is_stmt 1 view .LVU590
 1735              		.loc 1 878 17 is_stmt 0 view .LVU591
 1736 002c FFF7FEFF 		bl	HAL_GetTick
 1737              	.LVL104:
 1738              		.loc 1 878 17 view .LVU592
 1739 0030 0746     		mov	r7, r0
 1740              	.LVL105:
 879:Drivers/STM32F3xx_HAL_Driver/Src/stm32f3xx_hal_rtc_ex.c **** 
 880:Drivers/STM32F3xx_HAL_Driver/Src/stm32f3xx_hal_rtc_ex.c ****     /* Wait till RTC WUTWF flag is reset and if Time out is reached exit */
 881:Drivers/STM32F3xx_HAL_Driver/Src/stm32f3xx_hal_rtc_ex.c ****     while (__HAL_RTC_WAKEUPTIMER_GET_FLAG(hrtc, RTC_FLAG_WUTWF) == SET)
 1741              		.loc 1 881 5 is_stmt 1 view .LVU593
 1742              	.L112:
 1743              		.loc 1 881 11 view .LVU594
 1744              		.loc 1 881 12 is_stmt 0 view .LVU595
 1745 0032 2368     		ldr	r3, [r4]
 1746 0034 DB68     		ldr	r3, [r3, #12]
 1747              		.loc 1 881 11 view .LVU596
 1748 0036 13F0040F 		tst	r3, #4
 1749 003a 0DD0     		beq	.L111
 882:Drivers/STM32F3xx_HAL_Driver/Src/stm32f3xx_hal_rtc_ex.c ****     {
 883:Drivers/STM32F3xx_HAL_Driver/Src/stm32f3xx_hal_rtc_ex.c ****       if ((HAL_GetTick() - tickstart) > RTC_TIMEOUT_VALUE)
ARM GAS  /var/folders/jw/jcj5j9_530958b2rm5vp9wn00000gn/T//ccckkuva.s 			page 48


 1750              		.loc 1 883 7 is_stmt 1 view .LVU597
 1751              		.loc 1 883 12 is_stmt 0 view .LVU598
 1752 003c FFF7FEFF 		bl	HAL_GetTick
 1753              	.LVL106:
 1754              		.loc 1 883 26 view .LVU599
 1755 0040 C01B     		subs	r0, r0, r7
 1756              		.loc 1 883 10 view .LVU600
 1757 0042 B0F57A7F 		cmp	r0, #1000
 1758 0046 F4D9     		bls	.L112
 884:Drivers/STM32F3xx_HAL_Driver/Src/stm32f3xx_hal_rtc_ex.c ****       {
 885:Drivers/STM32F3xx_HAL_Driver/Src/stm32f3xx_hal_rtc_ex.c ****         /* Enable the write protection for RTC registers */
 886:Drivers/STM32F3xx_HAL_Driver/Src/stm32f3xx_hal_rtc_ex.c ****         __HAL_RTC_WRITEPROTECTION_ENABLE(hrtc);
 1759              		.loc 1 886 9 is_stmt 1 view .LVU601
 1760              		.loc 1 886 9 view .LVU602
 1761 0048 2368     		ldr	r3, [r4]
 1762 004a FF22     		movs	r2, #255
 1763 004c 5A62     		str	r2, [r3, #36]
 1764              		.loc 1 886 9 view .LVU603
 887:Drivers/STM32F3xx_HAL_Driver/Src/stm32f3xx_hal_rtc_ex.c **** 
 888:Drivers/STM32F3xx_HAL_Driver/Src/stm32f3xx_hal_rtc_ex.c ****         hrtc->State = HAL_RTC_STATE_TIMEOUT;
 1765              		.loc 1 888 9 view .LVU604
 1766              		.loc 1 888 21 is_stmt 0 view .LVU605
 1767 004e 0320     		movs	r0, #3
 1768 0050 6077     		strb	r0, [r4, #29]
 889:Drivers/STM32F3xx_HAL_Driver/Src/stm32f3xx_hal_rtc_ex.c **** 
 890:Drivers/STM32F3xx_HAL_Driver/Src/stm32f3xx_hal_rtc_ex.c ****         /* Process Unlocked */
 891:Drivers/STM32F3xx_HAL_Driver/Src/stm32f3xx_hal_rtc_ex.c ****         __HAL_UNLOCK(hrtc);
 1769              		.loc 1 891 9 is_stmt 1 view .LVU606
 1770              		.loc 1 891 9 view .LVU607
 1771 0052 0023     		movs	r3, #0
 1772 0054 2377     		strb	r3, [r4, #28]
 1773              		.loc 1 891 9 view .LVU608
 892:Drivers/STM32F3xx_HAL_Driver/Src/stm32f3xx_hal_rtc_ex.c **** 
 893:Drivers/STM32F3xx_HAL_Driver/Src/stm32f3xx_hal_rtc_ex.c ****         return HAL_TIMEOUT;
 1774              		.loc 1 893 9 view .LVU609
 1775              		.loc 1 893 16 is_stmt 0 view .LVU610
 1776 0056 44E0     		b	.L110
 1777              	.LVL107:
 1778              	.L111:
 894:Drivers/STM32F3xx_HAL_Driver/Src/stm32f3xx_hal_rtc_ex.c ****       }
 895:Drivers/STM32F3xx_HAL_Driver/Src/stm32f3xx_hal_rtc_ex.c ****     }
 896:Drivers/STM32F3xx_HAL_Driver/Src/stm32f3xx_hal_rtc_ex.c ****   }
 897:Drivers/STM32F3xx_HAL_Driver/Src/stm32f3xx_hal_rtc_ex.c **** 
 898:Drivers/STM32F3xx_HAL_Driver/Src/stm32f3xx_hal_rtc_ex.c ****   /* Disable the Wake-Up timer */
 899:Drivers/STM32F3xx_HAL_Driver/Src/stm32f3xx_hal_rtc_ex.c ****   __HAL_RTC_WAKEUPTIMER_DISABLE(hrtc);
 1779              		.loc 1 899 3 is_stmt 1 view .LVU611
 1780 0058 2268     		ldr	r2, [r4]
 1781 005a 9368     		ldr	r3, [r2, #8]
 1782 005c 23F48063 		bic	r3, r3, #1024
 1783 0060 9360     		str	r3, [r2, #8]
 900:Drivers/STM32F3xx_HAL_Driver/Src/stm32f3xx_hal_rtc_ex.c **** 
 901:Drivers/STM32F3xx_HAL_Driver/Src/stm32f3xx_hal_rtc_ex.c ****   /* Clear flag Wake-Up */
 902:Drivers/STM32F3xx_HAL_Driver/Src/stm32f3xx_hal_rtc_ex.c ****   __HAL_RTC_WAKEUPTIMER_CLEAR_FLAG(hrtc, RTC_FLAG_WUTF);
 1784              		.loc 1 902 3 view .LVU612
 1785 0062 2268     		ldr	r2, [r4]
 1786 0064 D368     		ldr	r3, [r2, #12]
 1787 0066 DBB2     		uxtb	r3, r3
ARM GAS  /var/folders/jw/jcj5j9_530958b2rm5vp9wn00000gn/T//ccckkuva.s 			page 49


 1788 0068 63F49063 		orn	r3, r3, #1152
 1789 006c D360     		str	r3, [r2, #12]
 903:Drivers/STM32F3xx_HAL_Driver/Src/stm32f3xx_hal_rtc_ex.c **** 
 904:Drivers/STM32F3xx_HAL_Driver/Src/stm32f3xx_hal_rtc_ex.c ****   tickstart = HAL_GetTick();
 1790              		.loc 1 904 3 view .LVU613
 1791              		.loc 1 904 15 is_stmt 0 view .LVU614
 1792 006e FFF7FEFF 		bl	HAL_GetTick
 1793              	.LVL108:
 1794 0072 0746     		mov	r7, r0
 1795              	.LVL109:
 905:Drivers/STM32F3xx_HAL_Driver/Src/stm32f3xx_hal_rtc_ex.c **** 
 906:Drivers/STM32F3xx_HAL_Driver/Src/stm32f3xx_hal_rtc_ex.c ****   /* Wait till RTC WUTWF flag is set and if Time out is reached exit */
 907:Drivers/STM32F3xx_HAL_Driver/Src/stm32f3xx_hal_rtc_ex.c ****   while (__HAL_RTC_WAKEUPTIMER_GET_FLAG(hrtc, RTC_FLAG_WUTWF) == RESET)
 1796              		.loc 1 907 3 is_stmt 1 view .LVU615
 1797              	.L114:
 1798              		.loc 1 907 9 view .LVU616
 1799              		.loc 1 907 10 is_stmt 0 view .LVU617
 1800 0074 2368     		ldr	r3, [r4]
 1801 0076 DA68     		ldr	r2, [r3, #12]
 1802              		.loc 1 907 9 view .LVU618
 1803 0078 12F0040F 		tst	r2, #4
 1804 007c 0DD1     		bne	.L118
 908:Drivers/STM32F3xx_HAL_Driver/Src/stm32f3xx_hal_rtc_ex.c ****   {
 909:Drivers/STM32F3xx_HAL_Driver/Src/stm32f3xx_hal_rtc_ex.c ****     if ((HAL_GetTick() - tickstart) > RTC_TIMEOUT_VALUE)
 1805              		.loc 1 909 5 is_stmt 1 view .LVU619
 1806              		.loc 1 909 10 is_stmt 0 view .LVU620
 1807 007e FFF7FEFF 		bl	HAL_GetTick
 1808              	.LVL110:
 1809              		.loc 1 909 24 view .LVU621
 1810 0082 C01B     		subs	r0, r0, r7
 1811              		.loc 1 909 8 view .LVU622
 1812 0084 B0F57A7F 		cmp	r0, #1000
 1813 0088 F4D9     		bls	.L114
 910:Drivers/STM32F3xx_HAL_Driver/Src/stm32f3xx_hal_rtc_ex.c ****     {
 911:Drivers/STM32F3xx_HAL_Driver/Src/stm32f3xx_hal_rtc_ex.c ****       /* Enable the write protection for RTC registers */
 912:Drivers/STM32F3xx_HAL_Driver/Src/stm32f3xx_hal_rtc_ex.c ****       __HAL_RTC_WRITEPROTECTION_ENABLE(hrtc);
 1814              		.loc 1 912 7 is_stmt 1 view .LVU623
 1815              		.loc 1 912 7 view .LVU624
 1816 008a 2368     		ldr	r3, [r4]
 1817 008c FF22     		movs	r2, #255
 1818 008e 5A62     		str	r2, [r3, #36]
 1819              		.loc 1 912 7 view .LVU625
 913:Drivers/STM32F3xx_HAL_Driver/Src/stm32f3xx_hal_rtc_ex.c **** 
 914:Drivers/STM32F3xx_HAL_Driver/Src/stm32f3xx_hal_rtc_ex.c ****       hrtc->State = HAL_RTC_STATE_TIMEOUT;
 1820              		.loc 1 914 7 view .LVU626
 1821              		.loc 1 914 19 is_stmt 0 view .LVU627
 1822 0090 0320     		movs	r0, #3
 1823 0092 6077     		strb	r0, [r4, #29]
 915:Drivers/STM32F3xx_HAL_Driver/Src/stm32f3xx_hal_rtc_ex.c **** 
 916:Drivers/STM32F3xx_HAL_Driver/Src/stm32f3xx_hal_rtc_ex.c ****       /* Process Unlocked */
 917:Drivers/STM32F3xx_HAL_Driver/Src/stm32f3xx_hal_rtc_ex.c ****       __HAL_UNLOCK(hrtc);
 1824              		.loc 1 917 7 is_stmt 1 view .LVU628
 1825              		.loc 1 917 7 view .LVU629
 1826 0094 0023     		movs	r3, #0
 1827 0096 2377     		strb	r3, [r4, #28]
 1828              		.loc 1 917 7 view .LVU630
 918:Drivers/STM32F3xx_HAL_Driver/Src/stm32f3xx_hal_rtc_ex.c **** 
ARM GAS  /var/folders/jw/jcj5j9_530958b2rm5vp9wn00000gn/T//ccckkuva.s 			page 50


 919:Drivers/STM32F3xx_HAL_Driver/Src/stm32f3xx_hal_rtc_ex.c ****       return HAL_TIMEOUT;
 1829              		.loc 1 919 7 view .LVU631
 1830              		.loc 1 919 14 is_stmt 0 view .LVU632
 1831 0098 23E0     		b	.L110
 1832              	.L118:
 920:Drivers/STM32F3xx_HAL_Driver/Src/stm32f3xx_hal_rtc_ex.c ****     }
 921:Drivers/STM32F3xx_HAL_Driver/Src/stm32f3xx_hal_rtc_ex.c ****   }
 922:Drivers/STM32F3xx_HAL_Driver/Src/stm32f3xx_hal_rtc_ex.c **** 
 923:Drivers/STM32F3xx_HAL_Driver/Src/stm32f3xx_hal_rtc_ex.c ****   /* Configure the Wakeup Timer counter */
 924:Drivers/STM32F3xx_HAL_Driver/Src/stm32f3xx_hal_rtc_ex.c ****   hrtc->Instance->WUTR = (uint32_t)WakeUpCounter;
 1833              		.loc 1 924 3 is_stmt 1 view .LVU633
 1834              		.loc 1 924 24 is_stmt 0 view .LVU634
 1835 009a 5E61     		str	r6, [r3, #20]
 925:Drivers/STM32F3xx_HAL_Driver/Src/stm32f3xx_hal_rtc_ex.c **** 
 926:Drivers/STM32F3xx_HAL_Driver/Src/stm32f3xx_hal_rtc_ex.c ****   /* Clear the Wakeup Timer clock source bits in CR register */
 927:Drivers/STM32F3xx_HAL_Driver/Src/stm32f3xx_hal_rtc_ex.c ****   hrtc->Instance->CR &= (uint32_t)~RTC_CR_WUCKSEL;
 1836              		.loc 1 927 3 is_stmt 1 view .LVU635
 1837              		.loc 1 927 7 is_stmt 0 view .LVU636
 1838 009c 2268     		ldr	r2, [r4]
 1839              		.loc 1 927 22 view .LVU637
 1840 009e 9368     		ldr	r3, [r2, #8]
 1841 00a0 23F00703 		bic	r3, r3, #7
 1842 00a4 9360     		str	r3, [r2, #8]
 928:Drivers/STM32F3xx_HAL_Driver/Src/stm32f3xx_hal_rtc_ex.c **** 
 929:Drivers/STM32F3xx_HAL_Driver/Src/stm32f3xx_hal_rtc_ex.c ****   /* Configure the clock source */
 930:Drivers/STM32F3xx_HAL_Driver/Src/stm32f3xx_hal_rtc_ex.c ****   hrtc->Instance->CR |= (uint32_t)WakeUpClock;
 1843              		.loc 1 930 3 is_stmt 1 view .LVU638
 1844              		.loc 1 930 7 is_stmt 0 view .LVU639
 1845 00a6 2268     		ldr	r2, [r4]
 1846              		.loc 1 930 22 view .LVU640
 1847 00a8 9368     		ldr	r3, [r2, #8]
 1848 00aa 1D43     		orrs	r5, r5, r3
 1849              	.LVL111:
 1850              		.loc 1 930 22 view .LVU641
 1851 00ac 9560     		str	r5, [r2, #8]
 931:Drivers/STM32F3xx_HAL_Driver/Src/stm32f3xx_hal_rtc_ex.c **** 
 932:Drivers/STM32F3xx_HAL_Driver/Src/stm32f3xx_hal_rtc_ex.c ****   /* RTC WakeUpTimer Interrupt Configuration: EXTI configuration */
 933:Drivers/STM32F3xx_HAL_Driver/Src/stm32f3xx_hal_rtc_ex.c ****   __HAL_RTC_WAKEUPTIMER_EXTI_ENABLE_IT();
 1852              		.loc 1 933 3 is_stmt 1 view .LVU642
 1853 00ae 0E4B     		ldr	r3, .L119
 1854 00b0 1A68     		ldr	r2, [r3]
 1855 00b2 42F48012 		orr	r2, r2, #1048576
 1856 00b6 1A60     		str	r2, [r3]
 934:Drivers/STM32F3xx_HAL_Driver/Src/stm32f3xx_hal_rtc_ex.c **** 
 935:Drivers/STM32F3xx_HAL_Driver/Src/stm32f3xx_hal_rtc_ex.c ****   __HAL_RTC_WAKEUPTIMER_EXTI_ENABLE_RISING_EDGE();
 1857              		.loc 1 935 3 view .LVU643
 1858 00b8 9A68     		ldr	r2, [r3, #8]
 1859 00ba 42F48012 		orr	r2, r2, #1048576
 1860 00be 9A60     		str	r2, [r3, #8]
 936:Drivers/STM32F3xx_HAL_Driver/Src/stm32f3xx_hal_rtc_ex.c **** 
 937:Drivers/STM32F3xx_HAL_Driver/Src/stm32f3xx_hal_rtc_ex.c ****   /* Configure the Interrupt in the RTC_CR register */
 938:Drivers/STM32F3xx_HAL_Driver/Src/stm32f3xx_hal_rtc_ex.c ****   __HAL_RTC_WAKEUPTIMER_ENABLE_IT(hrtc, RTC_IT_WUT);
 1861              		.loc 1 938 3 view .LVU644
 1862 00c0 2268     		ldr	r2, [r4]
 1863 00c2 9368     		ldr	r3, [r2, #8]
 1864 00c4 43F48043 		orr	r3, r3, #16384
 1865 00c8 9360     		str	r3, [r2, #8]
ARM GAS  /var/folders/jw/jcj5j9_530958b2rm5vp9wn00000gn/T//ccckkuva.s 			page 51


 939:Drivers/STM32F3xx_HAL_Driver/Src/stm32f3xx_hal_rtc_ex.c **** 
 940:Drivers/STM32F3xx_HAL_Driver/Src/stm32f3xx_hal_rtc_ex.c ****   /* Enable the Wakeup Timer */
 941:Drivers/STM32F3xx_HAL_Driver/Src/stm32f3xx_hal_rtc_ex.c ****   __HAL_RTC_WAKEUPTIMER_ENABLE(hrtc);
 1866              		.loc 1 941 3 view .LVU645
 1867 00ca 2268     		ldr	r2, [r4]
 1868 00cc 9368     		ldr	r3, [r2, #8]
 1869 00ce 43F48063 		orr	r3, r3, #1024
 1870 00d2 9360     		str	r3, [r2, #8]
 942:Drivers/STM32F3xx_HAL_Driver/Src/stm32f3xx_hal_rtc_ex.c **** 
 943:Drivers/STM32F3xx_HAL_Driver/Src/stm32f3xx_hal_rtc_ex.c ****   /* Enable the write protection for RTC registers */
 944:Drivers/STM32F3xx_HAL_Driver/Src/stm32f3xx_hal_rtc_ex.c ****   __HAL_RTC_WRITEPROTECTION_ENABLE(hrtc);
 1871              		.loc 1 944 3 view .LVU646
 1872              		.loc 1 944 3 view .LVU647
 1873 00d4 2368     		ldr	r3, [r4]
 1874 00d6 FF22     		movs	r2, #255
 1875 00d8 5A62     		str	r2, [r3, #36]
 1876              		.loc 1 944 3 view .LVU648
 945:Drivers/STM32F3xx_HAL_Driver/Src/stm32f3xx_hal_rtc_ex.c **** 
 946:Drivers/STM32F3xx_HAL_Driver/Src/stm32f3xx_hal_rtc_ex.c ****   hrtc->State = HAL_RTC_STATE_READY;
 1877              		.loc 1 946 3 view .LVU649
 1878              		.loc 1 946 15 is_stmt 0 view .LVU650
 1879 00da 0123     		movs	r3, #1
 1880 00dc 6377     		strb	r3, [r4, #29]
 947:Drivers/STM32F3xx_HAL_Driver/Src/stm32f3xx_hal_rtc_ex.c **** 
 948:Drivers/STM32F3xx_HAL_Driver/Src/stm32f3xx_hal_rtc_ex.c ****   /* Process Unlocked */
 949:Drivers/STM32F3xx_HAL_Driver/Src/stm32f3xx_hal_rtc_ex.c ****   __HAL_UNLOCK(hrtc);
 1881              		.loc 1 949 3 is_stmt 1 view .LVU651
 1882              		.loc 1 949 3 view .LVU652
 1883 00de 0020     		movs	r0, #0
 1884 00e0 2077     		strb	r0, [r4, #28]
 1885              		.loc 1 949 3 view .LVU653
 950:Drivers/STM32F3xx_HAL_Driver/Src/stm32f3xx_hal_rtc_ex.c **** 
 951:Drivers/STM32F3xx_HAL_Driver/Src/stm32f3xx_hal_rtc_ex.c ****   return HAL_OK;
 1886              		.loc 1 951 3 view .LVU654
 1887              	.LVL112:
 1888              	.L110:
 952:Drivers/STM32F3xx_HAL_Driver/Src/stm32f3xx_hal_rtc_ex.c **** }
 1889              		.loc 1 952 1 is_stmt 0 view .LVU655
 1890 00e2 F8BD     		pop	{r3, r4, r5, r6, r7, pc}
 1891              	.LVL113:
 1892              	.L116:
 868:Drivers/STM32F3xx_HAL_Driver/Src/stm32f3xx_hal_rtc_ex.c **** 
 1893              		.loc 1 868 3 view .LVU656
 1894 00e4 0220     		movs	r0, #2
 1895              	.LVL114:
 868:Drivers/STM32F3xx_HAL_Driver/Src/stm32f3xx_hal_rtc_ex.c **** 
 1896              		.loc 1 868 3 view .LVU657
 1897 00e6 FCE7     		b	.L110
 1898              	.L120:
 1899              		.align	2
 1900              	.L119:
 1901 00e8 00040140 		.word	1073808384
 1902              		.cfi_endproc
 1903              	.LFE147:
 1905              		.section	.text.HAL_RTCEx_DeactivateWakeUpTimer,"ax",%progbits
 1906              		.align	1
 1907              		.global	HAL_RTCEx_DeactivateWakeUpTimer
ARM GAS  /var/folders/jw/jcj5j9_530958b2rm5vp9wn00000gn/T//ccckkuva.s 			page 52


 1908              		.syntax unified
 1909              		.thumb
 1910              		.thumb_func
 1911              		.fpu fpv4-sp-d16
 1913              	HAL_RTCEx_DeactivateWakeUpTimer:
 1914              	.LVL115:
 1915              	.LFB148:
 953:Drivers/STM32F3xx_HAL_Driver/Src/stm32f3xx_hal_rtc_ex.c **** 
 954:Drivers/STM32F3xx_HAL_Driver/Src/stm32f3xx_hal_rtc_ex.c **** /**
 955:Drivers/STM32F3xx_HAL_Driver/Src/stm32f3xx_hal_rtc_ex.c ****   * @brief  Deactivate wake up timer counter.
 956:Drivers/STM32F3xx_HAL_Driver/Src/stm32f3xx_hal_rtc_ex.c ****   * @param  hrtc RTC handle
 957:Drivers/STM32F3xx_HAL_Driver/Src/stm32f3xx_hal_rtc_ex.c ****   * @retval HAL status
 958:Drivers/STM32F3xx_HAL_Driver/Src/stm32f3xx_hal_rtc_ex.c ****   */
 959:Drivers/STM32F3xx_HAL_Driver/Src/stm32f3xx_hal_rtc_ex.c **** uint32_t HAL_RTCEx_DeactivateWakeUpTimer(RTC_HandleTypeDef *hrtc)
 960:Drivers/STM32F3xx_HAL_Driver/Src/stm32f3xx_hal_rtc_ex.c **** {
 1916              		.loc 1 960 1 is_stmt 1 view -0
 1917              		.cfi_startproc
 1918              		@ args = 0, pretend = 0, frame = 0
 1919              		@ frame_needed = 0, uses_anonymous_args = 0
 1920              		.loc 1 960 1 is_stmt 0 view .LVU659
 1921 0000 38B5     		push	{r3, r4, r5, lr}
 1922              	.LCFI18:
 1923              		.cfi_def_cfa_offset 16
 1924              		.cfi_offset 3, -16
 1925              		.cfi_offset 4, -12
 1926              		.cfi_offset 5, -8
 1927              		.cfi_offset 14, -4
 961:Drivers/STM32F3xx_HAL_Driver/Src/stm32f3xx_hal_rtc_ex.c ****   uint32_t tickstart = 0U;
 1928              		.loc 1 961 3 is_stmt 1 view .LVU660
 1929              	.LVL116:
 962:Drivers/STM32F3xx_HAL_Driver/Src/stm32f3xx_hal_rtc_ex.c **** 
 963:Drivers/STM32F3xx_HAL_Driver/Src/stm32f3xx_hal_rtc_ex.c ****   /* Process Locked */
 964:Drivers/STM32F3xx_HAL_Driver/Src/stm32f3xx_hal_rtc_ex.c ****   __HAL_LOCK(hrtc);
 1930              		.loc 1 964 3 view .LVU661
 1931              		.loc 1 964 3 view .LVU662
 1932 0002 037F     		ldrb	r3, [r0, #28]	@ zero_extendqisi2
 1933 0004 012B     		cmp	r3, #1
 1934 0006 31D0     		beq	.L125
 1935 0008 0446     		mov	r4, r0
 1936              		.loc 1 964 3 discriminator 2 view .LVU663
 1937 000a 0123     		movs	r3, #1
 1938 000c 0377     		strb	r3, [r0, #28]
 1939              		.loc 1 964 3 discriminator 2 view .LVU664
 965:Drivers/STM32F3xx_HAL_Driver/Src/stm32f3xx_hal_rtc_ex.c **** 
 966:Drivers/STM32F3xx_HAL_Driver/Src/stm32f3xx_hal_rtc_ex.c ****   hrtc->State = HAL_RTC_STATE_BUSY;
 1940              		.loc 1 966 3 discriminator 2 view .LVU665
 1941              		.loc 1 966 15 is_stmt 0 discriminator 2 view .LVU666
 1942 000e 0223     		movs	r3, #2
 1943 0010 4377     		strb	r3, [r0, #29]
 967:Drivers/STM32F3xx_HAL_Driver/Src/stm32f3xx_hal_rtc_ex.c **** 
 968:Drivers/STM32F3xx_HAL_Driver/Src/stm32f3xx_hal_rtc_ex.c ****   /* Disable the write protection for RTC registers */
 969:Drivers/STM32F3xx_HAL_Driver/Src/stm32f3xx_hal_rtc_ex.c ****   __HAL_RTC_WRITEPROTECTION_DISABLE(hrtc);
 1944              		.loc 1 969 3 is_stmt 1 discriminator 2 view .LVU667
 1945              		.loc 1 969 3 discriminator 2 view .LVU668
 1946 0012 0368     		ldr	r3, [r0]
 1947 0014 CA22     		movs	r2, #202
 1948 0016 5A62     		str	r2, [r3, #36]
ARM GAS  /var/folders/jw/jcj5j9_530958b2rm5vp9wn00000gn/T//ccckkuva.s 			page 53


 1949              		.loc 1 969 3 discriminator 2 view .LVU669
 1950 0018 0368     		ldr	r3, [r0]
 1951 001a 5322     		movs	r2, #83
 1952 001c 5A62     		str	r2, [r3, #36]
 1953              		.loc 1 969 3 discriminator 2 view .LVU670
 970:Drivers/STM32F3xx_HAL_Driver/Src/stm32f3xx_hal_rtc_ex.c **** 
 971:Drivers/STM32F3xx_HAL_Driver/Src/stm32f3xx_hal_rtc_ex.c ****   /* Disable the Wakeup Timer */
 972:Drivers/STM32F3xx_HAL_Driver/Src/stm32f3xx_hal_rtc_ex.c ****   __HAL_RTC_WAKEUPTIMER_DISABLE(hrtc);
 1954              		.loc 1 972 3 discriminator 2 view .LVU671
 1955 001e 0268     		ldr	r2, [r0]
 1956 0020 9368     		ldr	r3, [r2, #8]
 1957 0022 23F48063 		bic	r3, r3, #1024
 1958 0026 9360     		str	r3, [r2, #8]
 973:Drivers/STM32F3xx_HAL_Driver/Src/stm32f3xx_hal_rtc_ex.c **** 
 974:Drivers/STM32F3xx_HAL_Driver/Src/stm32f3xx_hal_rtc_ex.c ****   /* In case of interrupt mode is used, the interrupt source must disabled */
 975:Drivers/STM32F3xx_HAL_Driver/Src/stm32f3xx_hal_rtc_ex.c ****   __HAL_RTC_WAKEUPTIMER_DISABLE_IT(hrtc, RTC_IT_WUT);
 1959              		.loc 1 975 3 discriminator 2 view .LVU672
 1960 0028 0268     		ldr	r2, [r0]
 1961 002a 9368     		ldr	r3, [r2, #8]
 1962 002c 23F48043 		bic	r3, r3, #16384
 1963 0030 9360     		str	r3, [r2, #8]
 976:Drivers/STM32F3xx_HAL_Driver/Src/stm32f3xx_hal_rtc_ex.c **** 
 977:Drivers/STM32F3xx_HAL_Driver/Src/stm32f3xx_hal_rtc_ex.c ****   tickstart = HAL_GetTick();
 1964              		.loc 1 977 3 discriminator 2 view .LVU673
 1965              		.loc 1 977 15 is_stmt 0 discriminator 2 view .LVU674
 1966 0032 FFF7FEFF 		bl	HAL_GetTick
 1967              	.LVL117:
 1968              		.loc 1 977 15 discriminator 2 view .LVU675
 1969 0036 0546     		mov	r5, r0
 1970              	.LVL118:
 978:Drivers/STM32F3xx_HAL_Driver/Src/stm32f3xx_hal_rtc_ex.c ****   /* Wait till RTC WUTWF flag is set and if Time out is reached exit */
 979:Drivers/STM32F3xx_HAL_Driver/Src/stm32f3xx_hal_rtc_ex.c ****   while (__HAL_RTC_WAKEUPTIMER_GET_FLAG(hrtc, RTC_FLAG_WUTWF) == RESET)
 1971              		.loc 1 979 3 is_stmt 1 discriminator 2 view .LVU676
 1972              	.L123:
 1973              		.loc 1 979 9 view .LVU677
 1974              		.loc 1 979 10 is_stmt 0 view .LVU678
 1975 0038 2368     		ldr	r3, [r4]
 1976 003a DA68     		ldr	r2, [r3, #12]
 1977              		.loc 1 979 9 view .LVU679
 1978 003c 12F0040F 		tst	r2, #4
 1979 0040 0DD1     		bne	.L127
 980:Drivers/STM32F3xx_HAL_Driver/Src/stm32f3xx_hal_rtc_ex.c ****   {
 981:Drivers/STM32F3xx_HAL_Driver/Src/stm32f3xx_hal_rtc_ex.c ****     if ((HAL_GetTick() - tickstart) > RTC_TIMEOUT_VALUE)
 1980              		.loc 1 981 5 is_stmt 1 view .LVU680
 1981              		.loc 1 981 10 is_stmt 0 view .LVU681
 1982 0042 FFF7FEFF 		bl	HAL_GetTick
 1983              	.LVL119:
 1984              		.loc 1 981 24 view .LVU682
 1985 0046 431B     		subs	r3, r0, r5
 1986              		.loc 1 981 8 view .LVU683
 1987 0048 B3F57A7F 		cmp	r3, #1000
 1988 004c F4D9     		bls	.L123
 982:Drivers/STM32F3xx_HAL_Driver/Src/stm32f3xx_hal_rtc_ex.c ****     {
 983:Drivers/STM32F3xx_HAL_Driver/Src/stm32f3xx_hal_rtc_ex.c ****       /* Enable the write protection for RTC registers */
 984:Drivers/STM32F3xx_HAL_Driver/Src/stm32f3xx_hal_rtc_ex.c ****       __HAL_RTC_WRITEPROTECTION_ENABLE(hrtc);
 1989              		.loc 1 984 7 is_stmt 1 view .LVU684
 1990              		.loc 1 984 7 view .LVU685
ARM GAS  /var/folders/jw/jcj5j9_530958b2rm5vp9wn00000gn/T//ccckkuva.s 			page 54


 1991 004e 2368     		ldr	r3, [r4]
 1992 0050 FF22     		movs	r2, #255
 1993 0052 5A62     		str	r2, [r3, #36]
 1994              		.loc 1 984 7 view .LVU686
 985:Drivers/STM32F3xx_HAL_Driver/Src/stm32f3xx_hal_rtc_ex.c **** 
 986:Drivers/STM32F3xx_HAL_Driver/Src/stm32f3xx_hal_rtc_ex.c ****       hrtc->State = HAL_RTC_STATE_TIMEOUT;
 1995              		.loc 1 986 7 view .LVU687
 1996              		.loc 1 986 19 is_stmt 0 view .LVU688
 1997 0054 0320     		movs	r0, #3
 1998 0056 6077     		strb	r0, [r4, #29]
 987:Drivers/STM32F3xx_HAL_Driver/Src/stm32f3xx_hal_rtc_ex.c **** 
 988:Drivers/STM32F3xx_HAL_Driver/Src/stm32f3xx_hal_rtc_ex.c ****       /* Process Unlocked */
 989:Drivers/STM32F3xx_HAL_Driver/Src/stm32f3xx_hal_rtc_ex.c ****       __HAL_UNLOCK(hrtc);
 1999              		.loc 1 989 7 is_stmt 1 view .LVU689
 2000              		.loc 1 989 7 view .LVU690
 2001 0058 0023     		movs	r3, #0
 2002 005a 2377     		strb	r3, [r4, #28]
 2003              		.loc 1 989 7 view .LVU691
 990:Drivers/STM32F3xx_HAL_Driver/Src/stm32f3xx_hal_rtc_ex.c **** 
 991:Drivers/STM32F3xx_HAL_Driver/Src/stm32f3xx_hal_rtc_ex.c ****       return HAL_TIMEOUT;
 2004              		.loc 1 991 7 view .LVU692
 2005              		.loc 1 991 14 is_stmt 0 view .LVU693
 2006 005c 05E0     		b	.L121
 2007              	.L127:
 992:Drivers/STM32F3xx_HAL_Driver/Src/stm32f3xx_hal_rtc_ex.c ****     }
 993:Drivers/STM32F3xx_HAL_Driver/Src/stm32f3xx_hal_rtc_ex.c ****   }
 994:Drivers/STM32F3xx_HAL_Driver/Src/stm32f3xx_hal_rtc_ex.c **** 
 995:Drivers/STM32F3xx_HAL_Driver/Src/stm32f3xx_hal_rtc_ex.c ****   /* Enable the write protection for RTC registers */
 996:Drivers/STM32F3xx_HAL_Driver/Src/stm32f3xx_hal_rtc_ex.c ****   __HAL_RTC_WRITEPROTECTION_ENABLE(hrtc);
 2008              		.loc 1 996 3 is_stmt 1 view .LVU694
 2009              		.loc 1 996 3 view .LVU695
 2010 005e FF22     		movs	r2, #255
 2011 0060 5A62     		str	r2, [r3, #36]
 2012              		.loc 1 996 3 view .LVU696
 997:Drivers/STM32F3xx_HAL_Driver/Src/stm32f3xx_hal_rtc_ex.c **** 
 998:Drivers/STM32F3xx_HAL_Driver/Src/stm32f3xx_hal_rtc_ex.c ****   hrtc->State = HAL_RTC_STATE_READY;
 2013              		.loc 1 998 3 view .LVU697
 2014              		.loc 1 998 15 is_stmt 0 view .LVU698
 2015 0062 0123     		movs	r3, #1
 2016 0064 6377     		strb	r3, [r4, #29]
 999:Drivers/STM32F3xx_HAL_Driver/Src/stm32f3xx_hal_rtc_ex.c **** 
1000:Drivers/STM32F3xx_HAL_Driver/Src/stm32f3xx_hal_rtc_ex.c ****   /* Process Unlocked */
1001:Drivers/STM32F3xx_HAL_Driver/Src/stm32f3xx_hal_rtc_ex.c ****   __HAL_UNLOCK(hrtc);
 2017              		.loc 1 1001 3 is_stmt 1 view .LVU699
 2018              		.loc 1 1001 3 view .LVU700
 2019 0066 0020     		movs	r0, #0
 2020 0068 2077     		strb	r0, [r4, #28]
 2021              		.loc 1 1001 3 view .LVU701
1002:Drivers/STM32F3xx_HAL_Driver/Src/stm32f3xx_hal_rtc_ex.c **** 
1003:Drivers/STM32F3xx_HAL_Driver/Src/stm32f3xx_hal_rtc_ex.c ****   return HAL_OK;
 2022              		.loc 1 1003 3 view .LVU702
 2023              	.LVL120:
 2024              	.L121:
1004:Drivers/STM32F3xx_HAL_Driver/Src/stm32f3xx_hal_rtc_ex.c **** }
 2025              		.loc 1 1004 1 is_stmt 0 view .LVU703
 2026 006a 38BD     		pop	{r3, r4, r5, pc}
 2027              	.LVL121:
ARM GAS  /var/folders/jw/jcj5j9_530958b2rm5vp9wn00000gn/T//ccckkuva.s 			page 55


 2028              	.L125:
 964:Drivers/STM32F3xx_HAL_Driver/Src/stm32f3xx_hal_rtc_ex.c **** 
 2029              		.loc 1 964 3 view .LVU704
 2030 006c 0220     		movs	r0, #2
 2031              	.LVL122:
 964:Drivers/STM32F3xx_HAL_Driver/Src/stm32f3xx_hal_rtc_ex.c **** 
 2032              		.loc 1 964 3 view .LVU705
 2033 006e FCE7     		b	.L121
 2034              		.cfi_endproc
 2035              	.LFE148:
 2037              		.section	.text.HAL_RTCEx_GetWakeUpTimer,"ax",%progbits
 2038              		.align	1
 2039              		.global	HAL_RTCEx_GetWakeUpTimer
 2040              		.syntax unified
 2041              		.thumb
 2042              		.thumb_func
 2043              		.fpu fpv4-sp-d16
 2045              	HAL_RTCEx_GetWakeUpTimer:
 2046              	.LVL123:
 2047              	.LFB149:
1005:Drivers/STM32F3xx_HAL_Driver/Src/stm32f3xx_hal_rtc_ex.c **** 
1006:Drivers/STM32F3xx_HAL_Driver/Src/stm32f3xx_hal_rtc_ex.c **** /**
1007:Drivers/STM32F3xx_HAL_Driver/Src/stm32f3xx_hal_rtc_ex.c ****   * @brief  Get wake up timer counter.
1008:Drivers/STM32F3xx_HAL_Driver/Src/stm32f3xx_hal_rtc_ex.c ****   * @param  hrtc RTC handle
1009:Drivers/STM32F3xx_HAL_Driver/Src/stm32f3xx_hal_rtc_ex.c ****   * @retval Counter value
1010:Drivers/STM32F3xx_HAL_Driver/Src/stm32f3xx_hal_rtc_ex.c ****   */
1011:Drivers/STM32F3xx_HAL_Driver/Src/stm32f3xx_hal_rtc_ex.c **** uint32_t HAL_RTCEx_GetWakeUpTimer(RTC_HandleTypeDef *hrtc)
1012:Drivers/STM32F3xx_HAL_Driver/Src/stm32f3xx_hal_rtc_ex.c **** {
 2048              		.loc 1 1012 1 is_stmt 1 view -0
 2049              		.cfi_startproc
 2050              		@ args = 0, pretend = 0, frame = 0
 2051              		@ frame_needed = 0, uses_anonymous_args = 0
 2052              		@ link register save eliminated.
1013:Drivers/STM32F3xx_HAL_Driver/Src/stm32f3xx_hal_rtc_ex.c ****   /* Get the counter value */
1014:Drivers/STM32F3xx_HAL_Driver/Src/stm32f3xx_hal_rtc_ex.c ****   return ((uint32_t)(hrtc->Instance->WUTR & RTC_WUTR_WUT));
 2053              		.loc 1 1014 3 view .LVU707
 2054              		.loc 1 1014 26 is_stmt 0 view .LVU708
 2055 0000 0368     		ldr	r3, [r0]
 2056              		.loc 1 1014 36 view .LVU709
 2057 0002 5869     		ldr	r0, [r3, #20]
 2058              	.LVL124:
1015:Drivers/STM32F3xx_HAL_Driver/Src/stm32f3xx_hal_rtc_ex.c **** }
 2059              		.loc 1 1015 1 view .LVU710
 2060 0004 80B2     		uxth	r0, r0
 2061 0006 7047     		bx	lr
 2062              		.cfi_endproc
 2063              	.LFE149:
 2065              		.section	.text.HAL_RTCEx_WakeUpTimerEventCallback,"ax",%progbits
 2066              		.align	1
 2067              		.weak	HAL_RTCEx_WakeUpTimerEventCallback
 2068              		.syntax unified
 2069              		.thumb
 2070              		.thumb_func
 2071              		.fpu fpv4-sp-d16
 2073              	HAL_RTCEx_WakeUpTimerEventCallback:
 2074              	.LVL125:
 2075              	.LFB151:
ARM GAS  /var/folders/jw/jcj5j9_530958b2rm5vp9wn00000gn/T//ccckkuva.s 			page 56


1016:Drivers/STM32F3xx_HAL_Driver/Src/stm32f3xx_hal_rtc_ex.c **** 
1017:Drivers/STM32F3xx_HAL_Driver/Src/stm32f3xx_hal_rtc_ex.c **** /**
1018:Drivers/STM32F3xx_HAL_Driver/Src/stm32f3xx_hal_rtc_ex.c ****   * @brief  Handle Wake Up Timer interrupt request.
1019:Drivers/STM32F3xx_HAL_Driver/Src/stm32f3xx_hal_rtc_ex.c ****   * @param  hrtc RTC handle
1020:Drivers/STM32F3xx_HAL_Driver/Src/stm32f3xx_hal_rtc_ex.c ****   * @retval None
1021:Drivers/STM32F3xx_HAL_Driver/Src/stm32f3xx_hal_rtc_ex.c ****   */
1022:Drivers/STM32F3xx_HAL_Driver/Src/stm32f3xx_hal_rtc_ex.c **** void HAL_RTCEx_WakeUpTimerIRQHandler(RTC_HandleTypeDef *hrtc)
1023:Drivers/STM32F3xx_HAL_Driver/Src/stm32f3xx_hal_rtc_ex.c **** {
1024:Drivers/STM32F3xx_HAL_Driver/Src/stm32f3xx_hal_rtc_ex.c ****   /* Get the pending status of the WAKEUPTIMER Interrupt */
1025:Drivers/STM32F3xx_HAL_Driver/Src/stm32f3xx_hal_rtc_ex.c ****   if (__HAL_RTC_WAKEUPTIMER_GET_FLAG(hrtc, RTC_FLAG_WUTF) != RESET)
1026:Drivers/STM32F3xx_HAL_Driver/Src/stm32f3xx_hal_rtc_ex.c ****   {
1027:Drivers/STM32F3xx_HAL_Driver/Src/stm32f3xx_hal_rtc_ex.c ****     /* WAKEUPTIMER callback */
1028:Drivers/STM32F3xx_HAL_Driver/Src/stm32f3xx_hal_rtc_ex.c **** #if (USE_HAL_RTC_REGISTER_CALLBACKS == 1)
1029:Drivers/STM32F3xx_HAL_Driver/Src/stm32f3xx_hal_rtc_ex.c ****       hrtc->WakeUpTimerEventCallback(hrtc);
1030:Drivers/STM32F3xx_HAL_Driver/Src/stm32f3xx_hal_rtc_ex.c **** #else
1031:Drivers/STM32F3xx_HAL_Driver/Src/stm32f3xx_hal_rtc_ex.c ****     HAL_RTCEx_WakeUpTimerEventCallback(hrtc);
1032:Drivers/STM32F3xx_HAL_Driver/Src/stm32f3xx_hal_rtc_ex.c **** #endif /* USE_HAL_RTC_REGISTER_CALLBACKS */
1033:Drivers/STM32F3xx_HAL_Driver/Src/stm32f3xx_hal_rtc_ex.c **** 
1034:Drivers/STM32F3xx_HAL_Driver/Src/stm32f3xx_hal_rtc_ex.c ****     /* Clear the WAKEUPTIMER interrupt pending bit */
1035:Drivers/STM32F3xx_HAL_Driver/Src/stm32f3xx_hal_rtc_ex.c ****     __HAL_RTC_WAKEUPTIMER_CLEAR_FLAG(hrtc, RTC_FLAG_WUTF);
1036:Drivers/STM32F3xx_HAL_Driver/Src/stm32f3xx_hal_rtc_ex.c ****   }
1037:Drivers/STM32F3xx_HAL_Driver/Src/stm32f3xx_hal_rtc_ex.c **** 
1038:Drivers/STM32F3xx_HAL_Driver/Src/stm32f3xx_hal_rtc_ex.c ****   /* Clear the EXTI's line Flag for RTC WakeUpTimer */
1039:Drivers/STM32F3xx_HAL_Driver/Src/stm32f3xx_hal_rtc_ex.c ****   __HAL_RTC_WAKEUPTIMER_EXTI_CLEAR_FLAG();
1040:Drivers/STM32F3xx_HAL_Driver/Src/stm32f3xx_hal_rtc_ex.c **** 
1041:Drivers/STM32F3xx_HAL_Driver/Src/stm32f3xx_hal_rtc_ex.c ****   /* Change RTC state */
1042:Drivers/STM32F3xx_HAL_Driver/Src/stm32f3xx_hal_rtc_ex.c ****   hrtc->State = HAL_RTC_STATE_READY;
1043:Drivers/STM32F3xx_HAL_Driver/Src/stm32f3xx_hal_rtc_ex.c **** }
1044:Drivers/STM32F3xx_HAL_Driver/Src/stm32f3xx_hal_rtc_ex.c **** 
1045:Drivers/STM32F3xx_HAL_Driver/Src/stm32f3xx_hal_rtc_ex.c **** /**
1046:Drivers/STM32F3xx_HAL_Driver/Src/stm32f3xx_hal_rtc_ex.c ****   * @brief  Wake Up Timer callback.
1047:Drivers/STM32F3xx_HAL_Driver/Src/stm32f3xx_hal_rtc_ex.c ****   * @param  hrtc RTC handle
1048:Drivers/STM32F3xx_HAL_Driver/Src/stm32f3xx_hal_rtc_ex.c ****   * @retval None
1049:Drivers/STM32F3xx_HAL_Driver/Src/stm32f3xx_hal_rtc_ex.c ****   */
1050:Drivers/STM32F3xx_HAL_Driver/Src/stm32f3xx_hal_rtc_ex.c **** __weak void HAL_RTCEx_WakeUpTimerEventCallback(RTC_HandleTypeDef *hrtc)
1051:Drivers/STM32F3xx_HAL_Driver/Src/stm32f3xx_hal_rtc_ex.c **** {
 2076              		.loc 1 1051 1 is_stmt 1 view -0
 2077              		.cfi_startproc
 2078              		@ args = 0, pretend = 0, frame = 0
 2079              		@ frame_needed = 0, uses_anonymous_args = 0
 2080              		@ link register save eliminated.
1052:Drivers/STM32F3xx_HAL_Driver/Src/stm32f3xx_hal_rtc_ex.c ****   /* Prevent unused argument(s) compilation warning */
1053:Drivers/STM32F3xx_HAL_Driver/Src/stm32f3xx_hal_rtc_ex.c ****   UNUSED(hrtc);
 2081              		.loc 1 1053 3 view .LVU712
1054:Drivers/STM32F3xx_HAL_Driver/Src/stm32f3xx_hal_rtc_ex.c **** 
1055:Drivers/STM32F3xx_HAL_Driver/Src/stm32f3xx_hal_rtc_ex.c ****   /* NOTE : This function should not be modified, when the callback is needed,
1056:Drivers/STM32F3xx_HAL_Driver/Src/stm32f3xx_hal_rtc_ex.c ****             the HAL_RTCEx_WakeUpTimerEventCallback could be implemented in the user file
1057:Drivers/STM32F3xx_HAL_Driver/Src/stm32f3xx_hal_rtc_ex.c ****    */
1058:Drivers/STM32F3xx_HAL_Driver/Src/stm32f3xx_hal_rtc_ex.c **** }
 2082              		.loc 1 1058 1 is_stmt 0 view .LVU713
 2083 0000 7047     		bx	lr
 2084              		.cfi_endproc
 2085              	.LFE151:
 2087              		.section	.text.HAL_RTCEx_WakeUpTimerIRQHandler,"ax",%progbits
 2088              		.align	1
 2089              		.global	HAL_RTCEx_WakeUpTimerIRQHandler
 2090              		.syntax unified
ARM GAS  /var/folders/jw/jcj5j9_530958b2rm5vp9wn00000gn/T//ccckkuva.s 			page 57


 2091              		.thumb
 2092              		.thumb_func
 2093              		.fpu fpv4-sp-d16
 2095              	HAL_RTCEx_WakeUpTimerIRQHandler:
 2096              	.LVL126:
 2097              	.LFB150:
1023:Drivers/STM32F3xx_HAL_Driver/Src/stm32f3xx_hal_rtc_ex.c ****   /* Get the pending status of the WAKEUPTIMER Interrupt */
 2098              		.loc 1 1023 1 is_stmt 1 view -0
 2099              		.cfi_startproc
 2100              		@ args = 0, pretend = 0, frame = 0
 2101              		@ frame_needed = 0, uses_anonymous_args = 0
1023:Drivers/STM32F3xx_HAL_Driver/Src/stm32f3xx_hal_rtc_ex.c ****   /* Get the pending status of the WAKEUPTIMER Interrupt */
 2102              		.loc 1 1023 1 is_stmt 0 view .LVU715
 2103 0000 10B5     		push	{r4, lr}
 2104              	.LCFI19:
 2105              		.cfi_def_cfa_offset 8
 2106              		.cfi_offset 4, -8
 2107              		.cfi_offset 14, -4
 2108 0002 0446     		mov	r4, r0
1025:Drivers/STM32F3xx_HAL_Driver/Src/stm32f3xx_hal_rtc_ex.c ****   {
 2109              		.loc 1 1025 3 is_stmt 1 view .LVU716
1025:Drivers/STM32F3xx_HAL_Driver/Src/stm32f3xx_hal_rtc_ex.c ****   {
 2110              		.loc 1 1025 7 is_stmt 0 view .LVU717
 2111 0004 0368     		ldr	r3, [r0]
 2112 0006 DB68     		ldr	r3, [r3, #12]
1025:Drivers/STM32F3xx_HAL_Driver/Src/stm32f3xx_hal_rtc_ex.c ****   {
 2113              		.loc 1 1025 6 view .LVU718
 2114 0008 13F4806F 		tst	r3, #1024
 2115 000c 06D1     		bne	.L133
 2116              	.LVL127:
 2117              	.L131:
1039:Drivers/STM32F3xx_HAL_Driver/Src/stm32f3xx_hal_rtc_ex.c **** 
 2118              		.loc 1 1039 3 is_stmt 1 view .LVU719
 2119 000e 084B     		ldr	r3, .L134
 2120 0010 4FF48012 		mov	r2, #1048576
 2121 0014 5A61     		str	r2, [r3, #20]
1042:Drivers/STM32F3xx_HAL_Driver/Src/stm32f3xx_hal_rtc_ex.c **** }
 2122              		.loc 1 1042 3 view .LVU720
1042:Drivers/STM32F3xx_HAL_Driver/Src/stm32f3xx_hal_rtc_ex.c **** }
 2123              		.loc 1 1042 15 is_stmt 0 view .LVU721
 2124 0016 0123     		movs	r3, #1
 2125 0018 6377     		strb	r3, [r4, #29]
1043:Drivers/STM32F3xx_HAL_Driver/Src/stm32f3xx_hal_rtc_ex.c **** 
 2126              		.loc 1 1043 1 view .LVU722
 2127 001a 10BD     		pop	{r4, pc}
 2128              	.LVL128:
 2129              	.L133:
1031:Drivers/STM32F3xx_HAL_Driver/Src/stm32f3xx_hal_rtc_ex.c **** #endif /* USE_HAL_RTC_REGISTER_CALLBACKS */
 2130              		.loc 1 1031 5 is_stmt 1 view .LVU723
 2131 001c FFF7FEFF 		bl	HAL_RTCEx_WakeUpTimerEventCallback
 2132              	.LVL129:
1035:Drivers/STM32F3xx_HAL_Driver/Src/stm32f3xx_hal_rtc_ex.c ****   }
 2133              		.loc 1 1035 5 view .LVU724
 2134 0020 2268     		ldr	r2, [r4]
 2135 0022 D368     		ldr	r3, [r2, #12]
 2136 0024 DBB2     		uxtb	r3, r3
 2137 0026 63F49063 		orn	r3, r3, #1152
ARM GAS  /var/folders/jw/jcj5j9_530958b2rm5vp9wn00000gn/T//ccckkuva.s 			page 58


 2138 002a D360     		str	r3, [r2, #12]
 2139 002c EFE7     		b	.L131
 2140              	.L135:
 2141 002e 00BF     		.align	2
 2142              	.L134:
 2143 0030 00040140 		.word	1073808384
 2144              		.cfi_endproc
 2145              	.LFE150:
 2147              		.section	.text.HAL_RTCEx_PollForWakeUpTimerEvent,"ax",%progbits
 2148              		.align	1
 2149              		.global	HAL_RTCEx_PollForWakeUpTimerEvent
 2150              		.syntax unified
 2151              		.thumb
 2152              		.thumb_func
 2153              		.fpu fpv4-sp-d16
 2155              	HAL_RTCEx_PollForWakeUpTimerEvent:
 2156              	.LVL130:
 2157              	.LFB152:
1059:Drivers/STM32F3xx_HAL_Driver/Src/stm32f3xx_hal_rtc_ex.c **** 
1060:Drivers/STM32F3xx_HAL_Driver/Src/stm32f3xx_hal_rtc_ex.c **** /**
1061:Drivers/STM32F3xx_HAL_Driver/Src/stm32f3xx_hal_rtc_ex.c ****  * @brief  Handle Wake Up Timer Polling.
1062:Drivers/STM32F3xx_HAL_Driver/Src/stm32f3xx_hal_rtc_ex.c ****   * @param  hrtc RTC handle
1063:Drivers/STM32F3xx_HAL_Driver/Src/stm32f3xx_hal_rtc_ex.c ****   * @param  Timeout Timeout duration
1064:Drivers/STM32F3xx_HAL_Driver/Src/stm32f3xx_hal_rtc_ex.c ****   * @retval HAL status
1065:Drivers/STM32F3xx_HAL_Driver/Src/stm32f3xx_hal_rtc_ex.c ****   */
1066:Drivers/STM32F3xx_HAL_Driver/Src/stm32f3xx_hal_rtc_ex.c **** HAL_StatusTypeDef HAL_RTCEx_PollForWakeUpTimerEvent(RTC_HandleTypeDef *hrtc, uint32_t Timeout)
1067:Drivers/STM32F3xx_HAL_Driver/Src/stm32f3xx_hal_rtc_ex.c **** {
 2158              		.loc 1 1067 1 view -0
 2159              		.cfi_startproc
 2160              		@ args = 0, pretend = 0, frame = 0
 2161              		@ frame_needed = 0, uses_anonymous_args = 0
 2162              		.loc 1 1067 1 is_stmt 0 view .LVU726
 2163 0000 70B5     		push	{r4, r5, r6, lr}
 2164              	.LCFI20:
 2165              		.cfi_def_cfa_offset 16
 2166              		.cfi_offset 4, -16
 2167              		.cfi_offset 5, -12
 2168              		.cfi_offset 6, -8
 2169              		.cfi_offset 14, -4
 2170 0002 0446     		mov	r4, r0
 2171 0004 0D46     		mov	r5, r1
1068:Drivers/STM32F3xx_HAL_Driver/Src/stm32f3xx_hal_rtc_ex.c ****   uint32_t tickstart = HAL_GetTick();
 2172              		.loc 1 1068 3 is_stmt 1 view .LVU727
 2173              		.loc 1 1068 24 is_stmt 0 view .LVU728
 2174 0006 FFF7FEFF 		bl	HAL_GetTick
 2175              	.LVL131:
 2176              		.loc 1 1068 24 view .LVU729
 2177 000a 0646     		mov	r6, r0
 2178              	.LVL132:
1069:Drivers/STM32F3xx_HAL_Driver/Src/stm32f3xx_hal_rtc_ex.c **** 
1070:Drivers/STM32F3xx_HAL_Driver/Src/stm32f3xx_hal_rtc_ex.c ****   while (__HAL_RTC_WAKEUPTIMER_GET_FLAG(hrtc, RTC_FLAG_WUTF) == RESET)
 2179              		.loc 1 1070 3 is_stmt 1 view .LVU730
 2180              	.L138:
 2181              		.loc 1 1070 9 view .LVU731
 2182              		.loc 1 1070 10 is_stmt 0 view .LVU732
 2183 000c 2368     		ldr	r3, [r4]
 2184 000e DA68     		ldr	r2, [r3, #12]
ARM GAS  /var/folders/jw/jcj5j9_530958b2rm5vp9wn00000gn/T//ccckkuva.s 			page 59


 2185              		.loc 1 1070 9 view .LVU733
 2186 0010 12F4806F 		tst	r2, #1024
 2187 0014 0BD1     		bne	.L143
1071:Drivers/STM32F3xx_HAL_Driver/Src/stm32f3xx_hal_rtc_ex.c ****   {
1072:Drivers/STM32F3xx_HAL_Driver/Src/stm32f3xx_hal_rtc_ex.c ****     if (Timeout != HAL_MAX_DELAY)
 2188              		.loc 1 1072 5 is_stmt 1 view .LVU734
 2189              		.loc 1 1072 8 is_stmt 0 view .LVU735
 2190 0016 B5F1FF3F 		cmp	r5, #-1
 2191 001a F7D0     		beq	.L138
1073:Drivers/STM32F3xx_HAL_Driver/Src/stm32f3xx_hal_rtc_ex.c ****     {
1074:Drivers/STM32F3xx_HAL_Driver/Src/stm32f3xx_hal_rtc_ex.c ****       if ((Timeout == 0U) || ((HAL_GetTick() - tickstart) > Timeout))
 2192              		.loc 1 1074 7 is_stmt 1 view .LVU736
 2193              		.loc 1 1074 10 is_stmt 0 view .LVU737
 2194 001c 25B1     		cbz	r5, .L139
 2195              		.loc 1 1074 32 discriminator 1 view .LVU738
 2196 001e FFF7FEFF 		bl	HAL_GetTick
 2197              	.LVL133:
 2198              		.loc 1 1074 46 discriminator 1 view .LVU739
 2199 0022 801B     		subs	r0, r0, r6
 2200              		.loc 1 1074 27 discriminator 1 view .LVU740
 2201 0024 A842     		cmp	r0, r5
 2202 0026 F1D9     		bls	.L138
 2203              	.L139:
1075:Drivers/STM32F3xx_HAL_Driver/Src/stm32f3xx_hal_rtc_ex.c ****       {
1076:Drivers/STM32F3xx_HAL_Driver/Src/stm32f3xx_hal_rtc_ex.c ****         hrtc->State = HAL_RTC_STATE_TIMEOUT;
 2204              		.loc 1 1076 9 is_stmt 1 view .LVU741
 2205              		.loc 1 1076 21 is_stmt 0 view .LVU742
 2206 0028 0320     		movs	r0, #3
 2207 002a 6077     		strb	r0, [r4, #29]
1077:Drivers/STM32F3xx_HAL_Driver/Src/stm32f3xx_hal_rtc_ex.c **** 
1078:Drivers/STM32F3xx_HAL_Driver/Src/stm32f3xx_hal_rtc_ex.c ****         return HAL_TIMEOUT;
 2208              		.loc 1 1078 9 is_stmt 1 view .LVU743
 2209              		.loc 1 1078 16 is_stmt 0 view .LVU744
 2210 002c 07E0     		b	.L140
 2211              	.L143:
1079:Drivers/STM32F3xx_HAL_Driver/Src/stm32f3xx_hal_rtc_ex.c ****       }
1080:Drivers/STM32F3xx_HAL_Driver/Src/stm32f3xx_hal_rtc_ex.c ****     }
1081:Drivers/STM32F3xx_HAL_Driver/Src/stm32f3xx_hal_rtc_ex.c ****   }
1082:Drivers/STM32F3xx_HAL_Driver/Src/stm32f3xx_hal_rtc_ex.c **** 
1083:Drivers/STM32F3xx_HAL_Driver/Src/stm32f3xx_hal_rtc_ex.c ****   /* Clear the WAKEUPTIMER Flag */
1084:Drivers/STM32F3xx_HAL_Driver/Src/stm32f3xx_hal_rtc_ex.c ****   __HAL_RTC_WAKEUPTIMER_CLEAR_FLAG(hrtc, RTC_FLAG_WUTF);
 2212              		.loc 1 1084 3 is_stmt 1 view .LVU745
 2213 002e DA68     		ldr	r2, [r3, #12]
 2214 0030 D2B2     		uxtb	r2, r2
 2215 0032 62F49062 		orn	r2, r2, #1152
 2216 0036 DA60     		str	r2, [r3, #12]
1085:Drivers/STM32F3xx_HAL_Driver/Src/stm32f3xx_hal_rtc_ex.c **** 
1086:Drivers/STM32F3xx_HAL_Driver/Src/stm32f3xx_hal_rtc_ex.c ****   /* Change RTC state */
1087:Drivers/STM32F3xx_HAL_Driver/Src/stm32f3xx_hal_rtc_ex.c ****   hrtc->State = HAL_RTC_STATE_READY;
 2217              		.loc 1 1087 3 view .LVU746
 2218              		.loc 1 1087 15 is_stmt 0 view .LVU747
 2219 0038 0123     		movs	r3, #1
 2220 003a 6377     		strb	r3, [r4, #29]
1088:Drivers/STM32F3xx_HAL_Driver/Src/stm32f3xx_hal_rtc_ex.c **** 
1089:Drivers/STM32F3xx_HAL_Driver/Src/stm32f3xx_hal_rtc_ex.c ****   return HAL_OK;
 2221              		.loc 1 1089 3 is_stmt 1 view .LVU748
 2222              		.loc 1 1089 10 is_stmt 0 view .LVU749
ARM GAS  /var/folders/jw/jcj5j9_530958b2rm5vp9wn00000gn/T//ccckkuva.s 			page 60


 2223 003c 0020     		movs	r0, #0
 2224              	.L140:
1090:Drivers/STM32F3xx_HAL_Driver/Src/stm32f3xx_hal_rtc_ex.c **** }
 2225              		.loc 1 1090 1 view .LVU750
 2226 003e 70BD     		pop	{r4, r5, r6, pc}
 2227              		.loc 1 1090 1 view .LVU751
 2228              		.cfi_endproc
 2229              	.LFE152:
 2231              		.section	.text.HAL_RTCEx_BKUPWrite,"ax",%progbits
 2232              		.align	1
 2233              		.global	HAL_RTCEx_BKUPWrite
 2234              		.syntax unified
 2235              		.thumb
 2236              		.thumb_func
 2237              		.fpu fpv4-sp-d16
 2239              	HAL_RTCEx_BKUPWrite:
 2240              	.LVL134:
 2241              	.LFB153:
1091:Drivers/STM32F3xx_HAL_Driver/Src/stm32f3xx_hal_rtc_ex.c **** 
1092:Drivers/STM32F3xx_HAL_Driver/Src/stm32f3xx_hal_rtc_ex.c **** /**
1093:Drivers/STM32F3xx_HAL_Driver/Src/stm32f3xx_hal_rtc_ex.c ****   * @}
1094:Drivers/STM32F3xx_HAL_Driver/Src/stm32f3xx_hal_rtc_ex.c ****   */
1095:Drivers/STM32F3xx_HAL_Driver/Src/stm32f3xx_hal_rtc_ex.c **** 
1096:Drivers/STM32F3xx_HAL_Driver/Src/stm32f3xx_hal_rtc_ex.c **** 
1097:Drivers/STM32F3xx_HAL_Driver/Src/stm32f3xx_hal_rtc_ex.c **** /** @addtogroup RTCEx_Exported_Functions_Group3
1098:Drivers/STM32F3xx_HAL_Driver/Src/stm32f3xx_hal_rtc_ex.c ****   * @brief    Extended Peripheral Control functions
1099:Drivers/STM32F3xx_HAL_Driver/Src/stm32f3xx_hal_rtc_ex.c ****   *
1100:Drivers/STM32F3xx_HAL_Driver/Src/stm32f3xx_hal_rtc_ex.c **** @verbatim
1101:Drivers/STM32F3xx_HAL_Driver/Src/stm32f3xx_hal_rtc_ex.c ****  ===============================================================================
1102:Drivers/STM32F3xx_HAL_Driver/Src/stm32f3xx_hal_rtc_ex.c ****               ##### Extended Peripheral Control functions #####
1103:Drivers/STM32F3xx_HAL_Driver/Src/stm32f3xx_hal_rtc_ex.c ****  ===============================================================================
1104:Drivers/STM32F3xx_HAL_Driver/Src/stm32f3xx_hal_rtc_ex.c ****     [..]
1105:Drivers/STM32F3xx_HAL_Driver/Src/stm32f3xx_hal_rtc_ex.c ****     This subsection provides functions allowing to
1106:Drivers/STM32F3xx_HAL_Driver/Src/stm32f3xx_hal_rtc_ex.c ****       (+) Write a data in a specified RTC Backup data register
1107:Drivers/STM32F3xx_HAL_Driver/Src/stm32f3xx_hal_rtc_ex.c ****       (+) Read a data in a specified RTC Backup data register
1108:Drivers/STM32F3xx_HAL_Driver/Src/stm32f3xx_hal_rtc_ex.c ****       (+) Set the Coarse calibration parameters.
1109:Drivers/STM32F3xx_HAL_Driver/Src/stm32f3xx_hal_rtc_ex.c ****       (+) Deactivate the Coarse calibration parameters
1110:Drivers/STM32F3xx_HAL_Driver/Src/stm32f3xx_hal_rtc_ex.c ****       (+) Set the Smooth calibration parameters.
1111:Drivers/STM32F3xx_HAL_Driver/Src/stm32f3xx_hal_rtc_ex.c ****       (+) Configure the Synchronization Shift Control Settings.
1112:Drivers/STM32F3xx_HAL_Driver/Src/stm32f3xx_hal_rtc_ex.c ****       (+) Configure the Calibration Pinout (RTC_CALIB) Selection (1Hz or 512Hz).
1113:Drivers/STM32F3xx_HAL_Driver/Src/stm32f3xx_hal_rtc_ex.c ****       (+) Deactivate the Calibration Pinout (RTC_CALIB) Selection (1Hz or 512Hz).
1114:Drivers/STM32F3xx_HAL_Driver/Src/stm32f3xx_hal_rtc_ex.c ****       (+) Enable the RTC reference clock detection.
1115:Drivers/STM32F3xx_HAL_Driver/Src/stm32f3xx_hal_rtc_ex.c ****       (+) Disable the RTC reference clock detection.
1116:Drivers/STM32F3xx_HAL_Driver/Src/stm32f3xx_hal_rtc_ex.c ****       (+) Enable the Bypass Shadow feature.
1117:Drivers/STM32F3xx_HAL_Driver/Src/stm32f3xx_hal_rtc_ex.c ****       (+) Disable the Bypass Shadow feature.
1118:Drivers/STM32F3xx_HAL_Driver/Src/stm32f3xx_hal_rtc_ex.c **** 
1119:Drivers/STM32F3xx_HAL_Driver/Src/stm32f3xx_hal_rtc_ex.c **** @endverbatim
1120:Drivers/STM32F3xx_HAL_Driver/Src/stm32f3xx_hal_rtc_ex.c ****   * @{
1121:Drivers/STM32F3xx_HAL_Driver/Src/stm32f3xx_hal_rtc_ex.c ****   */
1122:Drivers/STM32F3xx_HAL_Driver/Src/stm32f3xx_hal_rtc_ex.c **** 
1123:Drivers/STM32F3xx_HAL_Driver/Src/stm32f3xx_hal_rtc_ex.c **** /**
1124:Drivers/STM32F3xx_HAL_Driver/Src/stm32f3xx_hal_rtc_ex.c ****   * @brief  Write a data in a specified RTC Backup data register.
1125:Drivers/STM32F3xx_HAL_Driver/Src/stm32f3xx_hal_rtc_ex.c ****   * @param  hrtc RTC handle
1126:Drivers/STM32F3xx_HAL_Driver/Src/stm32f3xx_hal_rtc_ex.c ****   * @param  BackupRegister RTC Backup data Register number.
1127:Drivers/STM32F3xx_HAL_Driver/Src/stm32f3xx_hal_rtc_ex.c ****   *          This parameter can be: RTC_BKP_DRx where x can be from 0 to 19 to
1128:Drivers/STM32F3xx_HAL_Driver/Src/stm32f3xx_hal_rtc_ex.c ****   *                                 specify the register.
1129:Drivers/STM32F3xx_HAL_Driver/Src/stm32f3xx_hal_rtc_ex.c ****   * @param  Data Data to be written in the specified RTC Backup data register.
ARM GAS  /var/folders/jw/jcj5j9_530958b2rm5vp9wn00000gn/T//ccckkuva.s 			page 61


1130:Drivers/STM32F3xx_HAL_Driver/Src/stm32f3xx_hal_rtc_ex.c ****   * @retval None
1131:Drivers/STM32F3xx_HAL_Driver/Src/stm32f3xx_hal_rtc_ex.c ****   */
1132:Drivers/STM32F3xx_HAL_Driver/Src/stm32f3xx_hal_rtc_ex.c **** void HAL_RTCEx_BKUPWrite(RTC_HandleTypeDef *hrtc, uint32_t BackupRegister, uint32_t Data)
1133:Drivers/STM32F3xx_HAL_Driver/Src/stm32f3xx_hal_rtc_ex.c **** {
 2242              		.loc 1 1133 1 is_stmt 1 view -0
 2243              		.cfi_startproc
 2244              		@ args = 0, pretend = 0, frame = 0
 2245              		@ frame_needed = 0, uses_anonymous_args = 0
 2246              		@ link register save eliminated.
1134:Drivers/STM32F3xx_HAL_Driver/Src/stm32f3xx_hal_rtc_ex.c ****   uint32_t tmp = 0U;
 2247              		.loc 1 1134 3 view .LVU753
1135:Drivers/STM32F3xx_HAL_Driver/Src/stm32f3xx_hal_rtc_ex.c **** 
1136:Drivers/STM32F3xx_HAL_Driver/Src/stm32f3xx_hal_rtc_ex.c ****   /* Check the parameters */
1137:Drivers/STM32F3xx_HAL_Driver/Src/stm32f3xx_hal_rtc_ex.c ****   assert_param(IS_RTC_BKP(BackupRegister));
 2248              		.loc 1 1137 3 view .LVU754
1138:Drivers/STM32F3xx_HAL_Driver/Src/stm32f3xx_hal_rtc_ex.c **** 
1139:Drivers/STM32F3xx_HAL_Driver/Src/stm32f3xx_hal_rtc_ex.c ****   tmp = (uint32_t) & (hrtc->Instance->BKP0R);
 2249              		.loc 1 1139 3 view .LVU755
 2250              		.loc 1 1139 27 is_stmt 0 view .LVU756
 2251 0000 0368     		ldr	r3, [r0]
 2252              		.loc 1 1139 20 view .LVU757
 2253 0002 5033     		adds	r3, r3, #80
 2254              	.LVL135:
1140:Drivers/STM32F3xx_HAL_Driver/Src/stm32f3xx_hal_rtc_ex.c ****   tmp += (BackupRegister * 4U);
 2255              		.loc 1 1140 3 is_stmt 1 view .LVU758
1141:Drivers/STM32F3xx_HAL_Driver/Src/stm32f3xx_hal_rtc_ex.c **** 
1142:Drivers/STM32F3xx_HAL_Driver/Src/stm32f3xx_hal_rtc_ex.c ****   /* Write the specified register */
1143:Drivers/STM32F3xx_HAL_Driver/Src/stm32f3xx_hal_rtc_ex.c ****   *(__IO uint32_t *)tmp = (uint32_t)Data;
 2256              		.loc 1 1143 3 view .LVU759
 2257              		.loc 1 1143 25 is_stmt 0 view .LVU760
 2258 0004 43F82120 		str	r2, [r3, r1, lsl #2]
1144:Drivers/STM32F3xx_HAL_Driver/Src/stm32f3xx_hal_rtc_ex.c **** }
 2259              		.loc 1 1144 1 view .LVU761
 2260 0008 7047     		bx	lr
 2261              		.cfi_endproc
 2262              	.LFE153:
 2264              		.section	.text.HAL_RTCEx_BKUPRead,"ax",%progbits
 2265              		.align	1
 2266              		.global	HAL_RTCEx_BKUPRead
 2267              		.syntax unified
 2268              		.thumb
 2269              		.thumb_func
 2270              		.fpu fpv4-sp-d16
 2272              	HAL_RTCEx_BKUPRead:
 2273              	.LVL136:
 2274              	.LFB154:
1145:Drivers/STM32F3xx_HAL_Driver/Src/stm32f3xx_hal_rtc_ex.c **** 
1146:Drivers/STM32F3xx_HAL_Driver/Src/stm32f3xx_hal_rtc_ex.c **** /**
1147:Drivers/STM32F3xx_HAL_Driver/Src/stm32f3xx_hal_rtc_ex.c ****   * @brief  Reads data from the specified RTC Backup data Register.
1148:Drivers/STM32F3xx_HAL_Driver/Src/stm32f3xx_hal_rtc_ex.c ****   * @param  hrtc RTC handle
1149:Drivers/STM32F3xx_HAL_Driver/Src/stm32f3xx_hal_rtc_ex.c ****   * @param  BackupRegister RTC Backup data Register number.
1150:Drivers/STM32F3xx_HAL_Driver/Src/stm32f3xx_hal_rtc_ex.c ****   *          This parameter can be: RTC_BKP_DRx where x can be from 0 to 19 to
1151:Drivers/STM32F3xx_HAL_Driver/Src/stm32f3xx_hal_rtc_ex.c ****   *                                 specify the register.
1152:Drivers/STM32F3xx_HAL_Driver/Src/stm32f3xx_hal_rtc_ex.c ****   * @retval Read value
1153:Drivers/STM32F3xx_HAL_Driver/Src/stm32f3xx_hal_rtc_ex.c ****   */
1154:Drivers/STM32F3xx_HAL_Driver/Src/stm32f3xx_hal_rtc_ex.c **** uint32_t HAL_RTCEx_BKUPRead(RTC_HandleTypeDef *hrtc, uint32_t BackupRegister)
1155:Drivers/STM32F3xx_HAL_Driver/Src/stm32f3xx_hal_rtc_ex.c **** {
ARM GAS  /var/folders/jw/jcj5j9_530958b2rm5vp9wn00000gn/T//ccckkuva.s 			page 62


 2275              		.loc 1 1155 1 is_stmt 1 view -0
 2276              		.cfi_startproc
 2277              		@ args = 0, pretend = 0, frame = 0
 2278              		@ frame_needed = 0, uses_anonymous_args = 0
 2279              		@ link register save eliminated.
1156:Drivers/STM32F3xx_HAL_Driver/Src/stm32f3xx_hal_rtc_ex.c ****   uint32_t tmp = 0U;
 2280              		.loc 1 1156 3 view .LVU763
1157:Drivers/STM32F3xx_HAL_Driver/Src/stm32f3xx_hal_rtc_ex.c **** 
1158:Drivers/STM32F3xx_HAL_Driver/Src/stm32f3xx_hal_rtc_ex.c ****   /* Check the parameters */
1159:Drivers/STM32F3xx_HAL_Driver/Src/stm32f3xx_hal_rtc_ex.c ****   assert_param(IS_RTC_BKP(BackupRegister));
 2281              		.loc 1 1159 3 view .LVU764
1160:Drivers/STM32F3xx_HAL_Driver/Src/stm32f3xx_hal_rtc_ex.c **** 
1161:Drivers/STM32F3xx_HAL_Driver/Src/stm32f3xx_hal_rtc_ex.c ****   tmp = (uint32_t) & (hrtc->Instance->BKP0R);
 2282              		.loc 1 1161 3 view .LVU765
 2283              		.loc 1 1161 27 is_stmt 0 view .LVU766
 2284 0000 0368     		ldr	r3, [r0]
 2285              		.loc 1 1161 20 view .LVU767
 2286 0002 5033     		adds	r3, r3, #80
 2287              	.LVL137:
1162:Drivers/STM32F3xx_HAL_Driver/Src/stm32f3xx_hal_rtc_ex.c ****   tmp += (BackupRegister * 4U);
 2288              		.loc 1 1162 3 is_stmt 1 view .LVU768
1163:Drivers/STM32F3xx_HAL_Driver/Src/stm32f3xx_hal_rtc_ex.c **** 
1164:Drivers/STM32F3xx_HAL_Driver/Src/stm32f3xx_hal_rtc_ex.c ****   /* Read the specified register */
1165:Drivers/STM32F3xx_HAL_Driver/Src/stm32f3xx_hal_rtc_ex.c ****   return (*(__IO uint32_t *)tmp);
 2289              		.loc 1 1165 3 view .LVU769
 2290              		.loc 1 1165 11 is_stmt 0 view .LVU770
 2291 0004 53F82100 		ldr	r0, [r3, r1, lsl #2]
 2292              	.LVL138:
1166:Drivers/STM32F3xx_HAL_Driver/Src/stm32f3xx_hal_rtc_ex.c **** }
 2293              		.loc 1 1166 1 view .LVU771
 2294 0008 7047     		bx	lr
 2295              		.cfi_endproc
 2296              	.LFE154:
 2298              		.section	.text.HAL_RTCEx_SetSmoothCalib,"ax",%progbits
 2299              		.align	1
 2300              		.global	HAL_RTCEx_SetSmoothCalib
 2301              		.syntax unified
 2302              		.thumb
 2303              		.thumb_func
 2304              		.fpu fpv4-sp-d16
 2306              	HAL_RTCEx_SetSmoothCalib:
 2307              	.LVL139:
 2308              	.LFB155:
1167:Drivers/STM32F3xx_HAL_Driver/Src/stm32f3xx_hal_rtc_ex.c **** 
1168:Drivers/STM32F3xx_HAL_Driver/Src/stm32f3xx_hal_rtc_ex.c **** /**
1169:Drivers/STM32F3xx_HAL_Driver/Src/stm32f3xx_hal_rtc_ex.c ****   * @brief  Set the Smooth calibration parameters.
1170:Drivers/STM32F3xx_HAL_Driver/Src/stm32f3xx_hal_rtc_ex.c ****   * @param  hrtc RTC handle
1171:Drivers/STM32F3xx_HAL_Driver/Src/stm32f3xx_hal_rtc_ex.c ****   * @param  SmoothCalibPeriod Select the Smooth Calibration Period.
1172:Drivers/STM32F3xx_HAL_Driver/Src/stm32f3xx_hal_rtc_ex.c ****   *          This parameter can be can be one of the following values :
1173:Drivers/STM32F3xx_HAL_Driver/Src/stm32f3xx_hal_rtc_ex.c ****   *             @arg RTC_SMOOTHCALIB_PERIOD_32SEC: The smooth calibration period is 32s.
1174:Drivers/STM32F3xx_HAL_Driver/Src/stm32f3xx_hal_rtc_ex.c ****   *             @arg RTC_SMOOTHCALIB_PERIOD_16SEC: The smooth calibration period is 16s.
1175:Drivers/STM32F3xx_HAL_Driver/Src/stm32f3xx_hal_rtc_ex.c ****   *             @arg RTC_SMOOTHCALIB_PERIOD_8SEC: The smooth calibration period is 8s.
1176:Drivers/STM32F3xx_HAL_Driver/Src/stm32f3xx_hal_rtc_ex.c ****   * @param  SmoothCalibPlusPulses Select to Set or reset the CALP bit.
1177:Drivers/STM32F3xx_HAL_Driver/Src/stm32f3xx_hal_rtc_ex.c ****   *          This parameter can be one of the following values:
1178:Drivers/STM32F3xx_HAL_Driver/Src/stm32f3xx_hal_rtc_ex.c ****   *             @arg RTC_SMOOTHCALIB_PLUSPULSES_SET: Add one RTCCLK pulse every 2*11 pulses.
1179:Drivers/STM32F3xx_HAL_Driver/Src/stm32f3xx_hal_rtc_ex.c ****   *             @arg RTC_SMOOTHCALIB_PLUSPULSES_RESET: No RTCCLK pulses are added.
1180:Drivers/STM32F3xx_HAL_Driver/Src/stm32f3xx_hal_rtc_ex.c ****   * @param  SmoothCalibMinusPulsesValue Select the value of CALM[8:0] bits.
ARM GAS  /var/folders/jw/jcj5j9_530958b2rm5vp9wn00000gn/T//ccckkuva.s 			page 63


1181:Drivers/STM32F3xx_HAL_Driver/Src/stm32f3xx_hal_rtc_ex.c ****   *          This parameter can be one any value from 0 to 0x000001FF.
1182:Drivers/STM32F3xx_HAL_Driver/Src/stm32f3xx_hal_rtc_ex.c ****   * @note   To deactivate the smooth calibration, the field SmoothCalibPlusPulses
1183:Drivers/STM32F3xx_HAL_Driver/Src/stm32f3xx_hal_rtc_ex.c ****   *         must be equal to SMOOTHCALIB_PLUSPULSES_RESET and the field
1184:Drivers/STM32F3xx_HAL_Driver/Src/stm32f3xx_hal_rtc_ex.c ****   *         SmoothCalibMinusPulsesValue mut be equal to 0.
1185:Drivers/STM32F3xx_HAL_Driver/Src/stm32f3xx_hal_rtc_ex.c ****   * @retval HAL status
1186:Drivers/STM32F3xx_HAL_Driver/Src/stm32f3xx_hal_rtc_ex.c ****   */
1187:Drivers/STM32F3xx_HAL_Driver/Src/stm32f3xx_hal_rtc_ex.c **** HAL_StatusTypeDef HAL_RTCEx_SetSmoothCalib(RTC_HandleTypeDef *hrtc, uint32_t SmoothCalibPeriod, uin
1188:Drivers/STM32F3xx_HAL_Driver/Src/stm32f3xx_hal_rtc_ex.c **** {
 2309              		.loc 1 1188 1 is_stmt 1 view -0
 2310              		.cfi_startproc
 2311              		@ args = 0, pretend = 0, frame = 0
 2312              		@ frame_needed = 0, uses_anonymous_args = 0
 2313              		.loc 1 1188 1 is_stmt 0 view .LVU773
 2314 0000 2DE9F843 		push	{r3, r4, r5, r6, r7, r8, r9, lr}
 2315              	.LCFI21:
 2316              		.cfi_def_cfa_offset 32
 2317              		.cfi_offset 3, -32
 2318              		.cfi_offset 4, -28
 2319              		.cfi_offset 5, -24
 2320              		.cfi_offset 6, -20
 2321              		.cfi_offset 7, -16
 2322              		.cfi_offset 8, -12
 2323              		.cfi_offset 9, -8
 2324              		.cfi_offset 14, -4
 2325 0004 1F46     		mov	r7, r3
1189:Drivers/STM32F3xx_HAL_Driver/Src/stm32f3xx_hal_rtc_ex.c ****   uint32_t tickstart = 0U;
 2326              		.loc 1 1189 3 is_stmt 1 view .LVU774
 2327              	.LVL140:
1190:Drivers/STM32F3xx_HAL_Driver/Src/stm32f3xx_hal_rtc_ex.c **** 
1191:Drivers/STM32F3xx_HAL_Driver/Src/stm32f3xx_hal_rtc_ex.c ****   /* Check the parameters */
1192:Drivers/STM32F3xx_HAL_Driver/Src/stm32f3xx_hal_rtc_ex.c ****   assert_param(IS_RTC_SMOOTH_CALIB_PERIOD(SmoothCalibPeriod));
 2328              		.loc 1 1192 3 view .LVU775
1193:Drivers/STM32F3xx_HAL_Driver/Src/stm32f3xx_hal_rtc_ex.c ****   assert_param(IS_RTC_SMOOTH_CALIB_PLUS(SmoothCalibPlusPulses));
 2329              		.loc 1 1193 3 view .LVU776
1194:Drivers/STM32F3xx_HAL_Driver/Src/stm32f3xx_hal_rtc_ex.c ****   assert_param(IS_RTC_SMOOTH_CALIB_MINUS(SmoothCalibMinusPulsesValue));
 2330              		.loc 1 1194 3 view .LVU777
1195:Drivers/STM32F3xx_HAL_Driver/Src/stm32f3xx_hal_rtc_ex.c **** 
1196:Drivers/STM32F3xx_HAL_Driver/Src/stm32f3xx_hal_rtc_ex.c ****   /* Process Locked */
1197:Drivers/STM32F3xx_HAL_Driver/Src/stm32f3xx_hal_rtc_ex.c ****   __HAL_LOCK(hrtc);
 2331              		.loc 1 1197 3 view .LVU778
 2332              		.loc 1 1197 3 view .LVU779
 2333 0006 037F     		ldrb	r3, [r0, #28]	@ zero_extendqisi2
 2334              	.LVL141:
 2335              		.loc 1 1197 3 is_stmt 0 view .LVU780
 2336 0008 012B     		cmp	r3, #1
 2337 000a 36D0     		beq	.L151
 2338 000c 0446     		mov	r4, r0
 2339 000e 0D46     		mov	r5, r1
 2340 0010 9046     		mov	r8, r2
 2341              		.loc 1 1197 3 is_stmt 1 discriminator 2 view .LVU781
 2342 0012 0123     		movs	r3, #1
 2343 0014 0377     		strb	r3, [r0, #28]
 2344              		.loc 1 1197 3 discriminator 2 view .LVU782
1198:Drivers/STM32F3xx_HAL_Driver/Src/stm32f3xx_hal_rtc_ex.c **** 
1199:Drivers/STM32F3xx_HAL_Driver/Src/stm32f3xx_hal_rtc_ex.c ****   hrtc->State = HAL_RTC_STATE_BUSY;
 2345              		.loc 1 1199 3 discriminator 2 view .LVU783
 2346              		.loc 1 1199 15 is_stmt 0 discriminator 2 view .LVU784
ARM GAS  /var/folders/jw/jcj5j9_530958b2rm5vp9wn00000gn/T//ccckkuva.s 			page 64


 2347 0016 0223     		movs	r3, #2
 2348 0018 4377     		strb	r3, [r0, #29]
1200:Drivers/STM32F3xx_HAL_Driver/Src/stm32f3xx_hal_rtc_ex.c **** 
1201:Drivers/STM32F3xx_HAL_Driver/Src/stm32f3xx_hal_rtc_ex.c ****   /* Disable the write protection for RTC registers */
1202:Drivers/STM32F3xx_HAL_Driver/Src/stm32f3xx_hal_rtc_ex.c ****   __HAL_RTC_WRITEPROTECTION_DISABLE(hrtc);
 2349              		.loc 1 1202 3 is_stmt 1 discriminator 2 view .LVU785
 2350              		.loc 1 1202 3 discriminator 2 view .LVU786
 2351 001a 0368     		ldr	r3, [r0]
 2352 001c CA22     		movs	r2, #202
 2353              	.LVL142:
 2354              		.loc 1 1202 3 is_stmt 0 discriminator 2 view .LVU787
 2355 001e 5A62     		str	r2, [r3, #36]
 2356              		.loc 1 1202 3 is_stmt 1 discriminator 2 view .LVU788
 2357 0020 0368     		ldr	r3, [r0]
 2358 0022 5322     		movs	r2, #83
 2359 0024 5A62     		str	r2, [r3, #36]
 2360              		.loc 1 1202 3 discriminator 2 view .LVU789
1203:Drivers/STM32F3xx_HAL_Driver/Src/stm32f3xx_hal_rtc_ex.c **** 
1204:Drivers/STM32F3xx_HAL_Driver/Src/stm32f3xx_hal_rtc_ex.c ****   /* check if a calibration is pending*/
1205:Drivers/STM32F3xx_HAL_Driver/Src/stm32f3xx_hal_rtc_ex.c ****   if ((hrtc->Instance->ISR & RTC_ISR_RECALPF) != RESET)
 2361              		.loc 1 1205 3 discriminator 2 view .LVU790
 2362              		.loc 1 1205 12 is_stmt 0 discriminator 2 view .LVU791
 2363 0026 0368     		ldr	r3, [r0]
 2364              		.loc 1 1205 22 discriminator 2 view .LVU792
 2365 0028 DB68     		ldr	r3, [r3, #12]
 2366              		.loc 1 1205 6 discriminator 2 view .LVU793
 2367 002a 13F4803F 		tst	r3, #65536
 2368 002e 0DD1     		bne	.L153
 2369              	.LVL143:
 2370              	.L148:
1206:Drivers/STM32F3xx_HAL_Driver/Src/stm32f3xx_hal_rtc_ex.c ****   {
1207:Drivers/STM32F3xx_HAL_Driver/Src/stm32f3xx_hal_rtc_ex.c ****     tickstart = HAL_GetTick();
1208:Drivers/STM32F3xx_HAL_Driver/Src/stm32f3xx_hal_rtc_ex.c **** 
1209:Drivers/STM32F3xx_HAL_Driver/Src/stm32f3xx_hal_rtc_ex.c ****     /* check if a calibration is pending*/
1210:Drivers/STM32F3xx_HAL_Driver/Src/stm32f3xx_hal_rtc_ex.c ****     while ((hrtc->Instance->ISR & RTC_ISR_RECALPF) != RESET)
1211:Drivers/STM32F3xx_HAL_Driver/Src/stm32f3xx_hal_rtc_ex.c ****     {
1212:Drivers/STM32F3xx_HAL_Driver/Src/stm32f3xx_hal_rtc_ex.c ****       if ((HAL_GetTick() - tickstart) > RTC_TIMEOUT_VALUE)
1213:Drivers/STM32F3xx_HAL_Driver/Src/stm32f3xx_hal_rtc_ex.c ****       {
1214:Drivers/STM32F3xx_HAL_Driver/Src/stm32f3xx_hal_rtc_ex.c ****         /* Enable the write protection for RTC registers */
1215:Drivers/STM32F3xx_HAL_Driver/Src/stm32f3xx_hal_rtc_ex.c ****         __HAL_RTC_WRITEPROTECTION_ENABLE(hrtc);
1216:Drivers/STM32F3xx_HAL_Driver/Src/stm32f3xx_hal_rtc_ex.c **** 
1217:Drivers/STM32F3xx_HAL_Driver/Src/stm32f3xx_hal_rtc_ex.c ****         /* Change RTC state */
1218:Drivers/STM32F3xx_HAL_Driver/Src/stm32f3xx_hal_rtc_ex.c ****         hrtc->State = HAL_RTC_STATE_TIMEOUT;
1219:Drivers/STM32F3xx_HAL_Driver/Src/stm32f3xx_hal_rtc_ex.c **** 
1220:Drivers/STM32F3xx_HAL_Driver/Src/stm32f3xx_hal_rtc_ex.c ****         /* Process Unlocked */
1221:Drivers/STM32F3xx_HAL_Driver/Src/stm32f3xx_hal_rtc_ex.c ****         __HAL_UNLOCK(hrtc);
1222:Drivers/STM32F3xx_HAL_Driver/Src/stm32f3xx_hal_rtc_ex.c **** 
1223:Drivers/STM32F3xx_HAL_Driver/Src/stm32f3xx_hal_rtc_ex.c ****         return HAL_TIMEOUT;
1224:Drivers/STM32F3xx_HAL_Driver/Src/stm32f3xx_hal_rtc_ex.c ****       }
1225:Drivers/STM32F3xx_HAL_Driver/Src/stm32f3xx_hal_rtc_ex.c ****     }
1226:Drivers/STM32F3xx_HAL_Driver/Src/stm32f3xx_hal_rtc_ex.c ****   }
1227:Drivers/STM32F3xx_HAL_Driver/Src/stm32f3xx_hal_rtc_ex.c **** 
1228:Drivers/STM32F3xx_HAL_Driver/Src/stm32f3xx_hal_rtc_ex.c ****   /* Configure the Smooth calibration settings */
1229:Drivers/STM32F3xx_HAL_Driver/Src/stm32f3xx_hal_rtc_ex.c ****   hrtc->Instance->CALR = (uint32_t)((uint32_t)SmoothCalibPeriod | (uint32_t)SmoothCalibPlusPulses |
 2371              		.loc 1 1229 3 is_stmt 1 view .LVU794
 2372              		.loc 1 1229 65 is_stmt 0 view .LVU795
 2373 0030 45EA0805 		orr	r5, r5, r8
ARM GAS  /var/folders/jw/jcj5j9_530958b2rm5vp9wn00000gn/T//ccckkuva.s 			page 65


 2374              	.LVL144:
 2375              		.loc 1 1229 7 view .LVU796
 2376 0034 2368     		ldr	r3, [r4]
 2377              		.loc 1 1229 26 view .LVU797
 2378 0036 2F43     		orrs	r7, r7, r5
 2379              	.LVL145:
 2380              		.loc 1 1229 24 view .LVU798
 2381 0038 DF63     		str	r7, [r3, #60]
1230:Drivers/STM32F3xx_HAL_Driver/Src/stm32f3xx_hal_rtc_ex.c **** 
1231:Drivers/STM32F3xx_HAL_Driver/Src/stm32f3xx_hal_rtc_ex.c ****   /* Enable the write protection for RTC registers */
1232:Drivers/STM32F3xx_HAL_Driver/Src/stm32f3xx_hal_rtc_ex.c ****   __HAL_RTC_WRITEPROTECTION_ENABLE(hrtc);
 2382              		.loc 1 1232 3 is_stmt 1 view .LVU799
 2383              		.loc 1 1232 3 view .LVU800
 2384 003a 2368     		ldr	r3, [r4]
 2385 003c FF22     		movs	r2, #255
 2386 003e 5A62     		str	r2, [r3, #36]
 2387              		.loc 1 1232 3 view .LVU801
1233:Drivers/STM32F3xx_HAL_Driver/Src/stm32f3xx_hal_rtc_ex.c **** 
1234:Drivers/STM32F3xx_HAL_Driver/Src/stm32f3xx_hal_rtc_ex.c ****   /* Change RTC state */
1235:Drivers/STM32F3xx_HAL_Driver/Src/stm32f3xx_hal_rtc_ex.c ****   hrtc->State = HAL_RTC_STATE_READY;
 2388              		.loc 1 1235 3 view .LVU802
 2389              		.loc 1 1235 15 is_stmt 0 view .LVU803
 2390 0040 0123     		movs	r3, #1
 2391 0042 6377     		strb	r3, [r4, #29]
1236:Drivers/STM32F3xx_HAL_Driver/Src/stm32f3xx_hal_rtc_ex.c **** 
1237:Drivers/STM32F3xx_HAL_Driver/Src/stm32f3xx_hal_rtc_ex.c ****   /* Process Unlocked */
1238:Drivers/STM32F3xx_HAL_Driver/Src/stm32f3xx_hal_rtc_ex.c ****   __HAL_UNLOCK(hrtc);
 2392              		.loc 1 1238 3 is_stmt 1 view .LVU804
 2393              		.loc 1 1238 3 view .LVU805
 2394 0044 0020     		movs	r0, #0
 2395 0046 2077     		strb	r0, [r4, #28]
 2396              		.loc 1 1238 3 view .LVU806
1239:Drivers/STM32F3xx_HAL_Driver/Src/stm32f3xx_hal_rtc_ex.c **** 
1240:Drivers/STM32F3xx_HAL_Driver/Src/stm32f3xx_hal_rtc_ex.c ****   return HAL_OK;
 2397              		.loc 1 1240 3 view .LVU807
 2398              	.LVL146:
 2399              	.L147:
1241:Drivers/STM32F3xx_HAL_Driver/Src/stm32f3xx_hal_rtc_ex.c **** }
 2400              		.loc 1 1241 1 is_stmt 0 view .LVU808
 2401 0048 BDE8F883 		pop	{r3, r4, r5, r6, r7, r8, r9, pc}
 2402              	.LVL147:
 2403              	.L153:
1207:Drivers/STM32F3xx_HAL_Driver/Src/stm32f3xx_hal_rtc_ex.c **** 
 2404              		.loc 1 1207 5 is_stmt 1 view .LVU809
1207:Drivers/STM32F3xx_HAL_Driver/Src/stm32f3xx_hal_rtc_ex.c **** 
 2405              		.loc 1 1207 17 is_stmt 0 view .LVU810
 2406 004c FFF7FEFF 		bl	HAL_GetTick
 2407              	.LVL148:
1207:Drivers/STM32F3xx_HAL_Driver/Src/stm32f3xx_hal_rtc_ex.c **** 
 2408              		.loc 1 1207 17 view .LVU811
 2409 0050 8146     		mov	r9, r0
 2410              	.LVL149:
1210:Drivers/STM32F3xx_HAL_Driver/Src/stm32f3xx_hal_rtc_ex.c ****     {
 2411              		.loc 1 1210 5 is_stmt 1 view .LVU812
 2412              	.L149:
1210:Drivers/STM32F3xx_HAL_Driver/Src/stm32f3xx_hal_rtc_ex.c ****     {
 2413              		.loc 1 1210 11 view .LVU813
ARM GAS  /var/folders/jw/jcj5j9_530958b2rm5vp9wn00000gn/T//ccckkuva.s 			page 66


1210:Drivers/STM32F3xx_HAL_Driver/Src/stm32f3xx_hal_rtc_ex.c ****     {
 2414              		.loc 1 1210 17 is_stmt 0 view .LVU814
 2415 0052 2368     		ldr	r3, [r4]
1210:Drivers/STM32F3xx_HAL_Driver/Src/stm32f3xx_hal_rtc_ex.c ****     {
 2416              		.loc 1 1210 27 view .LVU815
 2417 0054 DE68     		ldr	r6, [r3, #12]
1210:Drivers/STM32F3xx_HAL_Driver/Src/stm32f3xx_hal_rtc_ex.c ****     {
 2418              		.loc 1 1210 11 view .LVU816
 2419 0056 16F4803F 		tst	r6, #65536
 2420 005a E9D0     		beq	.L148
1212:Drivers/STM32F3xx_HAL_Driver/Src/stm32f3xx_hal_rtc_ex.c ****       {
 2421              		.loc 1 1212 7 is_stmt 1 view .LVU817
1212:Drivers/STM32F3xx_HAL_Driver/Src/stm32f3xx_hal_rtc_ex.c ****       {
 2422              		.loc 1 1212 12 is_stmt 0 view .LVU818
 2423 005c FFF7FEFF 		bl	HAL_GetTick
 2424              	.LVL150:
1212:Drivers/STM32F3xx_HAL_Driver/Src/stm32f3xx_hal_rtc_ex.c ****       {
 2425              		.loc 1 1212 26 view .LVU819
 2426 0060 A0EB0900 		sub	r0, r0, r9
1212:Drivers/STM32F3xx_HAL_Driver/Src/stm32f3xx_hal_rtc_ex.c ****       {
 2427              		.loc 1 1212 10 view .LVU820
 2428 0064 B0F57A7F 		cmp	r0, #1000
 2429 0068 F3D9     		bls	.L149
1215:Drivers/STM32F3xx_HAL_Driver/Src/stm32f3xx_hal_rtc_ex.c **** 
 2430              		.loc 1 1215 9 is_stmt 1 view .LVU821
1215:Drivers/STM32F3xx_HAL_Driver/Src/stm32f3xx_hal_rtc_ex.c **** 
 2431              		.loc 1 1215 9 view .LVU822
 2432 006a 2368     		ldr	r3, [r4]
 2433 006c FF22     		movs	r2, #255
 2434 006e 5A62     		str	r2, [r3, #36]
1215:Drivers/STM32F3xx_HAL_Driver/Src/stm32f3xx_hal_rtc_ex.c **** 
 2435              		.loc 1 1215 9 view .LVU823
1218:Drivers/STM32F3xx_HAL_Driver/Src/stm32f3xx_hal_rtc_ex.c **** 
 2436              		.loc 1 1218 9 view .LVU824
1218:Drivers/STM32F3xx_HAL_Driver/Src/stm32f3xx_hal_rtc_ex.c **** 
 2437              		.loc 1 1218 21 is_stmt 0 view .LVU825
 2438 0070 0320     		movs	r0, #3
 2439 0072 6077     		strb	r0, [r4, #29]
1221:Drivers/STM32F3xx_HAL_Driver/Src/stm32f3xx_hal_rtc_ex.c **** 
 2440              		.loc 1 1221 9 is_stmt 1 view .LVU826
1221:Drivers/STM32F3xx_HAL_Driver/Src/stm32f3xx_hal_rtc_ex.c **** 
 2441              		.loc 1 1221 9 view .LVU827
 2442 0074 0023     		movs	r3, #0
 2443 0076 2377     		strb	r3, [r4, #28]
1221:Drivers/STM32F3xx_HAL_Driver/Src/stm32f3xx_hal_rtc_ex.c **** 
 2444              		.loc 1 1221 9 view .LVU828
1223:Drivers/STM32F3xx_HAL_Driver/Src/stm32f3xx_hal_rtc_ex.c ****       }
 2445              		.loc 1 1223 9 view .LVU829
1223:Drivers/STM32F3xx_HAL_Driver/Src/stm32f3xx_hal_rtc_ex.c ****       }
 2446              		.loc 1 1223 16 is_stmt 0 view .LVU830
 2447 0078 E6E7     		b	.L147
 2448              	.LVL151:
 2449              	.L151:
1197:Drivers/STM32F3xx_HAL_Driver/Src/stm32f3xx_hal_rtc_ex.c **** 
 2450              		.loc 1 1197 3 view .LVU831
 2451 007a 0220     		movs	r0, #2
 2452              	.LVL152:
ARM GAS  /var/folders/jw/jcj5j9_530958b2rm5vp9wn00000gn/T//ccckkuva.s 			page 67


1197:Drivers/STM32F3xx_HAL_Driver/Src/stm32f3xx_hal_rtc_ex.c **** 
 2453              		.loc 1 1197 3 view .LVU832
 2454 007c E4E7     		b	.L147
 2455              		.cfi_endproc
 2456              	.LFE155:
 2458              		.section	.text.HAL_RTCEx_SetSynchroShift,"ax",%progbits
 2459              		.align	1
 2460              		.global	HAL_RTCEx_SetSynchroShift
 2461              		.syntax unified
 2462              		.thumb
 2463              		.thumb_func
 2464              		.fpu fpv4-sp-d16
 2466              	HAL_RTCEx_SetSynchroShift:
 2467              	.LVL153:
 2468              	.LFB156:
1242:Drivers/STM32F3xx_HAL_Driver/Src/stm32f3xx_hal_rtc_ex.c **** 
1243:Drivers/STM32F3xx_HAL_Driver/Src/stm32f3xx_hal_rtc_ex.c **** /**
1244:Drivers/STM32F3xx_HAL_Driver/Src/stm32f3xx_hal_rtc_ex.c ****   * @brief  Configure the Synchronization Shift Control Settings.
1245:Drivers/STM32F3xx_HAL_Driver/Src/stm32f3xx_hal_rtc_ex.c ****   * @note   When REFCKON is set, firmware must not write to Shift control register.
1246:Drivers/STM32F3xx_HAL_Driver/Src/stm32f3xx_hal_rtc_ex.c ****   * @param  hrtc RTC handle
1247:Drivers/STM32F3xx_HAL_Driver/Src/stm32f3xx_hal_rtc_ex.c ****   * @param  ShiftAdd1S: Select to add or not 1 second to the time calendar.
1248:Drivers/STM32F3xx_HAL_Driver/Src/stm32f3xx_hal_rtc_ex.c ****   *          This parameter can be one of the following values :
1249:Drivers/STM32F3xx_HAL_Driver/Src/stm32f3xx_hal_rtc_ex.c ****   *             @arg RTC_SHIFTADD1S_SET: Add one second to the clock calendar.
1250:Drivers/STM32F3xx_HAL_Driver/Src/stm32f3xx_hal_rtc_ex.c ****   *             @arg RTC_SHIFTADD1S_RESET: No effect.
1251:Drivers/STM32F3xx_HAL_Driver/Src/stm32f3xx_hal_rtc_ex.c ****   * @param  ShiftSubFS Select the number of Second Fractions to substitute.
1252:Drivers/STM32F3xx_HAL_Driver/Src/stm32f3xx_hal_rtc_ex.c ****   *          This parameter can be one any value from 0 to 0x7FFF.
1253:Drivers/STM32F3xx_HAL_Driver/Src/stm32f3xx_hal_rtc_ex.c ****   * @retval HAL status
1254:Drivers/STM32F3xx_HAL_Driver/Src/stm32f3xx_hal_rtc_ex.c ****   */
1255:Drivers/STM32F3xx_HAL_Driver/Src/stm32f3xx_hal_rtc_ex.c **** HAL_StatusTypeDef HAL_RTCEx_SetSynchroShift(RTC_HandleTypeDef *hrtc, uint32_t ShiftAdd1S, uint32_t 
1256:Drivers/STM32F3xx_HAL_Driver/Src/stm32f3xx_hal_rtc_ex.c **** {
 2469              		.loc 1 1256 1 is_stmt 1 view -0
 2470              		.cfi_startproc
 2471              		@ args = 0, pretend = 0, frame = 0
 2472              		@ frame_needed = 0, uses_anonymous_args = 0
1257:Drivers/STM32F3xx_HAL_Driver/Src/stm32f3xx_hal_rtc_ex.c ****   uint32_t tickstart = 0U;
 2473              		.loc 1 1257 3 view .LVU834
1258:Drivers/STM32F3xx_HAL_Driver/Src/stm32f3xx_hal_rtc_ex.c **** 
1259:Drivers/STM32F3xx_HAL_Driver/Src/stm32f3xx_hal_rtc_ex.c ****   /* Check the parameters */
1260:Drivers/STM32F3xx_HAL_Driver/Src/stm32f3xx_hal_rtc_ex.c ****   assert_param(IS_RTC_SHIFT_ADD1S(ShiftAdd1S));
 2474              		.loc 1 1260 3 view .LVU835
1261:Drivers/STM32F3xx_HAL_Driver/Src/stm32f3xx_hal_rtc_ex.c ****   assert_param(IS_RTC_SHIFT_SUBFS(ShiftSubFS));
 2475              		.loc 1 1261 3 view .LVU836
1262:Drivers/STM32F3xx_HAL_Driver/Src/stm32f3xx_hal_rtc_ex.c **** 
1263:Drivers/STM32F3xx_HAL_Driver/Src/stm32f3xx_hal_rtc_ex.c ****   /* Process Locked */
1264:Drivers/STM32F3xx_HAL_Driver/Src/stm32f3xx_hal_rtc_ex.c ****   __HAL_LOCK(hrtc);
 2476              		.loc 1 1264 3 view .LVU837
 2477              		.loc 1 1264 3 view .LVU838
 2478 0000 037F     		ldrb	r3, [r0, #28]	@ zero_extendqisi2
 2479 0002 012B     		cmp	r3, #1
 2480 0004 4FD0     		beq	.L160
1256:Drivers/STM32F3xx_HAL_Driver/Src/stm32f3xx_hal_rtc_ex.c ****   uint32_t tickstart = 0U;
 2481              		.loc 1 1256 1 is_stmt 0 discriminator 2 view .LVU839
 2482 0006 2DE9F041 		push	{r4, r5, r6, r7, r8, lr}
 2483              	.LCFI22:
 2484              		.cfi_def_cfa_offset 24
 2485              		.cfi_offset 4, -24
 2486              		.cfi_offset 5, -20
ARM GAS  /var/folders/jw/jcj5j9_530958b2rm5vp9wn00000gn/T//ccckkuva.s 			page 68


 2487              		.cfi_offset 6, -16
 2488              		.cfi_offset 7, -12
 2489              		.cfi_offset 8, -8
 2490              		.cfi_offset 14, -4
 2491 000a 0446     		mov	r4, r0
 2492 000c 8846     		mov	r8, r1
 2493 000e 1746     		mov	r7, r2
 2494              		.loc 1 1264 3 is_stmt 1 discriminator 2 view .LVU840
 2495 0010 0123     		movs	r3, #1
 2496 0012 0377     		strb	r3, [r0, #28]
 2497              		.loc 1 1264 3 discriminator 2 view .LVU841
1265:Drivers/STM32F3xx_HAL_Driver/Src/stm32f3xx_hal_rtc_ex.c **** 
1266:Drivers/STM32F3xx_HAL_Driver/Src/stm32f3xx_hal_rtc_ex.c ****   hrtc->State = HAL_RTC_STATE_BUSY;
 2498              		.loc 1 1266 3 discriminator 2 view .LVU842
 2499              		.loc 1 1266 15 is_stmt 0 discriminator 2 view .LVU843
 2500 0014 0223     		movs	r3, #2
 2501 0016 4377     		strb	r3, [r0, #29]
1267:Drivers/STM32F3xx_HAL_Driver/Src/stm32f3xx_hal_rtc_ex.c **** 
1268:Drivers/STM32F3xx_HAL_Driver/Src/stm32f3xx_hal_rtc_ex.c ****   /* Disable the write protection for RTC registers */
1269:Drivers/STM32F3xx_HAL_Driver/Src/stm32f3xx_hal_rtc_ex.c ****   __HAL_RTC_WRITEPROTECTION_DISABLE(hrtc);
 2502              		.loc 1 1269 3 is_stmt 1 discriminator 2 view .LVU844
 2503              		.loc 1 1269 3 discriminator 2 view .LVU845
 2504 0018 0368     		ldr	r3, [r0]
 2505 001a CA22     		movs	r2, #202
 2506              	.LVL154:
 2507              		.loc 1 1269 3 is_stmt 0 discriminator 2 view .LVU846
 2508 001c 5A62     		str	r2, [r3, #36]
 2509              		.loc 1 1269 3 is_stmt 1 discriminator 2 view .LVU847
 2510 001e 0368     		ldr	r3, [r0]
 2511 0020 5322     		movs	r2, #83
 2512 0022 5A62     		str	r2, [r3, #36]
 2513              		.loc 1 1269 3 discriminator 2 view .LVU848
1270:Drivers/STM32F3xx_HAL_Driver/Src/stm32f3xx_hal_rtc_ex.c **** 
1271:Drivers/STM32F3xx_HAL_Driver/Src/stm32f3xx_hal_rtc_ex.c ****   tickstart = HAL_GetTick();
 2514              		.loc 1 1271 3 discriminator 2 view .LVU849
 2515              		.loc 1 1271 15 is_stmt 0 discriminator 2 view .LVU850
 2516 0024 FFF7FEFF 		bl	HAL_GetTick
 2517              	.LVL155:
 2518              		.loc 1 1271 15 discriminator 2 view .LVU851
 2519 0028 0646     		mov	r6, r0
 2520              	.LVL156:
1272:Drivers/STM32F3xx_HAL_Driver/Src/stm32f3xx_hal_rtc_ex.c **** 
1273:Drivers/STM32F3xx_HAL_Driver/Src/stm32f3xx_hal_rtc_ex.c ****   /* Wait until the shift is completed*/
1274:Drivers/STM32F3xx_HAL_Driver/Src/stm32f3xx_hal_rtc_ex.c ****   while ((hrtc->Instance->ISR & RTC_ISR_SHPF) != RESET)
 2521              		.loc 1 1274 3 is_stmt 1 discriminator 2 view .LVU852
 2522              	.L156:
 2523              		.loc 1 1274 9 view .LVU853
 2524              		.loc 1 1274 15 is_stmt 0 view .LVU854
 2525 002a 2368     		ldr	r3, [r4]
 2526              		.loc 1 1274 25 view .LVU855
 2527 002c DD68     		ldr	r5, [r3, #12]
 2528              		.loc 1 1274 9 view .LVU856
 2529 002e 15F0080F 		tst	r5, #8
 2530 0032 0ED0     		beq	.L165
1275:Drivers/STM32F3xx_HAL_Driver/Src/stm32f3xx_hal_rtc_ex.c ****   {
1276:Drivers/STM32F3xx_HAL_Driver/Src/stm32f3xx_hal_rtc_ex.c ****     if ((HAL_GetTick() - tickstart) > RTC_TIMEOUT_VALUE)
 2531              		.loc 1 1276 5 is_stmt 1 view .LVU857
ARM GAS  /var/folders/jw/jcj5j9_530958b2rm5vp9wn00000gn/T//ccckkuva.s 			page 69


 2532              		.loc 1 1276 10 is_stmt 0 view .LVU858
 2533 0034 FFF7FEFF 		bl	HAL_GetTick
 2534              	.LVL157:
 2535              		.loc 1 1276 24 view .LVU859
 2536 0038 831B     		subs	r3, r0, r6
 2537              		.loc 1 1276 8 view .LVU860
 2538 003a B3F57A7F 		cmp	r3, #1000
 2539 003e F4D9     		bls	.L156
1277:Drivers/STM32F3xx_HAL_Driver/Src/stm32f3xx_hal_rtc_ex.c ****     {
1278:Drivers/STM32F3xx_HAL_Driver/Src/stm32f3xx_hal_rtc_ex.c ****       /* Enable the write protection for RTC registers */
1279:Drivers/STM32F3xx_HAL_Driver/Src/stm32f3xx_hal_rtc_ex.c ****       __HAL_RTC_WRITEPROTECTION_ENABLE(hrtc);
 2540              		.loc 1 1279 7 is_stmt 1 view .LVU861
 2541              		.loc 1 1279 7 view .LVU862
 2542 0040 2368     		ldr	r3, [r4]
 2543 0042 FF22     		movs	r2, #255
 2544 0044 5A62     		str	r2, [r3, #36]
 2545              		.loc 1 1279 7 view .LVU863
1280:Drivers/STM32F3xx_HAL_Driver/Src/stm32f3xx_hal_rtc_ex.c **** 
1281:Drivers/STM32F3xx_HAL_Driver/Src/stm32f3xx_hal_rtc_ex.c ****       hrtc->State = HAL_RTC_STATE_TIMEOUT;
 2546              		.loc 1 1281 7 view .LVU864
 2547              		.loc 1 1281 19 is_stmt 0 view .LVU865
 2548 0046 0320     		movs	r0, #3
 2549 0048 6077     		strb	r0, [r4, #29]
1282:Drivers/STM32F3xx_HAL_Driver/Src/stm32f3xx_hal_rtc_ex.c **** 
1283:Drivers/STM32F3xx_HAL_Driver/Src/stm32f3xx_hal_rtc_ex.c ****       /* Process Unlocked */
1284:Drivers/STM32F3xx_HAL_Driver/Src/stm32f3xx_hal_rtc_ex.c ****       __HAL_UNLOCK(hrtc);
 2550              		.loc 1 1284 7 is_stmt 1 view .LVU866
 2551              		.loc 1 1284 7 view .LVU867
 2552 004a 0023     		movs	r3, #0
 2553 004c 2377     		strb	r3, [r4, #28]
 2554              		.loc 1 1284 7 view .LVU868
1285:Drivers/STM32F3xx_HAL_Driver/Src/stm32f3xx_hal_rtc_ex.c **** 
1286:Drivers/STM32F3xx_HAL_Driver/Src/stm32f3xx_hal_rtc_ex.c ****       return HAL_TIMEOUT;
 2555              		.loc 1 1286 7 view .LVU869
 2556              	.LVL158:
 2557              	.L155:
1287:Drivers/STM32F3xx_HAL_Driver/Src/stm32f3xx_hal_rtc_ex.c ****     }
1288:Drivers/STM32F3xx_HAL_Driver/Src/stm32f3xx_hal_rtc_ex.c ****   }
