ARM GAS  /var/folders/jw/jcj5j9_530958b2rm5vp9wn00000gn/T//ccjxFM1z.s 			page 1


   1              		.cpu cortex-m4
   2              		.eabi_attribute 27, 1
   3              		.eabi_attribute 28, 1
   4              		.eabi_attribute 20, 1
   5              		.eabi_attribute 21, 1
   6              		.eabi_attribute 23, 3
   7              		.eabi_attribute 24, 1
   8              		.eabi_attribute 25, 1
   9              		.eabi_attribute 26, 1
  10              		.eabi_attribute 30, 1
  11              		.eabi_attribute 34, 1
  12              		.eabi_attribute 18, 4
  13              		.file	"usbd_conf.c"
  14              		.text
  15              	.Ltext0:
  16              		.cfi_sections	.debug_frame
  17              		.section	.text.USBD_Get_USB_Status,"ax",%progbits
  18              		.align	1
  19              		.arch armv7e-m
  20              		.syntax unified
  21              		.thumb
  22              		.thumb_func
  23              		.fpu fpv4-sp-d16
  25              	USBD_Get_USB_Status:
  26              	.LVL0:
  27              	.LFB164:
  28              		.file 1 "USB_DEVICE/Target/usbd_conf.c"
   1:USB_DEVICE/Target/usbd_conf.c **** /* USER CODE BEGIN Header */
   2:USB_DEVICE/Target/usbd_conf.c **** /**
   3:USB_DEVICE/Target/usbd_conf.c ****   ******************************************************************************
   4:USB_DEVICE/Target/usbd_conf.c ****   * @file           : Target/usbd_conf.c
   5:USB_DEVICE/Target/usbd_conf.c ****   * @version        : v2.0_Cube
   6:USB_DEVICE/Target/usbd_conf.c ****   * @brief          : This file implements the board support package for the USB device library
   7:USB_DEVICE/Target/usbd_conf.c ****   ******************************************************************************
   8:USB_DEVICE/Target/usbd_conf.c ****   * @attention
   9:USB_DEVICE/Target/usbd_conf.c ****   *
  10:USB_DEVICE/Target/usbd_conf.c ****   * <h2><center>&copy; Copyright (c) 2020 STMicroelectronics.
  11:USB_DEVICE/Target/usbd_conf.c ****   * All rights reserved.</center></h2>
  12:USB_DEVICE/Target/usbd_conf.c ****   *
  13:USB_DEVICE/Target/usbd_conf.c ****   * This software component is licensed by ST under Ultimate Liberty license
  14:USB_DEVICE/Target/usbd_conf.c ****   * SLA0044, the "License"; You may not use this file except in compliance with
  15:USB_DEVICE/Target/usbd_conf.c ****   * the License. You may obtain a copy of the License at:
  16:USB_DEVICE/Target/usbd_conf.c ****   *                             www.st.com/SLA0044
  17:USB_DEVICE/Target/usbd_conf.c ****   *
  18:USB_DEVICE/Target/usbd_conf.c ****   ******************************************************************************
  19:USB_DEVICE/Target/usbd_conf.c ****   */
  20:USB_DEVICE/Target/usbd_conf.c **** /* USER CODE END Header */
  21:USB_DEVICE/Target/usbd_conf.c **** 
  22:USB_DEVICE/Target/usbd_conf.c **** /* Includes ------------------------------------------------------------------*/
  23:USB_DEVICE/Target/usbd_conf.c **** #include "stm32f3xx.h"
  24:USB_DEVICE/Target/usbd_conf.c **** #include "stm32f3xx_hal.h"
  25:USB_DEVICE/Target/usbd_conf.c **** #include "usbd_def.h"
  26:USB_DEVICE/Target/usbd_conf.c **** #include "usbd_core.h"
  27:USB_DEVICE/Target/usbd_conf.c **** #include "usbd_cdc.h"
  28:USB_DEVICE/Target/usbd_conf.c **** 
  29:USB_DEVICE/Target/usbd_conf.c **** /* USER CODE BEGIN Includes */
  30:USB_DEVICE/Target/usbd_conf.c **** 
ARM GAS  /var/folders/jw/jcj5j9_530958b2rm5vp9wn00000gn/T//ccjxFM1z.s 			page 2


  31:USB_DEVICE/Target/usbd_conf.c **** /* USER CODE END Includes */
  32:USB_DEVICE/Target/usbd_conf.c **** 
  33:USB_DEVICE/Target/usbd_conf.c **** /* Private typedef -----------------------------------------------------------*/
  34:USB_DEVICE/Target/usbd_conf.c **** /* Private define ------------------------------------------------------------*/
  35:USB_DEVICE/Target/usbd_conf.c **** /* Private macro -------------------------------------------------------------*/
  36:USB_DEVICE/Target/usbd_conf.c **** 
  37:USB_DEVICE/Target/usbd_conf.c **** /* USER CODE BEGIN PV */
  38:USB_DEVICE/Target/usbd_conf.c **** /* Private variables ---------------------------------------------------------*/
  39:USB_DEVICE/Target/usbd_conf.c **** 
  40:USB_DEVICE/Target/usbd_conf.c **** /* USER CODE END PV */
  41:USB_DEVICE/Target/usbd_conf.c **** 
  42:USB_DEVICE/Target/usbd_conf.c **** PCD_HandleTypeDef hpcd_USB_FS;
  43:USB_DEVICE/Target/usbd_conf.c **** void Error_Handler(void);
  44:USB_DEVICE/Target/usbd_conf.c **** 
  45:USB_DEVICE/Target/usbd_conf.c **** /* USER CODE BEGIN 0 */
  46:USB_DEVICE/Target/usbd_conf.c **** 
  47:USB_DEVICE/Target/usbd_conf.c **** /* USER CODE END 0 */
  48:USB_DEVICE/Target/usbd_conf.c **** 
  49:USB_DEVICE/Target/usbd_conf.c **** /* USER CODE BEGIN PFP */
  50:USB_DEVICE/Target/usbd_conf.c **** /* Private function prototypes -----------------------------------------------*/
  51:USB_DEVICE/Target/usbd_conf.c **** 
  52:USB_DEVICE/Target/usbd_conf.c **** /* USER CODE END PFP */
  53:USB_DEVICE/Target/usbd_conf.c **** 
  54:USB_DEVICE/Target/usbd_conf.c **** /* Private functions ---------------------------------------------------------*/
  55:USB_DEVICE/Target/usbd_conf.c **** static USBD_StatusTypeDef USBD_Get_USB_Status(HAL_StatusTypeDef hal_status);
  56:USB_DEVICE/Target/usbd_conf.c **** /* USER CODE BEGIN 1 */
  57:USB_DEVICE/Target/usbd_conf.c **** 
  58:USB_DEVICE/Target/usbd_conf.c **** /* USER CODE END 1 */
  59:USB_DEVICE/Target/usbd_conf.c **** #if (USE_HAL_PCD_REGISTER_CALLBACKS == 1U)
  60:USB_DEVICE/Target/usbd_conf.c **** static void PCDEx_SetConnectionState(PCD_HandleTypeDef *hpcd, uint8_t state);
  61:USB_DEVICE/Target/usbd_conf.c **** #else
  62:USB_DEVICE/Target/usbd_conf.c **** void HAL_PCDEx_SetConnectionState(PCD_HandleTypeDef *hpcd, uint8_t state);
  63:USB_DEVICE/Target/usbd_conf.c **** #endif /* USE_HAL_PCD_REGISTER_CALLBACKS */
  64:USB_DEVICE/Target/usbd_conf.c **** 
  65:USB_DEVICE/Target/usbd_conf.c **** /*******************************************************************************
  66:USB_DEVICE/Target/usbd_conf.c ****                        LL Driver Callbacks (PCD -> USB Device Library)
  67:USB_DEVICE/Target/usbd_conf.c **** *******************************************************************************/
  68:USB_DEVICE/Target/usbd_conf.c **** /* MSP Init */
  69:USB_DEVICE/Target/usbd_conf.c **** 
  70:USB_DEVICE/Target/usbd_conf.c **** void HAL_PCD_MspInit(PCD_HandleTypeDef* pcdHandle)
  71:USB_DEVICE/Target/usbd_conf.c **** {
  72:USB_DEVICE/Target/usbd_conf.c ****   GPIO_InitTypeDef GPIO_InitStruct = {0};
  73:USB_DEVICE/Target/usbd_conf.c ****   if(pcdHandle->Instance==USB)
  74:USB_DEVICE/Target/usbd_conf.c ****   {
  75:USB_DEVICE/Target/usbd_conf.c ****   /* USER CODE BEGIN USB_MspInit 0 */
  76:USB_DEVICE/Target/usbd_conf.c **** 
  77:USB_DEVICE/Target/usbd_conf.c ****   /* USER CODE END USB_MspInit 0 */
  78:USB_DEVICE/Target/usbd_conf.c **** 
  79:USB_DEVICE/Target/usbd_conf.c ****     __HAL_RCC_GPIOA_CLK_ENABLE();
  80:USB_DEVICE/Target/usbd_conf.c ****     /**USB GPIO Configuration
  81:USB_DEVICE/Target/usbd_conf.c ****     PA11     ------> USB_DM
  82:USB_DEVICE/Target/usbd_conf.c ****     PA12     ------> USB_DP
  83:USB_DEVICE/Target/usbd_conf.c ****     */
  84:USB_DEVICE/Target/usbd_conf.c ****     GPIO_InitStruct.Pin = GPIO_PIN_11|GPIO_PIN_12;
  85:USB_DEVICE/Target/usbd_conf.c ****     GPIO_InitStruct.Mode = GPIO_MODE_AF_PP;
  86:USB_DEVICE/Target/usbd_conf.c ****     GPIO_InitStruct.Pull = GPIO_NOPULL;
  87:USB_DEVICE/Target/usbd_conf.c ****     GPIO_InitStruct.Speed = GPIO_SPEED_FREQ_HIGH;
ARM GAS  /var/folders/jw/jcj5j9_530958b2rm5vp9wn00000gn/T//ccjxFM1z.s 			page 3


  88:USB_DEVICE/Target/usbd_conf.c ****     GPIO_InitStruct.Alternate = GPIO_AF14_USB;
  89:USB_DEVICE/Target/usbd_conf.c ****     HAL_GPIO_Init(GPIOA, &GPIO_InitStruct);
  90:USB_DEVICE/Target/usbd_conf.c **** 
  91:USB_DEVICE/Target/usbd_conf.c ****     /* Peripheral clock enable */
  92:USB_DEVICE/Target/usbd_conf.c ****     __HAL_RCC_USB_CLK_ENABLE();
  93:USB_DEVICE/Target/usbd_conf.c **** 
  94:USB_DEVICE/Target/usbd_conf.c ****     /* Peripheral interrupt init */
  95:USB_DEVICE/Target/usbd_conf.c ****     HAL_NVIC_SetPriority(USB_LP_IRQn, 0, 0);
  96:USB_DEVICE/Target/usbd_conf.c ****     HAL_NVIC_EnableIRQ(USB_LP_IRQn);
  97:USB_DEVICE/Target/usbd_conf.c ****   /* USER CODE BEGIN USB_MspInit 1 */
  98:USB_DEVICE/Target/usbd_conf.c **** 
  99:USB_DEVICE/Target/usbd_conf.c ****   /* USER CODE END USB_MspInit 1 */
 100:USB_DEVICE/Target/usbd_conf.c ****   }
 101:USB_DEVICE/Target/usbd_conf.c **** }
 102:USB_DEVICE/Target/usbd_conf.c **** 
 103:USB_DEVICE/Target/usbd_conf.c **** void HAL_PCD_MspDeInit(PCD_HandleTypeDef* pcdHandle)
 104:USB_DEVICE/Target/usbd_conf.c **** {
 105:USB_DEVICE/Target/usbd_conf.c ****   if(pcdHandle->Instance==USB)
 106:USB_DEVICE/Target/usbd_conf.c ****   {
 107:USB_DEVICE/Target/usbd_conf.c ****   /* USER CODE BEGIN USB_MspDeInit 0 */
 108:USB_DEVICE/Target/usbd_conf.c **** 
 109:USB_DEVICE/Target/usbd_conf.c ****   /* USER CODE END USB_MspDeInit 0 */
 110:USB_DEVICE/Target/usbd_conf.c ****     /* Peripheral clock disable */
 111:USB_DEVICE/Target/usbd_conf.c ****     __HAL_RCC_USB_CLK_DISABLE();
 112:USB_DEVICE/Target/usbd_conf.c **** 
 113:USB_DEVICE/Target/usbd_conf.c ****     /**USB GPIO Configuration
 114:USB_DEVICE/Target/usbd_conf.c ****     PA11     ------> USB_DM
 115:USB_DEVICE/Target/usbd_conf.c ****     PA12     ------> USB_DP
 116:USB_DEVICE/Target/usbd_conf.c ****     */
 117:USB_DEVICE/Target/usbd_conf.c ****     HAL_GPIO_DeInit(GPIOA, GPIO_PIN_11|GPIO_PIN_12);
 118:USB_DEVICE/Target/usbd_conf.c **** 
 119:USB_DEVICE/Target/usbd_conf.c ****     /* Peripheral interrupt Deinit*/
 120:USB_DEVICE/Target/usbd_conf.c ****     HAL_NVIC_DisableIRQ(USB_LP_IRQn);
 121:USB_DEVICE/Target/usbd_conf.c **** 
 122:USB_DEVICE/Target/usbd_conf.c ****   /* USER CODE BEGIN USB_MspDeInit 1 */
 123:USB_DEVICE/Target/usbd_conf.c **** 
 124:USB_DEVICE/Target/usbd_conf.c ****   /* USER CODE END USB_MspDeInit 1 */
 125:USB_DEVICE/Target/usbd_conf.c ****   }
 126:USB_DEVICE/Target/usbd_conf.c **** }
 127:USB_DEVICE/Target/usbd_conf.c **** 
 128:USB_DEVICE/Target/usbd_conf.c **** /**
 129:USB_DEVICE/Target/usbd_conf.c ****   * @brief  Setup stage callback
 130:USB_DEVICE/Target/usbd_conf.c ****   * @param  hpcd: PCD handle
 131:USB_DEVICE/Target/usbd_conf.c ****   * @retval None
 132:USB_DEVICE/Target/usbd_conf.c ****   */
 133:USB_DEVICE/Target/usbd_conf.c **** #if (USE_HAL_PCD_REGISTER_CALLBACKS == 1U)
 134:USB_DEVICE/Target/usbd_conf.c **** static void PCD_SetupStageCallback(PCD_HandleTypeDef *hpcd)
 135:USB_DEVICE/Target/usbd_conf.c **** #else
 136:USB_DEVICE/Target/usbd_conf.c **** void HAL_PCD_SetupStageCallback(PCD_HandleTypeDef *hpcd)
 137:USB_DEVICE/Target/usbd_conf.c **** #endif /* USE_HAL_PCD_REGISTER_CALLBACKS */
 138:USB_DEVICE/Target/usbd_conf.c **** {
 139:USB_DEVICE/Target/usbd_conf.c ****   USBD_LL_SetupStage((USBD_HandleTypeDef*)hpcd->pData, (uint8_t *)hpcd->Setup);
 140:USB_DEVICE/Target/usbd_conf.c **** }
 141:USB_DEVICE/Target/usbd_conf.c **** 
 142:USB_DEVICE/Target/usbd_conf.c **** /**
 143:USB_DEVICE/Target/usbd_conf.c ****   * @brief  Data Out stage callback.
 144:USB_DEVICE/Target/usbd_conf.c ****   * @param  hpcd: PCD handle
ARM GAS  /var/folders/jw/jcj5j9_530958b2rm5vp9wn00000gn/T//ccjxFM1z.s 			page 4


 145:USB_DEVICE/Target/usbd_conf.c ****   * @param  epnum: Endpoint number
 146:USB_DEVICE/Target/usbd_conf.c ****   * @retval None
 147:USB_DEVICE/Target/usbd_conf.c ****   */
 148:USB_DEVICE/Target/usbd_conf.c **** #if (USE_HAL_PCD_REGISTER_CALLBACKS == 1U)
 149:USB_DEVICE/Target/usbd_conf.c **** static void PCD_DataOutStageCallback(PCD_HandleTypeDef *hpcd, uint8_t epnum)
 150:USB_DEVICE/Target/usbd_conf.c **** #else
 151:USB_DEVICE/Target/usbd_conf.c **** void HAL_PCD_DataOutStageCallback(PCD_HandleTypeDef *hpcd, uint8_t epnum)
 152:USB_DEVICE/Target/usbd_conf.c **** #endif /* USE_HAL_PCD_REGISTER_CALLBACKS */
 153:USB_DEVICE/Target/usbd_conf.c **** {
 154:USB_DEVICE/Target/usbd_conf.c ****   USBD_LL_DataOutStage((USBD_HandleTypeDef*)hpcd->pData, epnum, hpcd->OUT_ep[epnum].xfer_buff);
 155:USB_DEVICE/Target/usbd_conf.c **** }
 156:USB_DEVICE/Target/usbd_conf.c **** 
 157:USB_DEVICE/Target/usbd_conf.c **** /**
 158:USB_DEVICE/Target/usbd_conf.c ****   * @brief  Data In stage callback.
 159:USB_DEVICE/Target/usbd_conf.c ****   * @param  hpcd: PCD handle
 160:USB_DEVICE/Target/usbd_conf.c ****   * @param  epnum: Endpoint number
 161:USB_DEVICE/Target/usbd_conf.c ****   * @retval None
 162:USB_DEVICE/Target/usbd_conf.c ****   */
 163:USB_DEVICE/Target/usbd_conf.c **** #if (USE_HAL_PCD_REGISTER_CALLBACKS == 1U)
 164:USB_DEVICE/Target/usbd_conf.c **** static void PCD_DataInStageCallback(PCD_HandleTypeDef *hpcd, uint8_t epnum)
 165:USB_DEVICE/Target/usbd_conf.c **** #else
 166:USB_DEVICE/Target/usbd_conf.c **** void HAL_PCD_DataInStageCallback(PCD_HandleTypeDef *hpcd, uint8_t epnum)
 167:USB_DEVICE/Target/usbd_conf.c **** #endif /* USE_HAL_PCD_REGISTER_CALLBACKS */
 168:USB_DEVICE/Target/usbd_conf.c **** {
 169:USB_DEVICE/Target/usbd_conf.c ****   USBD_LL_DataInStage((USBD_HandleTypeDef*)hpcd->pData, epnum, hpcd->IN_ep[epnum].xfer_buff);
 170:USB_DEVICE/Target/usbd_conf.c **** }
 171:USB_DEVICE/Target/usbd_conf.c **** 
 172:USB_DEVICE/Target/usbd_conf.c **** /**
 173:USB_DEVICE/Target/usbd_conf.c ****   * @brief  SOF callback.
 174:USB_DEVICE/Target/usbd_conf.c ****   * @param  hpcd: PCD handle
 175:USB_DEVICE/Target/usbd_conf.c ****   * @retval None
 176:USB_DEVICE/Target/usbd_conf.c ****   */
 177:USB_DEVICE/Target/usbd_conf.c **** #if (USE_HAL_PCD_REGISTER_CALLBACKS == 1U)
 178:USB_DEVICE/Target/usbd_conf.c **** static void PCD_SOFCallback(PCD_HandleTypeDef *hpcd)
 179:USB_DEVICE/Target/usbd_conf.c **** #else
 180:USB_DEVICE/Target/usbd_conf.c **** void HAL_PCD_SOFCallback(PCD_HandleTypeDef *hpcd)
 181:USB_DEVICE/Target/usbd_conf.c **** #endif /* USE_HAL_PCD_REGISTER_CALLBACKS */
 182:USB_DEVICE/Target/usbd_conf.c **** {
 183:USB_DEVICE/Target/usbd_conf.c ****   USBD_LL_SOF((USBD_HandleTypeDef*)hpcd->pData);
 184:USB_DEVICE/Target/usbd_conf.c **** }
 185:USB_DEVICE/Target/usbd_conf.c **** 
 186:USB_DEVICE/Target/usbd_conf.c **** /**
 187:USB_DEVICE/Target/usbd_conf.c ****   * @brief  Reset callback.
 188:USB_DEVICE/Target/usbd_conf.c ****   * @param  hpcd: PCD handle
 189:USB_DEVICE/Target/usbd_conf.c ****   * @retval None
 190:USB_DEVICE/Target/usbd_conf.c ****   */
 191:USB_DEVICE/Target/usbd_conf.c **** #if (USE_HAL_PCD_REGISTER_CALLBACKS == 1U)
 192:USB_DEVICE/Target/usbd_conf.c **** static void PCD_ResetCallback(PCD_HandleTypeDef *hpcd)
 193:USB_DEVICE/Target/usbd_conf.c **** #else
 194:USB_DEVICE/Target/usbd_conf.c **** void HAL_PCD_ResetCallback(PCD_HandleTypeDef *hpcd)
 195:USB_DEVICE/Target/usbd_conf.c **** #endif /* USE_HAL_PCD_REGISTER_CALLBACKS */
 196:USB_DEVICE/Target/usbd_conf.c **** {
 197:USB_DEVICE/Target/usbd_conf.c ****   USBD_SpeedTypeDef speed = USBD_SPEED_FULL;
 198:USB_DEVICE/Target/usbd_conf.c **** 
 199:USB_DEVICE/Target/usbd_conf.c ****   if ( hpcd->Init.speed != PCD_SPEED_FULL)
 200:USB_DEVICE/Target/usbd_conf.c ****   {
 201:USB_DEVICE/Target/usbd_conf.c ****     Error_Handler();
ARM GAS  /var/folders/jw/jcj5j9_530958b2rm5vp9wn00000gn/T//ccjxFM1z.s 			page 5


 202:USB_DEVICE/Target/usbd_conf.c ****   }
 203:USB_DEVICE/Target/usbd_conf.c ****     /* Set Speed. */
 204:USB_DEVICE/Target/usbd_conf.c ****   USBD_LL_SetSpeed((USBD_HandleTypeDef*)hpcd->pData, speed);
 205:USB_DEVICE/Target/usbd_conf.c **** 
 206:USB_DEVICE/Target/usbd_conf.c ****   /* Reset Device. */
 207:USB_DEVICE/Target/usbd_conf.c ****   USBD_LL_Reset((USBD_HandleTypeDef*)hpcd->pData);
 208:USB_DEVICE/Target/usbd_conf.c **** }
 209:USB_DEVICE/Target/usbd_conf.c **** 
 210:USB_DEVICE/Target/usbd_conf.c **** /**
 211:USB_DEVICE/Target/usbd_conf.c ****   * @brief  Suspend callback.
 212:USB_DEVICE/Target/usbd_conf.c ****   * When Low power mode is enabled the debug cannot be used (IAR, Keil doesn't support it)
 213:USB_DEVICE/Target/usbd_conf.c ****   * @param  hpcd: PCD handle
 214:USB_DEVICE/Target/usbd_conf.c ****   * @retval None
 215:USB_DEVICE/Target/usbd_conf.c ****   */
 216:USB_DEVICE/Target/usbd_conf.c **** #if (USE_HAL_PCD_REGISTER_CALLBACKS == 1U)
 217:USB_DEVICE/Target/usbd_conf.c **** static void PCD_SuspendCallback(PCD_HandleTypeDef *hpcd)
 218:USB_DEVICE/Target/usbd_conf.c **** #else
 219:USB_DEVICE/Target/usbd_conf.c **** void HAL_PCD_SuspendCallback(PCD_HandleTypeDef *hpcd)
 220:USB_DEVICE/Target/usbd_conf.c **** #endif /* USE_HAL_PCD_REGISTER_CALLBACKS */
 221:USB_DEVICE/Target/usbd_conf.c **** {
 222:USB_DEVICE/Target/usbd_conf.c ****   /* Inform USB library that core enters in suspend Mode. */
 223:USB_DEVICE/Target/usbd_conf.c ****   USBD_LL_Suspend((USBD_HandleTypeDef*)hpcd->pData);
 224:USB_DEVICE/Target/usbd_conf.c ****   /* Enter in STOP mode. */
 225:USB_DEVICE/Target/usbd_conf.c ****   /* USER CODE BEGIN 2 */
 226:USB_DEVICE/Target/usbd_conf.c ****   if (hpcd->Init.low_power_enable)
 227:USB_DEVICE/Target/usbd_conf.c ****   {
 228:USB_DEVICE/Target/usbd_conf.c ****     /* Set SLEEPDEEP bit and SleepOnExit of Cortex System Control Register. */
 229:USB_DEVICE/Target/usbd_conf.c ****     SCB->SCR |= (uint32_t)((uint32_t)(SCB_SCR_SLEEPDEEP_Msk | SCB_SCR_SLEEPONEXIT_Msk));
 230:USB_DEVICE/Target/usbd_conf.c ****   }
 231:USB_DEVICE/Target/usbd_conf.c ****   /* USER CODE END 2 */
 232:USB_DEVICE/Target/usbd_conf.c **** }
 233:USB_DEVICE/Target/usbd_conf.c **** 
 234:USB_DEVICE/Target/usbd_conf.c **** /**
 235:USB_DEVICE/Target/usbd_conf.c ****   * @brief  Resume callback.
 236:USB_DEVICE/Target/usbd_conf.c ****   * When Low power mode is enabled the debug cannot be used (IAR, Keil doesn't support it)
 237:USB_DEVICE/Target/usbd_conf.c ****   * @param  hpcd: PCD handle
 238:USB_DEVICE/Target/usbd_conf.c ****   * @retval None
 239:USB_DEVICE/Target/usbd_conf.c ****   */
 240:USB_DEVICE/Target/usbd_conf.c **** #if (USE_HAL_PCD_REGISTER_CALLBACKS == 1U)
 241:USB_DEVICE/Target/usbd_conf.c **** static void PCD_ResumeCallback(PCD_HandleTypeDef *hpcd)
 242:USB_DEVICE/Target/usbd_conf.c **** #else
 243:USB_DEVICE/Target/usbd_conf.c **** void HAL_PCD_ResumeCallback(PCD_HandleTypeDef *hpcd)
 244:USB_DEVICE/Target/usbd_conf.c **** #endif /* USE_HAL_PCD_REGISTER_CALLBACKS */
 245:USB_DEVICE/Target/usbd_conf.c **** {
 246:USB_DEVICE/Target/usbd_conf.c ****   /* USER CODE BEGIN 3 */
 247:USB_DEVICE/Target/usbd_conf.c **** 
 248:USB_DEVICE/Target/usbd_conf.c ****   /* USER CODE END 3 */
 249:USB_DEVICE/Target/usbd_conf.c ****   USBD_LL_Resume((USBD_HandleTypeDef*)hpcd->pData);
 250:USB_DEVICE/Target/usbd_conf.c **** }
 251:USB_DEVICE/Target/usbd_conf.c **** 
 252:USB_DEVICE/Target/usbd_conf.c **** /**
 253:USB_DEVICE/Target/usbd_conf.c ****   * @brief  ISOOUTIncomplete callback.
 254:USB_DEVICE/Target/usbd_conf.c ****   * @param  hpcd: PCD handle
 255:USB_DEVICE/Target/usbd_conf.c ****   * @param  epnum: Endpoint number
 256:USB_DEVICE/Target/usbd_conf.c ****   * @retval None
 257:USB_DEVICE/Target/usbd_conf.c ****   */
 258:USB_DEVICE/Target/usbd_conf.c **** #if (USE_HAL_PCD_REGISTER_CALLBACKS == 1U)
ARM GAS  /var/folders/jw/jcj5j9_530958b2rm5vp9wn00000gn/T//ccjxFM1z.s 			page 6


 259:USB_DEVICE/Target/usbd_conf.c **** static void PCD_ISOOUTIncompleteCallback(PCD_HandleTypeDef *hpcd, uint8_t epnum)
 260:USB_DEVICE/Target/usbd_conf.c **** #else
 261:USB_DEVICE/Target/usbd_conf.c **** void HAL_PCD_ISOOUTIncompleteCallback(PCD_HandleTypeDef *hpcd, uint8_t epnum)
 262:USB_DEVICE/Target/usbd_conf.c **** #endif /* USE_HAL_PCD_REGISTER_CALLBACKS */
 263:USB_DEVICE/Target/usbd_conf.c **** {
 264:USB_DEVICE/Target/usbd_conf.c ****   USBD_LL_IsoOUTIncomplete((USBD_HandleTypeDef*)hpcd->pData, epnum);
 265:USB_DEVICE/Target/usbd_conf.c **** }
 266:USB_DEVICE/Target/usbd_conf.c **** 
 267:USB_DEVICE/Target/usbd_conf.c **** /**
 268:USB_DEVICE/Target/usbd_conf.c ****   * @brief  ISOINIncomplete callback.
 269:USB_DEVICE/Target/usbd_conf.c ****   * @param  hpcd: PCD handle
 270:USB_DEVICE/Target/usbd_conf.c ****   * @param  epnum: Endpoint number
 271:USB_DEVICE/Target/usbd_conf.c ****   * @retval None
 272:USB_DEVICE/Target/usbd_conf.c ****   */
 273:USB_DEVICE/Target/usbd_conf.c **** #if (USE_HAL_PCD_REGISTER_CALLBACKS == 1U)
 274:USB_DEVICE/Target/usbd_conf.c **** static void PCD_ISOINIncompleteCallback(PCD_HandleTypeDef *hpcd, uint8_t epnum)
 275:USB_DEVICE/Target/usbd_conf.c **** #else
 276:USB_DEVICE/Target/usbd_conf.c **** void HAL_PCD_ISOINIncompleteCallback(PCD_HandleTypeDef *hpcd, uint8_t epnum)
 277:USB_DEVICE/Target/usbd_conf.c **** #endif /* USE_HAL_PCD_REGISTER_CALLBACKS */
 278:USB_DEVICE/Target/usbd_conf.c **** {
 279:USB_DEVICE/Target/usbd_conf.c ****   USBD_LL_IsoINIncomplete((USBD_HandleTypeDef*)hpcd->pData, epnum);
 280:USB_DEVICE/Target/usbd_conf.c **** }
 281:USB_DEVICE/Target/usbd_conf.c **** 
 282:USB_DEVICE/Target/usbd_conf.c **** /**
 283:USB_DEVICE/Target/usbd_conf.c ****   * @brief  Connect callback.
 284:USB_DEVICE/Target/usbd_conf.c ****   * @param  hpcd: PCD handle
 285:USB_DEVICE/Target/usbd_conf.c ****   * @retval None
 286:USB_DEVICE/Target/usbd_conf.c ****   */
 287:USB_DEVICE/Target/usbd_conf.c **** #if (USE_HAL_PCD_REGISTER_CALLBACKS == 1U)
 288:USB_DEVICE/Target/usbd_conf.c **** static void PCD_ConnectCallback(PCD_HandleTypeDef *hpcd)
 289:USB_DEVICE/Target/usbd_conf.c **** #else
 290:USB_DEVICE/Target/usbd_conf.c **** void HAL_PCD_ConnectCallback(PCD_HandleTypeDef *hpcd)
 291:USB_DEVICE/Target/usbd_conf.c **** #endif /* USE_HAL_PCD_REGISTER_CALLBACKS */
 292:USB_DEVICE/Target/usbd_conf.c **** {
 293:USB_DEVICE/Target/usbd_conf.c ****   USBD_LL_DevConnected((USBD_HandleTypeDef*)hpcd->pData);
 294:USB_DEVICE/Target/usbd_conf.c **** }
 295:USB_DEVICE/Target/usbd_conf.c **** 
 296:USB_DEVICE/Target/usbd_conf.c **** /**
 297:USB_DEVICE/Target/usbd_conf.c ****   * @brief  Disconnect callback.
 298:USB_DEVICE/Target/usbd_conf.c ****   * @param  hpcd: PCD handle
 299:USB_DEVICE/Target/usbd_conf.c ****   * @retval None
 300:USB_DEVICE/Target/usbd_conf.c ****   */
 301:USB_DEVICE/Target/usbd_conf.c **** #if (USE_HAL_PCD_REGISTER_CALLBACKS == 1U)
 302:USB_DEVICE/Target/usbd_conf.c **** static void PCD_DisconnectCallback(PCD_HandleTypeDef *hpcd)
 303:USB_DEVICE/Target/usbd_conf.c **** #else
 304:USB_DEVICE/Target/usbd_conf.c **** void HAL_PCD_DisconnectCallback(PCD_HandleTypeDef *hpcd)
 305:USB_DEVICE/Target/usbd_conf.c **** #endif /* USE_HAL_PCD_REGISTER_CALLBACKS */
 306:USB_DEVICE/Target/usbd_conf.c **** {
 307:USB_DEVICE/Target/usbd_conf.c ****   USBD_LL_DevDisconnected((USBD_HandleTypeDef*)hpcd->pData);
 308:USB_DEVICE/Target/usbd_conf.c **** }
 309:USB_DEVICE/Target/usbd_conf.c **** 
 310:USB_DEVICE/Target/usbd_conf.c **** /*******************************************************************************
 311:USB_DEVICE/Target/usbd_conf.c ****                        LL Driver Interface (USB Device Library --> PCD)
 312:USB_DEVICE/Target/usbd_conf.c **** *******************************************************************************/
 313:USB_DEVICE/Target/usbd_conf.c **** 
 314:USB_DEVICE/Target/usbd_conf.c **** /**
 315:USB_DEVICE/Target/usbd_conf.c ****   * @brief  Initializes the low level portion of the device driver.
ARM GAS  /var/folders/jw/jcj5j9_530958b2rm5vp9wn00000gn/T//ccjxFM1z.s 			page 7


 316:USB_DEVICE/Target/usbd_conf.c ****   * @param  pdev: Device handle
 317:USB_DEVICE/Target/usbd_conf.c ****   * @retval USBD status
 318:USB_DEVICE/Target/usbd_conf.c ****   */
 319:USB_DEVICE/Target/usbd_conf.c **** USBD_StatusTypeDef USBD_LL_Init(USBD_HandleTypeDef *pdev)
 320:USB_DEVICE/Target/usbd_conf.c **** {
 321:USB_DEVICE/Target/usbd_conf.c ****   /* Init USB Ip. */
 322:USB_DEVICE/Target/usbd_conf.c ****   /* Link the driver to the stack. */
 323:USB_DEVICE/Target/usbd_conf.c ****   hpcd_USB_FS.pData = pdev;
 324:USB_DEVICE/Target/usbd_conf.c ****   pdev->pData = &hpcd_USB_FS;
 325:USB_DEVICE/Target/usbd_conf.c **** 
 326:USB_DEVICE/Target/usbd_conf.c ****   hpcd_USB_FS.Instance = USB;
 327:USB_DEVICE/Target/usbd_conf.c ****   hpcd_USB_FS.Init.dev_endpoints = 8;
 328:USB_DEVICE/Target/usbd_conf.c ****   hpcd_USB_FS.Init.speed = PCD_SPEED_FULL;
 329:USB_DEVICE/Target/usbd_conf.c ****   hpcd_USB_FS.Init.phy_itface = PCD_PHY_EMBEDDED;
 330:USB_DEVICE/Target/usbd_conf.c ****   hpcd_USB_FS.Init.low_power_enable = DISABLE;
 331:USB_DEVICE/Target/usbd_conf.c ****   hpcd_USB_FS.Init.battery_charging_enable = DISABLE;
 332:USB_DEVICE/Target/usbd_conf.c ****   if (HAL_PCD_Init(&hpcd_USB_FS) != HAL_OK)
 333:USB_DEVICE/Target/usbd_conf.c ****   {
 334:USB_DEVICE/Target/usbd_conf.c ****     Error_Handler( );
 335:USB_DEVICE/Target/usbd_conf.c ****   }
 336:USB_DEVICE/Target/usbd_conf.c **** 
 337:USB_DEVICE/Target/usbd_conf.c **** #if (USE_HAL_PCD_REGISTER_CALLBACKS == 1U)
 338:USB_DEVICE/Target/usbd_conf.c ****   /* Register USB PCD CallBacks */
 339:USB_DEVICE/Target/usbd_conf.c ****   HAL_PCD_RegisterCallback(&hpcd_USB_FS, HAL_PCD_SOF_CB_ID, PCD_SOFCallback);
 340:USB_DEVICE/Target/usbd_conf.c ****   HAL_PCD_RegisterCallback(&hpcd_USB_FS, HAL_PCD_SETUPSTAGE_CB_ID, PCD_SetupStageCallback);
 341:USB_DEVICE/Target/usbd_conf.c ****   HAL_PCD_RegisterCallback(&hpcd_USB_FS, HAL_PCD_RESET_CB_ID, PCD_ResetCallback);
 342:USB_DEVICE/Target/usbd_conf.c ****   HAL_PCD_RegisterCallback(&hpcd_USB_FS, HAL_PCD_SUSPEND_CB_ID, PCD_SuspendCallback);
 343:USB_DEVICE/Target/usbd_conf.c ****   HAL_PCD_RegisterCallback(&hpcd_USB_FS, HAL_PCD_RESUME_CB_ID, PCD_ResumeCallback);
 344:USB_DEVICE/Target/usbd_conf.c ****   HAL_PCD_RegisterCallback(&hpcd_USB_FS, HAL_PCD_CONNECT_CB_ID, PCD_ConnectCallback);
 345:USB_DEVICE/Target/usbd_conf.c ****   HAL_PCD_RegisterCallback(&hpcd_USB_FS, HAL_PCD_DISCONNECT_CB_ID, PCD_DisconnectCallback);
 346:USB_DEVICE/Target/usbd_conf.c **** 
 347:USB_DEVICE/Target/usbd_conf.c ****   HAL_PCD_RegisterDataOutStageCallback(&hpcd_USB_FS, PCD_DataOutStageCallback);
 348:USB_DEVICE/Target/usbd_conf.c ****   HAL_PCD_RegisterDataInStageCallback(&hpcd_USB_FS, PCD_DataInStageCallback);
 349:USB_DEVICE/Target/usbd_conf.c ****   HAL_PCD_RegisterIsoOutIncpltCallback(&hpcd_USB_FS, PCD_ISOOUTIncompleteCallback);
 350:USB_DEVICE/Target/usbd_conf.c ****   HAL_PCD_RegisterIsoInIncpltCallback(&hpcd_USB_FS, PCD_ISOINIncompleteCallback);
 351:USB_DEVICE/Target/usbd_conf.c **** #endif /* USE_HAL_PCD_REGISTER_CALLBACKS */
 352:USB_DEVICE/Target/usbd_conf.c ****   /* USER CODE BEGIN EndPoint_Configuration */
 353:USB_DEVICE/Target/usbd_conf.c ****   HAL_PCDEx_PMAConfig((PCD_HandleTypeDef*)pdev->pData , 0x00 , PCD_SNG_BUF, 0x18);
 354:USB_DEVICE/Target/usbd_conf.c ****   HAL_PCDEx_PMAConfig((PCD_HandleTypeDef*)pdev->pData , 0x80 , PCD_SNG_BUF, 0x58);
 355:USB_DEVICE/Target/usbd_conf.c ****   /* USER CODE END EndPoint_Configuration */
 356:USB_DEVICE/Target/usbd_conf.c ****   /* USER CODE BEGIN EndPoint_Configuration_CDC */
 357:USB_DEVICE/Target/usbd_conf.c ****   HAL_PCDEx_PMAConfig((PCD_HandleTypeDef*)pdev->pData , 0x81 , PCD_SNG_BUF, 0xC0);
 358:USB_DEVICE/Target/usbd_conf.c ****   HAL_PCDEx_PMAConfig((PCD_HandleTypeDef*)pdev->pData , 0x01 , PCD_SNG_BUF, 0x110);
 359:USB_DEVICE/Target/usbd_conf.c ****   HAL_PCDEx_PMAConfig((PCD_HandleTypeDef*)pdev->pData , 0x82 , PCD_SNG_BUF, 0x100);
 360:USB_DEVICE/Target/usbd_conf.c ****   /* USER CODE END EndPoint_Configuration_CDC */
 361:USB_DEVICE/Target/usbd_conf.c ****   return USBD_OK;
 362:USB_DEVICE/Target/usbd_conf.c **** }
 363:USB_DEVICE/Target/usbd_conf.c **** 
 364:USB_DEVICE/Target/usbd_conf.c **** /**
 365:USB_DEVICE/Target/usbd_conf.c ****   * @brief  De-Initializes the low level portion of the device driver.
 366:USB_DEVICE/Target/usbd_conf.c ****   * @param  pdev: Device handle
 367:USB_DEVICE/Target/usbd_conf.c ****   * @retval USBD status
 368:USB_DEVICE/Target/usbd_conf.c ****   */
 369:USB_DEVICE/Target/usbd_conf.c **** USBD_StatusTypeDef USBD_LL_DeInit(USBD_HandleTypeDef *pdev)
 370:USB_DEVICE/Target/usbd_conf.c **** {
 371:USB_DEVICE/Target/usbd_conf.c ****   HAL_StatusTypeDef hal_status = HAL_OK;
 372:USB_DEVICE/Target/usbd_conf.c ****   USBD_StatusTypeDef usb_status = USBD_OK;
ARM GAS  /var/folders/jw/jcj5j9_530958b2rm5vp9wn00000gn/T//ccjxFM1z.s 			page 8


 373:USB_DEVICE/Target/usbd_conf.c **** 
 374:USB_DEVICE/Target/usbd_conf.c ****   hal_status = HAL_PCD_DeInit(pdev->pData);
 375:USB_DEVICE/Target/usbd_conf.c **** 
 376:USB_DEVICE/Target/usbd_conf.c ****   usb_status =  USBD_Get_USB_Status(hal_status);
 377:USB_DEVICE/Target/usbd_conf.c **** 
 378:USB_DEVICE/Target/usbd_conf.c ****   return usb_status;
 379:USB_DEVICE/Target/usbd_conf.c **** }
 380:USB_DEVICE/Target/usbd_conf.c **** 
 381:USB_DEVICE/Target/usbd_conf.c **** /**
 382:USB_DEVICE/Target/usbd_conf.c ****   * @brief  Starts the low level portion of the device driver.
 383:USB_DEVICE/Target/usbd_conf.c ****   * @param  pdev: Device handle
 384:USB_DEVICE/Target/usbd_conf.c ****   * @retval USBD status
 385:USB_DEVICE/Target/usbd_conf.c ****   */
 386:USB_DEVICE/Target/usbd_conf.c **** USBD_StatusTypeDef USBD_LL_Start(USBD_HandleTypeDef *pdev)
 387:USB_DEVICE/Target/usbd_conf.c **** {
 388:USB_DEVICE/Target/usbd_conf.c ****   HAL_StatusTypeDef hal_status = HAL_OK;
 389:USB_DEVICE/Target/usbd_conf.c ****   USBD_StatusTypeDef usb_status = USBD_OK;
 390:USB_DEVICE/Target/usbd_conf.c **** 
 391:USB_DEVICE/Target/usbd_conf.c ****   hal_status = HAL_PCD_Start(pdev->pData);
 392:USB_DEVICE/Target/usbd_conf.c **** 
 393:USB_DEVICE/Target/usbd_conf.c ****   usb_status =  USBD_Get_USB_Status(hal_status);
 394:USB_DEVICE/Target/usbd_conf.c **** 
 395:USB_DEVICE/Target/usbd_conf.c ****   return usb_status;
 396:USB_DEVICE/Target/usbd_conf.c **** }
 397:USB_DEVICE/Target/usbd_conf.c **** 
 398:USB_DEVICE/Target/usbd_conf.c **** /**
 399:USB_DEVICE/Target/usbd_conf.c ****   * @brief  Stops the low level portion of the device driver.
 400:USB_DEVICE/Target/usbd_conf.c ****   * @param  pdev: Device handle
 401:USB_DEVICE/Target/usbd_conf.c ****   * @retval USBD status
 402:USB_DEVICE/Target/usbd_conf.c ****   */
 403:USB_DEVICE/Target/usbd_conf.c **** USBD_StatusTypeDef USBD_LL_Stop(USBD_HandleTypeDef *pdev)
 404:USB_DEVICE/Target/usbd_conf.c **** {
 405:USB_DEVICE/Target/usbd_conf.c ****   HAL_StatusTypeDef hal_status = HAL_OK;
 406:USB_DEVICE/Target/usbd_conf.c ****   USBD_StatusTypeDef usb_status = USBD_OK;
 407:USB_DEVICE/Target/usbd_conf.c **** 
 408:USB_DEVICE/Target/usbd_conf.c ****   hal_status = HAL_PCD_Stop(pdev->pData);
 409:USB_DEVICE/Target/usbd_conf.c **** 
 410:USB_DEVICE/Target/usbd_conf.c ****   usb_status =  USBD_Get_USB_Status(hal_status);
 411:USB_DEVICE/Target/usbd_conf.c **** 
 412:USB_DEVICE/Target/usbd_conf.c ****   return usb_status;
 413:USB_DEVICE/Target/usbd_conf.c **** }
 414:USB_DEVICE/Target/usbd_conf.c **** 
 415:USB_DEVICE/Target/usbd_conf.c **** /**
 416:USB_DEVICE/Target/usbd_conf.c ****   * @brief  Opens an endpoint of the low level driver.
 417:USB_DEVICE/Target/usbd_conf.c ****   * @param  pdev: Device handle
 418:USB_DEVICE/Target/usbd_conf.c ****   * @param  ep_addr: Endpoint number
 419:USB_DEVICE/Target/usbd_conf.c ****   * @param  ep_type: Endpoint type
 420:USB_DEVICE/Target/usbd_conf.c ****   * @param  ep_mps: Endpoint max packet size
 421:USB_DEVICE/Target/usbd_conf.c ****   * @retval USBD status
 422:USB_DEVICE/Target/usbd_conf.c ****   */
 423:USB_DEVICE/Target/usbd_conf.c **** USBD_StatusTypeDef USBD_LL_OpenEP(USBD_HandleTypeDef *pdev, uint8_t ep_addr, uint8_t ep_type, uint1
 424:USB_DEVICE/Target/usbd_conf.c **** {
 425:USB_DEVICE/Target/usbd_conf.c ****   HAL_StatusTypeDef hal_status = HAL_OK;
 426:USB_DEVICE/Target/usbd_conf.c ****   USBD_StatusTypeDef usb_status = USBD_OK;
 427:USB_DEVICE/Target/usbd_conf.c **** 
 428:USB_DEVICE/Target/usbd_conf.c ****   hal_status = HAL_PCD_EP_Open(pdev->pData, ep_addr, ep_mps, ep_type);
 429:USB_DEVICE/Target/usbd_conf.c **** 
ARM GAS  /var/folders/jw/jcj5j9_530958b2rm5vp9wn00000gn/T//ccjxFM1z.s 			page 9


 430:USB_DEVICE/Target/usbd_conf.c ****   usb_status =  USBD_Get_USB_Status(hal_status);
 431:USB_DEVICE/Target/usbd_conf.c **** 
 432:USB_DEVICE/Target/usbd_conf.c ****   return usb_status;
 433:USB_DEVICE/Target/usbd_conf.c **** }
 434:USB_DEVICE/Target/usbd_conf.c **** 
 435:USB_DEVICE/Target/usbd_conf.c **** /**
 436:USB_DEVICE/Target/usbd_conf.c ****   * @brief  Closes an endpoint of the low level driver.
 437:USB_DEVICE/Target/usbd_conf.c ****   * @param  pdev: Device handle
 438:USB_DEVICE/Target/usbd_conf.c ****   * @param  ep_addr: Endpoint number
 439:USB_DEVICE/Target/usbd_conf.c ****   * @retval USBD status
 440:USB_DEVICE/Target/usbd_conf.c ****   */
 441:USB_DEVICE/Target/usbd_conf.c **** USBD_StatusTypeDef USBD_LL_CloseEP(USBD_HandleTypeDef *pdev, uint8_t ep_addr)
 442:USB_DEVICE/Target/usbd_conf.c **** {
 443:USB_DEVICE/Target/usbd_conf.c ****   HAL_StatusTypeDef hal_status = HAL_OK;
 444:USB_DEVICE/Target/usbd_conf.c ****   USBD_StatusTypeDef usb_status = USBD_OK;
 445:USB_DEVICE/Target/usbd_conf.c **** 
 446:USB_DEVICE/Target/usbd_conf.c ****   hal_status = HAL_PCD_EP_Close(pdev->pData, ep_addr);
 447:USB_DEVICE/Target/usbd_conf.c **** 
 448:USB_DEVICE/Target/usbd_conf.c ****   usb_status =  USBD_Get_USB_Status(hal_status);
 449:USB_DEVICE/Target/usbd_conf.c **** 
 450:USB_DEVICE/Target/usbd_conf.c ****   return usb_status;
 451:USB_DEVICE/Target/usbd_conf.c **** }
 452:USB_DEVICE/Target/usbd_conf.c **** 
 453:USB_DEVICE/Target/usbd_conf.c **** /**
 454:USB_DEVICE/Target/usbd_conf.c ****   * @brief  Flushes an endpoint of the Low Level Driver.
 455:USB_DEVICE/Target/usbd_conf.c ****   * @param  pdev: Device handle
 456:USB_DEVICE/Target/usbd_conf.c ****   * @param  ep_addr: Endpoint number
 457:USB_DEVICE/Target/usbd_conf.c ****   * @retval USBD status
 458:USB_DEVICE/Target/usbd_conf.c ****   */
 459:USB_DEVICE/Target/usbd_conf.c **** USBD_StatusTypeDef USBD_LL_FlushEP(USBD_HandleTypeDef *pdev, uint8_t ep_addr)
 460:USB_DEVICE/Target/usbd_conf.c **** {
 461:USB_DEVICE/Target/usbd_conf.c ****   HAL_StatusTypeDef hal_status = HAL_OK;
 462:USB_DEVICE/Target/usbd_conf.c ****   USBD_StatusTypeDef usb_status = USBD_OK;
 463:USB_DEVICE/Target/usbd_conf.c **** 
 464:USB_DEVICE/Target/usbd_conf.c ****   hal_status = HAL_PCD_EP_Flush(pdev->pData, ep_addr);
 465:USB_DEVICE/Target/usbd_conf.c **** 
 466:USB_DEVICE/Target/usbd_conf.c ****   usb_status =  USBD_Get_USB_Status(hal_status);
 467:USB_DEVICE/Target/usbd_conf.c **** 
 468:USB_DEVICE/Target/usbd_conf.c ****   return usb_status;
 469:USB_DEVICE/Target/usbd_conf.c **** }
 470:USB_DEVICE/Target/usbd_conf.c **** 
 471:USB_DEVICE/Target/usbd_conf.c **** /**
 472:USB_DEVICE/Target/usbd_conf.c ****   * @brief  Sets a Stall condition on an endpoint of the Low Level Driver.
 473:USB_DEVICE/Target/usbd_conf.c ****   * @param  pdev: Device handle
 474:USB_DEVICE/Target/usbd_conf.c ****   * @param  ep_addr: Endpoint number
 475:USB_DEVICE/Target/usbd_conf.c ****   * @retval USBD status
 476:USB_DEVICE/Target/usbd_conf.c ****   */
 477:USB_DEVICE/Target/usbd_conf.c **** USBD_StatusTypeDef USBD_LL_StallEP(USBD_HandleTypeDef *pdev, uint8_t ep_addr)
 478:USB_DEVICE/Target/usbd_conf.c **** {
 479:USB_DEVICE/Target/usbd_conf.c ****   HAL_StatusTypeDef hal_status = HAL_OK;
 480:USB_DEVICE/Target/usbd_conf.c ****   USBD_StatusTypeDef usb_status = USBD_OK;
 481:USB_DEVICE/Target/usbd_conf.c **** 
 482:USB_DEVICE/Target/usbd_conf.c ****   hal_status = HAL_PCD_EP_SetStall(pdev->pData, ep_addr);
 483:USB_DEVICE/Target/usbd_conf.c **** 
 484:USB_DEVICE/Target/usbd_conf.c ****   usb_status =  USBD_Get_USB_Status(hal_status);
 485:USB_DEVICE/Target/usbd_conf.c **** 
 486:USB_DEVICE/Target/usbd_conf.c ****   return usb_status;
ARM GAS  /var/folders/jw/jcj5j9_530958b2rm5vp9wn00000gn/T//ccjxFM1z.s 			page 10


 487:USB_DEVICE/Target/usbd_conf.c **** }
 488:USB_DEVICE/Target/usbd_conf.c **** 
 489:USB_DEVICE/Target/usbd_conf.c **** /**
 490:USB_DEVICE/Target/usbd_conf.c ****   * @brief  Clears a Stall condition on an endpoint of the Low Level Driver.
 491:USB_DEVICE/Target/usbd_conf.c ****   * @param  pdev: Device handle
 492:USB_DEVICE/Target/usbd_conf.c ****   * @param  ep_addr: Endpoint number
 493:USB_DEVICE/Target/usbd_conf.c ****   * @retval USBD status
 494:USB_DEVICE/Target/usbd_conf.c ****   */
 495:USB_DEVICE/Target/usbd_conf.c **** USBD_StatusTypeDef USBD_LL_ClearStallEP(USBD_HandleTypeDef *pdev, uint8_t ep_addr)
 496:USB_DEVICE/Target/usbd_conf.c **** {
 497:USB_DEVICE/Target/usbd_conf.c ****   HAL_StatusTypeDef hal_status = HAL_OK;
 498:USB_DEVICE/Target/usbd_conf.c ****   USBD_StatusTypeDef usb_status = USBD_OK;
 499:USB_DEVICE/Target/usbd_conf.c **** 
 500:USB_DEVICE/Target/usbd_conf.c ****   hal_status = HAL_PCD_EP_ClrStall(pdev->pData, ep_addr);
 501:USB_DEVICE/Target/usbd_conf.c **** 
 502:USB_DEVICE/Target/usbd_conf.c ****   usb_status =  USBD_Get_USB_Status(hal_status);
 503:USB_DEVICE/Target/usbd_conf.c **** 
 504:USB_DEVICE/Target/usbd_conf.c ****   return usb_status;
 505:USB_DEVICE/Target/usbd_conf.c **** }
 506:USB_DEVICE/Target/usbd_conf.c **** 
 507:USB_DEVICE/Target/usbd_conf.c **** /**
 508:USB_DEVICE/Target/usbd_conf.c ****   * @brief  Returns Stall condition.
 509:USB_DEVICE/Target/usbd_conf.c ****   * @param  pdev: Device handle
 510:USB_DEVICE/Target/usbd_conf.c ****   * @param  ep_addr: Endpoint number
 511:USB_DEVICE/Target/usbd_conf.c ****   * @retval Stall (1: Yes, 0: No)
 512:USB_DEVICE/Target/usbd_conf.c ****   */
 513:USB_DEVICE/Target/usbd_conf.c **** uint8_t USBD_LL_IsStallEP(USBD_HandleTypeDef *pdev, uint8_t ep_addr)
 514:USB_DEVICE/Target/usbd_conf.c **** {
 515:USB_DEVICE/Target/usbd_conf.c ****   PCD_HandleTypeDef *hpcd = (PCD_HandleTypeDef*) pdev->pData;
 516:USB_DEVICE/Target/usbd_conf.c **** 
 517:USB_DEVICE/Target/usbd_conf.c ****   if((ep_addr & 0x80) == 0x80)
 518:USB_DEVICE/Target/usbd_conf.c ****   {
 519:USB_DEVICE/Target/usbd_conf.c ****     return hpcd->IN_ep[ep_addr & 0x7F].is_stall;
 520:USB_DEVICE/Target/usbd_conf.c ****   }
 521:USB_DEVICE/Target/usbd_conf.c ****   else
 522:USB_DEVICE/Target/usbd_conf.c ****   {
 523:USB_DEVICE/Target/usbd_conf.c ****     return hpcd->OUT_ep[ep_addr & 0x7F].is_stall;
 524:USB_DEVICE/Target/usbd_conf.c ****   }
 525:USB_DEVICE/Target/usbd_conf.c **** }
 526:USB_DEVICE/Target/usbd_conf.c **** 
 527:USB_DEVICE/Target/usbd_conf.c **** /**
 528:USB_DEVICE/Target/usbd_conf.c ****   * @brief  Assigns a USB address to the device.
 529:USB_DEVICE/Target/usbd_conf.c ****   * @param  pdev: Device handle
 530:USB_DEVICE/Target/usbd_conf.c ****   * @param  dev_addr: Device address
 531:USB_DEVICE/Target/usbd_conf.c ****   * @retval USBD status
 532:USB_DEVICE/Target/usbd_conf.c ****   */
 533:USB_DEVICE/Target/usbd_conf.c **** USBD_StatusTypeDef USBD_LL_SetUSBAddress(USBD_HandleTypeDef *pdev, uint8_t dev_addr)
 534:USB_DEVICE/Target/usbd_conf.c **** {
 535:USB_DEVICE/Target/usbd_conf.c ****   HAL_StatusTypeDef hal_status = HAL_OK;
 536:USB_DEVICE/Target/usbd_conf.c ****   USBD_StatusTypeDef usb_status = USBD_OK;
 537:USB_DEVICE/Target/usbd_conf.c **** 
 538:USB_DEVICE/Target/usbd_conf.c ****   hal_status = HAL_PCD_SetAddress(pdev->pData, dev_addr);
 539:USB_DEVICE/Target/usbd_conf.c **** 
 540:USB_DEVICE/Target/usbd_conf.c ****   usb_status =  USBD_Get_USB_Status(hal_status);
 541:USB_DEVICE/Target/usbd_conf.c **** 
 542:USB_DEVICE/Target/usbd_conf.c ****   return usb_status;
 543:USB_DEVICE/Target/usbd_conf.c **** }
ARM GAS  /var/folders/jw/jcj5j9_530958b2rm5vp9wn00000gn/T//ccjxFM1z.s 			page 11


 544:USB_DEVICE/Target/usbd_conf.c **** 
 545:USB_DEVICE/Target/usbd_conf.c **** /**
 546:USB_DEVICE/Target/usbd_conf.c ****   * @brief  Transmits data over an endpoint.
 547:USB_DEVICE/Target/usbd_conf.c ****   * @param  pdev: Device handle
 548:USB_DEVICE/Target/usbd_conf.c ****   * @param  ep_addr: Endpoint number
 549:USB_DEVICE/Target/usbd_conf.c ****   * @param  pbuf: Pointer to data to be sent
 550:USB_DEVICE/Target/usbd_conf.c ****   * @param  size: Data size
 551:USB_DEVICE/Target/usbd_conf.c ****   * @retval USBD status
 552:USB_DEVICE/Target/usbd_conf.c ****   */
 553:USB_DEVICE/Target/usbd_conf.c **** USBD_StatusTypeDef USBD_LL_Transmit(USBD_HandleTypeDef *pdev, uint8_t ep_addr, uint8_t *pbuf, uint1
 554:USB_DEVICE/Target/usbd_conf.c **** {
 555:USB_DEVICE/Target/usbd_conf.c ****   HAL_StatusTypeDef hal_status = HAL_OK;
 556:USB_DEVICE/Target/usbd_conf.c ****   USBD_StatusTypeDef usb_status = USBD_OK;
 557:USB_DEVICE/Target/usbd_conf.c **** 
 558:USB_DEVICE/Target/usbd_conf.c ****   hal_status = HAL_PCD_EP_Transmit(pdev->pData, ep_addr, pbuf, size);
 559:USB_DEVICE/Target/usbd_conf.c **** 
 560:USB_DEVICE/Target/usbd_conf.c ****   usb_status =  USBD_Get_USB_Status(hal_status);
 561:USB_DEVICE/Target/usbd_conf.c **** 
 562:USB_DEVICE/Target/usbd_conf.c ****   return usb_status;
 563:USB_DEVICE/Target/usbd_conf.c **** }
 564:USB_DEVICE/Target/usbd_conf.c **** 
 565:USB_DEVICE/Target/usbd_conf.c **** /**
 566:USB_DEVICE/Target/usbd_conf.c ****   * @brief  Prepares an endpoint for reception.
 567:USB_DEVICE/Target/usbd_conf.c ****   * @param  pdev: Device handle
 568:USB_DEVICE/Target/usbd_conf.c ****   * @param  ep_addr: Endpoint number
 569:USB_DEVICE/Target/usbd_conf.c ****   * @param  pbuf: Pointer to data to be received
 570:USB_DEVICE/Target/usbd_conf.c ****   * @param  size: Data size
 571:USB_DEVICE/Target/usbd_conf.c ****   * @retval USBD status
 572:USB_DEVICE/Target/usbd_conf.c ****   */
 573:USB_DEVICE/Target/usbd_conf.c **** USBD_StatusTypeDef USBD_LL_PrepareReceive(USBD_HandleTypeDef *pdev, uint8_t ep_addr, uint8_t *pbuf,
 574:USB_DEVICE/Target/usbd_conf.c **** {
 575:USB_DEVICE/Target/usbd_conf.c ****   HAL_StatusTypeDef hal_status = HAL_OK;
 576:USB_DEVICE/Target/usbd_conf.c ****   USBD_StatusTypeDef usb_status = USBD_OK;
 577:USB_DEVICE/Target/usbd_conf.c **** 
 578:USB_DEVICE/Target/usbd_conf.c ****   hal_status = HAL_PCD_EP_Receive(pdev->pData, ep_addr, pbuf, size);
 579:USB_DEVICE/Target/usbd_conf.c **** 
 580:USB_DEVICE/Target/usbd_conf.c ****   usb_status =  USBD_Get_USB_Status(hal_status);
 581:USB_DEVICE/Target/usbd_conf.c **** 
 582:USB_DEVICE/Target/usbd_conf.c ****   return usb_status;
 583:USB_DEVICE/Target/usbd_conf.c **** }
 584:USB_DEVICE/Target/usbd_conf.c **** 
 585:USB_DEVICE/Target/usbd_conf.c **** /**
 586:USB_DEVICE/Target/usbd_conf.c ****   * @brief  Returns the last transfered packet size.
 587:USB_DEVICE/Target/usbd_conf.c ****   * @param  pdev: Device handle
 588:USB_DEVICE/Target/usbd_conf.c ****   * @param  ep_addr: Endpoint number
 589:USB_DEVICE/Target/usbd_conf.c ****   * @retval Recived Data Size
 590:USB_DEVICE/Target/usbd_conf.c ****   */
 591:USB_DEVICE/Target/usbd_conf.c **** uint32_t USBD_LL_GetRxDataSize(USBD_HandleTypeDef *pdev, uint8_t ep_addr)
 592:USB_DEVICE/Target/usbd_conf.c **** {
 593:USB_DEVICE/Target/usbd_conf.c ****   return HAL_PCD_EP_GetRxCount((PCD_HandleTypeDef*) pdev->pData, ep_addr);
 594:USB_DEVICE/Target/usbd_conf.c **** }
 595:USB_DEVICE/Target/usbd_conf.c **** 
 596:USB_DEVICE/Target/usbd_conf.c **** /**
 597:USB_DEVICE/Target/usbd_conf.c ****   * @brief  Delays routine for the USB device library.
 598:USB_DEVICE/Target/usbd_conf.c ****   * @param  Delay: Delay in ms
 599:USB_DEVICE/Target/usbd_conf.c ****   * @retval None
 600:USB_DEVICE/Target/usbd_conf.c ****   */
ARM GAS  /var/folders/jw/jcj5j9_530958b2rm5vp9wn00000gn/T//ccjxFM1z.s 			page 12


 601:USB_DEVICE/Target/usbd_conf.c **** void USBD_LL_Delay(uint32_t Delay)
 602:USB_DEVICE/Target/usbd_conf.c **** {
 603:USB_DEVICE/Target/usbd_conf.c ****   HAL_Delay(Delay);
 604:USB_DEVICE/Target/usbd_conf.c **** }
 605:USB_DEVICE/Target/usbd_conf.c **** 
 606:USB_DEVICE/Target/usbd_conf.c **** /**
 607:USB_DEVICE/Target/usbd_conf.c ****   * @brief  Static single allocation.
 608:USB_DEVICE/Target/usbd_conf.c ****   * @param  size: Size of allocated memory
 609:USB_DEVICE/Target/usbd_conf.c ****   * @retval None
 610:USB_DEVICE/Target/usbd_conf.c ****   */
 611:USB_DEVICE/Target/usbd_conf.c **** void *USBD_static_malloc(uint32_t size)
 612:USB_DEVICE/Target/usbd_conf.c **** {
 613:USB_DEVICE/Target/usbd_conf.c ****   static uint32_t mem[(sizeof(USBD_CDC_HandleTypeDef)/4)+1];/* On 32-bit boundary */
 614:USB_DEVICE/Target/usbd_conf.c ****   return mem;
 615:USB_DEVICE/Target/usbd_conf.c **** }
 616:USB_DEVICE/Target/usbd_conf.c **** 
 617:USB_DEVICE/Target/usbd_conf.c **** /**
 618:USB_DEVICE/Target/usbd_conf.c ****   * @brief  Dummy memory free
 619:USB_DEVICE/Target/usbd_conf.c ****   * @param  p: Pointer to allocated  memory address
 620:USB_DEVICE/Target/usbd_conf.c ****   * @retval None
 621:USB_DEVICE/Target/usbd_conf.c ****   */
 622:USB_DEVICE/Target/usbd_conf.c **** void USBD_static_free(void *p)
 623:USB_DEVICE/Target/usbd_conf.c **** {
 624:USB_DEVICE/Target/usbd_conf.c **** 
 625:USB_DEVICE/Target/usbd_conf.c **** }
 626:USB_DEVICE/Target/usbd_conf.c **** 
 627:USB_DEVICE/Target/usbd_conf.c **** /**
 628:USB_DEVICE/Target/usbd_conf.c ****   * @brief Software device connection
 629:USB_DEVICE/Target/usbd_conf.c ****   * @param hpcd: PCD handle
 630:USB_DEVICE/Target/usbd_conf.c ****   * @param state: Connection state (0: disconnected / 1: connected)
 631:USB_DEVICE/Target/usbd_conf.c ****   * @retval None
 632:USB_DEVICE/Target/usbd_conf.c ****   */
 633:USB_DEVICE/Target/usbd_conf.c **** #if (USE_HAL_PCD_REGISTER_CALLBACKS == 1U)
 634:USB_DEVICE/Target/usbd_conf.c **** void PCDEx_SetConnectionState(PCD_HandleTypeDef *hpcd, uint8_t state)
 635:USB_DEVICE/Target/usbd_conf.c **** #else
 636:USB_DEVICE/Target/usbd_conf.c **** void HAL_PCDEx_SetConnectionState(PCD_HandleTypeDef *hpcd, uint8_t state)
 637:USB_DEVICE/Target/usbd_conf.c **** #endif /* USE_HAL_PCD_REGISTER_CALLBACKS */
 638:USB_DEVICE/Target/usbd_conf.c **** {
 639:USB_DEVICE/Target/usbd_conf.c ****   /* USER CODE BEGIN 6 */
 640:USB_DEVICE/Target/usbd_conf.c ****   if (state == 1)
 641:USB_DEVICE/Target/usbd_conf.c ****   {
 642:USB_DEVICE/Target/usbd_conf.c ****     /* Configure Low connection state. */
 643:USB_DEVICE/Target/usbd_conf.c **** 
 644:USB_DEVICE/Target/usbd_conf.c ****   }
 645:USB_DEVICE/Target/usbd_conf.c ****   else
 646:USB_DEVICE/Target/usbd_conf.c ****   {
 647:USB_DEVICE/Target/usbd_conf.c ****     /* Configure High connection state. */
 648:USB_DEVICE/Target/usbd_conf.c **** 
 649:USB_DEVICE/Target/usbd_conf.c ****   }
 650:USB_DEVICE/Target/usbd_conf.c ****   /* USER CODE END 6 */
 651:USB_DEVICE/Target/usbd_conf.c **** }
 652:USB_DEVICE/Target/usbd_conf.c **** 
 653:USB_DEVICE/Target/usbd_conf.c **** /**
 654:USB_DEVICE/Target/usbd_conf.c ****   * @brief  Retuns the USB status depending on the HAL status:
 655:USB_DEVICE/Target/usbd_conf.c ****   * @param  hal_status: HAL status
 656:USB_DEVICE/Target/usbd_conf.c ****   * @retval USB status
 657:USB_DEVICE/Target/usbd_conf.c ****   */
ARM GAS  /var/folders/jw/jcj5j9_530958b2rm5vp9wn00000gn/T//ccjxFM1z.s 			page 13


 658:USB_DEVICE/Target/usbd_conf.c **** USBD_StatusTypeDef USBD_Get_USB_Status(HAL_StatusTypeDef hal_status)
 659:USB_DEVICE/Target/usbd_conf.c **** {
  29              		.loc 1 659 1 view -0
  30              		.cfi_startproc
  31              		@ args = 0, pretend = 0, frame = 0
  32              		@ frame_needed = 0, uses_anonymous_args = 0
  33              		@ link register save eliminated.
 660:USB_DEVICE/Target/usbd_conf.c ****   USBD_StatusTypeDef usb_status = USBD_OK;
  34              		.loc 1 660 3 view .LVU1
 661:USB_DEVICE/Target/usbd_conf.c **** 
 662:USB_DEVICE/Target/usbd_conf.c ****   switch (hal_status)
  35              		.loc 1 662 3 view .LVU2
  36 0000 0228     		cmp	r0, #2
  37 0002 05D8     		bhi	.L6
  38 0004 DFE800F0 		tbb	[pc, r0]
  39              	.L4:
  40 0008 05       		.byte	(.L2-.L4)/2
  41 0009 04       		.byte	(.L6-.L4)/2
  42 000a 02       		.byte	(.L3-.L4)/2
  43 000b 00       		.p2align 1
  44              	.L3:
 663:USB_DEVICE/Target/usbd_conf.c ****   {
 664:USB_DEVICE/Target/usbd_conf.c ****     case HAL_OK :
 665:USB_DEVICE/Target/usbd_conf.c ****       usb_status = USBD_OK;
 666:USB_DEVICE/Target/usbd_conf.c ****     break;
 667:USB_DEVICE/Target/usbd_conf.c ****     case HAL_ERROR :
 668:USB_DEVICE/Target/usbd_conf.c ****       usb_status = USBD_FAIL;
 669:USB_DEVICE/Target/usbd_conf.c ****     break;
 670:USB_DEVICE/Target/usbd_conf.c ****     case HAL_BUSY :
 671:USB_DEVICE/Target/usbd_conf.c ****       usb_status = USBD_BUSY;
  45              		.loc 1 671 7 view .LVU3
  46              	.LVL1:
 672:USB_DEVICE/Target/usbd_conf.c ****     break;
  47              		.loc 1 672 5 view .LVU4
 671:USB_DEVICE/Target/usbd_conf.c ****     break;
  48              		.loc 1 671 18 is_stmt 0 view .LVU5
  49 000c 0120     		movs	r0, #1
  50              	.LVL2:
  51              		.loc 1 672 5 view .LVU6
  52 000e 7047     		bx	lr
  53              	.LVL3:
  54              	.L6:
 668:USB_DEVICE/Target/usbd_conf.c ****     break;
  55              		.loc 1 668 18 view .LVU7
  56 0010 0220     		movs	r0, #2
  57              	.LVL4:
  58              	.L2:
 673:USB_DEVICE/Target/usbd_conf.c ****     case HAL_TIMEOUT :
 674:USB_DEVICE/Target/usbd_conf.c ****       usb_status = USBD_FAIL;
 675:USB_DEVICE/Target/usbd_conf.c ****     break;
 676:USB_DEVICE/Target/usbd_conf.c ****     default :
 677:USB_DEVICE/Target/usbd_conf.c ****       usb_status = USBD_FAIL;
 678:USB_DEVICE/Target/usbd_conf.c ****     break;
 679:USB_DEVICE/Target/usbd_conf.c ****   }
 680:USB_DEVICE/Target/usbd_conf.c ****   return usb_status;
  59              		.loc 1 680 3 is_stmt 1 view .LVU8
 681:USB_DEVICE/Target/usbd_conf.c **** }
ARM GAS  /var/folders/jw/jcj5j9_530958b2rm5vp9wn00000gn/T//ccjxFM1z.s 			page 14


  60              		.loc 1 681 1 is_stmt 0 view .LVU9
  61 0012 7047     		bx	lr
  62              		.cfi_endproc
  63              	.LFE164:
  65              		.section	.text.HAL_PCD_MspInit,"ax",%progbits
  66              		.align	1
  67              		.global	HAL_PCD_MspInit
  68              		.syntax unified
  69              		.thumb
  70              		.thumb_func
  71              		.fpu fpv4-sp-d16
  73              	HAL_PCD_MspInit:
  74              	.LVL5:
  75              	.LFB133:
  71:USB_DEVICE/Target/usbd_conf.c ****   GPIO_InitTypeDef GPIO_InitStruct = {0};
  76              		.loc 1 71 1 is_stmt 1 view -0
  77              		.cfi_startproc
  78              		@ args = 0, pretend = 0, frame = 32
  79              		@ frame_needed = 0, uses_anonymous_args = 0
  71:USB_DEVICE/Target/usbd_conf.c ****   GPIO_InitTypeDef GPIO_InitStruct = {0};
  80              		.loc 1 71 1 is_stmt 0 view .LVU11
  81 0000 30B5     		push	{r4, r5, lr}
  82              	.LCFI0:
  83              		.cfi_def_cfa_offset 12
  84              		.cfi_offset 4, -12
  85              		.cfi_offset 5, -8
  86              		.cfi_offset 14, -4
  87 0002 89B0     		sub	sp, sp, #36
  88              	.LCFI1:
  89              		.cfi_def_cfa_offset 48
  72:USB_DEVICE/Target/usbd_conf.c ****   if(pcdHandle->Instance==USB)
  90              		.loc 1 72 3 is_stmt 1 view .LVU12
  72:USB_DEVICE/Target/usbd_conf.c ****   if(pcdHandle->Instance==USB)
  91              		.loc 1 72 20 is_stmt 0 view .LVU13
  92 0004 0023     		movs	r3, #0
  93 0006 0393     		str	r3, [sp, #12]
  94 0008 0493     		str	r3, [sp, #16]
  95 000a 0593     		str	r3, [sp, #20]
  96 000c 0693     		str	r3, [sp, #24]
  97 000e 0793     		str	r3, [sp, #28]
  73:USB_DEVICE/Target/usbd_conf.c ****   {
  98              		.loc 1 73 3 is_stmt 1 view .LVU14
  73:USB_DEVICE/Target/usbd_conf.c ****   {
  99              		.loc 1 73 15 is_stmt 0 view .LVU15
 100 0010 0268     		ldr	r2, [r0]
  73:USB_DEVICE/Target/usbd_conf.c ****   {
 101              		.loc 1 73 5 view .LVU16
 102 0012 184B     		ldr	r3, .L11
 103 0014 9A42     		cmp	r2, r3
 104 0016 01D0     		beq	.L10
 105              	.LVL6:
 106              	.L7:
 101:USB_DEVICE/Target/usbd_conf.c **** 
 107              		.loc 1 101 1 view .LVU17
 108 0018 09B0     		add	sp, sp, #36
 109              	.LCFI2:
 110              		.cfi_remember_state
ARM GAS  /var/folders/jw/jcj5j9_530958b2rm5vp9wn00000gn/T//ccjxFM1z.s 			page 15


 111              		.cfi_def_cfa_offset 12
 112              		@ sp needed
 113 001a 30BD     		pop	{r4, r5, pc}
 114              	.LVL7:
 115              	.L10:
 116              	.LCFI3:
 117              		.cfi_restore_state
  79:USB_DEVICE/Target/usbd_conf.c ****     /**USB GPIO Configuration
 118              		.loc 1 79 5 is_stmt 1 view .LVU18
 119              	.LBB2:
  79:USB_DEVICE/Target/usbd_conf.c ****     /**USB GPIO Configuration
 120              		.loc 1 79 5 view .LVU19
  79:USB_DEVICE/Target/usbd_conf.c ****     /**USB GPIO Configuration
 121              		.loc 1 79 5 view .LVU20
 122 001c 164C     		ldr	r4, .L11+4
 123 001e 6369     		ldr	r3, [r4, #20]
 124 0020 43F40033 		orr	r3, r3, #131072
 125 0024 6361     		str	r3, [r4, #20]
  79:USB_DEVICE/Target/usbd_conf.c ****     /**USB GPIO Configuration
 126              		.loc 1 79 5 view .LVU21
 127 0026 6369     		ldr	r3, [r4, #20]
 128 0028 03F40033 		and	r3, r3, #131072
 129 002c 0193     		str	r3, [sp, #4]
  79:USB_DEVICE/Target/usbd_conf.c ****     /**USB GPIO Configuration
 130              		.loc 1 79 5 view .LVU22
 131 002e 019B     		ldr	r3, [sp, #4]
 132              	.LBE2:
  79:USB_DEVICE/Target/usbd_conf.c ****     /**USB GPIO Configuration
 133              		.loc 1 79 5 view .LVU23
  84:USB_DEVICE/Target/usbd_conf.c ****     GPIO_InitStruct.Mode = GPIO_MODE_AF_PP;
 134              		.loc 1 84 5 view .LVU24
  84:USB_DEVICE/Target/usbd_conf.c ****     GPIO_InitStruct.Mode = GPIO_MODE_AF_PP;
 135              		.loc 1 84 25 is_stmt 0 view .LVU25
 136 0030 4FF4C053 		mov	r3, #6144
 137 0034 0393     		str	r3, [sp, #12]
  85:USB_DEVICE/Target/usbd_conf.c ****     GPIO_InitStruct.Pull = GPIO_NOPULL;
 138              		.loc 1 85 5 is_stmt 1 view .LVU26
  85:USB_DEVICE/Target/usbd_conf.c ****     GPIO_InitStruct.Pull = GPIO_NOPULL;
 139              		.loc 1 85 26 is_stmt 0 view .LVU27
 140 0036 0223     		movs	r3, #2
 141 0038 0493     		str	r3, [sp, #16]
  86:USB_DEVICE/Target/usbd_conf.c ****     GPIO_InitStruct.Speed = GPIO_SPEED_FREQ_HIGH;
 142              		.loc 1 86 5 is_stmt 1 view .LVU28
  86:USB_DEVICE/Target/usbd_conf.c ****     GPIO_InitStruct.Speed = GPIO_SPEED_FREQ_HIGH;
 143              		.loc 1 86 26 is_stmt 0 view .LVU29
 144 003a 0025     		movs	r5, #0
 145 003c 0595     		str	r5, [sp, #20]
  87:USB_DEVICE/Target/usbd_conf.c ****     GPIO_InitStruct.Alternate = GPIO_AF14_USB;
 146              		.loc 1 87 5 is_stmt 1 view .LVU30
  87:USB_DEVICE/Target/usbd_conf.c ****     GPIO_InitStruct.Alternate = GPIO_AF14_USB;
 147              		.loc 1 87 27 is_stmt 0 view .LVU31
 148 003e 0323     		movs	r3, #3
 149 0040 0693     		str	r3, [sp, #24]
  88:USB_DEVICE/Target/usbd_conf.c ****     HAL_GPIO_Init(GPIOA, &GPIO_InitStruct);
 150              		.loc 1 88 5 is_stmt 1 view .LVU32
  88:USB_DEVICE/Target/usbd_conf.c ****     HAL_GPIO_Init(GPIOA, &GPIO_InitStruct);
 151              		.loc 1 88 31 is_stmt 0 view .LVU33
ARM GAS  /var/folders/jw/jcj5j9_530958b2rm5vp9wn00000gn/T//ccjxFM1z.s 			page 16


 152 0042 0E23     		movs	r3, #14
 153 0044 0793     		str	r3, [sp, #28]
  89:USB_DEVICE/Target/usbd_conf.c **** 
 154              		.loc 1 89 5 is_stmt 1 view .LVU34
 155 0046 03A9     		add	r1, sp, #12
 156 0048 4FF09040 		mov	r0, #1207959552
 157              	.LVL8:
  89:USB_DEVICE/Target/usbd_conf.c **** 
 158              		.loc 1 89 5 is_stmt 0 view .LVU35
 159 004c FFF7FEFF 		bl	HAL_GPIO_Init
 160              	.LVL9:
  92:USB_DEVICE/Target/usbd_conf.c **** 
 161              		.loc 1 92 5 is_stmt 1 view .LVU36
 162              	.LBB3:
  92:USB_DEVICE/Target/usbd_conf.c **** 
 163              		.loc 1 92 5 view .LVU37
  92:USB_DEVICE/Target/usbd_conf.c **** 
 164              		.loc 1 92 5 view .LVU38
 165 0050 E369     		ldr	r3, [r4, #28]
 166 0052 43F40003 		orr	r3, r3, #8388608
 167 0056 E361     		str	r3, [r4, #28]
  92:USB_DEVICE/Target/usbd_conf.c **** 
 168              		.loc 1 92 5 view .LVU39
 169 0058 E369     		ldr	r3, [r4, #28]
 170 005a 03F40003 		and	r3, r3, #8388608
 171 005e 0293     		str	r3, [sp, #8]
  92:USB_DEVICE/Target/usbd_conf.c **** 
 172              		.loc 1 92 5 view .LVU40
 173 0060 029B     		ldr	r3, [sp, #8]
 174              	.LBE3:
  92:USB_DEVICE/Target/usbd_conf.c **** 
 175              		.loc 1 92 5 view .LVU41
  95:USB_DEVICE/Target/usbd_conf.c ****     HAL_NVIC_EnableIRQ(USB_LP_IRQn);
 176              		.loc 1 95 5 view .LVU42
 177 0062 2A46     		mov	r2, r5
 178 0064 2946     		mov	r1, r5
 179 0066 4B20     		movs	r0, #75
 180 0068 FFF7FEFF 		bl	HAL_NVIC_SetPriority
 181              	.LVL10:
  96:USB_DEVICE/Target/usbd_conf.c ****   /* USER CODE BEGIN USB_MspInit 1 */
 182              		.loc 1 96 5 view .LVU43
 183 006c 4B20     		movs	r0, #75
 184 006e FFF7FEFF 		bl	HAL_NVIC_EnableIRQ
 185              	.LVL11:
 101:USB_DEVICE/Target/usbd_conf.c **** 
 186              		.loc 1 101 1 is_stmt 0 view .LVU44
 187 0072 D1E7     		b	.L7
 188              	.L12:
 189              		.align	2
 190              	.L11:
 191 0074 005C0040 		.word	1073765376
 192 0078 00100240 		.word	1073876992
 193              		.cfi_endproc
 194              	.LFE133:
 196              		.section	.text.HAL_PCD_MspDeInit,"ax",%progbits
 197              		.align	1
 198              		.global	HAL_PCD_MspDeInit
ARM GAS  /var/folders/jw/jcj5j9_530958b2rm5vp9wn00000gn/T//ccjxFM1z.s 			page 17


 199              		.syntax unified
 200              		.thumb
 201              		.thumb_func
 202              		.fpu fpv4-sp-d16
 204              	HAL_PCD_MspDeInit:
 205              	.LVL12:
 206              	.LFB134:
 104:USB_DEVICE/Target/usbd_conf.c ****   if(pcdHandle->Instance==USB)
 207              		.loc 1 104 1 is_stmt 1 view -0
 208              		.cfi_startproc
 209              		@ args = 0, pretend = 0, frame = 0
 210              		@ frame_needed = 0, uses_anonymous_args = 0
 104:USB_DEVICE/Target/usbd_conf.c ****   if(pcdHandle->Instance==USB)
 211              		.loc 1 104 1 is_stmt 0 view .LVU46
 212 0000 08B5     		push	{r3, lr}
 213              	.LCFI4:
 214              		.cfi_def_cfa_offset 8
 215              		.cfi_offset 3, -8
 216              		.cfi_offset 14, -4
 105:USB_DEVICE/Target/usbd_conf.c ****   {
 217              		.loc 1 105 3 is_stmt 1 view .LVU47
 105:USB_DEVICE/Target/usbd_conf.c ****   {
 218              		.loc 1 105 15 is_stmt 0 view .LVU48
 219 0002 0268     		ldr	r2, [r0]
 105:USB_DEVICE/Target/usbd_conf.c ****   {
 220              		.loc 1 105 5 view .LVU49
 221 0004 094B     		ldr	r3, .L17
 222 0006 9A42     		cmp	r2, r3
 223 0008 00D0     		beq	.L16
 224              	.LVL13:
 225              	.L13:
 126:USB_DEVICE/Target/usbd_conf.c **** 
 226              		.loc 1 126 1 view .LVU50
 227 000a 08BD     		pop	{r3, pc}
 228              	.LVL14:
 229              	.L16:
 111:USB_DEVICE/Target/usbd_conf.c **** 
 230              		.loc 1 111 5 is_stmt 1 view .LVU51
 231 000c 084A     		ldr	r2, .L17+4
 232 000e D369     		ldr	r3, [r2, #28]
 233 0010 23F40003 		bic	r3, r3, #8388608
 234 0014 D361     		str	r3, [r2, #28]
 117:USB_DEVICE/Target/usbd_conf.c **** 
 235              		.loc 1 117 5 view .LVU52
 236 0016 4FF4C051 		mov	r1, #6144
 237 001a 4FF09040 		mov	r0, #1207959552
 238              	.LVL15:
 117:USB_DEVICE/Target/usbd_conf.c **** 
 239              		.loc 1 117 5 is_stmt 0 view .LVU53
 240 001e FFF7FEFF 		bl	HAL_GPIO_DeInit
 241              	.LVL16:
 120:USB_DEVICE/Target/usbd_conf.c **** 
 242              		.loc 1 120 5 is_stmt 1 view .LVU54
 243 0022 4B20     		movs	r0, #75
 244 0024 FFF7FEFF 		bl	HAL_NVIC_DisableIRQ
 245              	.LVL17:
 126:USB_DEVICE/Target/usbd_conf.c **** 
ARM GAS  /var/folders/jw/jcj5j9_530958b2rm5vp9wn00000gn/T//ccjxFM1z.s 			page 18


 246              		.loc 1 126 1 is_stmt 0 view .LVU55
 247 0028 EFE7     		b	.L13
 248              	.L18:
 249 002a 00BF     		.align	2
 250              	.L17:
 251 002c 005C0040 		.word	1073765376
 252 0030 00100240 		.word	1073876992
 253              		.cfi_endproc
 254              	.LFE134:
 256              		.section	.text.HAL_PCD_SetupStageCallback,"ax",%progbits
 257              		.align	1
 258              		.global	HAL_PCD_SetupStageCallback
 259              		.syntax unified
 260              		.thumb
 261              		.thumb_func
 262              		.fpu fpv4-sp-d16
 264              	HAL_PCD_SetupStageCallback:
 265              	.LVL18:
 266              	.LFB135:
 138:USB_DEVICE/Target/usbd_conf.c ****   USBD_LL_SetupStage((USBD_HandleTypeDef*)hpcd->pData, (uint8_t *)hpcd->Setup);
 267              		.loc 1 138 1 is_stmt 1 view -0
 268              		.cfi_startproc
 269              		@ args = 0, pretend = 0, frame = 0
 270              		@ frame_needed = 0, uses_anonymous_args = 0
 138:USB_DEVICE/Target/usbd_conf.c ****   USBD_LL_SetupStage((USBD_HandleTypeDef*)hpcd->pData, (uint8_t *)hpcd->Setup);
 271              		.loc 1 138 1 is_stmt 0 view .LVU57
 272 0000 08B5     		push	{r3, lr}
 273              	.LCFI5:
 274              		.cfi_def_cfa_offset 8
 275              		.cfi_offset 3, -8
 276              		.cfi_offset 14, -4
 139:USB_DEVICE/Target/usbd_conf.c **** }
 277              		.loc 1 139 3 is_stmt 1 view .LVU58
 278 0002 00F52C71 		add	r1, r0, #688
 279 0006 D0F8E802 		ldr	r0, [r0, #744]
 280              	.LVL19:
 139:USB_DEVICE/Target/usbd_conf.c **** }
 281              		.loc 1 139 3 is_stmt 0 view .LVU59
 282 000a FFF7FEFF 		bl	USBD_LL_SetupStage
 283              	.LVL20:
 140:USB_DEVICE/Target/usbd_conf.c **** 
 284              		.loc 1 140 1 view .LVU60
 285 000e 08BD     		pop	{r3, pc}
 286              		.cfi_endproc
 287              	.LFE135:
 289              		.section	.text.HAL_PCD_DataOutStageCallback,"ax",%progbits
 290              		.align	1
 291              		.global	HAL_PCD_DataOutStageCallback
 292              		.syntax unified
 293              		.thumb
 294              		.thumb_func
 295              		.fpu fpv4-sp-d16
 297              	HAL_PCD_DataOutStageCallback:
 298              	.LVL21:
 299              	.LFB136:
 153:USB_DEVICE/Target/usbd_conf.c ****   USBD_LL_DataOutStage((USBD_HandleTypeDef*)hpcd->pData, epnum, hpcd->OUT_ep[epnum].xfer_buff);
 300              		.loc 1 153 1 is_stmt 1 view -0
ARM GAS  /var/folders/jw/jcj5j9_530958b2rm5vp9wn00000gn/T//ccjxFM1z.s 			page 19


 301              		.cfi_startproc
 302              		@ args = 0, pretend = 0, frame = 0
 303              		@ frame_needed = 0, uses_anonymous_args = 0
 153:USB_DEVICE/Target/usbd_conf.c ****   USBD_LL_DataOutStage((USBD_HandleTypeDef*)hpcd->pData, epnum, hpcd->OUT_ep[epnum].xfer_buff);
 304              		.loc 1 153 1 is_stmt 0 view .LVU62
 305 0000 08B5     		push	{r3, lr}
 306              	.LCFI6:
 307              		.cfi_def_cfa_offset 8
 308              		.cfi_offset 3, -8
 309              		.cfi_offset 14, -4
 154:USB_DEVICE/Target/usbd_conf.c **** }
 310              		.loc 1 154 3 is_stmt 1 view .LVU63
 311 0002 01EB8103 		add	r3, r1, r1, lsl #2
 312 0006 00EBC303 		add	r3, r0, r3, lsl #3
 313 000a D3F87C21 		ldr	r2, [r3, #380]
 314 000e D0F8E802 		ldr	r0, [r0, #744]
 315              	.LVL22:
 154:USB_DEVICE/Target/usbd_conf.c **** }
 316              		.loc 1 154 3 is_stmt 0 view .LVU64
 317 0012 FFF7FEFF 		bl	USBD_LL_DataOutStage
 318              	.LVL23:
 155:USB_DEVICE/Target/usbd_conf.c **** 
 319              		.loc 1 155 1 view .LVU65
 320 0016 08BD     		pop	{r3, pc}
 321              		.cfi_endproc
 322              	.LFE136:
 324              		.section	.text.HAL_PCD_DataInStageCallback,"ax",%progbits
 325              		.align	1
 326              		.global	HAL_PCD_DataInStageCallback
 327              		.syntax unified
 328              		.thumb
 329              		.thumb_func
 330              		.fpu fpv4-sp-d16
 332              	HAL_PCD_DataInStageCallback:
 333              	.LVL24:
 334              	.LFB137:
 168:USB_DEVICE/Target/usbd_conf.c ****   USBD_LL_DataInStage((USBD_HandleTypeDef*)hpcd->pData, epnum, hpcd->IN_ep[epnum].xfer_buff);
 335              		.loc 1 168 1 is_stmt 1 view -0
 336              		.cfi_startproc
 337              		@ args = 0, pretend = 0, frame = 0
 338              		@ frame_needed = 0, uses_anonymous_args = 0
 168:USB_DEVICE/Target/usbd_conf.c ****   USBD_LL_DataInStage((USBD_HandleTypeDef*)hpcd->pData, epnum, hpcd->IN_ep[epnum].xfer_buff);
 339              		.loc 1 168 1 is_stmt 0 view .LVU67
 340 0000 08B5     		push	{r3, lr}
 341              	.LCFI7:
 342              		.cfi_def_cfa_offset 8
 343              		.cfi_offset 3, -8
 344              		.cfi_offset 14, -4
 169:USB_DEVICE/Target/usbd_conf.c **** }
 345              		.loc 1 169 3 is_stmt 1 view .LVU68
 346 0002 01EB8103 		add	r3, r1, r1, lsl #2
 347 0006 00EBC303 		add	r3, r0, r3, lsl #3
 348 000a DA6B     		ldr	r2, [r3, #60]
 349 000c D0F8E802 		ldr	r0, [r0, #744]
 350              	.LVL25:
 169:USB_DEVICE/Target/usbd_conf.c **** }
 351              		.loc 1 169 3 is_stmt 0 view .LVU69
ARM GAS  /var/folders/jw/jcj5j9_530958b2rm5vp9wn00000gn/T//ccjxFM1z.s 			page 20


 352 0010 FFF7FEFF 		bl	USBD_LL_DataInStage
 353              	.LVL26:
 170:USB_DEVICE/Target/usbd_conf.c **** 
 354              		.loc 1 170 1 view .LVU70
 355 0014 08BD     		pop	{r3, pc}
 356              		.cfi_endproc
 357              	.LFE137:
 359              		.section	.text.HAL_PCD_SOFCallback,"ax",%progbits
 360              		.align	1
 361              		.global	HAL_PCD_SOFCallback
 362              		.syntax unified
 363              		.thumb
 364              		.thumb_func
 365              		.fpu fpv4-sp-d16
 367              	HAL_PCD_SOFCallback:
 368              	.LVL27:
 369              	.LFB138:
 182:USB_DEVICE/Target/usbd_conf.c ****   USBD_LL_SOF((USBD_HandleTypeDef*)hpcd->pData);
 370              		.loc 1 182 1 is_stmt 1 view -0
 371              		.cfi_startproc
 372              		@ args = 0, pretend = 0, frame = 0
 373              		@ frame_needed = 0, uses_anonymous_args = 0
 182:USB_DEVICE/Target/usbd_conf.c ****   USBD_LL_SOF((USBD_HandleTypeDef*)hpcd->pData);
 374              		.loc 1 182 1 is_stmt 0 view .LVU72
 375 0000 08B5     		push	{r3, lr}
 376              	.LCFI8:
 377              		.cfi_def_cfa_offset 8
 378              		.cfi_offset 3, -8
 379              		.cfi_offset 14, -4
 183:USB_DEVICE/Target/usbd_conf.c **** }
 380              		.loc 1 183 3 is_stmt 1 view .LVU73
 381 0002 D0F8E802 		ldr	r0, [r0, #744]
 382              	.LVL28:
 183:USB_DEVICE/Target/usbd_conf.c **** }
 383              		.loc 1 183 3 is_stmt 0 view .LVU74
 384 0006 FFF7FEFF 		bl	USBD_LL_SOF
 385              	.LVL29:
 184:USB_DEVICE/Target/usbd_conf.c **** 
 386              		.loc 1 184 1 view .LVU75
 387 000a 08BD     		pop	{r3, pc}
 388              		.cfi_endproc
 389              	.LFE138:
 391              		.section	.text.HAL_PCD_ResetCallback,"ax",%progbits
 392              		.align	1
 393              		.global	HAL_PCD_ResetCallback
 394              		.syntax unified
 395              		.thumb
 396              		.thumb_func
 397              		.fpu fpv4-sp-d16
 399              	HAL_PCD_ResetCallback:
 400              	.LVL30:
 401              	.LFB139:
 196:USB_DEVICE/Target/usbd_conf.c ****   USBD_SpeedTypeDef speed = USBD_SPEED_FULL;
 402              		.loc 1 196 1 is_stmt 1 view -0
 403              		.cfi_startproc
 404              		@ args = 0, pretend = 0, frame = 0
 405              		@ frame_needed = 0, uses_anonymous_args = 0
ARM GAS  /var/folders/jw/jcj5j9_530958b2rm5vp9wn00000gn/T//ccjxFM1z.s 			page 21


 196:USB_DEVICE/Target/usbd_conf.c ****   USBD_SpeedTypeDef speed = USBD_SPEED_FULL;
 406              		.loc 1 196 1 is_stmt 0 view .LVU77
 407 0000 10B5     		push	{r4, lr}
 408              	.LCFI9:
 409              		.cfi_def_cfa_offset 8
 410              		.cfi_offset 4, -8
 411              		.cfi_offset 14, -4
 412 0002 0446     		mov	r4, r0
 197:USB_DEVICE/Target/usbd_conf.c **** 
 413              		.loc 1 197 3 is_stmt 1 view .LVU78
 414              	.LVL31:
 199:USB_DEVICE/Target/usbd_conf.c ****   {
 415              		.loc 1 199 3 view .LVU79
 199:USB_DEVICE/Target/usbd_conf.c ****   {
 416              		.loc 1 199 18 is_stmt 0 view .LVU80
 417 0004 8368     		ldr	r3, [r0, #8]
 199:USB_DEVICE/Target/usbd_conf.c ****   {
 418              		.loc 1 199 6 view .LVU81
 419 0006 022B     		cmp	r3, #2
 420 0008 09D1     		bne	.L30
 421              	.LVL32:
 422              	.L28:
 204:USB_DEVICE/Target/usbd_conf.c **** 
 423              		.loc 1 204 3 is_stmt 1 view .LVU82
 424 000a 0121     		movs	r1, #1
 425 000c D4F8E802 		ldr	r0, [r4, #744]
 426 0010 FFF7FEFF 		bl	USBD_LL_SetSpeed
 427              	.LVL33:
 207:USB_DEVICE/Target/usbd_conf.c **** }
 428              		.loc 1 207 3 view .LVU83
 429 0014 D4F8E802 		ldr	r0, [r4, #744]
 430 0018 FFF7FEFF 		bl	USBD_LL_Reset
 431              	.LVL34:
 208:USB_DEVICE/Target/usbd_conf.c **** 
 432              		.loc 1 208 1 is_stmt 0 view .LVU84
 433 001c 10BD     		pop	{r4, pc}
 434              	.LVL35:
 435              	.L30:
 201:USB_DEVICE/Target/usbd_conf.c ****   }
 436              		.loc 1 201 5 is_stmt 1 view .LVU85
 437 001e FFF7FEFF 		bl	Error_Handler
 438              	.LVL36:
 201:USB_DEVICE/Target/usbd_conf.c ****   }
 439              		.loc 1 201 5 is_stmt 0 view .LVU86
 440 0022 F2E7     		b	.L28
 441              		.cfi_endproc
 442              	.LFE139:
 444              		.section	.text.HAL_PCD_SuspendCallback,"ax",%progbits
 445              		.align	1
 446              		.global	HAL_PCD_SuspendCallback
 447              		.syntax unified
 448              		.thumb
 449              		.thumb_func
 450              		.fpu fpv4-sp-d16
 452              	HAL_PCD_SuspendCallback:
 453              	.LVL37:
 454              	.LFB140:
ARM GAS  /var/folders/jw/jcj5j9_530958b2rm5vp9wn00000gn/T//ccjxFM1z.s 			page 22


 221:USB_DEVICE/Target/usbd_conf.c ****   /* Inform USB library that core enters in suspend Mode. */
 455              		.loc 1 221 1 is_stmt 1 view -0
 456              		.cfi_startproc
 457              		@ args = 0, pretend = 0, frame = 0
 458              		@ frame_needed = 0, uses_anonymous_args = 0
 221:USB_DEVICE/Target/usbd_conf.c ****   /* Inform USB library that core enters in suspend Mode. */
 459              		.loc 1 221 1 is_stmt 0 view .LVU88
 460 0000 10B5     		push	{r4, lr}
 461              	.LCFI10:
 462              		.cfi_def_cfa_offset 8
 463              		.cfi_offset 4, -8
 464              		.cfi_offset 14, -4
 465 0002 0446     		mov	r4, r0
 223:USB_DEVICE/Target/usbd_conf.c ****   /* Enter in STOP mode. */
 466              		.loc 1 223 3 is_stmt 1 view .LVU89
 467 0004 D0F8E802 		ldr	r0, [r0, #744]
 468              	.LVL38:
 223:USB_DEVICE/Target/usbd_conf.c ****   /* Enter in STOP mode. */
 469              		.loc 1 223 3 is_stmt 0 view .LVU90
 470 0008 FFF7FEFF 		bl	USBD_LL_Suspend
 471              	.LVL39:
 226:USB_DEVICE/Target/usbd_conf.c ****   {
 472              		.loc 1 226 3 is_stmt 1 view .LVU91
 226:USB_DEVICE/Target/usbd_conf.c ****   {
 473              		.loc 1 226 17 is_stmt 0 view .LVU92
 474 000c A369     		ldr	r3, [r4, #24]
 226:USB_DEVICE/Target/usbd_conf.c ****   {
 475              		.loc 1 226 6 view .LVU93
 476 000e 23B1     		cbz	r3, .L31
 229:USB_DEVICE/Target/usbd_conf.c ****   }
 477              		.loc 1 229 5 is_stmt 1 view .LVU94
 229:USB_DEVICE/Target/usbd_conf.c ****   }
 478              		.loc 1 229 14 is_stmt 0 view .LVU95
 479 0010 024A     		ldr	r2, .L34
 480 0012 1369     		ldr	r3, [r2, #16]
 481 0014 43F00603 		orr	r3, r3, #6
 482 0018 1361     		str	r3, [r2, #16]
 483              	.L31:
 232:USB_DEVICE/Target/usbd_conf.c **** 
 484              		.loc 1 232 1 view .LVU96
 485 001a 10BD     		pop	{r4, pc}
 486              	.LVL40:
 487              	.L35:
 232:USB_DEVICE/Target/usbd_conf.c **** 
 488              		.loc 1 232 1 view .LVU97
 489              		.align	2
 490              	.L34:
 491 001c 00ED00E0 		.word	-536810240
 492              		.cfi_endproc
 493              	.LFE140:
 495              		.section	.text.HAL_PCD_ResumeCallback,"ax",%progbits
 496              		.align	1
 497              		.global	HAL_PCD_ResumeCallback
 498              		.syntax unified
 499              		.thumb
 500              		.thumb_func
 501              		.fpu fpv4-sp-d16
ARM GAS  /var/folders/jw/jcj5j9_530958b2rm5vp9wn00000gn/T//ccjxFM1z.s 			page 23


 503              	HAL_PCD_ResumeCallback:
 504              	.LVL41:
 505              	.LFB141:
 245:USB_DEVICE/Target/usbd_conf.c ****   /* USER CODE BEGIN 3 */
 506              		.loc 1 245 1 is_stmt 1 view -0
 507              		.cfi_startproc
 508              		@ args = 0, pretend = 0, frame = 0
 509              		@ frame_needed = 0, uses_anonymous_args = 0
 245:USB_DEVICE/Target/usbd_conf.c ****   /* USER CODE BEGIN 3 */
 510              		.loc 1 245 1 is_stmt 0 view .LVU99
 511 0000 08B5     		push	{r3, lr}
 512              	.LCFI11:
 513              		.cfi_def_cfa_offset 8
 514              		.cfi_offset 3, -8
 515              		.cfi_offset 14, -4
 249:USB_DEVICE/Target/usbd_conf.c **** }
 516              		.loc 1 249 3 is_stmt 1 view .LVU100
 517 0002 D0F8E802 		ldr	r0, [r0, #744]
 518              	.LVL42:
 249:USB_DEVICE/Target/usbd_conf.c **** }
 519              		.loc 1 249 3 is_stmt 0 view .LVU101
 520 0006 FFF7FEFF 		bl	USBD_LL_Resume
 521              	.LVL43:
 250:USB_DEVICE/Target/usbd_conf.c **** 
 522              		.loc 1 250 1 view .LVU102
 523 000a 08BD     		pop	{r3, pc}
 524              		.cfi_endproc
 525              	.LFE141:
 527              		.section	.text.HAL_PCD_ISOOUTIncompleteCallback,"ax",%progbits
 528              		.align	1
 529              		.global	HAL_PCD_ISOOUTIncompleteCallback
 530              		.syntax unified
 531              		.thumb
 532              		.thumb_func
 533              		.fpu fpv4-sp-d16
 535              	HAL_PCD_ISOOUTIncompleteCallback:
 536              	.LVL44:
 537              	.LFB142:
 263:USB_DEVICE/Target/usbd_conf.c ****   USBD_LL_IsoOUTIncomplete((USBD_HandleTypeDef*)hpcd->pData, epnum);
 538              		.loc 1 263 1 is_stmt 1 view -0
 539              		.cfi_startproc
 540              		@ args = 0, pretend = 0, frame = 0
 541              		@ frame_needed = 0, uses_anonymous_args = 0
 263:USB_DEVICE/Target/usbd_conf.c ****   USBD_LL_IsoOUTIncomplete((USBD_HandleTypeDef*)hpcd->pData, epnum);
 542              		.loc 1 263 1 is_stmt 0 view .LVU104
 543 0000 08B5     		push	{r3, lr}
 544              	.LCFI12:
 545              		.cfi_def_cfa_offset 8
 546              		.cfi_offset 3, -8
 547              		.cfi_offset 14, -4
 264:USB_DEVICE/Target/usbd_conf.c **** }
 548              		.loc 1 264 3 is_stmt 1 view .LVU105
 549 0002 D0F8E802 		ldr	r0, [r0, #744]
 550              	.LVL45:
 264:USB_DEVICE/Target/usbd_conf.c **** }
 551              		.loc 1 264 3 is_stmt 0 view .LVU106
 552 0006 FFF7FEFF 		bl	USBD_LL_IsoOUTIncomplete
ARM GAS  /var/folders/jw/jcj5j9_530958b2rm5vp9wn00000gn/T//ccjxFM1z.s 			page 24


 553              	.LVL46:
 265:USB_DEVICE/Target/usbd_conf.c **** 
 554              		.loc 1 265 1 view .LVU107
 555 000a 08BD     		pop	{r3, pc}
 556              		.cfi_endproc
 557              	.LFE142:
 559              		.section	.text.HAL_PCD_ISOINIncompleteCallback,"ax",%progbits
 560              		.align	1
 561              		.global	HAL_PCD_ISOINIncompleteCallback
 562              		.syntax unified
 563              		.thumb
 564              		.thumb_func
 565              		.fpu fpv4-sp-d16
 567              	HAL_PCD_ISOINIncompleteCallback:
 568              	.LVL47:
 569              	.LFB143:
 278:USB_DEVICE/Target/usbd_conf.c ****   USBD_LL_IsoINIncomplete((USBD_HandleTypeDef*)hpcd->pData, epnum);
 570              		.loc 1 278 1 is_stmt 1 view -0
 571              		.cfi_startproc
 572              		@ args = 0, pretend = 0, frame = 0
 573              		@ frame_needed = 0, uses_anonymous_args = 0
 278:USB_DEVICE/Target/usbd_conf.c ****   USBD_LL_IsoINIncomplete((USBD_HandleTypeDef*)hpcd->pData, epnum);
 574              		.loc 1 278 1 is_stmt 0 view .LVU109
 575 0000 08B5     		push	{r3, lr}
 576              	.LCFI13:
 577              		.cfi_def_cfa_offset 8
 578              		.cfi_offset 3, -8
 579              		.cfi_offset 14, -4
 279:USB_DEVICE/Target/usbd_conf.c **** }
 580              		.loc 1 279 3 is_stmt 1 view .LVU110
 581 0002 D0F8E802 		ldr	r0, [r0, #744]
 582              	.LVL48:
 279:USB_DEVICE/Target/usbd_conf.c **** }
 583              		.loc 1 279 3 is_stmt 0 view .LVU111
 584 0006 FFF7FEFF 		bl	USBD_LL_IsoINIncomplete
 585              	.LVL49:
 280:USB_DEVICE/Target/usbd_conf.c **** 
 586              		.loc 1 280 1 view .LVU112
 587 000a 08BD     		pop	{r3, pc}
 588              		.cfi_endproc
 589              	.LFE143:
 591              		.section	.text.HAL_PCD_ConnectCallback,"ax",%progbits
 592              		.align	1
 593              		.global	HAL_PCD_ConnectCallback
 594              		.syntax unified
 595              		.thumb
 596              		.thumb_func
 597              		.fpu fpv4-sp-d16
 599              	HAL_PCD_ConnectCallback:
 600              	.LVL50:
 601              	.LFB144:
 292:USB_DEVICE/Target/usbd_conf.c ****   USBD_LL_DevConnected((USBD_HandleTypeDef*)hpcd->pData);
 602              		.loc 1 292 1 is_stmt 1 view -0
 603              		.cfi_startproc
 604              		@ args = 0, pretend = 0, frame = 0
 605              		@ frame_needed = 0, uses_anonymous_args = 0
 292:USB_DEVICE/Target/usbd_conf.c ****   USBD_LL_DevConnected((USBD_HandleTypeDef*)hpcd->pData);
ARM GAS  /var/folders/jw/jcj5j9_530958b2rm5vp9wn00000gn/T//ccjxFM1z.s 			page 25


 606              		.loc 1 292 1 is_stmt 0 view .LVU114
 607 0000 08B5     		push	{r3, lr}
 608              	.LCFI14:
 609              		.cfi_def_cfa_offset 8
 610              		.cfi_offset 3, -8
 611              		.cfi_offset 14, -4
 293:USB_DEVICE/Target/usbd_conf.c **** }
 612              		.loc 1 293 3 is_stmt 1 view .LVU115
 613 0002 D0F8E802 		ldr	r0, [r0, #744]
 614              	.LVL51:
 293:USB_DEVICE/Target/usbd_conf.c **** }
 615              		.loc 1 293 3 is_stmt 0 view .LVU116
 616 0006 FFF7FEFF 		bl	USBD_LL_DevConnected
 617              	.LVL52:
 294:USB_DEVICE/Target/usbd_conf.c **** 
 618              		.loc 1 294 1 view .LVU117
 619 000a 08BD     		pop	{r3, pc}
 620              		.cfi_endproc
 621              	.LFE144:
 623              		.section	.text.HAL_PCD_DisconnectCallback,"ax",%progbits
 624              		.align	1
 625              		.global	HAL_PCD_DisconnectCallback
 626              		.syntax unified
 627              		.thumb
 628              		.thumb_func
 629              		.fpu fpv4-sp-d16
 631              	HAL_PCD_DisconnectCallback:
 632              	.LVL53:
 633              	.LFB145:
 306:USB_DEVICE/Target/usbd_conf.c ****   USBD_LL_DevDisconnected((USBD_HandleTypeDef*)hpcd->pData);
 634              		.loc 1 306 1 is_stmt 1 view -0
 635              		.cfi_startproc
 636              		@ args = 0, pretend = 0, frame = 0
 637              		@ frame_needed = 0, uses_anonymous_args = 0
 306:USB_DEVICE/Target/usbd_conf.c ****   USBD_LL_DevDisconnected((USBD_HandleTypeDef*)hpcd->pData);
 638              		.loc 1 306 1 is_stmt 0 view .LVU119
 639 0000 08B5     		push	{r3, lr}
 640              	.LCFI15:
 641              		.cfi_def_cfa_offset 8
 642              		.cfi_offset 3, -8
 643              		.cfi_offset 14, -4
 307:USB_DEVICE/Target/usbd_conf.c **** }
 644              		.loc 1 307 3 is_stmt 1 view .LVU120
 645 0002 D0F8E802 		ldr	r0, [r0, #744]
 646              	.LVL54:
 307:USB_DEVICE/Target/usbd_conf.c **** }
 647              		.loc 1 307 3 is_stmt 0 view .LVU121
 648 0006 FFF7FEFF 		bl	USBD_LL_DevDisconnected
 649              	.LVL55:
 308:USB_DEVICE/Target/usbd_conf.c **** 
 650              		.loc 1 308 1 view .LVU122
 651 000a 08BD     		pop	{r3, pc}
 652              		.cfi_endproc
 653              	.LFE145:
 655              		.section	.text.USBD_LL_Init,"ax",%progbits
 656              		.align	1
 657              		.global	USBD_LL_Init
ARM GAS  /var/folders/jw/jcj5j9_530958b2rm5vp9wn00000gn/T//ccjxFM1z.s 			page 26


 658              		.syntax unified
 659              		.thumb
 660              		.thumb_func
 661              		.fpu fpv4-sp-d16
 663              	USBD_LL_Init:
 664              	.LVL56:
 665              	.LFB146:
 320:USB_DEVICE/Target/usbd_conf.c ****   /* Init USB Ip. */
 666              		.loc 1 320 1 is_stmt 1 view -0
 667              		.cfi_startproc
 668              		@ args = 0, pretend = 0, frame = 0
 669              		@ frame_needed = 0, uses_anonymous_args = 0
 320:USB_DEVICE/Target/usbd_conf.c ****   /* Init USB Ip. */
 670              		.loc 1 320 1 is_stmt 0 view .LVU124
 671 0000 10B5     		push	{r4, lr}
 672              	.LCFI16:
 673              		.cfi_def_cfa_offset 8
 674              		.cfi_offset 4, -8
 675              		.cfi_offset 14, -4
 676 0002 0446     		mov	r4, r0
 323:USB_DEVICE/Target/usbd_conf.c ****   pdev->pData = &hpcd_USB_FS;
 677              		.loc 1 323 3 is_stmt 1 view .LVU125
 323:USB_DEVICE/Target/usbd_conf.c ****   pdev->pData = &hpcd_USB_FS;
 678              		.loc 1 323 21 is_stmt 0 view .LVU126
 679 0004 1D48     		ldr	r0, .L50
 680              	.LVL57:
 323:USB_DEVICE/Target/usbd_conf.c ****   pdev->pData = &hpcd_USB_FS;
 681              		.loc 1 323 21 view .LVU127
 682 0006 C0F8E842 		str	r4, [r0, #744]
 324:USB_DEVICE/Target/usbd_conf.c **** 
 683              		.loc 1 324 3 is_stmt 1 view .LVU128
 324:USB_DEVICE/Target/usbd_conf.c **** 
 684              		.loc 1 324 15 is_stmt 0 view .LVU129
 685 000a C4F8C002 		str	r0, [r4, #704]
 326:USB_DEVICE/Target/usbd_conf.c ****   hpcd_USB_FS.Init.dev_endpoints = 8;
 686              		.loc 1 326 3 is_stmt 1 view .LVU130
 326:USB_DEVICE/Target/usbd_conf.c ****   hpcd_USB_FS.Init.dev_endpoints = 8;
 687              		.loc 1 326 24 is_stmt 0 view .LVU131
 688 000e 1C4B     		ldr	r3, .L50+4
 689 0010 0360     		str	r3, [r0]
 327:USB_DEVICE/Target/usbd_conf.c ****   hpcd_USB_FS.Init.speed = PCD_SPEED_FULL;
 690              		.loc 1 327 3 is_stmt 1 view .LVU132
 327:USB_DEVICE/Target/usbd_conf.c ****   hpcd_USB_FS.Init.speed = PCD_SPEED_FULL;
 691              		.loc 1 327 34 is_stmt 0 view .LVU133
 692 0012 0823     		movs	r3, #8
 693 0014 4360     		str	r3, [r0, #4]
 328:USB_DEVICE/Target/usbd_conf.c ****   hpcd_USB_FS.Init.phy_itface = PCD_PHY_EMBEDDED;
 694              		.loc 1 328 3 is_stmt 1 view .LVU134
 328:USB_DEVICE/Target/usbd_conf.c ****   hpcd_USB_FS.Init.phy_itface = PCD_PHY_EMBEDDED;
 695              		.loc 1 328 26 is_stmt 0 view .LVU135
 696 0016 0223     		movs	r3, #2
 697 0018 8360     		str	r3, [r0, #8]
 329:USB_DEVICE/Target/usbd_conf.c ****   hpcd_USB_FS.Init.low_power_enable = DISABLE;
 698              		.loc 1 329 3 is_stmt 1 view .LVU136
 329:USB_DEVICE/Target/usbd_conf.c ****   hpcd_USB_FS.Init.low_power_enable = DISABLE;
 699              		.loc 1 329 31 is_stmt 0 view .LVU137
 700 001a 0361     		str	r3, [r0, #16]
ARM GAS  /var/folders/jw/jcj5j9_530958b2rm5vp9wn00000gn/T//ccjxFM1z.s 			page 27


 330:USB_DEVICE/Target/usbd_conf.c ****   hpcd_USB_FS.Init.battery_charging_enable = DISABLE;
 701              		.loc 1 330 3 is_stmt 1 view .LVU138
 330:USB_DEVICE/Target/usbd_conf.c ****   hpcd_USB_FS.Init.battery_charging_enable = DISABLE;
 702              		.loc 1 330 37 is_stmt 0 view .LVU139
 703 001c 0023     		movs	r3, #0
 704 001e 8361     		str	r3, [r0, #24]
 331:USB_DEVICE/Target/usbd_conf.c ****   if (HAL_PCD_Init(&hpcd_USB_FS) != HAL_OK)
 705              		.loc 1 331 3 is_stmt 1 view .LVU140
 331:USB_DEVICE/Target/usbd_conf.c ****   if (HAL_PCD_Init(&hpcd_USB_FS) != HAL_OK)
 706              		.loc 1 331 44 is_stmt 0 view .LVU141
 707 0020 0362     		str	r3, [r0, #32]
 332:USB_DEVICE/Target/usbd_conf.c ****   {
 708              		.loc 1 332 3 is_stmt 1 view .LVU142
 332:USB_DEVICE/Target/usbd_conf.c ****   {
 709              		.loc 1 332 7 is_stmt 0 view .LVU143
 710 0022 FFF7FEFF 		bl	HAL_PCD_Init
 711              	.LVL58:
 332:USB_DEVICE/Target/usbd_conf.c ****   {
 712              		.loc 1 332 6 view .LVU144
 713 0026 30BB     		cbnz	r0, .L49
 714              	.L47:
 353:USB_DEVICE/Target/usbd_conf.c ****   HAL_PCDEx_PMAConfig((PCD_HandleTypeDef*)pdev->pData , 0x80 , PCD_SNG_BUF, 0x58);
 715              		.loc 1 353 3 is_stmt 1 view .LVU145
 716 0028 1823     		movs	r3, #24
 717 002a 0022     		movs	r2, #0
 718 002c 1146     		mov	r1, r2
 719 002e D4F8C002 		ldr	r0, [r4, #704]
 720 0032 FFF7FEFF 		bl	HAL_PCDEx_PMAConfig
 721              	.LVL59:
 354:USB_DEVICE/Target/usbd_conf.c ****   /* USER CODE END EndPoint_Configuration */
 722              		.loc 1 354 3 view .LVU146
 723 0036 5823     		movs	r3, #88
 724 0038 0022     		movs	r2, #0
 725 003a 8021     		movs	r1, #128
 726 003c D4F8C002 		ldr	r0, [r4, #704]
 727 0040 FFF7FEFF 		bl	HAL_PCDEx_PMAConfig
 728              	.LVL60:
 357:USB_DEVICE/Target/usbd_conf.c ****   HAL_PCDEx_PMAConfig((PCD_HandleTypeDef*)pdev->pData , 0x01 , PCD_SNG_BUF, 0x110);
 729              		.loc 1 357 3 view .LVU147
 730 0044 C023     		movs	r3, #192
 731 0046 0022     		movs	r2, #0
 732 0048 8121     		movs	r1, #129
 733 004a D4F8C002 		ldr	r0, [r4, #704]
 734 004e FFF7FEFF 		bl	HAL_PCDEx_PMAConfig
 735              	.LVL61:
 358:USB_DEVICE/Target/usbd_conf.c ****   HAL_PCDEx_PMAConfig((PCD_HandleTypeDef*)pdev->pData , 0x82 , PCD_SNG_BUF, 0x100);
 736              		.loc 1 358 3 view .LVU148
 737 0052 4FF48873 		mov	r3, #272
 738 0056 0022     		movs	r2, #0
 739 0058 0121     		movs	r1, #1
 740 005a D4F8C002 		ldr	r0, [r4, #704]
 741 005e FFF7FEFF 		bl	HAL_PCDEx_PMAConfig
 742              	.LVL62:
 359:USB_DEVICE/Target/usbd_conf.c ****   /* USER CODE END EndPoint_Configuration_CDC */
 743              		.loc 1 359 3 view .LVU149
 744 0062 4FF48073 		mov	r3, #256
 745 0066 0022     		movs	r2, #0
ARM GAS  /var/folders/jw/jcj5j9_530958b2rm5vp9wn00000gn/T//ccjxFM1z.s 			page 28


 746 0068 8221     		movs	r1, #130
 747 006a D4F8C002 		ldr	r0, [r4, #704]
 748 006e FFF7FEFF 		bl	HAL_PCDEx_PMAConfig
 749              	.LVL63:
 361:USB_DEVICE/Target/usbd_conf.c **** }
 750              		.loc 1 361 3 view .LVU150
 362:USB_DEVICE/Target/usbd_conf.c **** 
 751              		.loc 1 362 1 is_stmt 0 view .LVU151
 752 0072 0020     		movs	r0, #0
 753 0074 10BD     		pop	{r4, pc}
 754              	.LVL64:
 755              	.L49:
 334:USB_DEVICE/Target/usbd_conf.c ****   }
 756              		.loc 1 334 5 is_stmt 1 view .LVU152
 757 0076 FFF7FEFF 		bl	Error_Handler
 758              	.LVL65:
 759 007a D5E7     		b	.L47
 760              	.L51:
 761              		.align	2
 762              	.L50:
 763 007c 00000000 		.word	hpcd_USB_FS
 764 0080 005C0040 		.word	1073765376
 765              		.cfi_endproc
 766              	.LFE146:
 768              		.section	.text.USBD_LL_DeInit,"ax",%progbits
 769              		.align	1
 770              		.global	USBD_LL_DeInit
 771              		.syntax unified
 772              		.thumb
 773              		.thumb_func
 774              		.fpu fpv4-sp-d16
 776              	USBD_LL_DeInit:
 777              	.LVL66:
 778              	.LFB147:
 370:USB_DEVICE/Target/usbd_conf.c ****   HAL_StatusTypeDef hal_status = HAL_OK;
 779              		.loc 1 370 1 view -0
 780              		.cfi_startproc
 781              		@ args = 0, pretend = 0, frame = 0
 782              		@ frame_needed = 0, uses_anonymous_args = 0
 370:USB_DEVICE/Target/usbd_conf.c ****   HAL_StatusTypeDef hal_status = HAL_OK;
 783              		.loc 1 370 1 is_stmt 0 view .LVU154
 784 0000 08B5     		push	{r3, lr}
 785              	.LCFI17:
 786              		.cfi_def_cfa_offset 8
 787              		.cfi_offset 3, -8
 788              		.cfi_offset 14, -4
 371:USB_DEVICE/Target/usbd_conf.c ****   USBD_StatusTypeDef usb_status = USBD_OK;
 789              		.loc 1 371 3 is_stmt 1 view .LVU155
 790              	.LVL67:
 372:USB_DEVICE/Target/usbd_conf.c **** 
 791              		.loc 1 372 3 view .LVU156
 374:USB_DEVICE/Target/usbd_conf.c **** 
 792              		.loc 1 374 3 view .LVU157
 374:USB_DEVICE/Target/usbd_conf.c **** 
 793              		.loc 1 374 16 is_stmt 0 view .LVU158
 794 0002 D0F8C002 		ldr	r0, [r0, #704]
 795              	.LVL68:
ARM GAS  /var/folders/jw/jcj5j9_530958b2rm5vp9wn00000gn/T//ccjxFM1z.s 			page 29


 374:USB_DEVICE/Target/usbd_conf.c **** 
 796              		.loc 1 374 16 view .LVU159
 797 0006 FFF7FEFF 		bl	HAL_PCD_DeInit
 798              	.LVL69:
 376:USB_DEVICE/Target/usbd_conf.c **** 
 799              		.loc 1 376 3 is_stmt 1 view .LVU160
 376:USB_DEVICE/Target/usbd_conf.c **** 
 800              		.loc 1 376 17 is_stmt 0 view .LVU161
 801 000a FFF7FEFF 		bl	USBD_Get_USB_Status
 802              	.LVL70:
 378:USB_DEVICE/Target/usbd_conf.c **** }
 803              		.loc 1 378 3 is_stmt 1 view .LVU162
 379:USB_DEVICE/Target/usbd_conf.c **** 
 804              		.loc 1 379 1 is_stmt 0 view .LVU163
 805 000e 08BD     		pop	{r3, pc}
 806              		.cfi_endproc
 807              	.LFE147:
 809              		.section	.text.USBD_LL_Start,"ax",%progbits
 810              		.align	1
 811              		.global	USBD_LL_Start
 812              		.syntax unified
 813              		.thumb
 814              		.thumb_func
 815              		.fpu fpv4-sp-d16
 817              	USBD_LL_Start:
 818              	.LVL71:
 819              	.LFB148:
 387:USB_DEVICE/Target/usbd_conf.c ****   HAL_StatusTypeDef hal_status = HAL_OK;
 820              		.loc 1 387 1 is_stmt 1 view -0
 821              		.cfi_startproc
 822              		@ args = 0, pretend = 0, frame = 0
 823              		@ frame_needed = 0, uses_anonymous_args = 0
 387:USB_DEVICE/Target/usbd_conf.c ****   HAL_StatusTypeDef hal_status = HAL_OK;
 824              		.loc 1 387 1 is_stmt 0 view .LVU165
 825 0000 08B5     		push	{r3, lr}
 826              	.LCFI18:
 827              		.cfi_def_cfa_offset 8
 828              		.cfi_offset 3, -8
 829              		.cfi_offset 14, -4
 388:USB_DEVICE/Target/usbd_conf.c ****   USBD_StatusTypeDef usb_status = USBD_OK;
 830              		.loc 1 388 3 is_stmt 1 view .LVU166
 831              	.LVL72:
 389:USB_DEVICE/Target/usbd_conf.c **** 
 832              		.loc 1 389 3 view .LVU167
 391:USB_DEVICE/Target/usbd_conf.c **** 
 833              		.loc 1 391 3 view .LVU168
 391:USB_DEVICE/Target/usbd_conf.c **** 
 834              		.loc 1 391 16 is_stmt 0 view .LVU169
 835 0002 D0F8C002 		ldr	r0, [r0, #704]
 836              	.LVL73:
 391:USB_DEVICE/Target/usbd_conf.c **** 
 837              		.loc 1 391 16 view .LVU170
 838 0006 FFF7FEFF 		bl	HAL_PCD_Start
 839              	.LVL74:
 393:USB_DEVICE/Target/usbd_conf.c **** 
 840              		.loc 1 393 3 is_stmt 1 view .LVU171
 393:USB_DEVICE/Target/usbd_conf.c **** 
ARM GAS  /var/folders/jw/jcj5j9_530958b2rm5vp9wn00000gn/T//ccjxFM1z.s 			page 30


 841              		.loc 1 393 17 is_stmt 0 view .LVU172
 842 000a FFF7FEFF 		bl	USBD_Get_USB_Status
 843              	.LVL75:
 395:USB_DEVICE/Target/usbd_conf.c **** }
 844              		.loc 1 395 3 is_stmt 1 view .LVU173
 396:USB_DEVICE/Target/usbd_conf.c **** 
 845              		.loc 1 396 1 is_stmt 0 view .LVU174
 846 000e 08BD     		pop	{r3, pc}
 847              		.cfi_endproc
 848              	.LFE148:
 850              		.section	.text.USBD_LL_Stop,"ax",%progbits
 851              		.align	1
 852              		.global	USBD_LL_Stop
 853              		.syntax unified
 854              		.thumb
 855              		.thumb_func
 856              		.fpu fpv4-sp-d16
 858              	USBD_LL_Stop:
 859              	.LVL76:
 860              	.LFB149:
 404:USB_DEVICE/Target/usbd_conf.c ****   HAL_StatusTypeDef hal_status = HAL_OK;
 861              		.loc 1 404 1 is_stmt 1 view -0
 862              		.cfi_startproc
 863              		@ args = 0, pretend = 0, frame = 0
 864              		@ frame_needed = 0, uses_anonymous_args = 0
 404:USB_DEVICE/Target/usbd_conf.c ****   HAL_StatusTypeDef hal_status = HAL_OK;
 865              		.loc 1 404 1 is_stmt 0 view .LVU176
 866 0000 08B5     		push	{r3, lr}
 867              	.LCFI19:
 868              		.cfi_def_cfa_offset 8
 869              		.cfi_offset 3, -8
 870              		.cfi_offset 14, -4
 405:USB_DEVICE/Target/usbd_conf.c ****   USBD_StatusTypeDef usb_status = USBD_OK;
 871              		.loc 1 405 3 is_stmt 1 view .LVU177
 872              	.LVL77:
 406:USB_DEVICE/Target/usbd_conf.c **** 
 873              		.loc 1 406 3 view .LVU178
 408:USB_DEVICE/Target/usbd_conf.c **** 
 874              		.loc 1 408 3 view .LVU179
 408:USB_DEVICE/Target/usbd_conf.c **** 
 875              		.loc 1 408 16 is_stmt 0 view .LVU180
 876 0002 D0F8C002 		ldr	r0, [r0, #704]
 877              	.LVL78:
 408:USB_DEVICE/Target/usbd_conf.c **** 
 878              		.loc 1 408 16 view .LVU181
 879 0006 FFF7FEFF 		bl	HAL_PCD_Stop
 880              	.LVL79:
 410:USB_DEVICE/Target/usbd_conf.c **** 
 881              		.loc 1 410 3 is_stmt 1 view .LVU182
 410:USB_DEVICE/Target/usbd_conf.c **** 
 882              		.loc 1 410 17 is_stmt 0 view .LVU183
 883 000a FFF7FEFF 		bl	USBD_Get_USB_Status
 884              	.LVL80:
 412:USB_DEVICE/Target/usbd_conf.c **** }
 885              		.loc 1 412 3 is_stmt 1 view .LVU184
 413:USB_DEVICE/Target/usbd_conf.c **** 
 886              		.loc 1 413 1 is_stmt 0 view .LVU185
ARM GAS  /var/folders/jw/jcj5j9_530958b2rm5vp9wn00000gn/T//ccjxFM1z.s 			page 31


 887 000e 08BD     		pop	{r3, pc}
 888              		.cfi_endproc
 889              	.LFE149:
 891              		.section	.text.USBD_LL_OpenEP,"ax",%progbits
 892              		.align	1
 893              		.global	USBD_LL_OpenEP
 894              		.syntax unified
 895              		.thumb
 896              		.thumb_func
 897              		.fpu fpv4-sp-d16
 899              	USBD_LL_OpenEP:
 900              	.LVL81:
 901              	.LFB150:
 424:USB_DEVICE/Target/usbd_conf.c ****   HAL_StatusTypeDef hal_status = HAL_OK;
 902              		.loc 1 424 1 is_stmt 1 view -0
 903              		.cfi_startproc
 904              		@ args = 0, pretend = 0, frame = 0
 905              		@ frame_needed = 0, uses_anonymous_args = 0
 424:USB_DEVICE/Target/usbd_conf.c ****   HAL_StatusTypeDef hal_status = HAL_OK;
 906              		.loc 1 424 1 is_stmt 0 view .LVU187
 907 0000 10B5     		push	{r4, lr}
 908              	.LCFI20:
 909              		.cfi_def_cfa_offset 8
 910              		.cfi_offset 4, -8
 911              		.cfi_offset 14, -4
 912 0002 1446     		mov	r4, r2
 913 0004 1A46     		mov	r2, r3
 914              	.LVL82:
 425:USB_DEVICE/Target/usbd_conf.c ****   USBD_StatusTypeDef usb_status = USBD_OK;
 915              		.loc 1 425 3 is_stmt 1 view .LVU188
 426:USB_DEVICE/Target/usbd_conf.c **** 
 916              		.loc 1 426 3 view .LVU189
 428:USB_DEVICE/Target/usbd_conf.c **** 
 917              		.loc 1 428 3 view .LVU190
 428:USB_DEVICE/Target/usbd_conf.c **** 
 918              		.loc 1 428 16 is_stmt 0 view .LVU191
 919 0006 2346     		mov	r3, r4
 920              	.LVL83:
 428:USB_DEVICE/Target/usbd_conf.c **** 
 921              		.loc 1 428 16 view .LVU192
 922 0008 D0F8C002 		ldr	r0, [r0, #704]
 923              	.LVL84:
 428:USB_DEVICE/Target/usbd_conf.c **** 
 924              		.loc 1 428 16 view .LVU193
 925 000c FFF7FEFF 		bl	HAL_PCD_EP_Open
 926              	.LVL85:
 430:USB_DEVICE/Target/usbd_conf.c **** 
 927              		.loc 1 430 3 is_stmt 1 view .LVU194
 430:USB_DEVICE/Target/usbd_conf.c **** 
 928              		.loc 1 430 17 is_stmt 0 view .LVU195
 929 0010 FFF7FEFF 		bl	USBD_Get_USB_Status
 930              	.LVL86:
 432:USB_DEVICE/Target/usbd_conf.c **** }
 931              		.loc 1 432 3 is_stmt 1 view .LVU196
 433:USB_DEVICE/Target/usbd_conf.c **** 
 932              		.loc 1 433 1 is_stmt 0 view .LVU197
 933 0014 10BD     		pop	{r4, pc}
ARM GAS  /var/folders/jw/jcj5j9_530958b2rm5vp9wn00000gn/T//ccjxFM1z.s 			page 32


 934              		.cfi_endproc
 935              	.LFE150:
 937              		.section	.text.USBD_LL_CloseEP,"ax",%progbits
 938              		.align	1
 939              		.global	USBD_LL_CloseEP
 940              		.syntax unified
 941              		.thumb
 942              		.thumb_func
 943              		.fpu fpv4-sp-d16
 945              	USBD_LL_CloseEP:
 946              	.LVL87:
 947              	.LFB151:
 442:USB_DEVICE/Target/usbd_conf.c ****   HAL_StatusTypeDef hal_status = HAL_OK;
 948              		.loc 1 442 1 is_stmt 1 view -0
 949              		.cfi_startproc
 950              		@ args = 0, pretend = 0, frame = 0
 951              		@ frame_needed = 0, uses_anonymous_args = 0
 442:USB_DEVICE/Target/usbd_conf.c ****   HAL_StatusTypeDef hal_status = HAL_OK;
 952              		.loc 1 442 1 is_stmt 0 view .LVU199
 953 0000 08B5     		push	{r3, lr}
 954              	.LCFI21:
 955              		.cfi_def_cfa_offset 8
 956              		.cfi_offset 3, -8
 957              		.cfi_offset 14, -4
 443:USB_DEVICE/Target/usbd_conf.c ****   USBD_StatusTypeDef usb_status = USBD_OK;
 958              		.loc 1 443 3 is_stmt 1 view .LVU200
 959              	.LVL88:
 444:USB_DEVICE/Target/usbd_conf.c **** 
 960              		.loc 1 444 3 view .LVU201
 446:USB_DEVICE/Target/usbd_conf.c **** 
 961              		.loc 1 446 3 view .LVU202
 446:USB_DEVICE/Target/usbd_conf.c **** 
 962              		.loc 1 446 16 is_stmt 0 view .LVU203
 963 0002 D0F8C002 		ldr	r0, [r0, #704]
 964              	.LVL89:
 446:USB_DEVICE/Target/usbd_conf.c **** 
 965              		.loc 1 446 16 view .LVU204
 966 0006 FFF7FEFF 		bl	HAL_PCD_EP_Close
 967              	.LVL90:
 448:USB_DEVICE/Target/usbd_conf.c **** 
 968              		.loc 1 448 3 is_stmt 1 view .LVU205
 448:USB_DEVICE/Target/usbd_conf.c **** 
 969              		.loc 1 448 17 is_stmt 0 view .LVU206
 970 000a FFF7FEFF 		bl	USBD_Get_USB_Status
 971              	.LVL91:
 450:USB_DEVICE/Target/usbd_conf.c **** }
 972              		.loc 1 450 3 is_stmt 1 view .LVU207
 451:USB_DEVICE/Target/usbd_conf.c **** 
 973              		.loc 1 451 1 is_stmt 0 view .LVU208
 974 000e 08BD     		pop	{r3, pc}
 975              		.cfi_endproc
 976              	.LFE151:
 978              		.section	.text.USBD_LL_FlushEP,"ax",%progbits
 979              		.align	1
 980              		.global	USBD_LL_FlushEP
 981              		.syntax unified
 982              		.thumb
ARM GAS  /var/folders/jw/jcj5j9_530958b2rm5vp9wn00000gn/T//ccjxFM1z.s 			page 33


 983              		.thumb_func
 984              		.fpu fpv4-sp-d16
 986              	USBD_LL_FlushEP:
 987              	.LVL92:
 988              	.LFB152:
 460:USB_DEVICE/Target/usbd_conf.c ****   HAL_StatusTypeDef hal_status = HAL_OK;
 989              		.loc 1 460 1 is_stmt 1 view -0
 990              		.cfi_startproc
 991              		@ args = 0, pretend = 0, frame = 0
 992              		@ frame_needed = 0, uses_anonymous_args = 0
 460:USB_DEVICE/Target/usbd_conf.c ****   HAL_StatusTypeDef hal_status = HAL_OK;
 993              		.loc 1 460 1 is_stmt 0 view .LVU210
 994 0000 08B5     		push	{r3, lr}
 995              	.LCFI22:
 996              		.cfi_def_cfa_offset 8
 997              		.cfi_offset 3, -8
 998              		.cfi_offset 14, -4
 461:USB_DEVICE/Target/usbd_conf.c ****   USBD_StatusTypeDef usb_status = USBD_OK;
 999              		.loc 1 461 3 is_stmt 1 view .LVU211
 1000              	.LVL93:
 462:USB_DEVICE/Target/usbd_conf.c **** 
 1001              		.loc 1 462 3 view .LVU212
 464:USB_DEVICE/Target/usbd_conf.c **** 
 1002              		.loc 1 464 3 view .LVU213
 464:USB_DEVICE/Target/usbd_conf.c **** 
 1003              		.loc 1 464 16 is_stmt 0 view .LVU214
 1004 0002 D0F8C002 		ldr	r0, [r0, #704]
 1005              	.LVL94:
 464:USB_DEVICE/Target/usbd_conf.c **** 
 1006              		.loc 1 464 16 view .LVU215
 1007 0006 FFF7FEFF 		bl	HAL_PCD_EP_Flush
 1008              	.LVL95:
 466:USB_DEVICE/Target/usbd_conf.c **** 
 1009              		.loc 1 466 3 is_stmt 1 view .LVU216
 466:USB_DEVICE/Target/usbd_conf.c **** 
 1010              		.loc 1 466 17 is_stmt 0 view .LVU217
 1011 000a FFF7FEFF 		bl	USBD_Get_USB_Status
 1012              	.LVL96:
 468:USB_DEVICE/Target/usbd_conf.c **** }
 1013              		.loc 1 468 3 is_stmt 1 view .LVU218
 469:USB_DEVICE/Target/usbd_conf.c **** 
 1014              		.loc 1 469 1 is_stmt 0 view .LVU219
 1015 000e 08BD     		pop	{r3, pc}
 1016              		.cfi_endproc
 1017              	.LFE152:
 1019              		.section	.text.USBD_LL_StallEP,"ax",%progbits
 1020              		.align	1
 1021              		.global	USBD_LL_StallEP
 1022              		.syntax unified
 1023              		.thumb
 1024              		.thumb_func
 1025              		.fpu fpv4-sp-d16
 1027              	USBD_LL_StallEP:
 1028              	.LVL97:
 1029              	.LFB153:
 478:USB_DEVICE/Target/usbd_conf.c ****   HAL_StatusTypeDef hal_status = HAL_OK;
 1030              		.loc 1 478 1 is_stmt 1 view -0
ARM GAS  /var/folders/jw/jcj5j9_530958b2rm5vp9wn00000gn/T//ccjxFM1z.s 			page 34


 1031              		.cfi_startproc
 1032              		@ args = 0, pretend = 0, frame = 0
 1033              		@ frame_needed = 0, uses_anonymous_args = 0
 478:USB_DEVICE/Target/usbd_conf.c ****   HAL_StatusTypeDef hal_status = HAL_OK;
 1034              		.loc 1 478 1 is_stmt 0 view .LVU221
 1035 0000 08B5     		push	{r3, lr}
 1036              	.LCFI23:
 1037              		.cfi_def_cfa_offset 8
 1038              		.cfi_offset 3, -8
 1039              		.cfi_offset 14, -4
 479:USB_DEVICE/Target/usbd_conf.c ****   USBD_StatusTypeDef usb_status = USBD_OK;
 1040              		.loc 1 479 3 is_stmt 1 view .LVU222
 1041              	.LVL98:
 480:USB_DEVICE/Target/usbd_conf.c **** 
 1042              		.loc 1 480 3 view .LVU223
 482:USB_DEVICE/Target/usbd_conf.c **** 
 1043              		.loc 1 482 3 view .LVU224
 482:USB_DEVICE/Target/usbd_conf.c **** 
 1044              		.loc 1 482 16 is_stmt 0 view .LVU225
 1045 0002 D0F8C002 		ldr	r0, [r0, #704]
 1046              	.LVL99:
 482:USB_DEVICE/Target/usbd_conf.c **** 
 1047              		.loc 1 482 16 view .LVU226
 1048 0006 FFF7FEFF 		bl	HAL_PCD_EP_SetStall
 1049              	.LVL100:
 484:USB_DEVICE/Target/usbd_conf.c **** 
 1050              		.loc 1 484 3 is_stmt 1 view .LVU227
 484:USB_DEVICE/Target/usbd_conf.c **** 
 1051              		.loc 1 484 17 is_stmt 0 view .LVU228
 1052 000a FFF7FEFF 		bl	USBD_Get_USB_Status
 1053              	.LVL101:
 486:USB_DEVICE/Target/usbd_conf.c **** }
 1054              		.loc 1 486 3 is_stmt 1 view .LVU229
 487:USB_DEVICE/Target/usbd_conf.c **** 
 1055              		.loc 1 487 1 is_stmt 0 view .LVU230
 1056 000e 08BD     		pop	{r3, pc}
 1057              		.cfi_endproc
 1058              	.LFE153:
 1060              		.section	.text.USBD_LL_ClearStallEP,"ax",%progbits
 1061              		.align	1
 1062              		.global	USBD_LL_ClearStallEP
 1063              		.syntax unified
 1064              		.thumb
 1065              		.thumb_func
 1066              		.fpu fpv4-sp-d16
 1068              	USBD_LL_ClearStallEP:
 1069              	.LVL102:
 1070              	.LFB154:
 496:USB_DEVICE/Target/usbd_conf.c ****   HAL_StatusTypeDef hal_status = HAL_OK;
 1071              		.loc 1 496 1 is_stmt 1 view -0
 1072              		.cfi_startproc
 1073              		@ args = 0, pretend = 0, frame = 0
 1074              		@ frame_needed = 0, uses_anonymous_args = 0
 496:USB_DEVICE/Target/usbd_conf.c ****   HAL_StatusTypeDef hal_status = HAL_OK;
 1075              		.loc 1 496 1 is_stmt 0 view .LVU232
 1076 0000 08B5     		push	{r3, lr}
 1077              	.LCFI24:
ARM GAS  /var/folders/jw/jcj5j9_530958b2rm5vp9wn00000gn/T//ccjxFM1z.s 			page 35


 1078              		.cfi_def_cfa_offset 8
 1079              		.cfi_offset 3, -8
 1080              		.cfi_offset 14, -4
 497:USB_DEVICE/Target/usbd_conf.c ****   USBD_StatusTypeDef usb_status = USBD_OK;
 1081              		.loc 1 497 3 is_stmt 1 view .LVU233
 1082              	.LVL103:
 498:USB_DEVICE/Target/usbd_conf.c **** 
 1083              		.loc 1 498 3 view .LVU234
 500:USB_DEVICE/Target/usbd_conf.c **** 
 1084              		.loc 1 500 3 view .LVU235
 500:USB_DEVICE/Target/usbd_conf.c **** 
 1085              		.loc 1 500 16 is_stmt 0 view .LVU236
 1086 0002 D0F8C002 		ldr	r0, [r0, #704]
 1087              	.LVL104:
 500:USB_DEVICE/Target/usbd_conf.c **** 
 1088              		.loc 1 500 16 view .LVU237
 1089 0006 FFF7FEFF 		bl	HAL_PCD_EP_ClrStall
 1090              	.LVL105:
 502:USB_DEVICE/Target/usbd_conf.c **** 
 1091              		.loc 1 502 3 is_stmt 1 view .LVU238
 502:USB_DEVICE/Target/usbd_conf.c **** 
 1092              		.loc 1 502 17 is_stmt 0 view .LVU239
 1093 000a FFF7FEFF 		bl	USBD_Get_USB_Status
 1094              	.LVL106:
 504:USB_DEVICE/Target/usbd_conf.c **** }
 1095              		.loc 1 504 3 is_stmt 1 view .LVU240
 505:USB_DEVICE/Target/usbd_conf.c **** 
 1096              		.loc 1 505 1 is_stmt 0 view .LVU241
 1097 000e 08BD     		pop	{r3, pc}
 1098              		.cfi_endproc
 1099              	.LFE154:
 1101              		.section	.text.USBD_LL_IsStallEP,"ax",%progbits
 1102              		.align	1
 1103              		.global	USBD_LL_IsStallEP
 1104              		.syntax unified
 1105              		.thumb
 1106              		.thumb_func
 1107              		.fpu fpv4-sp-d16
 1109              	USBD_LL_IsStallEP:
 1110              	.LVL107:
 1111              	.LFB155:
 514:USB_DEVICE/Target/usbd_conf.c ****   PCD_HandleTypeDef *hpcd = (PCD_HandleTypeDef*) pdev->pData;
 1112              		.loc 1 514 1 is_stmt 1 view -0
 1113              		.cfi_startproc
 1114              		@ args = 0, pretend = 0, frame = 0
 1115              		@ frame_needed = 0, uses_anonymous_args = 0
 1116              		@ link register save eliminated.
 515:USB_DEVICE/Target/usbd_conf.c **** 
 1117              		.loc 1 515 3 view .LVU243
 515:USB_DEVICE/Target/usbd_conf.c **** 
 1118              		.loc 1 515 22 is_stmt 0 view .LVU244
 1119 0000 D0F8C032 		ldr	r3, [r0, #704]
 1120              	.LVL108:
 517:USB_DEVICE/Target/usbd_conf.c ****   {
 1121              		.loc 1 517 3 is_stmt 1 view .LVU245
 517:USB_DEVICE/Target/usbd_conf.c ****   {
 1122              		.loc 1 517 5 is_stmt 0 view .LVU246
ARM GAS  /var/folders/jw/jcj5j9_530958b2rm5vp9wn00000gn/T//ccjxFM1z.s 			page 36


 1123 0004 11F0800F 		tst	r1, #128
 1124 0008 08D1     		bne	.L71
 523:USB_DEVICE/Target/usbd_conf.c ****   }
 1125              		.loc 1 523 5 is_stmt 1 view .LVU247
 523:USB_DEVICE/Target/usbd_conf.c ****   }
 1126              		.loc 1 523 33 is_stmt 0 view .LVU248
 1127 000a 01F07F01 		and	r1, r1, #127
 1128              	.LVL109:
 523:USB_DEVICE/Target/usbd_conf.c ****   }
 1129              		.loc 1 523 40 view .LVU249
 1130 000e 01EB8101 		add	r1, r1, r1, lsl #2
 1131 0012 03EBC101 		add	r1, r3, r1, lsl #3
 1132 0016 91F86A01 		ldrb	r0, [r1, #362]	@ zero_extendqisi2
 1133              	.LVL110:
 525:USB_DEVICE/Target/usbd_conf.c **** 
 1134              		.loc 1 525 1 view .LVU250
 1135 001a 7047     		bx	lr
 1136              	.LVL111:
 1137              	.L71:
 519:USB_DEVICE/Target/usbd_conf.c ****   }
 1138              		.loc 1 519 5 is_stmt 1 view .LVU251
 519:USB_DEVICE/Target/usbd_conf.c ****   }
 1139              		.loc 1 519 32 is_stmt 0 view .LVU252
 1140 001c 01F07F01 		and	r1, r1, #127
 1141              	.LVL112:
 519:USB_DEVICE/Target/usbd_conf.c ****   }
 1142              		.loc 1 519 39 view .LVU253
 1143 0020 0131     		adds	r1, r1, #1
 1144 0022 01EB8101 		add	r1, r1, r1, lsl #2
 1145 0026 03EBC101 		add	r1, r3, r1, lsl #3
 1146 002a 8878     		ldrb	r0, [r1, #2]	@ zero_extendqisi2
 1147              	.LVL113:
 519:USB_DEVICE/Target/usbd_conf.c ****   }
 1148              		.loc 1 519 39 view .LVU254
 1149 002c 7047     		bx	lr
 1150              		.cfi_endproc
 1151              	.LFE155:
 1153              		.section	.text.USBD_LL_SetUSBAddress,"ax",%progbits
 1154              		.align	1
 1155              		.global	USBD_LL_SetUSBAddress
 1156              		.syntax unified
 1157              		.thumb
 1158              		.thumb_func
 1159              		.fpu fpv4-sp-d16
 1161              	USBD_LL_SetUSBAddress:
 1162              	.LVL114:
 1163              	.LFB156:
 534:USB_DEVICE/Target/usbd_conf.c ****   HAL_StatusTypeDef hal_status = HAL_OK;
 1164              		.loc 1 534 1 is_stmt 1 view -0
 1165              		.cfi_startproc
 1166              		@ args = 0, pretend = 0, frame = 0
 1167              		@ frame_needed = 0, uses_anonymous_args = 0
 534:USB_DEVICE/Target/usbd_conf.c ****   HAL_StatusTypeDef hal_status = HAL_OK;
 1168              		.loc 1 534 1 is_stmt 0 view .LVU256
 1169 0000 08B5     		push	{r3, lr}
 1170              	.LCFI25:
 1171              		.cfi_def_cfa_offset 8
ARM GAS  /var/folders/jw/jcj5j9_530958b2rm5vp9wn00000gn/T//ccjxFM1z.s 			page 37


 1172              		.cfi_offset 3, -8
 1173              		.cfi_offset 14, -4
 535:USB_DEVICE/Target/usbd_conf.c ****   USBD_StatusTypeDef usb_status = USBD_OK;
 1174              		.loc 1 535 3 is_stmt 1 view .LVU257
 1175              	.LVL115:
 536:USB_DEVICE/Target/usbd_conf.c **** 
 1176              		.loc 1 536 3 view .LVU258
 538:USB_DEVICE/Target/usbd_conf.c **** 
 1177              		.loc 1 538 3 view .LVU259
 538:USB_DEVICE/Target/usbd_conf.c **** 
 1178              		.loc 1 538 16 is_stmt 0 view .LVU260
 1179 0002 D0F8C002 		ldr	r0, [r0, #704]
 1180              	.LVL116:
 538:USB_DEVICE/Target/usbd_conf.c **** 
 1181              		.loc 1 538 16 view .LVU261
 1182 0006 FFF7FEFF 		bl	HAL_PCD_SetAddress
 1183              	.LVL117:
 540:USB_DEVICE/Target/usbd_conf.c **** 
 1184              		.loc 1 540 3 is_stmt 1 view .LVU262
 540:USB_DEVICE/Target/usbd_conf.c **** 
 1185              		.loc 1 540 17 is_stmt 0 view .LVU263
 1186 000a FFF7FEFF 		bl	USBD_Get_USB_Status
 1187              	.LVL118:
 542:USB_DEVICE/Target/usbd_conf.c **** }
 1188              		.loc 1 542 3 is_stmt 1 view .LVU264
 543:USB_DEVICE/Target/usbd_conf.c **** 
 1189              		.loc 1 543 1 is_stmt 0 view .LVU265
 1190 000e 08BD     		pop	{r3, pc}
 1191              		.cfi_endproc
 1192              	.LFE156:
 1194              		.section	.text.USBD_LL_Transmit,"ax",%progbits
 1195              		.align	1
 1196              		.global	USBD_LL_Transmit
 1197              		.syntax unified
 1198              		.thumb
 1199              		.thumb_func
 1200              		.fpu fpv4-sp-d16
 1202              	USBD_LL_Transmit:
 1203              	.LVL119:
 1204              	.LFB157:
 554:USB_DEVICE/Target/usbd_conf.c ****   HAL_StatusTypeDef hal_status = HAL_OK;
 1205              		.loc 1 554 1 is_stmt 1 view -0
 1206              		.cfi_startproc
 1207              		@ args = 0, pretend = 0, frame = 0
 1208              		@ frame_needed = 0, uses_anonymous_args = 0
 554:USB_DEVICE/Target/usbd_conf.c ****   HAL_StatusTypeDef hal_status = HAL_OK;
 1209              		.loc 1 554 1 is_stmt 0 view .LVU267
 1210 0000 08B5     		push	{r3, lr}
 1211              	.LCFI26:
 1212              		.cfi_def_cfa_offset 8
 1213              		.cfi_offset 3, -8
 1214              		.cfi_offset 14, -4
 555:USB_DEVICE/Target/usbd_conf.c ****   USBD_StatusTypeDef usb_status = USBD_OK;
 1215              		.loc 1 555 3 is_stmt 1 view .LVU268
 1216              	.LVL120:
 556:USB_DEVICE/Target/usbd_conf.c **** 
 1217              		.loc 1 556 3 view .LVU269
ARM GAS  /var/folders/jw/jcj5j9_530958b2rm5vp9wn00000gn/T//ccjxFM1z.s 			page 38


 558:USB_DEVICE/Target/usbd_conf.c **** 
 1218              		.loc 1 558 3 view .LVU270
 558:USB_DEVICE/Target/usbd_conf.c **** 
 1219              		.loc 1 558 16 is_stmt 0 view .LVU271
 1220 0002 D0F8C002 		ldr	r0, [r0, #704]
 1221              	.LVL121:
 558:USB_DEVICE/Target/usbd_conf.c **** 
 1222              		.loc 1 558 16 view .LVU272
 1223 0006 FFF7FEFF 		bl	HAL_PCD_EP_Transmit
 1224              	.LVL122:
 560:USB_DEVICE/Target/usbd_conf.c **** 
 1225              		.loc 1 560 3 is_stmt 1 view .LVU273
 560:USB_DEVICE/Target/usbd_conf.c **** 
 1226              		.loc 1 560 17 is_stmt 0 view .LVU274
 1227 000a FFF7FEFF 		bl	USBD_Get_USB_Status
 1228              	.LVL123:
 562:USB_DEVICE/Target/usbd_conf.c **** }
 1229              		.loc 1 562 3 is_stmt 1 view .LVU275
 563:USB_DEVICE/Target/usbd_conf.c **** 
 1230              		.loc 1 563 1 is_stmt 0 view .LVU276
 1231 000e 08BD     		pop	{r3, pc}
 1232              		.cfi_endproc
 1233              	.LFE157:
 1235              		.section	.text.USBD_LL_PrepareReceive,"ax",%progbits
 1236              		.align	1
 1237              		.global	USBD_LL_PrepareReceive
 1238              		.syntax unified
 1239              		.thumb
 1240              		.thumb_func
 1241              		.fpu fpv4-sp-d16
 1243              	USBD_LL_PrepareReceive:
 1244              	.LVL124:
 1245              	.LFB158:
 574:USB_DEVICE/Target/usbd_conf.c ****   HAL_StatusTypeDef hal_status = HAL_OK;
 1246              		.loc 1 574 1 is_stmt 1 view -0
 1247              		.cfi_startproc
 1248              		@ args = 0, pretend = 0, frame = 0
 1249              		@ frame_needed = 0, uses_anonymous_args = 0
 574:USB_DEVICE/Target/usbd_conf.c ****   HAL_StatusTypeDef hal_status = HAL_OK;
 1250              		.loc 1 574 1 is_stmt 0 view .LVU278
 1251 0000 08B5     		push	{r3, lr}
 1252              	.LCFI27:
 1253              		.cfi_def_cfa_offset 8
 1254              		.cfi_offset 3, -8
 1255              		.cfi_offset 14, -4
 575:USB_DEVICE/Target/usbd_conf.c ****   USBD_StatusTypeDef usb_status = USBD_OK;
 1256              		.loc 1 575 3 is_stmt 1 view .LVU279
 1257              	.LVL125:
 576:USB_DEVICE/Target/usbd_conf.c **** 
 1258              		.loc 1 576 3 view .LVU280
 578:USB_DEVICE/Target/usbd_conf.c **** 
 1259              		.loc 1 578 3 view .LVU281
 578:USB_DEVICE/Target/usbd_conf.c **** 
 1260              		.loc 1 578 16 is_stmt 0 view .LVU282
 1261 0002 D0F8C002 		ldr	r0, [r0, #704]
 1262              	.LVL126:
 578:USB_DEVICE/Target/usbd_conf.c **** 
ARM GAS  /var/folders/jw/jcj5j9_530958b2rm5vp9wn00000gn/T//ccjxFM1z.s 			page 39


 1263              		.loc 1 578 16 view .LVU283
 1264 0006 FFF7FEFF 		bl	HAL_PCD_EP_Receive
 1265              	.LVL127:
 580:USB_DEVICE/Target/usbd_conf.c **** 
 1266              		.loc 1 580 3 is_stmt 1 view .LVU284
 580:USB_DEVICE/Target/usbd_conf.c **** 
 1267              		.loc 1 580 17 is_stmt 0 view .LVU285
 1268 000a FFF7FEFF 		bl	USBD_Get_USB_Status
 1269              	.LVL128:
 582:USB_DEVICE/Target/usbd_conf.c **** }
 1270              		.loc 1 582 3 is_stmt 1 view .LVU286
 583:USB_DEVICE/Target/usbd_conf.c **** 
 1271              		.loc 1 583 1 is_stmt 0 view .LVU287
 1272 000e 08BD     		pop	{r3, pc}
 1273              		.cfi_endproc
 1274              	.LFE158:
 1276              		.section	.text.USBD_LL_GetRxDataSize,"ax",%progbits
 1277              		.align	1
 1278              		.global	USBD_LL_GetRxDataSize
 1279              		.syntax unified
 1280              		.thumb
 1281              		.thumb_func
 1282              		.fpu fpv4-sp-d16
 1284              	USBD_LL_GetRxDataSize:
 1285              	.LVL129:
 1286              	.LFB159:
 592:USB_DEVICE/Target/usbd_conf.c ****   return HAL_PCD_EP_GetRxCount((PCD_HandleTypeDef*) pdev->pData, ep_addr);
 1287              		.loc 1 592 1 is_stmt 1 view -0
 1288              		.cfi_startproc
 1289              		@ args = 0, pretend = 0, frame = 0
 1290              		@ frame_needed = 0, uses_anonymous_args = 0
 592:USB_DEVICE/Target/usbd_conf.c ****   return HAL_PCD_EP_GetRxCount((PCD_HandleTypeDef*) pdev->pData, ep_addr);
 1291              		.loc 1 592 1 is_stmt 0 view .LVU289
 1292 0000 08B5     		push	{r3, lr}
 1293              	.LCFI28:
 1294              		.cfi_def_cfa_offset 8
 1295              		.cfi_offset 3, -8
 1296              		.cfi_offset 14, -4
 593:USB_DEVICE/Target/usbd_conf.c **** }
 1297              		.loc 1 593 3 is_stmt 1 view .LVU290
 593:USB_DEVICE/Target/usbd_conf.c **** }
 1298              		.loc 1 593 10 is_stmt 0 view .LVU291
 1299 0002 D0F8C002 		ldr	r0, [r0, #704]
 1300              	.LVL130:
 593:USB_DEVICE/Target/usbd_conf.c **** }
 1301              		.loc 1 593 10 view .LVU292
 1302 0006 FFF7FEFF 		bl	HAL_PCD_EP_GetRxCount
 1303              	.LVL131:
 594:USB_DEVICE/Target/usbd_conf.c **** 
 1304              		.loc 1 594 1 view .LVU293
 1305 000a 08BD     		pop	{r3, pc}
 1306              		.cfi_endproc
 1307              	.LFE159:
 1309              		.section	.text.USBD_LL_Delay,"ax",%progbits
 1310              		.align	1
 1311              		.global	USBD_LL_Delay
 1312              		.syntax unified
ARM GAS  /var/folders/jw/jcj5j9_530958b2rm5vp9wn00000gn/T//ccjxFM1z.s 			page 40


 1313              		.thumb
 1314              		.thumb_func
 1315              		.fpu fpv4-sp-d16
 1317              	USBD_LL_Delay:
 1318              	.LVL132:
 1319              	.LFB160:
 602:USB_DEVICE/Target/usbd_conf.c ****   HAL_Delay(Delay);
 1320              		.loc 1 602 1 is_stmt 1 view -0
 1321              		.cfi_startproc
 1322              		@ args = 0, pretend = 0, frame = 0
 1323              		@ frame_needed = 0, uses_anonymous_args = 0
 602:USB_DEVICE/Target/usbd_conf.c ****   HAL_Delay(Delay);
 1324              		.loc 1 602 1 is_stmt 0 view .LVU295
 1325 0000 08B5     		push	{r3, lr}
 1326              	.LCFI29:
 1327              		.cfi_def_cfa_offset 8
 1328              		.cfi_offset 3, -8
 1329              		.cfi_offset 14, -4
 603:USB_DEVICE/Target/usbd_conf.c **** }
 1330              		.loc 1 603 3 is_stmt 1 view .LVU296
 1331 0002 FFF7FEFF 		bl	HAL_Delay
 1332              	.LVL133:
 604:USB_DEVICE/Target/usbd_conf.c **** 
 1333              		.loc 1 604 1 is_stmt 0 view .LVU297
 1334 0006 08BD     		pop	{r3, pc}
 1335              		.cfi_endproc
 1336              	.LFE160:
 1338              		.section	.text.USBD_static_malloc,"ax",%progbits
 1339              		.align	1
 1340              		.global	USBD_static_malloc
 1341              		.syntax unified
 1342              		.thumb
 1343              		.thumb_func
 1344              		.fpu fpv4-sp-d16
 1346              	USBD_static_malloc:
 1347              	.LVL134:
 1348              	.LFB161:
 612:USB_DEVICE/Target/usbd_conf.c ****   static uint32_t mem[(sizeof(USBD_CDC_HandleTypeDef)/4)+1];/* On 32-bit boundary */
 1349              		.loc 1 612 1 is_stmt 1 view -0
 1350              		.cfi_startproc
 1351              		@ args = 0, pretend = 0, frame = 0
 1352              		@ frame_needed = 0, uses_anonymous_args = 0
 1353              		@ link register save eliminated.
 613:USB_DEVICE/Target/usbd_conf.c ****   return mem;
 1354              		.loc 1 613 3 view .LVU299
 614:USB_DEVICE/Target/usbd_conf.c **** }
 1355              		.loc 1 614 3 view .LVU300
 615:USB_DEVICE/Target/usbd_conf.c **** 
 1356              		.loc 1 615 1 is_stmt 0 view .LVU301
 1357 0000 0048     		ldr	r0, .L83
 1358              	.LVL135:
 615:USB_DEVICE/Target/usbd_conf.c **** 
 1359              		.loc 1 615 1 view .LVU302
 1360 0002 7047     		bx	lr
 1361              	.L84:
 1362              		.align	2
 1363              	.L83:
ARM GAS  /var/folders/jw/jcj5j9_530958b2rm5vp9wn00000gn/T//ccjxFM1z.s 			page 41


 1364 0004 00000000 		.word	.LANCHOR0
 1365              		.cfi_endproc
 1366              	.LFE161:
 1368              		.section	.text.USBD_static_free,"ax",%progbits
 1369              		.align	1
 1370              		.global	USBD_static_free
 1371              		.syntax unified
 1372              		.thumb
 1373              		.thumb_func
 1374              		.fpu fpv4-sp-d16
 1376              	USBD_static_free:
 1377              	.LVL136:
 1378              	.LFB162:
 623:USB_DEVICE/Target/usbd_conf.c **** 
 1379              		.loc 1 623 1 is_stmt 1 view -0
 1380              		.cfi_startproc
 1381              		@ args = 0, pretend = 0, frame = 0
 1382              		@ frame_needed = 0, uses_anonymous_args = 0
 1383              		@ link register save eliminated.
 625:USB_DEVICE/Target/usbd_conf.c **** 
 1384              		.loc 1 625 1 view .LVU304
 1385 0000 7047     		bx	lr
 1386              		.cfi_endproc
 1387              	.LFE162:
 1389              		.section	.text.HAL_PCDEx_SetConnectionState,"ax",%progbits
 1390              		.align	1
 1391              		.global	HAL_PCDEx_SetConnectionState
 1392              		.syntax unified
 1393              		.thumb
 1394              		.thumb_func
 1395              		.fpu fpv4-sp-d16
 1397              	HAL_PCDEx_SetConnectionState:
 1398              	.LVL137:
 1399              	.LFB163:
 638:USB_DEVICE/Target/usbd_conf.c ****   /* USER CODE BEGIN 6 */
 1400              		.loc 1 638 1 view -0
 1401              		.cfi_startproc
 1402              		@ args = 0, pretend = 0, frame = 0
 1403              		@ frame_needed = 0, uses_anonymous_args = 0
 1404              		@ link register save eliminated.
 640:USB_DEVICE/Target/usbd_conf.c ****   {
 1405              		.loc 1 640 3 view .LVU306
 649:USB_DEVICE/Target/usbd_conf.c ****   /* USER CODE END 6 */
 1406              		.loc 1 649 3 view .LVU307
 651:USB_DEVICE/Target/usbd_conf.c **** 
 1407              		.loc 1 651 1 is_stmt 0 view .LVU308
 1408 0000 7047     		bx	lr
 1409              		.cfi_endproc
 1410              	.LFE163:
 1412              		.comm	hpcd_USB_FS,748,4
 1413              		.section	.bss.mem.11294,"aw",%nobits
 1414              		.align	2
 1415              		.set	.LANCHOR0,. + 0
 1418              	mem.11294:
 1419 0000 00000000 		.space	544
 1419      00000000 
 1419      00000000 
ARM GAS  /var/folders/jw/jcj5j9_530958b2rm5vp9wn00000gn/T//ccjxFM1z.s 			page 42


 1419      00000000 
 1419      00000000 
 1420              		.text
 1421              	.Letext0:
 1422              		.file 2 "/Users/javier/Library/xPacks/@xpack-dev-tools/arm-none-eabi-gcc/9.3.1-1.4.1/.content/arm-
 1423              		.file 3 "/Users/javier/Library/xPacks/@xpack-dev-tools/arm-none-eabi-gcc/9.3.1-1.4.1/.content/arm-
 1424              		.file 4 "Drivers/CMSIS/Include/core_cm4.h"
 1425              		.file 5 "Drivers/CMSIS/Device/ST/STM32F3xx/Include/system_stm32f3xx.h"
 1426              		.file 6 "Drivers/CMSIS/Device/ST/STM32F3xx/Include/stm32f373xc.h"
 1427              		.file 7 "Drivers/CMSIS/Device/ST/STM32F3xx/Include/stm32f3xx.h"
 1428              		.file 8 "Drivers/STM32F3xx_HAL_Driver/Inc/stm32f3xx_hal_def.h"
 1429              		.file 9 "Drivers/STM32F3xx_HAL_Driver/Inc/stm32f3xx_hal_gpio.h"
 1430              		.file 10 "Drivers/STM32F3xx_HAL_Driver/Inc/stm32f3xx_ll_usb.h"
 1431              		.file 11 "Drivers/STM32F3xx_HAL_Driver/Inc/stm32f3xx_hal_pcd.h"
 1432              		.file 12 "Drivers/STM32F3xx_HAL_Driver/Inc/stm32f3xx_hal.h"
 1433              		.file 13 "/Users/javier/Library/xPacks/@xpack-dev-tools/arm-none-eabi-gcc/9.3.1-1.4.1/.content/lib
 1434              		.file 14 "/Users/javier/Library/xPacks/@xpack-dev-tools/arm-none-eabi-gcc/9.3.1-1.4.1/.content/arm
 1435              		.file 15 "/Users/javier/Library/xPacks/@xpack-dev-tools/arm-none-eabi-gcc/9.3.1-1.4.1/.content/arm
 1436              		.file 16 "/Users/javier/Library/xPacks/@xpack-dev-tools/arm-none-eabi-gcc/9.3.1-1.4.1/.content/arm
 1437              		.file 17 "/Users/javier/Library/xPacks/@xpack-dev-tools/arm-none-eabi-gcc/9.3.1-1.4.1/.content/arm
 1438              		.file 18 "Middlewares/ST/STM32_USB_Device_Library/Core/Inc/usbd_def.h"
 1439              		.file 19 "Middlewares/ST/STM32_USB_Device_Library/Class/CDC/Inc/usbd_cdc.h"
 1440              		.file 20 "Drivers/STM32F3xx_HAL_Driver/Inc/stm32f3xx_hal_pcd_ex.h"
 1441              		.file 21 "Middlewares/ST/STM32_USB_Device_Library/Core/Inc/usbd_core.h"
 1442              		.file 22 "Drivers/STM32F3xx_HAL_Driver/Inc/stm32f3xx_hal_cortex.h"
ARM GAS  /var/folders/jw/jcj5j9_530958b2rm5vp9wn00000gn/T//ccjxFM1z.s 			page 43

